ARM GAS  /tmp/ccQGQFth.s 			page 1


   1              		.cpu cortex-m4
   2              		.eabi_attribute 27, 1
   3              		.eabi_attribute 28, 1
   4              		.eabi_attribute 20, 1
   5              		.eabi_attribute 21, 1
   6              		.eabi_attribute 23, 3
   7              		.eabi_attribute 24, 1
   8              		.eabi_attribute 25, 1
   9              		.eabi_attribute 26, 1
  10              		.eabi_attribute 30, 2
  11              		.eabi_attribute 34, 1
  12              		.eabi_attribute 18, 4
  13              		.file	"cmsis_os2.c"
  14              		.text
  15              	.Ltext0:
  16              		.cfi_sections	.debug_frame
  17              		.section	.text.TimerCallback,"ax",%progbits
  18              		.align	1
  19              		.p2align 2,,3
  20              		.arch armv7e-m
  21              		.syntax unified
  22              		.thumb
  23              		.thumb_func
  24              		.fpu fpv4-sp-d16
  26              	TimerCallback:
  27              	.LVL0:
  28              	.LFB140:
  29              		.file 1 "Middlewares/Third_Party/FreeRTOS/Source/CMSIS_RTOS_V2/cmsis_os2.c"
   1:Middlewares/Third_Party/FreeRTOS/Source/CMSIS_RTOS_V2/cmsis_os2.c **** /* --------------------------------------------------------------------------
   2:Middlewares/Third_Party/FreeRTOS/Source/CMSIS_RTOS_V2/cmsis_os2.c ****  * Portions Copyright © 2019 STMicroelectronics International N.V. All rights reserved.
   3:Middlewares/Third_Party/FreeRTOS/Source/CMSIS_RTOS_V2/cmsis_os2.c ****  * Copyright (c) 2013-2019 Arm Limited. All rights reserved.
   4:Middlewares/Third_Party/FreeRTOS/Source/CMSIS_RTOS_V2/cmsis_os2.c ****  *
   5:Middlewares/Third_Party/FreeRTOS/Source/CMSIS_RTOS_V2/cmsis_os2.c ****  * SPDX-License-Identifier: Apache-2.0
   6:Middlewares/Third_Party/FreeRTOS/Source/CMSIS_RTOS_V2/cmsis_os2.c ****  *
   7:Middlewares/Third_Party/FreeRTOS/Source/CMSIS_RTOS_V2/cmsis_os2.c ****  * Licensed under the Apache License, Version 2.0 (the License); you may
   8:Middlewares/Third_Party/FreeRTOS/Source/CMSIS_RTOS_V2/cmsis_os2.c ****  * not use this file except in compliance with the License.
   9:Middlewares/Third_Party/FreeRTOS/Source/CMSIS_RTOS_V2/cmsis_os2.c ****  * You may obtain a copy of the License at
  10:Middlewares/Third_Party/FreeRTOS/Source/CMSIS_RTOS_V2/cmsis_os2.c ****  *
  11:Middlewares/Third_Party/FreeRTOS/Source/CMSIS_RTOS_V2/cmsis_os2.c ****  * www.apache.org/licenses/LICENSE-2.0
  12:Middlewares/Third_Party/FreeRTOS/Source/CMSIS_RTOS_V2/cmsis_os2.c ****  *
  13:Middlewares/Third_Party/FreeRTOS/Source/CMSIS_RTOS_V2/cmsis_os2.c ****  * Unless required by applicable law or agreed to in writing, software
  14:Middlewares/Third_Party/FreeRTOS/Source/CMSIS_RTOS_V2/cmsis_os2.c ****  * distributed under the License is distributed on an AS IS BASIS, WITHOUT
  15:Middlewares/Third_Party/FreeRTOS/Source/CMSIS_RTOS_V2/cmsis_os2.c ****  * WARRANTIES OR CONDITIONS OF ANY KIND, either express or implied.
  16:Middlewares/Third_Party/FreeRTOS/Source/CMSIS_RTOS_V2/cmsis_os2.c ****  * See the License for the specific language governing permissions and
  17:Middlewares/Third_Party/FreeRTOS/Source/CMSIS_RTOS_V2/cmsis_os2.c ****  * limitations under the License.
  18:Middlewares/Third_Party/FreeRTOS/Source/CMSIS_RTOS_V2/cmsis_os2.c ****  *
  19:Middlewares/Third_Party/FreeRTOS/Source/CMSIS_RTOS_V2/cmsis_os2.c ****  *      Name:    cmsis_os2.c
  20:Middlewares/Third_Party/FreeRTOS/Source/CMSIS_RTOS_V2/cmsis_os2.c ****  *      Purpose: CMSIS RTOS2 wrapper for FreeRTOS
  21:Middlewares/Third_Party/FreeRTOS/Source/CMSIS_RTOS_V2/cmsis_os2.c ****  *
  22:Middlewares/Third_Party/FreeRTOS/Source/CMSIS_RTOS_V2/cmsis_os2.c ****  *---------------------------------------------------------------------------*/
  23:Middlewares/Third_Party/FreeRTOS/Source/CMSIS_RTOS_V2/cmsis_os2.c **** 
  24:Middlewares/Third_Party/FreeRTOS/Source/CMSIS_RTOS_V2/cmsis_os2.c **** #include <string.h>
  25:Middlewares/Third_Party/FreeRTOS/Source/CMSIS_RTOS_V2/cmsis_os2.c **** 
  26:Middlewares/Third_Party/FreeRTOS/Source/CMSIS_RTOS_V2/cmsis_os2.c **** #include "cmsis_os2.h"                  // ::CMSIS:RTOS2
  27:Middlewares/Third_Party/FreeRTOS/Source/CMSIS_RTOS_V2/cmsis_os2.c **** #include "cmsis_compiler.h"
  28:Middlewares/Third_Party/FreeRTOS/Source/CMSIS_RTOS_V2/cmsis_os2.c **** 
  29:Middlewares/Third_Party/FreeRTOS/Source/CMSIS_RTOS_V2/cmsis_os2.c **** #include "FreeRTOS.h"                   // ARM.FreeRTOS::RTOS:Core
ARM GAS  /tmp/ccQGQFth.s 			page 2


  30:Middlewares/Third_Party/FreeRTOS/Source/CMSIS_RTOS_V2/cmsis_os2.c **** #include "task.h"                       // ARM.FreeRTOS::RTOS:Core
  31:Middlewares/Third_Party/FreeRTOS/Source/CMSIS_RTOS_V2/cmsis_os2.c **** #include "event_groups.h"               // ARM.FreeRTOS::RTOS:Event Groups
  32:Middlewares/Third_Party/FreeRTOS/Source/CMSIS_RTOS_V2/cmsis_os2.c **** #include "semphr.h"                     // ARM.FreeRTOS::RTOS:Core
  33:Middlewares/Third_Party/FreeRTOS/Source/CMSIS_RTOS_V2/cmsis_os2.c **** 
  34:Middlewares/Third_Party/FreeRTOS/Source/CMSIS_RTOS_V2/cmsis_os2.c **** /*---------------------------------------------------------------------------*/
  35:Middlewares/Third_Party/FreeRTOS/Source/CMSIS_RTOS_V2/cmsis_os2.c **** #ifndef __ARM_ARCH_6M__
  36:Middlewares/Third_Party/FreeRTOS/Source/CMSIS_RTOS_V2/cmsis_os2.c ****   #define __ARM_ARCH_6M__         0
  37:Middlewares/Third_Party/FreeRTOS/Source/CMSIS_RTOS_V2/cmsis_os2.c **** #endif
  38:Middlewares/Third_Party/FreeRTOS/Source/CMSIS_RTOS_V2/cmsis_os2.c **** #ifndef __ARM_ARCH_7M__
  39:Middlewares/Third_Party/FreeRTOS/Source/CMSIS_RTOS_V2/cmsis_os2.c ****   #define __ARM_ARCH_7M__         0
  40:Middlewares/Third_Party/FreeRTOS/Source/CMSIS_RTOS_V2/cmsis_os2.c **** #endif
  41:Middlewares/Third_Party/FreeRTOS/Source/CMSIS_RTOS_V2/cmsis_os2.c **** #ifndef __ARM_ARCH_7EM__
  42:Middlewares/Third_Party/FreeRTOS/Source/CMSIS_RTOS_V2/cmsis_os2.c ****   #define __ARM_ARCH_7EM__        0
  43:Middlewares/Third_Party/FreeRTOS/Source/CMSIS_RTOS_V2/cmsis_os2.c **** #endif
  44:Middlewares/Third_Party/FreeRTOS/Source/CMSIS_RTOS_V2/cmsis_os2.c **** #ifndef __ARM_ARCH_8M_MAIN__
  45:Middlewares/Third_Party/FreeRTOS/Source/CMSIS_RTOS_V2/cmsis_os2.c ****   #define __ARM_ARCH_8M_MAIN__    0
  46:Middlewares/Third_Party/FreeRTOS/Source/CMSIS_RTOS_V2/cmsis_os2.c **** #endif
  47:Middlewares/Third_Party/FreeRTOS/Source/CMSIS_RTOS_V2/cmsis_os2.c **** #ifndef __ARM_ARCH_7A__
  48:Middlewares/Third_Party/FreeRTOS/Source/CMSIS_RTOS_V2/cmsis_os2.c ****   #define __ARM_ARCH_7A__         0
  49:Middlewares/Third_Party/FreeRTOS/Source/CMSIS_RTOS_V2/cmsis_os2.c **** #endif
  50:Middlewares/Third_Party/FreeRTOS/Source/CMSIS_RTOS_V2/cmsis_os2.c **** 
  51:Middlewares/Third_Party/FreeRTOS/Source/CMSIS_RTOS_V2/cmsis_os2.c **** #if   ((__ARM_ARCH_7M__      == 1U) || \
  52:Middlewares/Third_Party/FreeRTOS/Source/CMSIS_RTOS_V2/cmsis_os2.c ****        (__ARM_ARCH_7EM__     == 1U) || \
  53:Middlewares/Third_Party/FreeRTOS/Source/CMSIS_RTOS_V2/cmsis_os2.c ****        (__ARM_ARCH_8M_MAIN__ == 1U))
  54:Middlewares/Third_Party/FreeRTOS/Source/CMSIS_RTOS_V2/cmsis_os2.c **** #define IS_IRQ_MASKED()           ((__get_PRIMASK() != 0U) || (__get_BASEPRI() != 0U))
  55:Middlewares/Third_Party/FreeRTOS/Source/CMSIS_RTOS_V2/cmsis_os2.c **** #elif  (__ARM_ARCH_6M__      == 1U)
  56:Middlewares/Third_Party/FreeRTOS/Source/CMSIS_RTOS_V2/cmsis_os2.c **** #define IS_IRQ_MASKED()           (__get_PRIMASK() != 0U)
  57:Middlewares/Third_Party/FreeRTOS/Source/CMSIS_RTOS_V2/cmsis_os2.c **** #elif (__ARM_ARCH_7A__       == 1U)
  58:Middlewares/Third_Party/FreeRTOS/Source/CMSIS_RTOS_V2/cmsis_os2.c **** /* CPSR mask bits */
  59:Middlewares/Third_Party/FreeRTOS/Source/CMSIS_RTOS_V2/cmsis_os2.c **** #define CPSR_MASKBIT_I            0x80U
  60:Middlewares/Third_Party/FreeRTOS/Source/CMSIS_RTOS_V2/cmsis_os2.c **** 
  61:Middlewares/Third_Party/FreeRTOS/Source/CMSIS_RTOS_V2/cmsis_os2.c **** #define IS_IRQ_MASKED()           ((__get_CPSR() & CPSR_MASKBIT_I) != 0U)
  62:Middlewares/Third_Party/FreeRTOS/Source/CMSIS_RTOS_V2/cmsis_os2.c **** #else
  63:Middlewares/Third_Party/FreeRTOS/Source/CMSIS_RTOS_V2/cmsis_os2.c **** #define IS_IRQ_MASKED()           (__get_PRIMASK() != 0U)
  64:Middlewares/Third_Party/FreeRTOS/Source/CMSIS_RTOS_V2/cmsis_os2.c **** #endif
  65:Middlewares/Third_Party/FreeRTOS/Source/CMSIS_RTOS_V2/cmsis_os2.c **** 
  66:Middlewares/Third_Party/FreeRTOS/Source/CMSIS_RTOS_V2/cmsis_os2.c **** #if    (__ARM_ARCH_7A__      == 1U)
  67:Middlewares/Third_Party/FreeRTOS/Source/CMSIS_RTOS_V2/cmsis_os2.c **** /* CPSR mode bitmasks */
  68:Middlewares/Third_Party/FreeRTOS/Source/CMSIS_RTOS_V2/cmsis_os2.c **** #define CPSR_MODE_USER            0x10U
  69:Middlewares/Third_Party/FreeRTOS/Source/CMSIS_RTOS_V2/cmsis_os2.c **** #define CPSR_MODE_SYSTEM          0x1FU
  70:Middlewares/Third_Party/FreeRTOS/Source/CMSIS_RTOS_V2/cmsis_os2.c **** 
  71:Middlewares/Third_Party/FreeRTOS/Source/CMSIS_RTOS_V2/cmsis_os2.c **** #define IS_IRQ_MODE()             ((__get_mode() != CPSR_MODE_USER) && (__get_mode() != CPSR_MODE_S
  72:Middlewares/Third_Party/FreeRTOS/Source/CMSIS_RTOS_V2/cmsis_os2.c **** #else
  73:Middlewares/Third_Party/FreeRTOS/Source/CMSIS_RTOS_V2/cmsis_os2.c **** #define IS_IRQ_MODE()             (__get_IPSR() != 0U)
  74:Middlewares/Third_Party/FreeRTOS/Source/CMSIS_RTOS_V2/cmsis_os2.c **** #endif
  75:Middlewares/Third_Party/FreeRTOS/Source/CMSIS_RTOS_V2/cmsis_os2.c **** 
  76:Middlewares/Third_Party/FreeRTOS/Source/CMSIS_RTOS_V2/cmsis_os2.c **** #define IS_IRQ()                  (IS_IRQ_MODE() || (IS_IRQ_MASKED() && (KernelState == osKernelRun
  77:Middlewares/Third_Party/FreeRTOS/Source/CMSIS_RTOS_V2/cmsis_os2.c **** 
  78:Middlewares/Third_Party/FreeRTOS/Source/CMSIS_RTOS_V2/cmsis_os2.c **** /* Limits */
  79:Middlewares/Third_Party/FreeRTOS/Source/CMSIS_RTOS_V2/cmsis_os2.c **** #define MAX_BITS_TASK_NOTIFY      31U
  80:Middlewares/Third_Party/FreeRTOS/Source/CMSIS_RTOS_V2/cmsis_os2.c **** #define MAX_BITS_EVENT_GROUPS     24U
  81:Middlewares/Third_Party/FreeRTOS/Source/CMSIS_RTOS_V2/cmsis_os2.c **** 
  82:Middlewares/Third_Party/FreeRTOS/Source/CMSIS_RTOS_V2/cmsis_os2.c **** #define THREAD_FLAGS_INVALID_BITS (~((1UL << MAX_BITS_TASK_NOTIFY)  - 1U))
  83:Middlewares/Third_Party/FreeRTOS/Source/CMSIS_RTOS_V2/cmsis_os2.c **** #define EVENT_FLAGS_INVALID_BITS  (~((1UL << MAX_BITS_EVENT_GROUPS) - 1U))
  84:Middlewares/Third_Party/FreeRTOS/Source/CMSIS_RTOS_V2/cmsis_os2.c **** 
  85:Middlewares/Third_Party/FreeRTOS/Source/CMSIS_RTOS_V2/cmsis_os2.c **** /* Kernel version and identification string definition (major.minor.rev: mmnnnrrrr dec) */
  86:Middlewares/Third_Party/FreeRTOS/Source/CMSIS_RTOS_V2/cmsis_os2.c **** #define KERNEL_VERSION            (((uint32_t)tskKERNEL_VERSION_MAJOR * 10000000UL) | \
ARM GAS  /tmp/ccQGQFth.s 			page 3


  87:Middlewares/Third_Party/FreeRTOS/Source/CMSIS_RTOS_V2/cmsis_os2.c ****                                    ((uint32_t)tskKERNEL_VERSION_MINOR *    10000UL) | \
  88:Middlewares/Third_Party/FreeRTOS/Source/CMSIS_RTOS_V2/cmsis_os2.c ****                                    ((uint32_t)tskKERNEL_VERSION_BUILD *        1UL))
  89:Middlewares/Third_Party/FreeRTOS/Source/CMSIS_RTOS_V2/cmsis_os2.c **** 
  90:Middlewares/Third_Party/FreeRTOS/Source/CMSIS_RTOS_V2/cmsis_os2.c **** #define KERNEL_ID                 ("FreeRTOS " tskKERNEL_VERSION_NUMBER)
  91:Middlewares/Third_Party/FreeRTOS/Source/CMSIS_RTOS_V2/cmsis_os2.c **** 
  92:Middlewares/Third_Party/FreeRTOS/Source/CMSIS_RTOS_V2/cmsis_os2.c **** /* Timer callback information structure definition */
  93:Middlewares/Third_Party/FreeRTOS/Source/CMSIS_RTOS_V2/cmsis_os2.c **** typedef struct {
  94:Middlewares/Third_Party/FreeRTOS/Source/CMSIS_RTOS_V2/cmsis_os2.c ****   osTimerFunc_t func;
  95:Middlewares/Third_Party/FreeRTOS/Source/CMSIS_RTOS_V2/cmsis_os2.c ****   void         *arg;
  96:Middlewares/Third_Party/FreeRTOS/Source/CMSIS_RTOS_V2/cmsis_os2.c **** } TimerCallback_t;
  97:Middlewares/Third_Party/FreeRTOS/Source/CMSIS_RTOS_V2/cmsis_os2.c **** 
  98:Middlewares/Third_Party/FreeRTOS/Source/CMSIS_RTOS_V2/cmsis_os2.c **** /* Kernel initialization state */
  99:Middlewares/Third_Party/FreeRTOS/Source/CMSIS_RTOS_V2/cmsis_os2.c **** static osKernelState_t KernelState = osKernelInactive;
 100:Middlewares/Third_Party/FreeRTOS/Source/CMSIS_RTOS_V2/cmsis_os2.c **** 
 101:Middlewares/Third_Party/FreeRTOS/Source/CMSIS_RTOS_V2/cmsis_os2.c **** /*
 102:Middlewares/Third_Party/FreeRTOS/Source/CMSIS_RTOS_V2/cmsis_os2.c ****   Heap region definition used by heap_5 variant
 103:Middlewares/Third_Party/FreeRTOS/Source/CMSIS_RTOS_V2/cmsis_os2.c **** 
 104:Middlewares/Third_Party/FreeRTOS/Source/CMSIS_RTOS_V2/cmsis_os2.c ****   Define configAPPLICATION_ALLOCATED_HEAP as nonzero value in FreeRTOSConfig.h if
 105:Middlewares/Third_Party/FreeRTOS/Source/CMSIS_RTOS_V2/cmsis_os2.c ****   heap regions are already defined and vPortDefineHeapRegions is called in application.
 106:Middlewares/Third_Party/FreeRTOS/Source/CMSIS_RTOS_V2/cmsis_os2.c **** 
 107:Middlewares/Third_Party/FreeRTOS/Source/CMSIS_RTOS_V2/cmsis_os2.c ****   Otherwise vPortDefineHeapRegions will be called by osKernelInitialize using
 108:Middlewares/Third_Party/FreeRTOS/Source/CMSIS_RTOS_V2/cmsis_os2.c ****   definition configHEAP_5_REGIONS as parameter. Overriding configHEAP_5_REGIONS
 109:Middlewares/Third_Party/FreeRTOS/Source/CMSIS_RTOS_V2/cmsis_os2.c ****   is possible by defining it globally or in FreeRTOSConfig.h.
 110:Middlewares/Third_Party/FreeRTOS/Source/CMSIS_RTOS_V2/cmsis_os2.c **** */
 111:Middlewares/Third_Party/FreeRTOS/Source/CMSIS_RTOS_V2/cmsis_os2.c **** #if defined(USE_FREERTOS_HEAP_5)
 112:Middlewares/Third_Party/FreeRTOS/Source/CMSIS_RTOS_V2/cmsis_os2.c **** #if (configAPPLICATION_ALLOCATED_HEAP == 0)
 113:Middlewares/Third_Party/FreeRTOS/Source/CMSIS_RTOS_V2/cmsis_os2.c ****   /*
 114:Middlewares/Third_Party/FreeRTOS/Source/CMSIS_RTOS_V2/cmsis_os2.c ****     FreeRTOS heap is not defined by the application.
 115:Middlewares/Third_Party/FreeRTOS/Source/CMSIS_RTOS_V2/cmsis_os2.c ****     Single region of size configTOTAL_HEAP_SIZE (defined in FreeRTOSConfig.h)
 116:Middlewares/Third_Party/FreeRTOS/Source/CMSIS_RTOS_V2/cmsis_os2.c ****     is provided by default. Define configHEAP_5_REGIONS to provide custom
 117:Middlewares/Third_Party/FreeRTOS/Source/CMSIS_RTOS_V2/cmsis_os2.c ****     HeapRegion_t array.
 118:Middlewares/Third_Party/FreeRTOS/Source/CMSIS_RTOS_V2/cmsis_os2.c ****   */
 119:Middlewares/Third_Party/FreeRTOS/Source/CMSIS_RTOS_V2/cmsis_os2.c ****   #define HEAP_5_REGION_SETUP   1
 120:Middlewares/Third_Party/FreeRTOS/Source/CMSIS_RTOS_V2/cmsis_os2.c ****   
 121:Middlewares/Third_Party/FreeRTOS/Source/CMSIS_RTOS_V2/cmsis_os2.c ****   #ifndef configHEAP_5_REGIONS
 122:Middlewares/Third_Party/FreeRTOS/Source/CMSIS_RTOS_V2/cmsis_os2.c ****     #define configHEAP_5_REGIONS xHeapRegions
 123:Middlewares/Third_Party/FreeRTOS/Source/CMSIS_RTOS_V2/cmsis_os2.c **** 
 124:Middlewares/Third_Party/FreeRTOS/Source/CMSIS_RTOS_V2/cmsis_os2.c ****     static uint8_t ucHeap[configTOTAL_HEAP_SIZE];
 125:Middlewares/Third_Party/FreeRTOS/Source/CMSIS_RTOS_V2/cmsis_os2.c **** 
 126:Middlewares/Third_Party/FreeRTOS/Source/CMSIS_RTOS_V2/cmsis_os2.c ****     static HeapRegion_t xHeapRegions[] = {
 127:Middlewares/Third_Party/FreeRTOS/Source/CMSIS_RTOS_V2/cmsis_os2.c ****       { ucHeap, configTOTAL_HEAP_SIZE },
 128:Middlewares/Third_Party/FreeRTOS/Source/CMSIS_RTOS_V2/cmsis_os2.c ****       { NULL,   0                     }
 129:Middlewares/Third_Party/FreeRTOS/Source/CMSIS_RTOS_V2/cmsis_os2.c ****     };
 130:Middlewares/Third_Party/FreeRTOS/Source/CMSIS_RTOS_V2/cmsis_os2.c ****   #else
 131:Middlewares/Third_Party/FreeRTOS/Source/CMSIS_RTOS_V2/cmsis_os2.c ****     /* Global definition is provided to override default heap array */
 132:Middlewares/Third_Party/FreeRTOS/Source/CMSIS_RTOS_V2/cmsis_os2.c ****     extern HeapRegion_t configHEAP_5_REGIONS[];
 133:Middlewares/Third_Party/FreeRTOS/Source/CMSIS_RTOS_V2/cmsis_os2.c ****   #endif
 134:Middlewares/Third_Party/FreeRTOS/Source/CMSIS_RTOS_V2/cmsis_os2.c **** #else
 135:Middlewares/Third_Party/FreeRTOS/Source/CMSIS_RTOS_V2/cmsis_os2.c ****   /*
 136:Middlewares/Third_Party/FreeRTOS/Source/CMSIS_RTOS_V2/cmsis_os2.c ****     The application already defined the array used for the FreeRTOS heap and
 137:Middlewares/Third_Party/FreeRTOS/Source/CMSIS_RTOS_V2/cmsis_os2.c ****     called vPortDefineHeapRegions to initialize heap.
 138:Middlewares/Third_Party/FreeRTOS/Source/CMSIS_RTOS_V2/cmsis_os2.c ****   */
 139:Middlewares/Third_Party/FreeRTOS/Source/CMSIS_RTOS_V2/cmsis_os2.c ****   #define HEAP_5_REGION_SETUP   0
 140:Middlewares/Third_Party/FreeRTOS/Source/CMSIS_RTOS_V2/cmsis_os2.c **** #endif /* configAPPLICATION_ALLOCATED_HEAP */
 141:Middlewares/Third_Party/FreeRTOS/Source/CMSIS_RTOS_V2/cmsis_os2.c **** #endif /* USE_FREERTOS_HEAP_5 */
 142:Middlewares/Third_Party/FreeRTOS/Source/CMSIS_RTOS_V2/cmsis_os2.c **** 
 143:Middlewares/Third_Party/FreeRTOS/Source/CMSIS_RTOS_V2/cmsis_os2.c **** #if defined(SysTick)
ARM GAS  /tmp/ccQGQFth.s 			page 4


 144:Middlewares/Third_Party/FreeRTOS/Source/CMSIS_RTOS_V2/cmsis_os2.c **** #undef SysTick_Handler
 145:Middlewares/Third_Party/FreeRTOS/Source/CMSIS_RTOS_V2/cmsis_os2.c **** 
 146:Middlewares/Third_Party/FreeRTOS/Source/CMSIS_RTOS_V2/cmsis_os2.c **** /* CMSIS SysTick interrupt handler prototype */
 147:Middlewares/Third_Party/FreeRTOS/Source/CMSIS_RTOS_V2/cmsis_os2.c **** extern void SysTick_Handler     (void);
 148:Middlewares/Third_Party/FreeRTOS/Source/CMSIS_RTOS_V2/cmsis_os2.c **** /* FreeRTOS tick timer interrupt handler prototype */
 149:Middlewares/Third_Party/FreeRTOS/Source/CMSIS_RTOS_V2/cmsis_os2.c **** extern void xPortSysTickHandler (void);
 150:Middlewares/Third_Party/FreeRTOS/Source/CMSIS_RTOS_V2/cmsis_os2.c **** 
 151:Middlewares/Third_Party/FreeRTOS/Source/CMSIS_RTOS_V2/cmsis_os2.c **** /*
 152:Middlewares/Third_Party/FreeRTOS/Source/CMSIS_RTOS_V2/cmsis_os2.c ****   SysTick handler implementation that also clears overflow flag.
 153:Middlewares/Third_Party/FreeRTOS/Source/CMSIS_RTOS_V2/cmsis_os2.c **** */
 154:Middlewares/Third_Party/FreeRTOS/Source/CMSIS_RTOS_V2/cmsis_os2.c **** void SysTick_Handler (void) {
 155:Middlewares/Third_Party/FreeRTOS/Source/CMSIS_RTOS_V2/cmsis_os2.c ****   /* Clear overflow flag */
 156:Middlewares/Third_Party/FreeRTOS/Source/CMSIS_RTOS_V2/cmsis_os2.c ****   SysTick->CTRL;
 157:Middlewares/Third_Party/FreeRTOS/Source/CMSIS_RTOS_V2/cmsis_os2.c **** 
 158:Middlewares/Third_Party/FreeRTOS/Source/CMSIS_RTOS_V2/cmsis_os2.c ****   if (xTaskGetSchedulerState() != taskSCHEDULER_NOT_STARTED) {
 159:Middlewares/Third_Party/FreeRTOS/Source/CMSIS_RTOS_V2/cmsis_os2.c ****     /* Call tick handler */
 160:Middlewares/Third_Party/FreeRTOS/Source/CMSIS_RTOS_V2/cmsis_os2.c ****     xPortSysTickHandler();
 161:Middlewares/Third_Party/FreeRTOS/Source/CMSIS_RTOS_V2/cmsis_os2.c ****   }
 162:Middlewares/Third_Party/FreeRTOS/Source/CMSIS_RTOS_V2/cmsis_os2.c **** }
 163:Middlewares/Third_Party/FreeRTOS/Source/CMSIS_RTOS_V2/cmsis_os2.c **** #endif /* SysTick */
 164:Middlewares/Third_Party/FreeRTOS/Source/CMSIS_RTOS_V2/cmsis_os2.c **** 
 165:Middlewares/Third_Party/FreeRTOS/Source/CMSIS_RTOS_V2/cmsis_os2.c **** /*
 166:Middlewares/Third_Party/FreeRTOS/Source/CMSIS_RTOS_V2/cmsis_os2.c ****   Setup SVC to reset value.
 167:Middlewares/Third_Party/FreeRTOS/Source/CMSIS_RTOS_V2/cmsis_os2.c **** */
 168:Middlewares/Third_Party/FreeRTOS/Source/CMSIS_RTOS_V2/cmsis_os2.c **** __STATIC_INLINE void SVC_Setup (void) {
 169:Middlewares/Third_Party/FreeRTOS/Source/CMSIS_RTOS_V2/cmsis_os2.c **** #if (__ARM_ARCH_7A__ == 0U)
 170:Middlewares/Third_Party/FreeRTOS/Source/CMSIS_RTOS_V2/cmsis_os2.c ****   /* Service Call interrupt might be configured before kernel start     */
 171:Middlewares/Third_Party/FreeRTOS/Source/CMSIS_RTOS_V2/cmsis_os2.c ****   /* and when its priority is lower or equal to BASEPRI, svc intruction */
 172:Middlewares/Third_Party/FreeRTOS/Source/CMSIS_RTOS_V2/cmsis_os2.c ****   /* causes a Hard Fault.                                               */
 173:Middlewares/Third_Party/FreeRTOS/Source/CMSIS_RTOS_V2/cmsis_os2.c **** 
 174:Middlewares/Third_Party/FreeRTOS/Source/CMSIS_RTOS_V2/cmsis_os2.c ****  /* 
 175:Middlewares/Third_Party/FreeRTOS/Source/CMSIS_RTOS_V2/cmsis_os2.c ****   * the call below has introduced a regression compared to revious release
 176:Middlewares/Third_Party/FreeRTOS/Source/CMSIS_RTOS_V2/cmsis_os2.c ****   * The issue was logged under:https://github.com/ARM-software/CMSIS-FreeRTOS/issues/35
 177:Middlewares/Third_Party/FreeRTOS/Source/CMSIS_RTOS_V2/cmsis_os2.c ****   * until it is correctly fixed, the code below is commented
 178:Middlewares/Third_Party/FreeRTOS/Source/CMSIS_RTOS_V2/cmsis_os2.c ****   */
 179:Middlewares/Third_Party/FreeRTOS/Source/CMSIS_RTOS_V2/cmsis_os2.c **** /*    NVIC_SetPriority (SVCall_IRQn, 0U); */
 180:Middlewares/Third_Party/FreeRTOS/Source/CMSIS_RTOS_V2/cmsis_os2.c **** #endif
 181:Middlewares/Third_Party/FreeRTOS/Source/CMSIS_RTOS_V2/cmsis_os2.c **** }
 182:Middlewares/Third_Party/FreeRTOS/Source/CMSIS_RTOS_V2/cmsis_os2.c **** 
 183:Middlewares/Third_Party/FreeRTOS/Source/CMSIS_RTOS_V2/cmsis_os2.c **** /*---------------------------------------------------------------------------*/
 184:Middlewares/Third_Party/FreeRTOS/Source/CMSIS_RTOS_V2/cmsis_os2.c **** 
 185:Middlewares/Third_Party/FreeRTOS/Source/CMSIS_RTOS_V2/cmsis_os2.c **** osStatus_t osKernelInitialize (void) {
 186:Middlewares/Third_Party/FreeRTOS/Source/CMSIS_RTOS_V2/cmsis_os2.c ****   osStatus_t stat;
 187:Middlewares/Third_Party/FreeRTOS/Source/CMSIS_RTOS_V2/cmsis_os2.c **** 
 188:Middlewares/Third_Party/FreeRTOS/Source/CMSIS_RTOS_V2/cmsis_os2.c ****   if (IS_IRQ()) {
 189:Middlewares/Third_Party/FreeRTOS/Source/CMSIS_RTOS_V2/cmsis_os2.c ****     stat = osErrorISR;
 190:Middlewares/Third_Party/FreeRTOS/Source/CMSIS_RTOS_V2/cmsis_os2.c ****   }
 191:Middlewares/Third_Party/FreeRTOS/Source/CMSIS_RTOS_V2/cmsis_os2.c ****   else {
 192:Middlewares/Third_Party/FreeRTOS/Source/CMSIS_RTOS_V2/cmsis_os2.c ****     if (KernelState == osKernelInactive) {
 193:Middlewares/Third_Party/FreeRTOS/Source/CMSIS_RTOS_V2/cmsis_os2.c ****       #if defined(USE_FREERTOS_HEAP_5) && (HEAP_5_REGION_SETUP == 1)
 194:Middlewares/Third_Party/FreeRTOS/Source/CMSIS_RTOS_V2/cmsis_os2.c ****         vPortDefineHeapRegions (configHEAP_5_REGIONS);
 195:Middlewares/Third_Party/FreeRTOS/Source/CMSIS_RTOS_V2/cmsis_os2.c ****       #endif
 196:Middlewares/Third_Party/FreeRTOS/Source/CMSIS_RTOS_V2/cmsis_os2.c ****       KernelState = osKernelReady;
 197:Middlewares/Third_Party/FreeRTOS/Source/CMSIS_RTOS_V2/cmsis_os2.c ****       stat = osOK;
 198:Middlewares/Third_Party/FreeRTOS/Source/CMSIS_RTOS_V2/cmsis_os2.c ****     } else {
 199:Middlewares/Third_Party/FreeRTOS/Source/CMSIS_RTOS_V2/cmsis_os2.c ****       stat = osError;
 200:Middlewares/Third_Party/FreeRTOS/Source/CMSIS_RTOS_V2/cmsis_os2.c ****     }
ARM GAS  /tmp/ccQGQFth.s 			page 5


 201:Middlewares/Third_Party/FreeRTOS/Source/CMSIS_RTOS_V2/cmsis_os2.c ****   }
 202:Middlewares/Third_Party/FreeRTOS/Source/CMSIS_RTOS_V2/cmsis_os2.c **** 
 203:Middlewares/Third_Party/FreeRTOS/Source/CMSIS_RTOS_V2/cmsis_os2.c ****   return (stat);
 204:Middlewares/Third_Party/FreeRTOS/Source/CMSIS_RTOS_V2/cmsis_os2.c **** }
 205:Middlewares/Third_Party/FreeRTOS/Source/CMSIS_RTOS_V2/cmsis_os2.c **** 
 206:Middlewares/Third_Party/FreeRTOS/Source/CMSIS_RTOS_V2/cmsis_os2.c **** osStatus_t osKernelGetInfo (osVersion_t *version, char *id_buf, uint32_t id_size) {
 207:Middlewares/Third_Party/FreeRTOS/Source/CMSIS_RTOS_V2/cmsis_os2.c **** 
 208:Middlewares/Third_Party/FreeRTOS/Source/CMSIS_RTOS_V2/cmsis_os2.c ****   if (version != NULL) {
 209:Middlewares/Third_Party/FreeRTOS/Source/CMSIS_RTOS_V2/cmsis_os2.c ****     /* Version encoding is major.minor.rev: mmnnnrrrr dec */
 210:Middlewares/Third_Party/FreeRTOS/Source/CMSIS_RTOS_V2/cmsis_os2.c ****     version->api    = KERNEL_VERSION;
 211:Middlewares/Third_Party/FreeRTOS/Source/CMSIS_RTOS_V2/cmsis_os2.c ****     version->kernel = KERNEL_VERSION;
 212:Middlewares/Third_Party/FreeRTOS/Source/CMSIS_RTOS_V2/cmsis_os2.c ****   }
 213:Middlewares/Third_Party/FreeRTOS/Source/CMSIS_RTOS_V2/cmsis_os2.c **** 
 214:Middlewares/Third_Party/FreeRTOS/Source/CMSIS_RTOS_V2/cmsis_os2.c ****   if ((id_buf != NULL) && (id_size != 0U)) {
 215:Middlewares/Third_Party/FreeRTOS/Source/CMSIS_RTOS_V2/cmsis_os2.c ****     if (id_size > sizeof(KERNEL_ID)) {
 216:Middlewares/Third_Party/FreeRTOS/Source/CMSIS_RTOS_V2/cmsis_os2.c ****       id_size = sizeof(KERNEL_ID);
 217:Middlewares/Third_Party/FreeRTOS/Source/CMSIS_RTOS_V2/cmsis_os2.c ****     }
 218:Middlewares/Third_Party/FreeRTOS/Source/CMSIS_RTOS_V2/cmsis_os2.c ****     memcpy(id_buf, KERNEL_ID, id_size);
 219:Middlewares/Third_Party/FreeRTOS/Source/CMSIS_RTOS_V2/cmsis_os2.c ****   }
 220:Middlewares/Third_Party/FreeRTOS/Source/CMSIS_RTOS_V2/cmsis_os2.c **** 
 221:Middlewares/Third_Party/FreeRTOS/Source/CMSIS_RTOS_V2/cmsis_os2.c ****   return (osOK);
 222:Middlewares/Third_Party/FreeRTOS/Source/CMSIS_RTOS_V2/cmsis_os2.c **** }
 223:Middlewares/Third_Party/FreeRTOS/Source/CMSIS_RTOS_V2/cmsis_os2.c **** 
 224:Middlewares/Third_Party/FreeRTOS/Source/CMSIS_RTOS_V2/cmsis_os2.c **** osKernelState_t osKernelGetState (void) {
 225:Middlewares/Third_Party/FreeRTOS/Source/CMSIS_RTOS_V2/cmsis_os2.c ****   osKernelState_t state;
 226:Middlewares/Third_Party/FreeRTOS/Source/CMSIS_RTOS_V2/cmsis_os2.c **** 
 227:Middlewares/Third_Party/FreeRTOS/Source/CMSIS_RTOS_V2/cmsis_os2.c ****   switch (xTaskGetSchedulerState()) {
 228:Middlewares/Third_Party/FreeRTOS/Source/CMSIS_RTOS_V2/cmsis_os2.c ****     case taskSCHEDULER_RUNNING:
 229:Middlewares/Third_Party/FreeRTOS/Source/CMSIS_RTOS_V2/cmsis_os2.c ****       state = osKernelRunning;
 230:Middlewares/Third_Party/FreeRTOS/Source/CMSIS_RTOS_V2/cmsis_os2.c ****       break;
 231:Middlewares/Third_Party/FreeRTOS/Source/CMSIS_RTOS_V2/cmsis_os2.c **** 
 232:Middlewares/Third_Party/FreeRTOS/Source/CMSIS_RTOS_V2/cmsis_os2.c ****     case taskSCHEDULER_SUSPENDED:
 233:Middlewares/Third_Party/FreeRTOS/Source/CMSIS_RTOS_V2/cmsis_os2.c ****       state = osKernelLocked;
 234:Middlewares/Third_Party/FreeRTOS/Source/CMSIS_RTOS_V2/cmsis_os2.c ****       break;
 235:Middlewares/Third_Party/FreeRTOS/Source/CMSIS_RTOS_V2/cmsis_os2.c **** 
 236:Middlewares/Third_Party/FreeRTOS/Source/CMSIS_RTOS_V2/cmsis_os2.c ****     case taskSCHEDULER_NOT_STARTED:
 237:Middlewares/Third_Party/FreeRTOS/Source/CMSIS_RTOS_V2/cmsis_os2.c ****     default:
 238:Middlewares/Third_Party/FreeRTOS/Source/CMSIS_RTOS_V2/cmsis_os2.c ****       if (KernelState == osKernelReady) {
 239:Middlewares/Third_Party/FreeRTOS/Source/CMSIS_RTOS_V2/cmsis_os2.c ****         state = osKernelReady;
 240:Middlewares/Third_Party/FreeRTOS/Source/CMSIS_RTOS_V2/cmsis_os2.c ****       } else {
 241:Middlewares/Third_Party/FreeRTOS/Source/CMSIS_RTOS_V2/cmsis_os2.c ****         state = osKernelInactive;
 242:Middlewares/Third_Party/FreeRTOS/Source/CMSIS_RTOS_V2/cmsis_os2.c ****       }
 243:Middlewares/Third_Party/FreeRTOS/Source/CMSIS_RTOS_V2/cmsis_os2.c ****       break;
 244:Middlewares/Third_Party/FreeRTOS/Source/CMSIS_RTOS_V2/cmsis_os2.c ****   }
 245:Middlewares/Third_Party/FreeRTOS/Source/CMSIS_RTOS_V2/cmsis_os2.c **** 
 246:Middlewares/Third_Party/FreeRTOS/Source/CMSIS_RTOS_V2/cmsis_os2.c ****   return (state);
 247:Middlewares/Third_Party/FreeRTOS/Source/CMSIS_RTOS_V2/cmsis_os2.c **** }
 248:Middlewares/Third_Party/FreeRTOS/Source/CMSIS_RTOS_V2/cmsis_os2.c **** 
 249:Middlewares/Third_Party/FreeRTOS/Source/CMSIS_RTOS_V2/cmsis_os2.c **** osStatus_t osKernelStart (void) {
 250:Middlewares/Third_Party/FreeRTOS/Source/CMSIS_RTOS_V2/cmsis_os2.c ****   osStatus_t stat;
 251:Middlewares/Third_Party/FreeRTOS/Source/CMSIS_RTOS_V2/cmsis_os2.c **** 
 252:Middlewares/Third_Party/FreeRTOS/Source/CMSIS_RTOS_V2/cmsis_os2.c ****   if (IS_IRQ()) {
 253:Middlewares/Third_Party/FreeRTOS/Source/CMSIS_RTOS_V2/cmsis_os2.c ****     stat = osErrorISR;
 254:Middlewares/Third_Party/FreeRTOS/Source/CMSIS_RTOS_V2/cmsis_os2.c ****   }
 255:Middlewares/Third_Party/FreeRTOS/Source/CMSIS_RTOS_V2/cmsis_os2.c ****   else {
 256:Middlewares/Third_Party/FreeRTOS/Source/CMSIS_RTOS_V2/cmsis_os2.c ****     if (KernelState == osKernelReady) {
 257:Middlewares/Third_Party/FreeRTOS/Source/CMSIS_RTOS_V2/cmsis_os2.c ****       /* Ensure SVC priority is at the reset value */
ARM GAS  /tmp/ccQGQFth.s 			page 6


 258:Middlewares/Third_Party/FreeRTOS/Source/CMSIS_RTOS_V2/cmsis_os2.c ****       SVC_Setup();
 259:Middlewares/Third_Party/FreeRTOS/Source/CMSIS_RTOS_V2/cmsis_os2.c ****       /* Change state to enable IRQ masking check */
 260:Middlewares/Third_Party/FreeRTOS/Source/CMSIS_RTOS_V2/cmsis_os2.c ****       KernelState = osKernelRunning;
 261:Middlewares/Third_Party/FreeRTOS/Source/CMSIS_RTOS_V2/cmsis_os2.c ****       /* Start the kernel scheduler */
 262:Middlewares/Third_Party/FreeRTOS/Source/CMSIS_RTOS_V2/cmsis_os2.c ****       vTaskStartScheduler();
 263:Middlewares/Third_Party/FreeRTOS/Source/CMSIS_RTOS_V2/cmsis_os2.c ****       stat = osOK;
 264:Middlewares/Third_Party/FreeRTOS/Source/CMSIS_RTOS_V2/cmsis_os2.c ****     } else {
 265:Middlewares/Third_Party/FreeRTOS/Source/CMSIS_RTOS_V2/cmsis_os2.c ****       stat = osError;
 266:Middlewares/Third_Party/FreeRTOS/Source/CMSIS_RTOS_V2/cmsis_os2.c ****     }
 267:Middlewares/Third_Party/FreeRTOS/Source/CMSIS_RTOS_V2/cmsis_os2.c ****   }
 268:Middlewares/Third_Party/FreeRTOS/Source/CMSIS_RTOS_V2/cmsis_os2.c **** 
 269:Middlewares/Third_Party/FreeRTOS/Source/CMSIS_RTOS_V2/cmsis_os2.c ****   return (stat);
 270:Middlewares/Third_Party/FreeRTOS/Source/CMSIS_RTOS_V2/cmsis_os2.c **** }
 271:Middlewares/Third_Party/FreeRTOS/Source/CMSIS_RTOS_V2/cmsis_os2.c **** 
 272:Middlewares/Third_Party/FreeRTOS/Source/CMSIS_RTOS_V2/cmsis_os2.c **** int32_t osKernelLock (void) {
 273:Middlewares/Third_Party/FreeRTOS/Source/CMSIS_RTOS_V2/cmsis_os2.c ****   int32_t lock;
 274:Middlewares/Third_Party/FreeRTOS/Source/CMSIS_RTOS_V2/cmsis_os2.c **** 
 275:Middlewares/Third_Party/FreeRTOS/Source/CMSIS_RTOS_V2/cmsis_os2.c ****   if (IS_IRQ()) {
 276:Middlewares/Third_Party/FreeRTOS/Source/CMSIS_RTOS_V2/cmsis_os2.c ****     lock = (int32_t)osErrorISR;
 277:Middlewares/Third_Party/FreeRTOS/Source/CMSIS_RTOS_V2/cmsis_os2.c ****   }
 278:Middlewares/Third_Party/FreeRTOS/Source/CMSIS_RTOS_V2/cmsis_os2.c ****   else {
 279:Middlewares/Third_Party/FreeRTOS/Source/CMSIS_RTOS_V2/cmsis_os2.c ****     switch (xTaskGetSchedulerState()) {
 280:Middlewares/Third_Party/FreeRTOS/Source/CMSIS_RTOS_V2/cmsis_os2.c ****       case taskSCHEDULER_SUSPENDED:
 281:Middlewares/Third_Party/FreeRTOS/Source/CMSIS_RTOS_V2/cmsis_os2.c ****         lock = 1;
 282:Middlewares/Third_Party/FreeRTOS/Source/CMSIS_RTOS_V2/cmsis_os2.c ****         break;
 283:Middlewares/Third_Party/FreeRTOS/Source/CMSIS_RTOS_V2/cmsis_os2.c **** 
 284:Middlewares/Third_Party/FreeRTOS/Source/CMSIS_RTOS_V2/cmsis_os2.c ****       case taskSCHEDULER_RUNNING:
 285:Middlewares/Third_Party/FreeRTOS/Source/CMSIS_RTOS_V2/cmsis_os2.c ****         vTaskSuspendAll();
 286:Middlewares/Third_Party/FreeRTOS/Source/CMSIS_RTOS_V2/cmsis_os2.c ****         lock = 0;
 287:Middlewares/Third_Party/FreeRTOS/Source/CMSIS_RTOS_V2/cmsis_os2.c ****         break;
 288:Middlewares/Third_Party/FreeRTOS/Source/CMSIS_RTOS_V2/cmsis_os2.c **** 
 289:Middlewares/Third_Party/FreeRTOS/Source/CMSIS_RTOS_V2/cmsis_os2.c ****       case taskSCHEDULER_NOT_STARTED:
 290:Middlewares/Third_Party/FreeRTOS/Source/CMSIS_RTOS_V2/cmsis_os2.c ****       default:
 291:Middlewares/Third_Party/FreeRTOS/Source/CMSIS_RTOS_V2/cmsis_os2.c ****         lock = (int32_t)osError;
 292:Middlewares/Third_Party/FreeRTOS/Source/CMSIS_RTOS_V2/cmsis_os2.c ****         break;
 293:Middlewares/Third_Party/FreeRTOS/Source/CMSIS_RTOS_V2/cmsis_os2.c ****     }
 294:Middlewares/Third_Party/FreeRTOS/Source/CMSIS_RTOS_V2/cmsis_os2.c ****   }
 295:Middlewares/Third_Party/FreeRTOS/Source/CMSIS_RTOS_V2/cmsis_os2.c **** 
 296:Middlewares/Third_Party/FreeRTOS/Source/CMSIS_RTOS_V2/cmsis_os2.c ****   return (lock);
 297:Middlewares/Third_Party/FreeRTOS/Source/CMSIS_RTOS_V2/cmsis_os2.c **** }
 298:Middlewares/Third_Party/FreeRTOS/Source/CMSIS_RTOS_V2/cmsis_os2.c **** 
 299:Middlewares/Third_Party/FreeRTOS/Source/CMSIS_RTOS_V2/cmsis_os2.c **** int32_t osKernelUnlock (void) {
 300:Middlewares/Third_Party/FreeRTOS/Source/CMSIS_RTOS_V2/cmsis_os2.c ****   int32_t lock;
 301:Middlewares/Third_Party/FreeRTOS/Source/CMSIS_RTOS_V2/cmsis_os2.c **** 
 302:Middlewares/Third_Party/FreeRTOS/Source/CMSIS_RTOS_V2/cmsis_os2.c ****   if (IS_IRQ()) {
 303:Middlewares/Third_Party/FreeRTOS/Source/CMSIS_RTOS_V2/cmsis_os2.c ****     lock = (int32_t)osErrorISR;
 304:Middlewares/Third_Party/FreeRTOS/Source/CMSIS_RTOS_V2/cmsis_os2.c ****   }
 305:Middlewares/Third_Party/FreeRTOS/Source/CMSIS_RTOS_V2/cmsis_os2.c ****   else {
 306:Middlewares/Third_Party/FreeRTOS/Source/CMSIS_RTOS_V2/cmsis_os2.c ****     switch (xTaskGetSchedulerState()) {
 307:Middlewares/Third_Party/FreeRTOS/Source/CMSIS_RTOS_V2/cmsis_os2.c ****       case taskSCHEDULER_SUSPENDED:
 308:Middlewares/Third_Party/FreeRTOS/Source/CMSIS_RTOS_V2/cmsis_os2.c ****         lock = 1;
 309:Middlewares/Third_Party/FreeRTOS/Source/CMSIS_RTOS_V2/cmsis_os2.c **** 
 310:Middlewares/Third_Party/FreeRTOS/Source/CMSIS_RTOS_V2/cmsis_os2.c ****         if (xTaskResumeAll() != pdTRUE) {
 311:Middlewares/Third_Party/FreeRTOS/Source/CMSIS_RTOS_V2/cmsis_os2.c ****           if (xTaskGetSchedulerState() == taskSCHEDULER_SUSPENDED) {
 312:Middlewares/Third_Party/FreeRTOS/Source/CMSIS_RTOS_V2/cmsis_os2.c ****             lock = (int32_t)osError;
 313:Middlewares/Third_Party/FreeRTOS/Source/CMSIS_RTOS_V2/cmsis_os2.c ****           }
 314:Middlewares/Third_Party/FreeRTOS/Source/CMSIS_RTOS_V2/cmsis_os2.c ****         }
ARM GAS  /tmp/ccQGQFth.s 			page 7


 315:Middlewares/Third_Party/FreeRTOS/Source/CMSIS_RTOS_V2/cmsis_os2.c ****         break;
 316:Middlewares/Third_Party/FreeRTOS/Source/CMSIS_RTOS_V2/cmsis_os2.c **** 
 317:Middlewares/Third_Party/FreeRTOS/Source/CMSIS_RTOS_V2/cmsis_os2.c ****       case taskSCHEDULER_RUNNING:
 318:Middlewares/Third_Party/FreeRTOS/Source/CMSIS_RTOS_V2/cmsis_os2.c ****         lock = 0;
 319:Middlewares/Third_Party/FreeRTOS/Source/CMSIS_RTOS_V2/cmsis_os2.c ****         break;
 320:Middlewares/Third_Party/FreeRTOS/Source/CMSIS_RTOS_V2/cmsis_os2.c **** 
 321:Middlewares/Third_Party/FreeRTOS/Source/CMSIS_RTOS_V2/cmsis_os2.c ****       case taskSCHEDULER_NOT_STARTED:
 322:Middlewares/Third_Party/FreeRTOS/Source/CMSIS_RTOS_V2/cmsis_os2.c ****       default:
 323:Middlewares/Third_Party/FreeRTOS/Source/CMSIS_RTOS_V2/cmsis_os2.c ****         lock = (int32_t)osError;
 324:Middlewares/Third_Party/FreeRTOS/Source/CMSIS_RTOS_V2/cmsis_os2.c ****         break;
 325:Middlewares/Third_Party/FreeRTOS/Source/CMSIS_RTOS_V2/cmsis_os2.c ****     }
 326:Middlewares/Third_Party/FreeRTOS/Source/CMSIS_RTOS_V2/cmsis_os2.c ****   }
 327:Middlewares/Third_Party/FreeRTOS/Source/CMSIS_RTOS_V2/cmsis_os2.c **** 
 328:Middlewares/Third_Party/FreeRTOS/Source/CMSIS_RTOS_V2/cmsis_os2.c ****   return (lock);
 329:Middlewares/Third_Party/FreeRTOS/Source/CMSIS_RTOS_V2/cmsis_os2.c **** }
 330:Middlewares/Third_Party/FreeRTOS/Source/CMSIS_RTOS_V2/cmsis_os2.c **** 
 331:Middlewares/Third_Party/FreeRTOS/Source/CMSIS_RTOS_V2/cmsis_os2.c **** int32_t osKernelRestoreLock (int32_t lock) {
 332:Middlewares/Third_Party/FreeRTOS/Source/CMSIS_RTOS_V2/cmsis_os2.c **** 
 333:Middlewares/Third_Party/FreeRTOS/Source/CMSIS_RTOS_V2/cmsis_os2.c ****   if (IS_IRQ()) {
 334:Middlewares/Third_Party/FreeRTOS/Source/CMSIS_RTOS_V2/cmsis_os2.c ****     lock = (int32_t)osErrorISR;
 335:Middlewares/Third_Party/FreeRTOS/Source/CMSIS_RTOS_V2/cmsis_os2.c ****   }
 336:Middlewares/Third_Party/FreeRTOS/Source/CMSIS_RTOS_V2/cmsis_os2.c ****   else {
 337:Middlewares/Third_Party/FreeRTOS/Source/CMSIS_RTOS_V2/cmsis_os2.c ****     switch (xTaskGetSchedulerState()) {
 338:Middlewares/Third_Party/FreeRTOS/Source/CMSIS_RTOS_V2/cmsis_os2.c ****       case taskSCHEDULER_SUSPENDED:
 339:Middlewares/Third_Party/FreeRTOS/Source/CMSIS_RTOS_V2/cmsis_os2.c ****       case taskSCHEDULER_RUNNING:
 340:Middlewares/Third_Party/FreeRTOS/Source/CMSIS_RTOS_V2/cmsis_os2.c ****         if (lock == 1) {
 341:Middlewares/Third_Party/FreeRTOS/Source/CMSIS_RTOS_V2/cmsis_os2.c ****           vTaskSuspendAll();
 342:Middlewares/Third_Party/FreeRTOS/Source/CMSIS_RTOS_V2/cmsis_os2.c ****         }
 343:Middlewares/Third_Party/FreeRTOS/Source/CMSIS_RTOS_V2/cmsis_os2.c ****         else {
 344:Middlewares/Third_Party/FreeRTOS/Source/CMSIS_RTOS_V2/cmsis_os2.c ****           if (lock != 0) {
 345:Middlewares/Third_Party/FreeRTOS/Source/CMSIS_RTOS_V2/cmsis_os2.c ****             lock = (int32_t)osError;
 346:Middlewares/Third_Party/FreeRTOS/Source/CMSIS_RTOS_V2/cmsis_os2.c ****           }
 347:Middlewares/Third_Party/FreeRTOS/Source/CMSIS_RTOS_V2/cmsis_os2.c ****           else {
 348:Middlewares/Third_Party/FreeRTOS/Source/CMSIS_RTOS_V2/cmsis_os2.c ****             if (xTaskResumeAll() != pdTRUE) {
 349:Middlewares/Third_Party/FreeRTOS/Source/CMSIS_RTOS_V2/cmsis_os2.c ****               if (xTaskGetSchedulerState() != taskSCHEDULER_RUNNING) {
 350:Middlewares/Third_Party/FreeRTOS/Source/CMSIS_RTOS_V2/cmsis_os2.c ****                 lock = (int32_t)osError;
 351:Middlewares/Third_Party/FreeRTOS/Source/CMSIS_RTOS_V2/cmsis_os2.c ****               }
 352:Middlewares/Third_Party/FreeRTOS/Source/CMSIS_RTOS_V2/cmsis_os2.c ****             }
 353:Middlewares/Third_Party/FreeRTOS/Source/CMSIS_RTOS_V2/cmsis_os2.c ****           }
 354:Middlewares/Third_Party/FreeRTOS/Source/CMSIS_RTOS_V2/cmsis_os2.c ****         }
 355:Middlewares/Third_Party/FreeRTOS/Source/CMSIS_RTOS_V2/cmsis_os2.c ****         break;
 356:Middlewares/Third_Party/FreeRTOS/Source/CMSIS_RTOS_V2/cmsis_os2.c **** 
 357:Middlewares/Third_Party/FreeRTOS/Source/CMSIS_RTOS_V2/cmsis_os2.c ****       case taskSCHEDULER_NOT_STARTED:
 358:Middlewares/Third_Party/FreeRTOS/Source/CMSIS_RTOS_V2/cmsis_os2.c ****       default:
 359:Middlewares/Third_Party/FreeRTOS/Source/CMSIS_RTOS_V2/cmsis_os2.c ****         lock = (int32_t)osError;
 360:Middlewares/Third_Party/FreeRTOS/Source/CMSIS_RTOS_V2/cmsis_os2.c ****         break;
 361:Middlewares/Third_Party/FreeRTOS/Source/CMSIS_RTOS_V2/cmsis_os2.c ****     }
 362:Middlewares/Third_Party/FreeRTOS/Source/CMSIS_RTOS_V2/cmsis_os2.c ****   }
 363:Middlewares/Third_Party/FreeRTOS/Source/CMSIS_RTOS_V2/cmsis_os2.c **** 
 364:Middlewares/Third_Party/FreeRTOS/Source/CMSIS_RTOS_V2/cmsis_os2.c ****   return (lock);
 365:Middlewares/Third_Party/FreeRTOS/Source/CMSIS_RTOS_V2/cmsis_os2.c **** }
 366:Middlewares/Third_Party/FreeRTOS/Source/CMSIS_RTOS_V2/cmsis_os2.c **** 
 367:Middlewares/Third_Party/FreeRTOS/Source/CMSIS_RTOS_V2/cmsis_os2.c **** uint32_t osKernelGetTickCount (void) {
 368:Middlewares/Third_Party/FreeRTOS/Source/CMSIS_RTOS_V2/cmsis_os2.c ****   TickType_t ticks;
 369:Middlewares/Third_Party/FreeRTOS/Source/CMSIS_RTOS_V2/cmsis_os2.c **** 
 370:Middlewares/Third_Party/FreeRTOS/Source/CMSIS_RTOS_V2/cmsis_os2.c ****   if (IS_IRQ()) {
 371:Middlewares/Third_Party/FreeRTOS/Source/CMSIS_RTOS_V2/cmsis_os2.c ****     ticks = xTaskGetTickCountFromISR();
ARM GAS  /tmp/ccQGQFth.s 			page 8


 372:Middlewares/Third_Party/FreeRTOS/Source/CMSIS_RTOS_V2/cmsis_os2.c ****   } else {
 373:Middlewares/Third_Party/FreeRTOS/Source/CMSIS_RTOS_V2/cmsis_os2.c ****     ticks = xTaskGetTickCount();
 374:Middlewares/Third_Party/FreeRTOS/Source/CMSIS_RTOS_V2/cmsis_os2.c ****   }
 375:Middlewares/Third_Party/FreeRTOS/Source/CMSIS_RTOS_V2/cmsis_os2.c **** 
 376:Middlewares/Third_Party/FreeRTOS/Source/CMSIS_RTOS_V2/cmsis_os2.c ****   return (ticks);
 377:Middlewares/Third_Party/FreeRTOS/Source/CMSIS_RTOS_V2/cmsis_os2.c **** }
 378:Middlewares/Third_Party/FreeRTOS/Source/CMSIS_RTOS_V2/cmsis_os2.c **** 
 379:Middlewares/Third_Party/FreeRTOS/Source/CMSIS_RTOS_V2/cmsis_os2.c **** uint32_t osKernelGetTickFreq (void) {
 380:Middlewares/Third_Party/FreeRTOS/Source/CMSIS_RTOS_V2/cmsis_os2.c ****   return (configTICK_RATE_HZ);
 381:Middlewares/Third_Party/FreeRTOS/Source/CMSIS_RTOS_V2/cmsis_os2.c **** }
 382:Middlewares/Third_Party/FreeRTOS/Source/CMSIS_RTOS_V2/cmsis_os2.c **** 
 383:Middlewares/Third_Party/FreeRTOS/Source/CMSIS_RTOS_V2/cmsis_os2.c **** uint32_t osKernelGetSysTimerCount (void) {
 384:Middlewares/Third_Party/FreeRTOS/Source/CMSIS_RTOS_V2/cmsis_os2.c ****   uint32_t irqmask = IS_IRQ_MASKED();
 385:Middlewares/Third_Party/FreeRTOS/Source/CMSIS_RTOS_V2/cmsis_os2.c ****   TickType_t ticks;
 386:Middlewares/Third_Party/FreeRTOS/Source/CMSIS_RTOS_V2/cmsis_os2.c ****   uint32_t val;
 387:Middlewares/Third_Party/FreeRTOS/Source/CMSIS_RTOS_V2/cmsis_os2.c **** 
 388:Middlewares/Third_Party/FreeRTOS/Source/CMSIS_RTOS_V2/cmsis_os2.c ****   __disable_irq();
 389:Middlewares/Third_Party/FreeRTOS/Source/CMSIS_RTOS_V2/cmsis_os2.c **** 
 390:Middlewares/Third_Party/FreeRTOS/Source/CMSIS_RTOS_V2/cmsis_os2.c ****   ticks = xTaskGetTickCount();
 391:Middlewares/Third_Party/FreeRTOS/Source/CMSIS_RTOS_V2/cmsis_os2.c **** 
 392:Middlewares/Third_Party/FreeRTOS/Source/CMSIS_RTOS_V2/cmsis_os2.c ****   val = ticks * ( configCPU_CLOCK_HZ / configTICK_RATE_HZ );
 393:Middlewares/Third_Party/FreeRTOS/Source/CMSIS_RTOS_V2/cmsis_os2.c ****   if (irqmask == 0U) {
 394:Middlewares/Third_Party/FreeRTOS/Source/CMSIS_RTOS_V2/cmsis_os2.c ****     __enable_irq();
 395:Middlewares/Third_Party/FreeRTOS/Source/CMSIS_RTOS_V2/cmsis_os2.c ****   }
 396:Middlewares/Third_Party/FreeRTOS/Source/CMSIS_RTOS_V2/cmsis_os2.c **** 
 397:Middlewares/Third_Party/FreeRTOS/Source/CMSIS_RTOS_V2/cmsis_os2.c ****   return (val);
 398:Middlewares/Third_Party/FreeRTOS/Source/CMSIS_RTOS_V2/cmsis_os2.c **** }
 399:Middlewares/Third_Party/FreeRTOS/Source/CMSIS_RTOS_V2/cmsis_os2.c **** 
 400:Middlewares/Third_Party/FreeRTOS/Source/CMSIS_RTOS_V2/cmsis_os2.c **** uint32_t osKernelGetSysTimerFreq (void) {
 401:Middlewares/Third_Party/FreeRTOS/Source/CMSIS_RTOS_V2/cmsis_os2.c ****   return (configCPU_CLOCK_HZ);
 402:Middlewares/Third_Party/FreeRTOS/Source/CMSIS_RTOS_V2/cmsis_os2.c **** }
 403:Middlewares/Third_Party/FreeRTOS/Source/CMSIS_RTOS_V2/cmsis_os2.c **** 
 404:Middlewares/Third_Party/FreeRTOS/Source/CMSIS_RTOS_V2/cmsis_os2.c **** /*---------------------------------------------------------------------------*/
 405:Middlewares/Third_Party/FreeRTOS/Source/CMSIS_RTOS_V2/cmsis_os2.c **** 
 406:Middlewares/Third_Party/FreeRTOS/Source/CMSIS_RTOS_V2/cmsis_os2.c **** osThreadId_t osThreadNew (osThreadFunc_t func, void *argument, const osThreadAttr_t *attr) {
 407:Middlewares/Third_Party/FreeRTOS/Source/CMSIS_RTOS_V2/cmsis_os2.c ****   const char *name;
 408:Middlewares/Third_Party/FreeRTOS/Source/CMSIS_RTOS_V2/cmsis_os2.c ****   uint32_t stack;
 409:Middlewares/Third_Party/FreeRTOS/Source/CMSIS_RTOS_V2/cmsis_os2.c ****   TaskHandle_t hTask;
 410:Middlewares/Third_Party/FreeRTOS/Source/CMSIS_RTOS_V2/cmsis_os2.c ****   UBaseType_t prio;
 411:Middlewares/Third_Party/FreeRTOS/Source/CMSIS_RTOS_V2/cmsis_os2.c ****   int32_t mem;
 412:Middlewares/Third_Party/FreeRTOS/Source/CMSIS_RTOS_V2/cmsis_os2.c **** 
 413:Middlewares/Third_Party/FreeRTOS/Source/CMSIS_RTOS_V2/cmsis_os2.c ****   hTask = NULL;
 414:Middlewares/Third_Party/FreeRTOS/Source/CMSIS_RTOS_V2/cmsis_os2.c **** 
 415:Middlewares/Third_Party/FreeRTOS/Source/CMSIS_RTOS_V2/cmsis_os2.c ****   if (!IS_IRQ() && (func != NULL)) {
 416:Middlewares/Third_Party/FreeRTOS/Source/CMSIS_RTOS_V2/cmsis_os2.c ****     stack = configMINIMAL_STACK_SIZE;
 417:Middlewares/Third_Party/FreeRTOS/Source/CMSIS_RTOS_V2/cmsis_os2.c ****     prio  = (UBaseType_t)osPriorityNormal;
 418:Middlewares/Third_Party/FreeRTOS/Source/CMSIS_RTOS_V2/cmsis_os2.c **** 
 419:Middlewares/Third_Party/FreeRTOS/Source/CMSIS_RTOS_V2/cmsis_os2.c ****     name = NULL;
 420:Middlewares/Third_Party/FreeRTOS/Source/CMSIS_RTOS_V2/cmsis_os2.c ****     mem  = -1;
 421:Middlewares/Third_Party/FreeRTOS/Source/CMSIS_RTOS_V2/cmsis_os2.c **** 
 422:Middlewares/Third_Party/FreeRTOS/Source/CMSIS_RTOS_V2/cmsis_os2.c ****     if (attr != NULL) {
 423:Middlewares/Third_Party/FreeRTOS/Source/CMSIS_RTOS_V2/cmsis_os2.c ****       if (attr->name != NULL) {
 424:Middlewares/Third_Party/FreeRTOS/Source/CMSIS_RTOS_V2/cmsis_os2.c ****         name = attr->name;
 425:Middlewares/Third_Party/FreeRTOS/Source/CMSIS_RTOS_V2/cmsis_os2.c ****       }
 426:Middlewares/Third_Party/FreeRTOS/Source/CMSIS_RTOS_V2/cmsis_os2.c ****       if (attr->priority != osPriorityNone) {
 427:Middlewares/Third_Party/FreeRTOS/Source/CMSIS_RTOS_V2/cmsis_os2.c ****         prio = (UBaseType_t)attr->priority;
 428:Middlewares/Third_Party/FreeRTOS/Source/CMSIS_RTOS_V2/cmsis_os2.c ****       }
ARM GAS  /tmp/ccQGQFth.s 			page 9


 429:Middlewares/Third_Party/FreeRTOS/Source/CMSIS_RTOS_V2/cmsis_os2.c **** 
 430:Middlewares/Third_Party/FreeRTOS/Source/CMSIS_RTOS_V2/cmsis_os2.c ****       if ((prio < osPriorityIdle) || (prio > osPriorityISR) || ((attr->attr_bits & osThreadJoinable
 431:Middlewares/Third_Party/FreeRTOS/Source/CMSIS_RTOS_V2/cmsis_os2.c ****         return (NULL);
 432:Middlewares/Third_Party/FreeRTOS/Source/CMSIS_RTOS_V2/cmsis_os2.c ****       }
 433:Middlewares/Third_Party/FreeRTOS/Source/CMSIS_RTOS_V2/cmsis_os2.c **** 
 434:Middlewares/Third_Party/FreeRTOS/Source/CMSIS_RTOS_V2/cmsis_os2.c ****       if (attr->stack_size > 0U) {
 435:Middlewares/Third_Party/FreeRTOS/Source/CMSIS_RTOS_V2/cmsis_os2.c ****         /* In FreeRTOS stack is not in bytes, but in sizeof(StackType_t) which is 4 on ARM ports.  
 436:Middlewares/Third_Party/FreeRTOS/Source/CMSIS_RTOS_V2/cmsis_os2.c ****         /* Stack size should be therefore 4 byte aligned in order to avoid division caused side eff
 437:Middlewares/Third_Party/FreeRTOS/Source/CMSIS_RTOS_V2/cmsis_os2.c ****         stack = attr->stack_size / sizeof(StackType_t);
 438:Middlewares/Third_Party/FreeRTOS/Source/CMSIS_RTOS_V2/cmsis_os2.c ****       }
 439:Middlewares/Third_Party/FreeRTOS/Source/CMSIS_RTOS_V2/cmsis_os2.c **** 
 440:Middlewares/Third_Party/FreeRTOS/Source/CMSIS_RTOS_V2/cmsis_os2.c ****       if ((attr->cb_mem    != NULL) && (attr->cb_size    >= sizeof(StaticTask_t)) &&
 441:Middlewares/Third_Party/FreeRTOS/Source/CMSIS_RTOS_V2/cmsis_os2.c ****           (attr->stack_mem != NULL) && (attr->stack_size >  0U)) {
 442:Middlewares/Third_Party/FreeRTOS/Source/CMSIS_RTOS_V2/cmsis_os2.c ****         mem = 1;
 443:Middlewares/Third_Party/FreeRTOS/Source/CMSIS_RTOS_V2/cmsis_os2.c ****       }
 444:Middlewares/Third_Party/FreeRTOS/Source/CMSIS_RTOS_V2/cmsis_os2.c ****       else {
 445:Middlewares/Third_Party/FreeRTOS/Source/CMSIS_RTOS_V2/cmsis_os2.c ****         if ((attr->cb_mem == NULL) && (attr->cb_size == 0U) && (attr->stack_mem == NULL)) {
 446:Middlewares/Third_Party/FreeRTOS/Source/CMSIS_RTOS_V2/cmsis_os2.c ****           mem = 0;
 447:Middlewares/Third_Party/FreeRTOS/Source/CMSIS_RTOS_V2/cmsis_os2.c ****         }
 448:Middlewares/Third_Party/FreeRTOS/Source/CMSIS_RTOS_V2/cmsis_os2.c ****       }
 449:Middlewares/Third_Party/FreeRTOS/Source/CMSIS_RTOS_V2/cmsis_os2.c ****     }
 450:Middlewares/Third_Party/FreeRTOS/Source/CMSIS_RTOS_V2/cmsis_os2.c ****     else {
 451:Middlewares/Third_Party/FreeRTOS/Source/CMSIS_RTOS_V2/cmsis_os2.c ****       mem = 0;
 452:Middlewares/Third_Party/FreeRTOS/Source/CMSIS_RTOS_V2/cmsis_os2.c ****     }
 453:Middlewares/Third_Party/FreeRTOS/Source/CMSIS_RTOS_V2/cmsis_os2.c **** 
 454:Middlewares/Third_Party/FreeRTOS/Source/CMSIS_RTOS_V2/cmsis_os2.c ****     if (mem == 1) {
 455:Middlewares/Third_Party/FreeRTOS/Source/CMSIS_RTOS_V2/cmsis_os2.c ****       hTask = xTaskCreateStatic ((TaskFunction_t)func, name, stack, argument, prio, (StackType_t  *
 456:Middlewares/Third_Party/FreeRTOS/Source/CMSIS_RTOS_V2/cmsis_os2.c ****                                                                                     (StaticTask_t *
 457:Middlewares/Third_Party/FreeRTOS/Source/CMSIS_RTOS_V2/cmsis_os2.c ****     }
 458:Middlewares/Third_Party/FreeRTOS/Source/CMSIS_RTOS_V2/cmsis_os2.c ****     else {
 459:Middlewares/Third_Party/FreeRTOS/Source/CMSIS_RTOS_V2/cmsis_os2.c ****       if (mem == 0) {
 460:Middlewares/Third_Party/FreeRTOS/Source/CMSIS_RTOS_V2/cmsis_os2.c ****         if (xTaskCreate ((TaskFunction_t)func, name, (uint16_t)stack, argument, prio, &hTask) != pd
 461:Middlewares/Third_Party/FreeRTOS/Source/CMSIS_RTOS_V2/cmsis_os2.c ****           hTask = NULL;
 462:Middlewares/Third_Party/FreeRTOS/Source/CMSIS_RTOS_V2/cmsis_os2.c ****         }
 463:Middlewares/Third_Party/FreeRTOS/Source/CMSIS_RTOS_V2/cmsis_os2.c ****       }
 464:Middlewares/Third_Party/FreeRTOS/Source/CMSIS_RTOS_V2/cmsis_os2.c ****     }
 465:Middlewares/Third_Party/FreeRTOS/Source/CMSIS_RTOS_V2/cmsis_os2.c ****   }
 466:Middlewares/Third_Party/FreeRTOS/Source/CMSIS_RTOS_V2/cmsis_os2.c **** 
 467:Middlewares/Third_Party/FreeRTOS/Source/CMSIS_RTOS_V2/cmsis_os2.c ****   return ((osThreadId_t)hTask);
 468:Middlewares/Third_Party/FreeRTOS/Source/CMSIS_RTOS_V2/cmsis_os2.c **** }
 469:Middlewares/Third_Party/FreeRTOS/Source/CMSIS_RTOS_V2/cmsis_os2.c **** 
 470:Middlewares/Third_Party/FreeRTOS/Source/CMSIS_RTOS_V2/cmsis_os2.c **** const char *osThreadGetName (osThreadId_t thread_id) {
 471:Middlewares/Third_Party/FreeRTOS/Source/CMSIS_RTOS_V2/cmsis_os2.c ****   TaskHandle_t hTask = (TaskHandle_t)thread_id;
 472:Middlewares/Third_Party/FreeRTOS/Source/CMSIS_RTOS_V2/cmsis_os2.c ****   const char *name;
 473:Middlewares/Third_Party/FreeRTOS/Source/CMSIS_RTOS_V2/cmsis_os2.c **** 
 474:Middlewares/Third_Party/FreeRTOS/Source/CMSIS_RTOS_V2/cmsis_os2.c ****   if (IS_IRQ() || (hTask == NULL)) {
 475:Middlewares/Third_Party/FreeRTOS/Source/CMSIS_RTOS_V2/cmsis_os2.c ****     name = NULL;
 476:Middlewares/Third_Party/FreeRTOS/Source/CMSIS_RTOS_V2/cmsis_os2.c ****   } else {
 477:Middlewares/Third_Party/FreeRTOS/Source/CMSIS_RTOS_V2/cmsis_os2.c ****     name = pcTaskGetName (hTask);
 478:Middlewares/Third_Party/FreeRTOS/Source/CMSIS_RTOS_V2/cmsis_os2.c ****   }
 479:Middlewares/Third_Party/FreeRTOS/Source/CMSIS_RTOS_V2/cmsis_os2.c **** 
 480:Middlewares/Third_Party/FreeRTOS/Source/CMSIS_RTOS_V2/cmsis_os2.c ****   return (name);
 481:Middlewares/Third_Party/FreeRTOS/Source/CMSIS_RTOS_V2/cmsis_os2.c **** }
 482:Middlewares/Third_Party/FreeRTOS/Source/CMSIS_RTOS_V2/cmsis_os2.c **** 
 483:Middlewares/Third_Party/FreeRTOS/Source/CMSIS_RTOS_V2/cmsis_os2.c **** osThreadId_t osThreadGetId (void) {
 484:Middlewares/Third_Party/FreeRTOS/Source/CMSIS_RTOS_V2/cmsis_os2.c ****   osThreadId_t id;
 485:Middlewares/Third_Party/FreeRTOS/Source/CMSIS_RTOS_V2/cmsis_os2.c **** 
ARM GAS  /tmp/ccQGQFth.s 			page 10


 486:Middlewares/Third_Party/FreeRTOS/Source/CMSIS_RTOS_V2/cmsis_os2.c ****   id = (osThreadId_t)xTaskGetCurrentTaskHandle();
 487:Middlewares/Third_Party/FreeRTOS/Source/CMSIS_RTOS_V2/cmsis_os2.c **** 
 488:Middlewares/Third_Party/FreeRTOS/Source/CMSIS_RTOS_V2/cmsis_os2.c ****   return (id);
 489:Middlewares/Third_Party/FreeRTOS/Source/CMSIS_RTOS_V2/cmsis_os2.c **** }
 490:Middlewares/Third_Party/FreeRTOS/Source/CMSIS_RTOS_V2/cmsis_os2.c **** 
 491:Middlewares/Third_Party/FreeRTOS/Source/CMSIS_RTOS_V2/cmsis_os2.c **** osThreadState_t osThreadGetState (osThreadId_t thread_id) {
 492:Middlewares/Third_Party/FreeRTOS/Source/CMSIS_RTOS_V2/cmsis_os2.c ****   TaskHandle_t hTask = (TaskHandle_t)thread_id;
 493:Middlewares/Third_Party/FreeRTOS/Source/CMSIS_RTOS_V2/cmsis_os2.c ****   osThreadState_t state;
 494:Middlewares/Third_Party/FreeRTOS/Source/CMSIS_RTOS_V2/cmsis_os2.c **** 
 495:Middlewares/Third_Party/FreeRTOS/Source/CMSIS_RTOS_V2/cmsis_os2.c ****   if (IS_IRQ() || (hTask == NULL)) {
 496:Middlewares/Third_Party/FreeRTOS/Source/CMSIS_RTOS_V2/cmsis_os2.c ****     state = osThreadError;
 497:Middlewares/Third_Party/FreeRTOS/Source/CMSIS_RTOS_V2/cmsis_os2.c ****   }
 498:Middlewares/Third_Party/FreeRTOS/Source/CMSIS_RTOS_V2/cmsis_os2.c ****   else {
 499:Middlewares/Third_Party/FreeRTOS/Source/CMSIS_RTOS_V2/cmsis_os2.c ****     switch (eTaskGetState (hTask)) {
 500:Middlewares/Third_Party/FreeRTOS/Source/CMSIS_RTOS_V2/cmsis_os2.c ****       case eRunning:   state = osThreadRunning;    break;
 501:Middlewares/Third_Party/FreeRTOS/Source/CMSIS_RTOS_V2/cmsis_os2.c ****       case eReady:     state = osThreadReady;      break;
 502:Middlewares/Third_Party/FreeRTOS/Source/CMSIS_RTOS_V2/cmsis_os2.c ****       case eBlocked:
 503:Middlewares/Third_Party/FreeRTOS/Source/CMSIS_RTOS_V2/cmsis_os2.c ****       case eSuspended: state = osThreadBlocked;    break;
 504:Middlewares/Third_Party/FreeRTOS/Source/CMSIS_RTOS_V2/cmsis_os2.c ****       case eDeleted:   state = osThreadTerminated; break;
 505:Middlewares/Third_Party/FreeRTOS/Source/CMSIS_RTOS_V2/cmsis_os2.c ****       case eInvalid:
 506:Middlewares/Third_Party/FreeRTOS/Source/CMSIS_RTOS_V2/cmsis_os2.c ****       default:         state = osThreadError;      break;
 507:Middlewares/Third_Party/FreeRTOS/Source/CMSIS_RTOS_V2/cmsis_os2.c ****     }
 508:Middlewares/Third_Party/FreeRTOS/Source/CMSIS_RTOS_V2/cmsis_os2.c ****   }
 509:Middlewares/Third_Party/FreeRTOS/Source/CMSIS_RTOS_V2/cmsis_os2.c **** 
 510:Middlewares/Third_Party/FreeRTOS/Source/CMSIS_RTOS_V2/cmsis_os2.c ****   return (state);
 511:Middlewares/Third_Party/FreeRTOS/Source/CMSIS_RTOS_V2/cmsis_os2.c **** }
 512:Middlewares/Third_Party/FreeRTOS/Source/CMSIS_RTOS_V2/cmsis_os2.c **** 
 513:Middlewares/Third_Party/FreeRTOS/Source/CMSIS_RTOS_V2/cmsis_os2.c **** uint32_t osThreadGetStackSpace (osThreadId_t thread_id) {
 514:Middlewares/Third_Party/FreeRTOS/Source/CMSIS_RTOS_V2/cmsis_os2.c ****   TaskHandle_t hTask = (TaskHandle_t)thread_id;
 515:Middlewares/Third_Party/FreeRTOS/Source/CMSIS_RTOS_V2/cmsis_os2.c ****   uint32_t sz;
 516:Middlewares/Third_Party/FreeRTOS/Source/CMSIS_RTOS_V2/cmsis_os2.c **** 
 517:Middlewares/Third_Party/FreeRTOS/Source/CMSIS_RTOS_V2/cmsis_os2.c ****   if (IS_IRQ() || (hTask == NULL)) {
 518:Middlewares/Third_Party/FreeRTOS/Source/CMSIS_RTOS_V2/cmsis_os2.c ****     sz = 0U;
 519:Middlewares/Third_Party/FreeRTOS/Source/CMSIS_RTOS_V2/cmsis_os2.c ****   } else {
 520:Middlewares/Third_Party/FreeRTOS/Source/CMSIS_RTOS_V2/cmsis_os2.c ****     sz = (uint32_t)uxTaskGetStackHighWaterMark (hTask);
 521:Middlewares/Third_Party/FreeRTOS/Source/CMSIS_RTOS_V2/cmsis_os2.c ****   }
 522:Middlewares/Third_Party/FreeRTOS/Source/CMSIS_RTOS_V2/cmsis_os2.c **** 
 523:Middlewares/Third_Party/FreeRTOS/Source/CMSIS_RTOS_V2/cmsis_os2.c ****   return (sz);
 524:Middlewares/Third_Party/FreeRTOS/Source/CMSIS_RTOS_V2/cmsis_os2.c **** }
 525:Middlewares/Third_Party/FreeRTOS/Source/CMSIS_RTOS_V2/cmsis_os2.c **** 
 526:Middlewares/Third_Party/FreeRTOS/Source/CMSIS_RTOS_V2/cmsis_os2.c **** osStatus_t osThreadSetPriority (osThreadId_t thread_id, osPriority_t priority) {
 527:Middlewares/Third_Party/FreeRTOS/Source/CMSIS_RTOS_V2/cmsis_os2.c ****   TaskHandle_t hTask = (TaskHandle_t)thread_id;
 528:Middlewares/Third_Party/FreeRTOS/Source/CMSIS_RTOS_V2/cmsis_os2.c ****   osStatus_t stat;
 529:Middlewares/Third_Party/FreeRTOS/Source/CMSIS_RTOS_V2/cmsis_os2.c **** 
 530:Middlewares/Third_Party/FreeRTOS/Source/CMSIS_RTOS_V2/cmsis_os2.c ****   if (IS_IRQ()) {
 531:Middlewares/Third_Party/FreeRTOS/Source/CMSIS_RTOS_V2/cmsis_os2.c ****     stat = osErrorISR;
 532:Middlewares/Third_Party/FreeRTOS/Source/CMSIS_RTOS_V2/cmsis_os2.c ****   }
 533:Middlewares/Third_Party/FreeRTOS/Source/CMSIS_RTOS_V2/cmsis_os2.c ****   else if ((hTask == NULL) || (priority < osPriorityIdle) || (priority > osPriorityISR)) {
 534:Middlewares/Third_Party/FreeRTOS/Source/CMSIS_RTOS_V2/cmsis_os2.c ****     stat = osErrorParameter;
 535:Middlewares/Third_Party/FreeRTOS/Source/CMSIS_RTOS_V2/cmsis_os2.c ****   }
 536:Middlewares/Third_Party/FreeRTOS/Source/CMSIS_RTOS_V2/cmsis_os2.c ****   else {
 537:Middlewares/Third_Party/FreeRTOS/Source/CMSIS_RTOS_V2/cmsis_os2.c ****     stat = osOK;
 538:Middlewares/Third_Party/FreeRTOS/Source/CMSIS_RTOS_V2/cmsis_os2.c ****     vTaskPrioritySet (hTask, (UBaseType_t)priority);
 539:Middlewares/Third_Party/FreeRTOS/Source/CMSIS_RTOS_V2/cmsis_os2.c ****   }
 540:Middlewares/Third_Party/FreeRTOS/Source/CMSIS_RTOS_V2/cmsis_os2.c **** 
 541:Middlewares/Third_Party/FreeRTOS/Source/CMSIS_RTOS_V2/cmsis_os2.c ****   return (stat);
 542:Middlewares/Third_Party/FreeRTOS/Source/CMSIS_RTOS_V2/cmsis_os2.c **** }
ARM GAS  /tmp/ccQGQFth.s 			page 11


 543:Middlewares/Third_Party/FreeRTOS/Source/CMSIS_RTOS_V2/cmsis_os2.c **** 
 544:Middlewares/Third_Party/FreeRTOS/Source/CMSIS_RTOS_V2/cmsis_os2.c **** osPriority_t osThreadGetPriority (osThreadId_t thread_id) {
 545:Middlewares/Third_Party/FreeRTOS/Source/CMSIS_RTOS_V2/cmsis_os2.c ****   TaskHandle_t hTask = (TaskHandle_t)thread_id;
 546:Middlewares/Third_Party/FreeRTOS/Source/CMSIS_RTOS_V2/cmsis_os2.c ****   osPriority_t prio;
 547:Middlewares/Third_Party/FreeRTOS/Source/CMSIS_RTOS_V2/cmsis_os2.c **** 
 548:Middlewares/Third_Party/FreeRTOS/Source/CMSIS_RTOS_V2/cmsis_os2.c ****   if (IS_IRQ() || (hTask == NULL)) {
 549:Middlewares/Third_Party/FreeRTOS/Source/CMSIS_RTOS_V2/cmsis_os2.c ****     prio = osPriorityError;
 550:Middlewares/Third_Party/FreeRTOS/Source/CMSIS_RTOS_V2/cmsis_os2.c ****   } else {
 551:Middlewares/Third_Party/FreeRTOS/Source/CMSIS_RTOS_V2/cmsis_os2.c ****     prio = (osPriority_t)uxTaskPriorityGet (hTask);
 552:Middlewares/Third_Party/FreeRTOS/Source/CMSIS_RTOS_V2/cmsis_os2.c ****   }
 553:Middlewares/Third_Party/FreeRTOS/Source/CMSIS_RTOS_V2/cmsis_os2.c **** 
 554:Middlewares/Third_Party/FreeRTOS/Source/CMSIS_RTOS_V2/cmsis_os2.c ****   return (prio);
 555:Middlewares/Third_Party/FreeRTOS/Source/CMSIS_RTOS_V2/cmsis_os2.c **** }
 556:Middlewares/Third_Party/FreeRTOS/Source/CMSIS_RTOS_V2/cmsis_os2.c **** 
 557:Middlewares/Third_Party/FreeRTOS/Source/CMSIS_RTOS_V2/cmsis_os2.c **** osStatus_t osThreadYield (void) {
 558:Middlewares/Third_Party/FreeRTOS/Source/CMSIS_RTOS_V2/cmsis_os2.c ****   osStatus_t stat;
 559:Middlewares/Third_Party/FreeRTOS/Source/CMSIS_RTOS_V2/cmsis_os2.c **** 
 560:Middlewares/Third_Party/FreeRTOS/Source/CMSIS_RTOS_V2/cmsis_os2.c ****   if (IS_IRQ()) {
 561:Middlewares/Third_Party/FreeRTOS/Source/CMSIS_RTOS_V2/cmsis_os2.c ****     stat = osErrorISR;
 562:Middlewares/Third_Party/FreeRTOS/Source/CMSIS_RTOS_V2/cmsis_os2.c ****   } else {
 563:Middlewares/Third_Party/FreeRTOS/Source/CMSIS_RTOS_V2/cmsis_os2.c ****     stat = osOK;
 564:Middlewares/Third_Party/FreeRTOS/Source/CMSIS_RTOS_V2/cmsis_os2.c ****     taskYIELD();
 565:Middlewares/Third_Party/FreeRTOS/Source/CMSIS_RTOS_V2/cmsis_os2.c ****   }
 566:Middlewares/Third_Party/FreeRTOS/Source/CMSIS_RTOS_V2/cmsis_os2.c **** 
 567:Middlewares/Third_Party/FreeRTOS/Source/CMSIS_RTOS_V2/cmsis_os2.c ****   return (stat);
 568:Middlewares/Third_Party/FreeRTOS/Source/CMSIS_RTOS_V2/cmsis_os2.c **** }
 569:Middlewares/Third_Party/FreeRTOS/Source/CMSIS_RTOS_V2/cmsis_os2.c **** 
 570:Middlewares/Third_Party/FreeRTOS/Source/CMSIS_RTOS_V2/cmsis_os2.c **** osStatus_t osThreadSuspend (osThreadId_t thread_id) {
 571:Middlewares/Third_Party/FreeRTOS/Source/CMSIS_RTOS_V2/cmsis_os2.c ****   TaskHandle_t hTask = (TaskHandle_t)thread_id;
 572:Middlewares/Third_Party/FreeRTOS/Source/CMSIS_RTOS_V2/cmsis_os2.c ****   osStatus_t stat;
 573:Middlewares/Third_Party/FreeRTOS/Source/CMSIS_RTOS_V2/cmsis_os2.c **** 
 574:Middlewares/Third_Party/FreeRTOS/Source/CMSIS_RTOS_V2/cmsis_os2.c ****   if (IS_IRQ()) {
 575:Middlewares/Third_Party/FreeRTOS/Source/CMSIS_RTOS_V2/cmsis_os2.c ****     stat = osErrorISR;
 576:Middlewares/Third_Party/FreeRTOS/Source/CMSIS_RTOS_V2/cmsis_os2.c ****   }
 577:Middlewares/Third_Party/FreeRTOS/Source/CMSIS_RTOS_V2/cmsis_os2.c ****   else if (hTask == NULL) {
 578:Middlewares/Third_Party/FreeRTOS/Source/CMSIS_RTOS_V2/cmsis_os2.c ****     stat = osErrorParameter;
 579:Middlewares/Third_Party/FreeRTOS/Source/CMSIS_RTOS_V2/cmsis_os2.c ****   }
 580:Middlewares/Third_Party/FreeRTOS/Source/CMSIS_RTOS_V2/cmsis_os2.c ****   else {
 581:Middlewares/Third_Party/FreeRTOS/Source/CMSIS_RTOS_V2/cmsis_os2.c ****     stat = osOK;
 582:Middlewares/Third_Party/FreeRTOS/Source/CMSIS_RTOS_V2/cmsis_os2.c ****     vTaskSuspend (hTask);
 583:Middlewares/Third_Party/FreeRTOS/Source/CMSIS_RTOS_V2/cmsis_os2.c ****   }
 584:Middlewares/Third_Party/FreeRTOS/Source/CMSIS_RTOS_V2/cmsis_os2.c **** 
 585:Middlewares/Third_Party/FreeRTOS/Source/CMSIS_RTOS_V2/cmsis_os2.c ****   return (stat);
 586:Middlewares/Third_Party/FreeRTOS/Source/CMSIS_RTOS_V2/cmsis_os2.c **** }
 587:Middlewares/Third_Party/FreeRTOS/Source/CMSIS_RTOS_V2/cmsis_os2.c **** 
 588:Middlewares/Third_Party/FreeRTOS/Source/CMSIS_RTOS_V2/cmsis_os2.c **** osStatus_t osThreadResume (osThreadId_t thread_id) {
 589:Middlewares/Third_Party/FreeRTOS/Source/CMSIS_RTOS_V2/cmsis_os2.c ****   TaskHandle_t hTask = (TaskHandle_t)thread_id;
 590:Middlewares/Third_Party/FreeRTOS/Source/CMSIS_RTOS_V2/cmsis_os2.c ****   osStatus_t stat;
 591:Middlewares/Third_Party/FreeRTOS/Source/CMSIS_RTOS_V2/cmsis_os2.c **** 
 592:Middlewares/Third_Party/FreeRTOS/Source/CMSIS_RTOS_V2/cmsis_os2.c ****   if (IS_IRQ()) {
 593:Middlewares/Third_Party/FreeRTOS/Source/CMSIS_RTOS_V2/cmsis_os2.c ****     stat = osErrorISR;
 594:Middlewares/Third_Party/FreeRTOS/Source/CMSIS_RTOS_V2/cmsis_os2.c ****   }
 595:Middlewares/Third_Party/FreeRTOS/Source/CMSIS_RTOS_V2/cmsis_os2.c ****   else if (hTask == NULL) {
 596:Middlewares/Third_Party/FreeRTOS/Source/CMSIS_RTOS_V2/cmsis_os2.c ****     stat = osErrorParameter;
 597:Middlewares/Third_Party/FreeRTOS/Source/CMSIS_RTOS_V2/cmsis_os2.c ****   }
 598:Middlewares/Third_Party/FreeRTOS/Source/CMSIS_RTOS_V2/cmsis_os2.c ****   else {
 599:Middlewares/Third_Party/FreeRTOS/Source/CMSIS_RTOS_V2/cmsis_os2.c ****     stat = osOK;
ARM GAS  /tmp/ccQGQFth.s 			page 12


 600:Middlewares/Third_Party/FreeRTOS/Source/CMSIS_RTOS_V2/cmsis_os2.c ****     vTaskResume (hTask);
 601:Middlewares/Third_Party/FreeRTOS/Source/CMSIS_RTOS_V2/cmsis_os2.c ****   }
 602:Middlewares/Third_Party/FreeRTOS/Source/CMSIS_RTOS_V2/cmsis_os2.c **** 
 603:Middlewares/Third_Party/FreeRTOS/Source/CMSIS_RTOS_V2/cmsis_os2.c ****   return (stat);
 604:Middlewares/Third_Party/FreeRTOS/Source/CMSIS_RTOS_V2/cmsis_os2.c **** }
 605:Middlewares/Third_Party/FreeRTOS/Source/CMSIS_RTOS_V2/cmsis_os2.c **** 
 606:Middlewares/Third_Party/FreeRTOS/Source/CMSIS_RTOS_V2/cmsis_os2.c **** __NO_RETURN void osThreadExit (void) {
 607:Middlewares/Third_Party/FreeRTOS/Source/CMSIS_RTOS_V2/cmsis_os2.c **** #ifndef USE_FreeRTOS_HEAP_1
 608:Middlewares/Third_Party/FreeRTOS/Source/CMSIS_RTOS_V2/cmsis_os2.c ****   vTaskDelete (NULL);
 609:Middlewares/Third_Party/FreeRTOS/Source/CMSIS_RTOS_V2/cmsis_os2.c **** #endif
 610:Middlewares/Third_Party/FreeRTOS/Source/CMSIS_RTOS_V2/cmsis_os2.c ****   for (;;);
 611:Middlewares/Third_Party/FreeRTOS/Source/CMSIS_RTOS_V2/cmsis_os2.c **** }
 612:Middlewares/Third_Party/FreeRTOS/Source/CMSIS_RTOS_V2/cmsis_os2.c **** 
 613:Middlewares/Third_Party/FreeRTOS/Source/CMSIS_RTOS_V2/cmsis_os2.c **** osStatus_t osThreadTerminate (osThreadId_t thread_id) {
 614:Middlewares/Third_Party/FreeRTOS/Source/CMSIS_RTOS_V2/cmsis_os2.c ****   TaskHandle_t hTask = (TaskHandle_t)thread_id;
 615:Middlewares/Third_Party/FreeRTOS/Source/CMSIS_RTOS_V2/cmsis_os2.c ****   osStatus_t stat;
 616:Middlewares/Third_Party/FreeRTOS/Source/CMSIS_RTOS_V2/cmsis_os2.c **** #ifndef USE_FreeRTOS_HEAP_1
 617:Middlewares/Third_Party/FreeRTOS/Source/CMSIS_RTOS_V2/cmsis_os2.c ****   eTaskState tstate;
 618:Middlewares/Third_Party/FreeRTOS/Source/CMSIS_RTOS_V2/cmsis_os2.c **** 
 619:Middlewares/Third_Party/FreeRTOS/Source/CMSIS_RTOS_V2/cmsis_os2.c ****   if (IS_IRQ()) {
 620:Middlewares/Third_Party/FreeRTOS/Source/CMSIS_RTOS_V2/cmsis_os2.c ****     stat = osErrorISR;
 621:Middlewares/Third_Party/FreeRTOS/Source/CMSIS_RTOS_V2/cmsis_os2.c ****   }
 622:Middlewares/Third_Party/FreeRTOS/Source/CMSIS_RTOS_V2/cmsis_os2.c ****   else if (hTask == NULL) {
 623:Middlewares/Third_Party/FreeRTOS/Source/CMSIS_RTOS_V2/cmsis_os2.c ****     stat = osErrorParameter;
 624:Middlewares/Third_Party/FreeRTOS/Source/CMSIS_RTOS_V2/cmsis_os2.c ****   }
 625:Middlewares/Third_Party/FreeRTOS/Source/CMSIS_RTOS_V2/cmsis_os2.c ****   else {
 626:Middlewares/Third_Party/FreeRTOS/Source/CMSIS_RTOS_V2/cmsis_os2.c ****     tstate = eTaskGetState (hTask);
 627:Middlewares/Third_Party/FreeRTOS/Source/CMSIS_RTOS_V2/cmsis_os2.c **** 
 628:Middlewares/Third_Party/FreeRTOS/Source/CMSIS_RTOS_V2/cmsis_os2.c ****     if (tstate != eDeleted) {
 629:Middlewares/Third_Party/FreeRTOS/Source/CMSIS_RTOS_V2/cmsis_os2.c ****       stat = osOK;
 630:Middlewares/Third_Party/FreeRTOS/Source/CMSIS_RTOS_V2/cmsis_os2.c ****       vTaskDelete (hTask);
 631:Middlewares/Third_Party/FreeRTOS/Source/CMSIS_RTOS_V2/cmsis_os2.c ****     } else {
 632:Middlewares/Third_Party/FreeRTOS/Source/CMSIS_RTOS_V2/cmsis_os2.c ****       stat = osErrorResource;
 633:Middlewares/Third_Party/FreeRTOS/Source/CMSIS_RTOS_V2/cmsis_os2.c ****     }
 634:Middlewares/Third_Party/FreeRTOS/Source/CMSIS_RTOS_V2/cmsis_os2.c ****   }
 635:Middlewares/Third_Party/FreeRTOS/Source/CMSIS_RTOS_V2/cmsis_os2.c **** #else
 636:Middlewares/Third_Party/FreeRTOS/Source/CMSIS_RTOS_V2/cmsis_os2.c ****   stat = osError;
 637:Middlewares/Third_Party/FreeRTOS/Source/CMSIS_RTOS_V2/cmsis_os2.c **** #endif
 638:Middlewares/Third_Party/FreeRTOS/Source/CMSIS_RTOS_V2/cmsis_os2.c **** 
 639:Middlewares/Third_Party/FreeRTOS/Source/CMSIS_RTOS_V2/cmsis_os2.c ****   return (stat);
 640:Middlewares/Third_Party/FreeRTOS/Source/CMSIS_RTOS_V2/cmsis_os2.c **** }
 641:Middlewares/Third_Party/FreeRTOS/Source/CMSIS_RTOS_V2/cmsis_os2.c **** 
 642:Middlewares/Third_Party/FreeRTOS/Source/CMSIS_RTOS_V2/cmsis_os2.c **** uint32_t osThreadGetCount (void) {
 643:Middlewares/Third_Party/FreeRTOS/Source/CMSIS_RTOS_V2/cmsis_os2.c ****   uint32_t count;
 644:Middlewares/Third_Party/FreeRTOS/Source/CMSIS_RTOS_V2/cmsis_os2.c **** 
 645:Middlewares/Third_Party/FreeRTOS/Source/CMSIS_RTOS_V2/cmsis_os2.c ****   if (IS_IRQ()) {
 646:Middlewares/Third_Party/FreeRTOS/Source/CMSIS_RTOS_V2/cmsis_os2.c ****     count = 0U;
 647:Middlewares/Third_Party/FreeRTOS/Source/CMSIS_RTOS_V2/cmsis_os2.c ****   } else {
 648:Middlewares/Third_Party/FreeRTOS/Source/CMSIS_RTOS_V2/cmsis_os2.c ****     count = uxTaskGetNumberOfTasks();
 649:Middlewares/Third_Party/FreeRTOS/Source/CMSIS_RTOS_V2/cmsis_os2.c ****   }
 650:Middlewares/Third_Party/FreeRTOS/Source/CMSIS_RTOS_V2/cmsis_os2.c **** 
 651:Middlewares/Third_Party/FreeRTOS/Source/CMSIS_RTOS_V2/cmsis_os2.c ****   return (count);
 652:Middlewares/Third_Party/FreeRTOS/Source/CMSIS_RTOS_V2/cmsis_os2.c **** }
 653:Middlewares/Third_Party/FreeRTOS/Source/CMSIS_RTOS_V2/cmsis_os2.c **** 
 654:Middlewares/Third_Party/FreeRTOS/Source/CMSIS_RTOS_V2/cmsis_os2.c **** uint32_t osThreadEnumerate (osThreadId_t *thread_array, uint32_t array_items) {
 655:Middlewares/Third_Party/FreeRTOS/Source/CMSIS_RTOS_V2/cmsis_os2.c ****   uint32_t i, count;
 656:Middlewares/Third_Party/FreeRTOS/Source/CMSIS_RTOS_V2/cmsis_os2.c ****   TaskStatus_t *task;
ARM GAS  /tmp/ccQGQFth.s 			page 13


 657:Middlewares/Third_Party/FreeRTOS/Source/CMSIS_RTOS_V2/cmsis_os2.c **** 
 658:Middlewares/Third_Party/FreeRTOS/Source/CMSIS_RTOS_V2/cmsis_os2.c ****   if (IS_IRQ() || (thread_array == NULL) || (array_items == 0U)) {
 659:Middlewares/Third_Party/FreeRTOS/Source/CMSIS_RTOS_V2/cmsis_os2.c ****     count = 0U;
 660:Middlewares/Third_Party/FreeRTOS/Source/CMSIS_RTOS_V2/cmsis_os2.c ****   } else {
 661:Middlewares/Third_Party/FreeRTOS/Source/CMSIS_RTOS_V2/cmsis_os2.c ****     vTaskSuspendAll();
 662:Middlewares/Third_Party/FreeRTOS/Source/CMSIS_RTOS_V2/cmsis_os2.c **** 
 663:Middlewares/Third_Party/FreeRTOS/Source/CMSIS_RTOS_V2/cmsis_os2.c ****     count = uxTaskGetNumberOfTasks();
 664:Middlewares/Third_Party/FreeRTOS/Source/CMSIS_RTOS_V2/cmsis_os2.c ****     task  = pvPortMalloc (count * sizeof(TaskStatus_t));
 665:Middlewares/Third_Party/FreeRTOS/Source/CMSIS_RTOS_V2/cmsis_os2.c **** 
 666:Middlewares/Third_Party/FreeRTOS/Source/CMSIS_RTOS_V2/cmsis_os2.c ****     if (task != NULL) {
 667:Middlewares/Third_Party/FreeRTOS/Source/CMSIS_RTOS_V2/cmsis_os2.c ****       count = uxTaskGetSystemState (task, count, NULL);
 668:Middlewares/Third_Party/FreeRTOS/Source/CMSIS_RTOS_V2/cmsis_os2.c **** 
 669:Middlewares/Third_Party/FreeRTOS/Source/CMSIS_RTOS_V2/cmsis_os2.c ****       for (i = 0U; (i < count) && (i < array_items); i++) {
 670:Middlewares/Third_Party/FreeRTOS/Source/CMSIS_RTOS_V2/cmsis_os2.c ****         thread_array[i] = (osThreadId_t)task[i].xHandle;
 671:Middlewares/Third_Party/FreeRTOS/Source/CMSIS_RTOS_V2/cmsis_os2.c ****       }
 672:Middlewares/Third_Party/FreeRTOS/Source/CMSIS_RTOS_V2/cmsis_os2.c ****       count = i;
 673:Middlewares/Third_Party/FreeRTOS/Source/CMSIS_RTOS_V2/cmsis_os2.c ****     }
 674:Middlewares/Third_Party/FreeRTOS/Source/CMSIS_RTOS_V2/cmsis_os2.c ****     (void)xTaskResumeAll();
 675:Middlewares/Third_Party/FreeRTOS/Source/CMSIS_RTOS_V2/cmsis_os2.c **** 
 676:Middlewares/Third_Party/FreeRTOS/Source/CMSIS_RTOS_V2/cmsis_os2.c ****     vPortFree (task);
 677:Middlewares/Third_Party/FreeRTOS/Source/CMSIS_RTOS_V2/cmsis_os2.c ****   }
 678:Middlewares/Third_Party/FreeRTOS/Source/CMSIS_RTOS_V2/cmsis_os2.c **** 
 679:Middlewares/Third_Party/FreeRTOS/Source/CMSIS_RTOS_V2/cmsis_os2.c ****   return (count);
 680:Middlewares/Third_Party/FreeRTOS/Source/CMSIS_RTOS_V2/cmsis_os2.c **** }
 681:Middlewares/Third_Party/FreeRTOS/Source/CMSIS_RTOS_V2/cmsis_os2.c **** 
 682:Middlewares/Third_Party/FreeRTOS/Source/CMSIS_RTOS_V2/cmsis_os2.c **** uint32_t osThreadFlagsSet (osThreadId_t thread_id, uint32_t flags) {
 683:Middlewares/Third_Party/FreeRTOS/Source/CMSIS_RTOS_V2/cmsis_os2.c ****   TaskHandle_t hTask = (TaskHandle_t)thread_id;
 684:Middlewares/Third_Party/FreeRTOS/Source/CMSIS_RTOS_V2/cmsis_os2.c ****   uint32_t rflags;
 685:Middlewares/Third_Party/FreeRTOS/Source/CMSIS_RTOS_V2/cmsis_os2.c ****   BaseType_t yield;
 686:Middlewares/Third_Party/FreeRTOS/Source/CMSIS_RTOS_V2/cmsis_os2.c **** 
 687:Middlewares/Third_Party/FreeRTOS/Source/CMSIS_RTOS_V2/cmsis_os2.c ****   if ((hTask == NULL) || ((flags & THREAD_FLAGS_INVALID_BITS) != 0U)) {
 688:Middlewares/Third_Party/FreeRTOS/Source/CMSIS_RTOS_V2/cmsis_os2.c ****     rflags = (uint32_t)osErrorParameter;
 689:Middlewares/Third_Party/FreeRTOS/Source/CMSIS_RTOS_V2/cmsis_os2.c ****   }
 690:Middlewares/Third_Party/FreeRTOS/Source/CMSIS_RTOS_V2/cmsis_os2.c ****   else {
 691:Middlewares/Third_Party/FreeRTOS/Source/CMSIS_RTOS_V2/cmsis_os2.c ****     rflags = (uint32_t)osError;
 692:Middlewares/Third_Party/FreeRTOS/Source/CMSIS_RTOS_V2/cmsis_os2.c **** 
 693:Middlewares/Third_Party/FreeRTOS/Source/CMSIS_RTOS_V2/cmsis_os2.c ****     if (IS_IRQ()) {
 694:Middlewares/Third_Party/FreeRTOS/Source/CMSIS_RTOS_V2/cmsis_os2.c ****       yield = pdFALSE;
 695:Middlewares/Third_Party/FreeRTOS/Source/CMSIS_RTOS_V2/cmsis_os2.c **** 
 696:Middlewares/Third_Party/FreeRTOS/Source/CMSIS_RTOS_V2/cmsis_os2.c ****       (void)xTaskNotifyFromISR (hTask, flags, eSetBits, &yield);
 697:Middlewares/Third_Party/FreeRTOS/Source/CMSIS_RTOS_V2/cmsis_os2.c ****       (void)xTaskNotifyAndQueryFromISR (hTask, 0, eNoAction, &rflags, NULL);
 698:Middlewares/Third_Party/FreeRTOS/Source/CMSIS_RTOS_V2/cmsis_os2.c **** 
 699:Middlewares/Third_Party/FreeRTOS/Source/CMSIS_RTOS_V2/cmsis_os2.c ****       portYIELD_FROM_ISR (yield);
 700:Middlewares/Third_Party/FreeRTOS/Source/CMSIS_RTOS_V2/cmsis_os2.c ****     }
 701:Middlewares/Third_Party/FreeRTOS/Source/CMSIS_RTOS_V2/cmsis_os2.c ****     else {
 702:Middlewares/Third_Party/FreeRTOS/Source/CMSIS_RTOS_V2/cmsis_os2.c ****       (void)xTaskNotify (hTask, flags, eSetBits);
 703:Middlewares/Third_Party/FreeRTOS/Source/CMSIS_RTOS_V2/cmsis_os2.c ****       (void)xTaskNotifyAndQuery (hTask, 0, eNoAction, &rflags);
 704:Middlewares/Third_Party/FreeRTOS/Source/CMSIS_RTOS_V2/cmsis_os2.c ****     }
 705:Middlewares/Third_Party/FreeRTOS/Source/CMSIS_RTOS_V2/cmsis_os2.c ****   }
 706:Middlewares/Third_Party/FreeRTOS/Source/CMSIS_RTOS_V2/cmsis_os2.c ****   /* Return flags after setting */
 707:Middlewares/Third_Party/FreeRTOS/Source/CMSIS_RTOS_V2/cmsis_os2.c ****   return (rflags);
 708:Middlewares/Third_Party/FreeRTOS/Source/CMSIS_RTOS_V2/cmsis_os2.c **** }
 709:Middlewares/Third_Party/FreeRTOS/Source/CMSIS_RTOS_V2/cmsis_os2.c **** 
 710:Middlewares/Third_Party/FreeRTOS/Source/CMSIS_RTOS_V2/cmsis_os2.c **** uint32_t osThreadFlagsClear (uint32_t flags) {
 711:Middlewares/Third_Party/FreeRTOS/Source/CMSIS_RTOS_V2/cmsis_os2.c ****   TaskHandle_t hTask;
 712:Middlewares/Third_Party/FreeRTOS/Source/CMSIS_RTOS_V2/cmsis_os2.c ****   uint32_t rflags, cflags;
 713:Middlewares/Third_Party/FreeRTOS/Source/CMSIS_RTOS_V2/cmsis_os2.c **** 
ARM GAS  /tmp/ccQGQFth.s 			page 14


 714:Middlewares/Third_Party/FreeRTOS/Source/CMSIS_RTOS_V2/cmsis_os2.c ****   if (IS_IRQ()) {
 715:Middlewares/Third_Party/FreeRTOS/Source/CMSIS_RTOS_V2/cmsis_os2.c ****     rflags = (uint32_t)osErrorISR;
 716:Middlewares/Third_Party/FreeRTOS/Source/CMSIS_RTOS_V2/cmsis_os2.c ****   }
 717:Middlewares/Third_Party/FreeRTOS/Source/CMSIS_RTOS_V2/cmsis_os2.c ****   else if ((flags & THREAD_FLAGS_INVALID_BITS) != 0U) {
 718:Middlewares/Third_Party/FreeRTOS/Source/CMSIS_RTOS_V2/cmsis_os2.c ****     rflags = (uint32_t)osErrorParameter;
 719:Middlewares/Third_Party/FreeRTOS/Source/CMSIS_RTOS_V2/cmsis_os2.c ****   }
 720:Middlewares/Third_Party/FreeRTOS/Source/CMSIS_RTOS_V2/cmsis_os2.c ****   else {
 721:Middlewares/Third_Party/FreeRTOS/Source/CMSIS_RTOS_V2/cmsis_os2.c ****     hTask = xTaskGetCurrentTaskHandle();
 722:Middlewares/Third_Party/FreeRTOS/Source/CMSIS_RTOS_V2/cmsis_os2.c **** 
 723:Middlewares/Third_Party/FreeRTOS/Source/CMSIS_RTOS_V2/cmsis_os2.c ****     if (xTaskNotifyAndQuery (hTask, 0, eNoAction, &cflags) == pdPASS) {
 724:Middlewares/Third_Party/FreeRTOS/Source/CMSIS_RTOS_V2/cmsis_os2.c ****       rflags = cflags;
 725:Middlewares/Third_Party/FreeRTOS/Source/CMSIS_RTOS_V2/cmsis_os2.c ****       cflags &= ~flags;
 726:Middlewares/Third_Party/FreeRTOS/Source/CMSIS_RTOS_V2/cmsis_os2.c **** 
 727:Middlewares/Third_Party/FreeRTOS/Source/CMSIS_RTOS_V2/cmsis_os2.c ****       if (xTaskNotify (hTask, cflags, eSetValueWithOverwrite) != pdPASS) {
 728:Middlewares/Third_Party/FreeRTOS/Source/CMSIS_RTOS_V2/cmsis_os2.c ****         rflags = (uint32_t)osError;
 729:Middlewares/Third_Party/FreeRTOS/Source/CMSIS_RTOS_V2/cmsis_os2.c ****       }
 730:Middlewares/Third_Party/FreeRTOS/Source/CMSIS_RTOS_V2/cmsis_os2.c ****     }
 731:Middlewares/Third_Party/FreeRTOS/Source/CMSIS_RTOS_V2/cmsis_os2.c ****     else {
 732:Middlewares/Third_Party/FreeRTOS/Source/CMSIS_RTOS_V2/cmsis_os2.c ****       rflags = (uint32_t)osError;
 733:Middlewares/Third_Party/FreeRTOS/Source/CMSIS_RTOS_V2/cmsis_os2.c ****     }
 734:Middlewares/Third_Party/FreeRTOS/Source/CMSIS_RTOS_V2/cmsis_os2.c ****   }
 735:Middlewares/Third_Party/FreeRTOS/Source/CMSIS_RTOS_V2/cmsis_os2.c **** 
 736:Middlewares/Third_Party/FreeRTOS/Source/CMSIS_RTOS_V2/cmsis_os2.c ****   /* Return flags before clearing */
 737:Middlewares/Third_Party/FreeRTOS/Source/CMSIS_RTOS_V2/cmsis_os2.c ****   return (rflags);
 738:Middlewares/Third_Party/FreeRTOS/Source/CMSIS_RTOS_V2/cmsis_os2.c **** }
 739:Middlewares/Third_Party/FreeRTOS/Source/CMSIS_RTOS_V2/cmsis_os2.c **** 
 740:Middlewares/Third_Party/FreeRTOS/Source/CMSIS_RTOS_V2/cmsis_os2.c **** uint32_t osThreadFlagsGet (void) {
 741:Middlewares/Third_Party/FreeRTOS/Source/CMSIS_RTOS_V2/cmsis_os2.c ****   TaskHandle_t hTask;
 742:Middlewares/Third_Party/FreeRTOS/Source/CMSIS_RTOS_V2/cmsis_os2.c ****   uint32_t rflags;
 743:Middlewares/Third_Party/FreeRTOS/Source/CMSIS_RTOS_V2/cmsis_os2.c **** 
 744:Middlewares/Third_Party/FreeRTOS/Source/CMSIS_RTOS_V2/cmsis_os2.c ****   if (IS_IRQ()) {
 745:Middlewares/Third_Party/FreeRTOS/Source/CMSIS_RTOS_V2/cmsis_os2.c ****     rflags = (uint32_t)osErrorISR;
 746:Middlewares/Third_Party/FreeRTOS/Source/CMSIS_RTOS_V2/cmsis_os2.c ****   }
 747:Middlewares/Third_Party/FreeRTOS/Source/CMSIS_RTOS_V2/cmsis_os2.c ****   else {
 748:Middlewares/Third_Party/FreeRTOS/Source/CMSIS_RTOS_V2/cmsis_os2.c ****     hTask = xTaskGetCurrentTaskHandle();
 749:Middlewares/Third_Party/FreeRTOS/Source/CMSIS_RTOS_V2/cmsis_os2.c **** 
 750:Middlewares/Third_Party/FreeRTOS/Source/CMSIS_RTOS_V2/cmsis_os2.c ****     if (xTaskNotifyAndQuery (hTask, 0, eNoAction, &rflags) != pdPASS) {
 751:Middlewares/Third_Party/FreeRTOS/Source/CMSIS_RTOS_V2/cmsis_os2.c ****       rflags = (uint32_t)osError;
 752:Middlewares/Third_Party/FreeRTOS/Source/CMSIS_RTOS_V2/cmsis_os2.c ****     }
 753:Middlewares/Third_Party/FreeRTOS/Source/CMSIS_RTOS_V2/cmsis_os2.c ****   }
 754:Middlewares/Third_Party/FreeRTOS/Source/CMSIS_RTOS_V2/cmsis_os2.c **** 
 755:Middlewares/Third_Party/FreeRTOS/Source/CMSIS_RTOS_V2/cmsis_os2.c ****   return (rflags);
 756:Middlewares/Third_Party/FreeRTOS/Source/CMSIS_RTOS_V2/cmsis_os2.c **** }
 757:Middlewares/Third_Party/FreeRTOS/Source/CMSIS_RTOS_V2/cmsis_os2.c **** 
 758:Middlewares/Third_Party/FreeRTOS/Source/CMSIS_RTOS_V2/cmsis_os2.c **** uint32_t osThreadFlagsWait (uint32_t flags, uint32_t options, uint32_t timeout) {
 759:Middlewares/Third_Party/FreeRTOS/Source/CMSIS_RTOS_V2/cmsis_os2.c ****   uint32_t rflags, nval;
 760:Middlewares/Third_Party/FreeRTOS/Source/CMSIS_RTOS_V2/cmsis_os2.c ****   uint32_t clear;
 761:Middlewares/Third_Party/FreeRTOS/Source/CMSIS_RTOS_V2/cmsis_os2.c ****   TickType_t t0, td, tout;
 762:Middlewares/Third_Party/FreeRTOS/Source/CMSIS_RTOS_V2/cmsis_os2.c ****   BaseType_t rval;
 763:Middlewares/Third_Party/FreeRTOS/Source/CMSIS_RTOS_V2/cmsis_os2.c **** 
 764:Middlewares/Third_Party/FreeRTOS/Source/CMSIS_RTOS_V2/cmsis_os2.c ****   if (IS_IRQ()) {
 765:Middlewares/Third_Party/FreeRTOS/Source/CMSIS_RTOS_V2/cmsis_os2.c ****     rflags = (uint32_t)osErrorISR;
 766:Middlewares/Third_Party/FreeRTOS/Source/CMSIS_RTOS_V2/cmsis_os2.c ****   }
 767:Middlewares/Third_Party/FreeRTOS/Source/CMSIS_RTOS_V2/cmsis_os2.c ****   else if ((flags & THREAD_FLAGS_INVALID_BITS) != 0U) {
 768:Middlewares/Third_Party/FreeRTOS/Source/CMSIS_RTOS_V2/cmsis_os2.c ****     rflags = (uint32_t)osErrorParameter;
 769:Middlewares/Third_Party/FreeRTOS/Source/CMSIS_RTOS_V2/cmsis_os2.c ****   }
 770:Middlewares/Third_Party/FreeRTOS/Source/CMSIS_RTOS_V2/cmsis_os2.c ****   else {
ARM GAS  /tmp/ccQGQFth.s 			page 15


 771:Middlewares/Third_Party/FreeRTOS/Source/CMSIS_RTOS_V2/cmsis_os2.c ****     if ((options & osFlagsNoClear) == osFlagsNoClear) {
 772:Middlewares/Third_Party/FreeRTOS/Source/CMSIS_RTOS_V2/cmsis_os2.c ****       clear = 0U;
 773:Middlewares/Third_Party/FreeRTOS/Source/CMSIS_RTOS_V2/cmsis_os2.c ****     } else {
 774:Middlewares/Third_Party/FreeRTOS/Source/CMSIS_RTOS_V2/cmsis_os2.c ****       clear = flags;
 775:Middlewares/Third_Party/FreeRTOS/Source/CMSIS_RTOS_V2/cmsis_os2.c ****     }
 776:Middlewares/Third_Party/FreeRTOS/Source/CMSIS_RTOS_V2/cmsis_os2.c **** 
 777:Middlewares/Third_Party/FreeRTOS/Source/CMSIS_RTOS_V2/cmsis_os2.c ****     rflags = 0U;
 778:Middlewares/Third_Party/FreeRTOS/Source/CMSIS_RTOS_V2/cmsis_os2.c ****     tout   = timeout;
 779:Middlewares/Third_Party/FreeRTOS/Source/CMSIS_RTOS_V2/cmsis_os2.c **** 
 780:Middlewares/Third_Party/FreeRTOS/Source/CMSIS_RTOS_V2/cmsis_os2.c ****     t0 = xTaskGetTickCount();
 781:Middlewares/Third_Party/FreeRTOS/Source/CMSIS_RTOS_V2/cmsis_os2.c ****     do {
 782:Middlewares/Third_Party/FreeRTOS/Source/CMSIS_RTOS_V2/cmsis_os2.c ****       rval = xTaskNotifyWait (0, clear, &nval, tout);
 783:Middlewares/Third_Party/FreeRTOS/Source/CMSIS_RTOS_V2/cmsis_os2.c **** 
 784:Middlewares/Third_Party/FreeRTOS/Source/CMSIS_RTOS_V2/cmsis_os2.c ****       if (rval == pdPASS) {
 785:Middlewares/Third_Party/FreeRTOS/Source/CMSIS_RTOS_V2/cmsis_os2.c ****         rflags &= flags;
 786:Middlewares/Third_Party/FreeRTOS/Source/CMSIS_RTOS_V2/cmsis_os2.c ****         rflags |= nval;
 787:Middlewares/Third_Party/FreeRTOS/Source/CMSIS_RTOS_V2/cmsis_os2.c **** 
 788:Middlewares/Third_Party/FreeRTOS/Source/CMSIS_RTOS_V2/cmsis_os2.c ****         if ((options & osFlagsWaitAll) == osFlagsWaitAll) {
 789:Middlewares/Third_Party/FreeRTOS/Source/CMSIS_RTOS_V2/cmsis_os2.c ****           if ((flags & rflags) == flags) {
 790:Middlewares/Third_Party/FreeRTOS/Source/CMSIS_RTOS_V2/cmsis_os2.c ****             break;
 791:Middlewares/Third_Party/FreeRTOS/Source/CMSIS_RTOS_V2/cmsis_os2.c ****           } else {
 792:Middlewares/Third_Party/FreeRTOS/Source/CMSIS_RTOS_V2/cmsis_os2.c ****             if (timeout == 0U) {
 793:Middlewares/Third_Party/FreeRTOS/Source/CMSIS_RTOS_V2/cmsis_os2.c ****               rflags = (uint32_t)osErrorResource;
 794:Middlewares/Third_Party/FreeRTOS/Source/CMSIS_RTOS_V2/cmsis_os2.c ****               break;
 795:Middlewares/Third_Party/FreeRTOS/Source/CMSIS_RTOS_V2/cmsis_os2.c ****             }
 796:Middlewares/Third_Party/FreeRTOS/Source/CMSIS_RTOS_V2/cmsis_os2.c ****           }
 797:Middlewares/Third_Party/FreeRTOS/Source/CMSIS_RTOS_V2/cmsis_os2.c ****         }
 798:Middlewares/Third_Party/FreeRTOS/Source/CMSIS_RTOS_V2/cmsis_os2.c ****         else {
 799:Middlewares/Third_Party/FreeRTOS/Source/CMSIS_RTOS_V2/cmsis_os2.c ****           if ((flags & rflags) != 0) {
 800:Middlewares/Third_Party/FreeRTOS/Source/CMSIS_RTOS_V2/cmsis_os2.c ****             break;
 801:Middlewares/Third_Party/FreeRTOS/Source/CMSIS_RTOS_V2/cmsis_os2.c ****           } else {
 802:Middlewares/Third_Party/FreeRTOS/Source/CMSIS_RTOS_V2/cmsis_os2.c ****             if (timeout == 0U) {
 803:Middlewares/Third_Party/FreeRTOS/Source/CMSIS_RTOS_V2/cmsis_os2.c ****               rflags = (uint32_t)osErrorResource;
 804:Middlewares/Third_Party/FreeRTOS/Source/CMSIS_RTOS_V2/cmsis_os2.c ****               break;
 805:Middlewares/Third_Party/FreeRTOS/Source/CMSIS_RTOS_V2/cmsis_os2.c ****             }
 806:Middlewares/Third_Party/FreeRTOS/Source/CMSIS_RTOS_V2/cmsis_os2.c ****           }
 807:Middlewares/Third_Party/FreeRTOS/Source/CMSIS_RTOS_V2/cmsis_os2.c ****         }
 808:Middlewares/Third_Party/FreeRTOS/Source/CMSIS_RTOS_V2/cmsis_os2.c **** 
 809:Middlewares/Third_Party/FreeRTOS/Source/CMSIS_RTOS_V2/cmsis_os2.c ****         /* Update timeout */
 810:Middlewares/Third_Party/FreeRTOS/Source/CMSIS_RTOS_V2/cmsis_os2.c ****         td = xTaskGetTickCount() - t0;
 811:Middlewares/Third_Party/FreeRTOS/Source/CMSIS_RTOS_V2/cmsis_os2.c **** 
 812:Middlewares/Third_Party/FreeRTOS/Source/CMSIS_RTOS_V2/cmsis_os2.c ****         if (td > tout) {
 813:Middlewares/Third_Party/FreeRTOS/Source/CMSIS_RTOS_V2/cmsis_os2.c ****           tout  = 0;
 814:Middlewares/Third_Party/FreeRTOS/Source/CMSIS_RTOS_V2/cmsis_os2.c ****         } else {
 815:Middlewares/Third_Party/FreeRTOS/Source/CMSIS_RTOS_V2/cmsis_os2.c ****           tout -= td;
 816:Middlewares/Third_Party/FreeRTOS/Source/CMSIS_RTOS_V2/cmsis_os2.c ****         }
 817:Middlewares/Third_Party/FreeRTOS/Source/CMSIS_RTOS_V2/cmsis_os2.c ****       }
 818:Middlewares/Third_Party/FreeRTOS/Source/CMSIS_RTOS_V2/cmsis_os2.c ****       else {
 819:Middlewares/Third_Party/FreeRTOS/Source/CMSIS_RTOS_V2/cmsis_os2.c ****         if (timeout == 0) {
 820:Middlewares/Third_Party/FreeRTOS/Source/CMSIS_RTOS_V2/cmsis_os2.c ****           rflags = (uint32_t)osErrorResource;
 821:Middlewares/Third_Party/FreeRTOS/Source/CMSIS_RTOS_V2/cmsis_os2.c ****         } else {
 822:Middlewares/Third_Party/FreeRTOS/Source/CMSIS_RTOS_V2/cmsis_os2.c ****           rflags = (uint32_t)osErrorTimeout;
 823:Middlewares/Third_Party/FreeRTOS/Source/CMSIS_RTOS_V2/cmsis_os2.c ****         }
 824:Middlewares/Third_Party/FreeRTOS/Source/CMSIS_RTOS_V2/cmsis_os2.c ****       }
 825:Middlewares/Third_Party/FreeRTOS/Source/CMSIS_RTOS_V2/cmsis_os2.c ****     }
 826:Middlewares/Third_Party/FreeRTOS/Source/CMSIS_RTOS_V2/cmsis_os2.c ****     while (rval != pdFAIL);
 827:Middlewares/Third_Party/FreeRTOS/Source/CMSIS_RTOS_V2/cmsis_os2.c ****   }
ARM GAS  /tmp/ccQGQFth.s 			page 16


 828:Middlewares/Third_Party/FreeRTOS/Source/CMSIS_RTOS_V2/cmsis_os2.c **** 
 829:Middlewares/Third_Party/FreeRTOS/Source/CMSIS_RTOS_V2/cmsis_os2.c ****   /* Return flags before clearing */
 830:Middlewares/Third_Party/FreeRTOS/Source/CMSIS_RTOS_V2/cmsis_os2.c ****   return (rflags);
 831:Middlewares/Third_Party/FreeRTOS/Source/CMSIS_RTOS_V2/cmsis_os2.c **** }
 832:Middlewares/Third_Party/FreeRTOS/Source/CMSIS_RTOS_V2/cmsis_os2.c **** 
 833:Middlewares/Third_Party/FreeRTOS/Source/CMSIS_RTOS_V2/cmsis_os2.c **** osStatus_t osDelay (uint32_t ticks) {
 834:Middlewares/Third_Party/FreeRTOS/Source/CMSIS_RTOS_V2/cmsis_os2.c ****   osStatus_t stat;
 835:Middlewares/Third_Party/FreeRTOS/Source/CMSIS_RTOS_V2/cmsis_os2.c **** 
 836:Middlewares/Third_Party/FreeRTOS/Source/CMSIS_RTOS_V2/cmsis_os2.c ****   if (IS_IRQ()) {
 837:Middlewares/Third_Party/FreeRTOS/Source/CMSIS_RTOS_V2/cmsis_os2.c ****     stat = osErrorISR;
 838:Middlewares/Third_Party/FreeRTOS/Source/CMSIS_RTOS_V2/cmsis_os2.c ****   }
 839:Middlewares/Third_Party/FreeRTOS/Source/CMSIS_RTOS_V2/cmsis_os2.c ****   else {
 840:Middlewares/Third_Party/FreeRTOS/Source/CMSIS_RTOS_V2/cmsis_os2.c ****     stat = osOK;
 841:Middlewares/Third_Party/FreeRTOS/Source/CMSIS_RTOS_V2/cmsis_os2.c **** 
 842:Middlewares/Third_Party/FreeRTOS/Source/CMSIS_RTOS_V2/cmsis_os2.c ****     if (ticks != 0U) {
 843:Middlewares/Third_Party/FreeRTOS/Source/CMSIS_RTOS_V2/cmsis_os2.c ****       vTaskDelay(ticks);
 844:Middlewares/Third_Party/FreeRTOS/Source/CMSIS_RTOS_V2/cmsis_os2.c ****     }
 845:Middlewares/Third_Party/FreeRTOS/Source/CMSIS_RTOS_V2/cmsis_os2.c ****   }
 846:Middlewares/Third_Party/FreeRTOS/Source/CMSIS_RTOS_V2/cmsis_os2.c **** 
 847:Middlewares/Third_Party/FreeRTOS/Source/CMSIS_RTOS_V2/cmsis_os2.c ****   return (stat);
 848:Middlewares/Third_Party/FreeRTOS/Source/CMSIS_RTOS_V2/cmsis_os2.c **** }
 849:Middlewares/Third_Party/FreeRTOS/Source/CMSIS_RTOS_V2/cmsis_os2.c **** 
 850:Middlewares/Third_Party/FreeRTOS/Source/CMSIS_RTOS_V2/cmsis_os2.c **** osStatus_t osDelayUntil (uint32_t ticks) {
 851:Middlewares/Third_Party/FreeRTOS/Source/CMSIS_RTOS_V2/cmsis_os2.c ****   TickType_t tcnt, delay;
 852:Middlewares/Third_Party/FreeRTOS/Source/CMSIS_RTOS_V2/cmsis_os2.c ****   osStatus_t stat;
 853:Middlewares/Third_Party/FreeRTOS/Source/CMSIS_RTOS_V2/cmsis_os2.c **** 
 854:Middlewares/Third_Party/FreeRTOS/Source/CMSIS_RTOS_V2/cmsis_os2.c ****   if (IS_IRQ()) {
 855:Middlewares/Third_Party/FreeRTOS/Source/CMSIS_RTOS_V2/cmsis_os2.c ****     stat = osErrorISR;
 856:Middlewares/Third_Party/FreeRTOS/Source/CMSIS_RTOS_V2/cmsis_os2.c ****   }
 857:Middlewares/Third_Party/FreeRTOS/Source/CMSIS_RTOS_V2/cmsis_os2.c ****   else {
 858:Middlewares/Third_Party/FreeRTOS/Source/CMSIS_RTOS_V2/cmsis_os2.c ****     stat = osOK;
 859:Middlewares/Third_Party/FreeRTOS/Source/CMSIS_RTOS_V2/cmsis_os2.c ****     tcnt = xTaskGetTickCount();
 860:Middlewares/Third_Party/FreeRTOS/Source/CMSIS_RTOS_V2/cmsis_os2.c **** 
 861:Middlewares/Third_Party/FreeRTOS/Source/CMSIS_RTOS_V2/cmsis_os2.c ****     /* Determine remaining number of ticks to delay */
 862:Middlewares/Third_Party/FreeRTOS/Source/CMSIS_RTOS_V2/cmsis_os2.c ****     delay = (TickType_t)ticks - tcnt;
 863:Middlewares/Third_Party/FreeRTOS/Source/CMSIS_RTOS_V2/cmsis_os2.c **** 
 864:Middlewares/Third_Party/FreeRTOS/Source/CMSIS_RTOS_V2/cmsis_os2.c ****     /* Check if target tick has not expired */
 865:Middlewares/Third_Party/FreeRTOS/Source/CMSIS_RTOS_V2/cmsis_os2.c ****     if((delay != 0U) && (0 == (delay >> (8 * sizeof(TickType_t) - 1)))) {
 866:Middlewares/Third_Party/FreeRTOS/Source/CMSIS_RTOS_V2/cmsis_os2.c ****       vTaskDelayUntil (&tcnt, delay);
 867:Middlewares/Third_Party/FreeRTOS/Source/CMSIS_RTOS_V2/cmsis_os2.c ****     }
 868:Middlewares/Third_Party/FreeRTOS/Source/CMSIS_RTOS_V2/cmsis_os2.c ****     else
 869:Middlewares/Third_Party/FreeRTOS/Source/CMSIS_RTOS_V2/cmsis_os2.c ****     {
 870:Middlewares/Third_Party/FreeRTOS/Source/CMSIS_RTOS_V2/cmsis_os2.c ****       /* No delay or already expired */
 871:Middlewares/Third_Party/FreeRTOS/Source/CMSIS_RTOS_V2/cmsis_os2.c ****       stat = osErrorParameter;
 872:Middlewares/Third_Party/FreeRTOS/Source/CMSIS_RTOS_V2/cmsis_os2.c ****     }
 873:Middlewares/Third_Party/FreeRTOS/Source/CMSIS_RTOS_V2/cmsis_os2.c ****   }
 874:Middlewares/Third_Party/FreeRTOS/Source/CMSIS_RTOS_V2/cmsis_os2.c **** 
 875:Middlewares/Third_Party/FreeRTOS/Source/CMSIS_RTOS_V2/cmsis_os2.c ****   return (stat);
 876:Middlewares/Third_Party/FreeRTOS/Source/CMSIS_RTOS_V2/cmsis_os2.c **** }
 877:Middlewares/Third_Party/FreeRTOS/Source/CMSIS_RTOS_V2/cmsis_os2.c **** 
 878:Middlewares/Third_Party/FreeRTOS/Source/CMSIS_RTOS_V2/cmsis_os2.c **** /*---------------------------------------------------------------------------*/
 879:Middlewares/Third_Party/FreeRTOS/Source/CMSIS_RTOS_V2/cmsis_os2.c **** 
 880:Middlewares/Third_Party/FreeRTOS/Source/CMSIS_RTOS_V2/cmsis_os2.c **** static void TimerCallback (TimerHandle_t hTimer) {
  30              		.loc 1 880 50 view -0
  31              		.cfi_startproc
  32              		@ args = 0, pretend = 0, frame = 0
  33              		@ frame_needed = 0, uses_anonymous_args = 0
ARM GAS  /tmp/ccQGQFth.s 			page 17


 881:Middlewares/Third_Party/FreeRTOS/Source/CMSIS_RTOS_V2/cmsis_os2.c ****   TimerCallback_t *callb;
  34              		.loc 1 881 3 view .LVU1
 882:Middlewares/Third_Party/FreeRTOS/Source/CMSIS_RTOS_V2/cmsis_os2.c **** 
 883:Middlewares/Third_Party/FreeRTOS/Source/CMSIS_RTOS_V2/cmsis_os2.c ****   callb = (TimerCallback_t *)pvTimerGetTimerID (hTimer);
  35              		.loc 1 883 3 view .LVU2
 880:Middlewares/Third_Party/FreeRTOS/Source/CMSIS_RTOS_V2/cmsis_os2.c ****   TimerCallback_t *callb;
  36              		.loc 1 880 50 is_stmt 0 view .LVU3
  37 0000 10B5     		push	{r4, lr}
  38              	.LCFI0:
  39              		.cfi_def_cfa_offset 8
  40              		.cfi_offset 4, -8
  41              		.cfi_offset 14, -4
  42              		.loc 1 883 30 view .LVU4
  43 0002 FFF7FEFF 		bl	pvTimerGetTimerID
  44              	.LVL1:
 884:Middlewares/Third_Party/FreeRTOS/Source/CMSIS_RTOS_V2/cmsis_os2.c **** 
 885:Middlewares/Third_Party/FreeRTOS/Source/CMSIS_RTOS_V2/cmsis_os2.c ****   if (callb != NULL) {
  45              		.loc 1 885 3 is_stmt 1 view .LVU5
  46              		.loc 1 885 6 is_stmt 0 view .LVU6
  47 0006 20B1     		cbz	r0, .L1
 886:Middlewares/Third_Party/FreeRTOS/Source/CMSIS_RTOS_V2/cmsis_os2.c ****     callb->func (callb->arg);
  48              		.loc 1 886 5 is_stmt 1 view .LVU7
 887:Middlewares/Third_Party/FreeRTOS/Source/CMSIS_RTOS_V2/cmsis_os2.c ****   }
 888:Middlewares/Third_Party/FreeRTOS/Source/CMSIS_RTOS_V2/cmsis_os2.c **** }
  49              		.loc 1 888 1 is_stmt 0 view .LVU8
  50 0008 BDE81040 		pop	{r4, lr}
  51              	.LCFI1:
  52              		.cfi_remember_state
  53              		.cfi_restore 14
  54              		.cfi_restore 4
  55              		.cfi_def_cfa_offset 0
 886:Middlewares/Third_Party/FreeRTOS/Source/CMSIS_RTOS_V2/cmsis_os2.c ****     callb->func (callb->arg);
  56              		.loc 1 886 5 view .LVU9
  57 000c D0E90030 		ldrd	r3, r0, [r0]
  58              	.LVL2:
 886:Middlewares/Third_Party/FreeRTOS/Source/CMSIS_RTOS_V2/cmsis_os2.c ****     callb->func (callb->arg);
  59              		.loc 1 886 5 view .LVU10
  60 0010 1847     		bx	r3	@ indirect register sibling call
  61              	.LVL3:
  62              	.L1:
  63              	.LCFI2:
  64              		.cfi_restore_state
  65              		.loc 1 888 1 view .LVU11
  66 0012 10BD     		pop	{r4, pc}
  67              		.cfi_endproc
  68              	.LFE140:
  70              		.section	.text.osKernelInitialize,"ax",%progbits
  71              		.align	1
  72              		.p2align 2,,3
  73              		.global	osKernelInitialize
  74              		.syntax unified
  75              		.thumb
  76              		.thumb_func
  77              		.fpu fpv4-sp-d16
  79              	osKernelInitialize:
  80              	.LFB109:
 185:Middlewares/Third_Party/FreeRTOS/Source/CMSIS_RTOS_V2/cmsis_os2.c ****   osStatus_t stat;
ARM GAS  /tmp/ccQGQFth.s 			page 18


  81              		.loc 1 185 38 is_stmt 1 view -0
  82              		.cfi_startproc
  83              		@ args = 0, pretend = 0, frame = 0
  84              		@ frame_needed = 0, uses_anonymous_args = 0
  85              		@ link register save eliminated.
 186:Middlewares/Third_Party/FreeRTOS/Source/CMSIS_RTOS_V2/cmsis_os2.c **** 
  86              		.loc 1 186 3 view .LVU13
 188:Middlewares/Third_Party/FreeRTOS/Source/CMSIS_RTOS_V2/cmsis_os2.c ****     stat = osErrorISR;
  87              		.loc 1 188 3 view .LVU14
  88              	.LBB340:
  89              	.LBI340:
  90              		.file 2 "Drivers/CMSIS/Include/cmsis_gcc.h"
   1:Drivers/CMSIS/Include/cmsis_gcc.h **** /**************************************************************************//**
   2:Drivers/CMSIS/Include/cmsis_gcc.h ****  * @file     cmsis_gcc.h
   3:Drivers/CMSIS/Include/cmsis_gcc.h ****  * @brief    CMSIS compiler GCC header file
   4:Drivers/CMSIS/Include/cmsis_gcc.h ****  * @version  V5.2.0
   5:Drivers/CMSIS/Include/cmsis_gcc.h ****  * @date     08. May 2019
   6:Drivers/CMSIS/Include/cmsis_gcc.h ****  ******************************************************************************/
   7:Drivers/CMSIS/Include/cmsis_gcc.h **** /*
   8:Drivers/CMSIS/Include/cmsis_gcc.h ****  * Copyright (c) 2009-2019 Arm Limited. All rights reserved.
   9:Drivers/CMSIS/Include/cmsis_gcc.h ****  *
  10:Drivers/CMSIS/Include/cmsis_gcc.h ****  * SPDX-License-Identifier: Apache-2.0
  11:Drivers/CMSIS/Include/cmsis_gcc.h ****  *
  12:Drivers/CMSIS/Include/cmsis_gcc.h ****  * Licensed under the Apache License, Version 2.0 (the License); you may
  13:Drivers/CMSIS/Include/cmsis_gcc.h ****  * not use this file except in compliance with the License.
  14:Drivers/CMSIS/Include/cmsis_gcc.h ****  * You may obtain a copy of the License at
  15:Drivers/CMSIS/Include/cmsis_gcc.h ****  *
  16:Drivers/CMSIS/Include/cmsis_gcc.h ****  * www.apache.org/licenses/LICENSE-2.0
  17:Drivers/CMSIS/Include/cmsis_gcc.h ****  *
  18:Drivers/CMSIS/Include/cmsis_gcc.h ****  * Unless required by applicable law or agreed to in writing, software
  19:Drivers/CMSIS/Include/cmsis_gcc.h ****  * distributed under the License is distributed on an AS IS BASIS, WITHOUT
  20:Drivers/CMSIS/Include/cmsis_gcc.h ****  * WARRANTIES OR CONDITIONS OF ANY KIND, either express or implied.
  21:Drivers/CMSIS/Include/cmsis_gcc.h ****  * See the License for the specific language governing permissions and
  22:Drivers/CMSIS/Include/cmsis_gcc.h ****  * limitations under the License.
  23:Drivers/CMSIS/Include/cmsis_gcc.h ****  */
  24:Drivers/CMSIS/Include/cmsis_gcc.h **** 
  25:Drivers/CMSIS/Include/cmsis_gcc.h **** #ifndef __CMSIS_GCC_H
  26:Drivers/CMSIS/Include/cmsis_gcc.h **** #define __CMSIS_GCC_H
  27:Drivers/CMSIS/Include/cmsis_gcc.h **** 
  28:Drivers/CMSIS/Include/cmsis_gcc.h **** /* ignore some GCC warnings */
  29:Drivers/CMSIS/Include/cmsis_gcc.h **** #pragma GCC diagnostic push
  30:Drivers/CMSIS/Include/cmsis_gcc.h **** #pragma GCC diagnostic ignored "-Wsign-conversion"
  31:Drivers/CMSIS/Include/cmsis_gcc.h **** #pragma GCC diagnostic ignored "-Wconversion"
  32:Drivers/CMSIS/Include/cmsis_gcc.h **** #pragma GCC diagnostic ignored "-Wunused-parameter"
  33:Drivers/CMSIS/Include/cmsis_gcc.h **** 
  34:Drivers/CMSIS/Include/cmsis_gcc.h **** /* Fallback for __has_builtin */
  35:Drivers/CMSIS/Include/cmsis_gcc.h **** #ifndef __has_builtin
  36:Drivers/CMSIS/Include/cmsis_gcc.h ****   #define __has_builtin(x) (0)
  37:Drivers/CMSIS/Include/cmsis_gcc.h **** #endif
  38:Drivers/CMSIS/Include/cmsis_gcc.h **** 
  39:Drivers/CMSIS/Include/cmsis_gcc.h **** /* CMSIS compiler specific defines */
  40:Drivers/CMSIS/Include/cmsis_gcc.h **** #ifndef   __ASM
  41:Drivers/CMSIS/Include/cmsis_gcc.h ****   #define __ASM                                  __asm
  42:Drivers/CMSIS/Include/cmsis_gcc.h **** #endif
  43:Drivers/CMSIS/Include/cmsis_gcc.h **** #ifndef   __INLINE
  44:Drivers/CMSIS/Include/cmsis_gcc.h ****   #define __INLINE                               inline
  45:Drivers/CMSIS/Include/cmsis_gcc.h **** #endif
ARM GAS  /tmp/ccQGQFth.s 			page 19


  46:Drivers/CMSIS/Include/cmsis_gcc.h **** #ifndef   __STATIC_INLINE
  47:Drivers/CMSIS/Include/cmsis_gcc.h ****   #define __STATIC_INLINE                        static inline
  48:Drivers/CMSIS/Include/cmsis_gcc.h **** #endif
  49:Drivers/CMSIS/Include/cmsis_gcc.h **** #ifndef   __STATIC_FORCEINLINE                 
  50:Drivers/CMSIS/Include/cmsis_gcc.h ****   #define __STATIC_FORCEINLINE                   __attribute__((always_inline)) static inline
  51:Drivers/CMSIS/Include/cmsis_gcc.h **** #endif                                           
  52:Drivers/CMSIS/Include/cmsis_gcc.h **** #ifndef   __NO_RETURN
  53:Drivers/CMSIS/Include/cmsis_gcc.h ****   #define __NO_RETURN                            __attribute__((__noreturn__))
  54:Drivers/CMSIS/Include/cmsis_gcc.h **** #endif
  55:Drivers/CMSIS/Include/cmsis_gcc.h **** #ifndef   __USED
  56:Drivers/CMSIS/Include/cmsis_gcc.h ****   #define __USED                                 __attribute__((used))
  57:Drivers/CMSIS/Include/cmsis_gcc.h **** #endif
  58:Drivers/CMSIS/Include/cmsis_gcc.h **** #ifndef   __WEAK
  59:Drivers/CMSIS/Include/cmsis_gcc.h ****   #define __WEAK                                 __attribute__((weak))
  60:Drivers/CMSIS/Include/cmsis_gcc.h **** #endif
  61:Drivers/CMSIS/Include/cmsis_gcc.h **** #ifndef   __PACKED
  62:Drivers/CMSIS/Include/cmsis_gcc.h ****   #define __PACKED                               __attribute__((packed, aligned(1)))
  63:Drivers/CMSIS/Include/cmsis_gcc.h **** #endif
  64:Drivers/CMSIS/Include/cmsis_gcc.h **** #ifndef   __PACKED_STRUCT
  65:Drivers/CMSIS/Include/cmsis_gcc.h ****   #define __PACKED_STRUCT                        struct __attribute__((packed, aligned(1)))
  66:Drivers/CMSIS/Include/cmsis_gcc.h **** #endif
  67:Drivers/CMSIS/Include/cmsis_gcc.h **** #ifndef   __PACKED_UNION
  68:Drivers/CMSIS/Include/cmsis_gcc.h ****   #define __PACKED_UNION                         union __attribute__((packed, aligned(1)))
  69:Drivers/CMSIS/Include/cmsis_gcc.h **** #endif
  70:Drivers/CMSIS/Include/cmsis_gcc.h **** #ifndef   __UNALIGNED_UINT32        /* deprecated */
  71:Drivers/CMSIS/Include/cmsis_gcc.h ****   #pragma GCC diagnostic push
  72:Drivers/CMSIS/Include/cmsis_gcc.h ****   #pragma GCC diagnostic ignored "-Wpacked"
  73:Drivers/CMSIS/Include/cmsis_gcc.h ****   #pragma GCC diagnostic ignored "-Wattributes"
  74:Drivers/CMSIS/Include/cmsis_gcc.h ****   struct __attribute__((packed)) T_UINT32 { uint32_t v; };
  75:Drivers/CMSIS/Include/cmsis_gcc.h ****   #pragma GCC diagnostic pop
  76:Drivers/CMSIS/Include/cmsis_gcc.h ****   #define __UNALIGNED_UINT32(x)                  (((struct T_UINT32 *)(x))->v)
  77:Drivers/CMSIS/Include/cmsis_gcc.h **** #endif
  78:Drivers/CMSIS/Include/cmsis_gcc.h **** #ifndef   __UNALIGNED_UINT16_WRITE
  79:Drivers/CMSIS/Include/cmsis_gcc.h ****   #pragma GCC diagnostic push
  80:Drivers/CMSIS/Include/cmsis_gcc.h ****   #pragma GCC diagnostic ignored "-Wpacked"
  81:Drivers/CMSIS/Include/cmsis_gcc.h ****   #pragma GCC diagnostic ignored "-Wattributes"
  82:Drivers/CMSIS/Include/cmsis_gcc.h ****   __PACKED_STRUCT T_UINT16_WRITE { uint16_t v; };
  83:Drivers/CMSIS/Include/cmsis_gcc.h ****   #pragma GCC diagnostic pop
  84:Drivers/CMSIS/Include/cmsis_gcc.h ****   #define __UNALIGNED_UINT16_WRITE(addr, val)    (void)((((struct T_UINT16_WRITE *)(void *)(addr))-
  85:Drivers/CMSIS/Include/cmsis_gcc.h **** #endif
  86:Drivers/CMSIS/Include/cmsis_gcc.h **** #ifndef   __UNALIGNED_UINT16_READ
  87:Drivers/CMSIS/Include/cmsis_gcc.h ****   #pragma GCC diagnostic push
  88:Drivers/CMSIS/Include/cmsis_gcc.h ****   #pragma GCC diagnostic ignored "-Wpacked"
  89:Drivers/CMSIS/Include/cmsis_gcc.h ****   #pragma GCC diagnostic ignored "-Wattributes"
  90:Drivers/CMSIS/Include/cmsis_gcc.h ****   __PACKED_STRUCT T_UINT16_READ { uint16_t v; };
  91:Drivers/CMSIS/Include/cmsis_gcc.h ****   #pragma GCC diagnostic pop
  92:Drivers/CMSIS/Include/cmsis_gcc.h ****   #define __UNALIGNED_UINT16_READ(addr)          (((const struct T_UINT16_READ *)(const void *)(add
  93:Drivers/CMSIS/Include/cmsis_gcc.h **** #endif
  94:Drivers/CMSIS/Include/cmsis_gcc.h **** #ifndef   __UNALIGNED_UINT32_WRITE
  95:Drivers/CMSIS/Include/cmsis_gcc.h ****   #pragma GCC diagnostic push
  96:Drivers/CMSIS/Include/cmsis_gcc.h ****   #pragma GCC diagnostic ignored "-Wpacked"
  97:Drivers/CMSIS/Include/cmsis_gcc.h ****   #pragma GCC diagnostic ignored "-Wattributes"
  98:Drivers/CMSIS/Include/cmsis_gcc.h ****   __PACKED_STRUCT T_UINT32_WRITE { uint32_t v; };
  99:Drivers/CMSIS/Include/cmsis_gcc.h ****   #pragma GCC diagnostic pop
 100:Drivers/CMSIS/Include/cmsis_gcc.h ****   #define __UNALIGNED_UINT32_WRITE(addr, val)    (void)((((struct T_UINT32_WRITE *)(void *)(addr))-
 101:Drivers/CMSIS/Include/cmsis_gcc.h **** #endif
 102:Drivers/CMSIS/Include/cmsis_gcc.h **** #ifndef   __UNALIGNED_UINT32_READ
ARM GAS  /tmp/ccQGQFth.s 			page 20


 103:Drivers/CMSIS/Include/cmsis_gcc.h ****   #pragma GCC diagnostic push
 104:Drivers/CMSIS/Include/cmsis_gcc.h ****   #pragma GCC diagnostic ignored "-Wpacked"
 105:Drivers/CMSIS/Include/cmsis_gcc.h ****   #pragma GCC diagnostic ignored "-Wattributes"
 106:Drivers/CMSIS/Include/cmsis_gcc.h ****   __PACKED_STRUCT T_UINT32_READ { uint32_t v; };
 107:Drivers/CMSIS/Include/cmsis_gcc.h ****   #pragma GCC diagnostic pop
 108:Drivers/CMSIS/Include/cmsis_gcc.h ****   #define __UNALIGNED_UINT32_READ(addr)          (((const struct T_UINT32_READ *)(const void *)(add
 109:Drivers/CMSIS/Include/cmsis_gcc.h **** #endif
 110:Drivers/CMSIS/Include/cmsis_gcc.h **** #ifndef   __ALIGNED
 111:Drivers/CMSIS/Include/cmsis_gcc.h ****   #define __ALIGNED(x)                           __attribute__((aligned(x)))
 112:Drivers/CMSIS/Include/cmsis_gcc.h **** #endif
 113:Drivers/CMSIS/Include/cmsis_gcc.h **** #ifndef   __RESTRICT
 114:Drivers/CMSIS/Include/cmsis_gcc.h ****   #define __RESTRICT                             __restrict
 115:Drivers/CMSIS/Include/cmsis_gcc.h **** #endif
 116:Drivers/CMSIS/Include/cmsis_gcc.h **** #ifndef   __COMPILER_BARRIER
 117:Drivers/CMSIS/Include/cmsis_gcc.h ****   #define __COMPILER_BARRIER()                   __ASM volatile("":::"memory")
 118:Drivers/CMSIS/Include/cmsis_gcc.h **** #endif
 119:Drivers/CMSIS/Include/cmsis_gcc.h **** 
 120:Drivers/CMSIS/Include/cmsis_gcc.h **** /* #########################  Startup and Lowlevel Init  ######################## */
 121:Drivers/CMSIS/Include/cmsis_gcc.h **** 
 122:Drivers/CMSIS/Include/cmsis_gcc.h **** #ifndef __PROGRAM_START
 123:Drivers/CMSIS/Include/cmsis_gcc.h **** 
 124:Drivers/CMSIS/Include/cmsis_gcc.h **** /**
 125:Drivers/CMSIS/Include/cmsis_gcc.h ****   \brief   Initializes data and bss sections
 126:Drivers/CMSIS/Include/cmsis_gcc.h ****   \details This default implementations initialized all data and additional bss
 127:Drivers/CMSIS/Include/cmsis_gcc.h ****            sections relying on .copy.table and .zero.table specified properly
 128:Drivers/CMSIS/Include/cmsis_gcc.h ****            in the used linker script.
 129:Drivers/CMSIS/Include/cmsis_gcc.h ****   
 130:Drivers/CMSIS/Include/cmsis_gcc.h ****  */
 131:Drivers/CMSIS/Include/cmsis_gcc.h **** __STATIC_FORCEINLINE __NO_RETURN void __cmsis_start(void)
 132:Drivers/CMSIS/Include/cmsis_gcc.h **** {
 133:Drivers/CMSIS/Include/cmsis_gcc.h ****   extern void _start(void) __NO_RETURN;
 134:Drivers/CMSIS/Include/cmsis_gcc.h ****   
 135:Drivers/CMSIS/Include/cmsis_gcc.h ****   typedef struct {
 136:Drivers/CMSIS/Include/cmsis_gcc.h ****     uint32_t const* src;
 137:Drivers/CMSIS/Include/cmsis_gcc.h ****     uint32_t* dest;
 138:Drivers/CMSIS/Include/cmsis_gcc.h ****     uint32_t  wlen;
 139:Drivers/CMSIS/Include/cmsis_gcc.h ****   } __copy_table_t;
 140:Drivers/CMSIS/Include/cmsis_gcc.h ****   
 141:Drivers/CMSIS/Include/cmsis_gcc.h ****   typedef struct {
 142:Drivers/CMSIS/Include/cmsis_gcc.h ****     uint32_t* dest;
 143:Drivers/CMSIS/Include/cmsis_gcc.h ****     uint32_t  wlen;
 144:Drivers/CMSIS/Include/cmsis_gcc.h ****   } __zero_table_t;
 145:Drivers/CMSIS/Include/cmsis_gcc.h ****   
 146:Drivers/CMSIS/Include/cmsis_gcc.h ****   extern const __copy_table_t __copy_table_start__;
 147:Drivers/CMSIS/Include/cmsis_gcc.h ****   extern const __copy_table_t __copy_table_end__;
 148:Drivers/CMSIS/Include/cmsis_gcc.h ****   extern const __zero_table_t __zero_table_start__;
 149:Drivers/CMSIS/Include/cmsis_gcc.h ****   extern const __zero_table_t __zero_table_end__;
 150:Drivers/CMSIS/Include/cmsis_gcc.h **** 
 151:Drivers/CMSIS/Include/cmsis_gcc.h ****   for (__copy_table_t const* pTable = &__copy_table_start__; pTable < &__copy_table_end__; ++pTable
 152:Drivers/CMSIS/Include/cmsis_gcc.h ****     for(uint32_t i=0u; i<pTable->wlen; ++i) {
 153:Drivers/CMSIS/Include/cmsis_gcc.h ****       pTable->dest[i] = pTable->src[i];
 154:Drivers/CMSIS/Include/cmsis_gcc.h ****     }
 155:Drivers/CMSIS/Include/cmsis_gcc.h ****   }
 156:Drivers/CMSIS/Include/cmsis_gcc.h ****  
 157:Drivers/CMSIS/Include/cmsis_gcc.h ****   for (__zero_table_t const* pTable = &__zero_table_start__; pTable < &__zero_table_end__; ++pTable
 158:Drivers/CMSIS/Include/cmsis_gcc.h ****     for(uint32_t i=0u; i<pTable->wlen; ++i) {
 159:Drivers/CMSIS/Include/cmsis_gcc.h ****       pTable->dest[i] = 0u;
ARM GAS  /tmp/ccQGQFth.s 			page 21


 160:Drivers/CMSIS/Include/cmsis_gcc.h ****     }
 161:Drivers/CMSIS/Include/cmsis_gcc.h ****   }
 162:Drivers/CMSIS/Include/cmsis_gcc.h ****  
 163:Drivers/CMSIS/Include/cmsis_gcc.h ****   _start();
 164:Drivers/CMSIS/Include/cmsis_gcc.h **** }
 165:Drivers/CMSIS/Include/cmsis_gcc.h ****   
 166:Drivers/CMSIS/Include/cmsis_gcc.h **** #define __PROGRAM_START           __cmsis_start
 167:Drivers/CMSIS/Include/cmsis_gcc.h **** #endif
 168:Drivers/CMSIS/Include/cmsis_gcc.h **** 
 169:Drivers/CMSIS/Include/cmsis_gcc.h **** #ifndef __INITIAL_SP
 170:Drivers/CMSIS/Include/cmsis_gcc.h **** #define __INITIAL_SP              __StackTop
 171:Drivers/CMSIS/Include/cmsis_gcc.h **** #endif
 172:Drivers/CMSIS/Include/cmsis_gcc.h **** 
 173:Drivers/CMSIS/Include/cmsis_gcc.h **** #ifndef __STACK_LIMIT
 174:Drivers/CMSIS/Include/cmsis_gcc.h **** #define __STACK_LIMIT             __StackLimit
 175:Drivers/CMSIS/Include/cmsis_gcc.h **** #endif
 176:Drivers/CMSIS/Include/cmsis_gcc.h **** 
 177:Drivers/CMSIS/Include/cmsis_gcc.h **** #ifndef __VECTOR_TABLE
 178:Drivers/CMSIS/Include/cmsis_gcc.h **** #define __VECTOR_TABLE            __Vectors
 179:Drivers/CMSIS/Include/cmsis_gcc.h **** #endif
 180:Drivers/CMSIS/Include/cmsis_gcc.h **** 
 181:Drivers/CMSIS/Include/cmsis_gcc.h **** #ifndef __VECTOR_TABLE_ATTRIBUTE
 182:Drivers/CMSIS/Include/cmsis_gcc.h **** #define __VECTOR_TABLE_ATTRIBUTE  __attribute((used, section(".vectors")))
 183:Drivers/CMSIS/Include/cmsis_gcc.h **** #endif
 184:Drivers/CMSIS/Include/cmsis_gcc.h **** 
 185:Drivers/CMSIS/Include/cmsis_gcc.h **** /* ###########################  Core Function Access  ########################### */
 186:Drivers/CMSIS/Include/cmsis_gcc.h **** /** \ingroup  CMSIS_Core_FunctionInterface
 187:Drivers/CMSIS/Include/cmsis_gcc.h ****     \defgroup CMSIS_Core_RegAccFunctions CMSIS Core Register Access Functions
 188:Drivers/CMSIS/Include/cmsis_gcc.h ****   @{
 189:Drivers/CMSIS/Include/cmsis_gcc.h ****  */
 190:Drivers/CMSIS/Include/cmsis_gcc.h **** 
 191:Drivers/CMSIS/Include/cmsis_gcc.h **** /**
 192:Drivers/CMSIS/Include/cmsis_gcc.h ****   \brief   Enable IRQ Interrupts
 193:Drivers/CMSIS/Include/cmsis_gcc.h ****   \details Enables IRQ interrupts by clearing the I-bit in the CPSR.
 194:Drivers/CMSIS/Include/cmsis_gcc.h ****            Can only be executed in Privileged modes.
 195:Drivers/CMSIS/Include/cmsis_gcc.h ****  */
 196:Drivers/CMSIS/Include/cmsis_gcc.h **** __STATIC_FORCEINLINE void __enable_irq(void)
 197:Drivers/CMSIS/Include/cmsis_gcc.h **** {
 198:Drivers/CMSIS/Include/cmsis_gcc.h ****   __ASM volatile ("cpsie i" : : : "memory");
 199:Drivers/CMSIS/Include/cmsis_gcc.h **** }
 200:Drivers/CMSIS/Include/cmsis_gcc.h **** 
 201:Drivers/CMSIS/Include/cmsis_gcc.h **** 
 202:Drivers/CMSIS/Include/cmsis_gcc.h **** /**
 203:Drivers/CMSIS/Include/cmsis_gcc.h ****   \brief   Disable IRQ Interrupts
 204:Drivers/CMSIS/Include/cmsis_gcc.h ****   \details Disables IRQ interrupts by setting the I-bit in the CPSR.
 205:Drivers/CMSIS/Include/cmsis_gcc.h ****            Can only be executed in Privileged modes.
 206:Drivers/CMSIS/Include/cmsis_gcc.h ****  */
 207:Drivers/CMSIS/Include/cmsis_gcc.h **** __STATIC_FORCEINLINE void __disable_irq(void)
 208:Drivers/CMSIS/Include/cmsis_gcc.h **** {
 209:Drivers/CMSIS/Include/cmsis_gcc.h ****   __ASM volatile ("cpsid i" : : : "memory");
 210:Drivers/CMSIS/Include/cmsis_gcc.h **** }
 211:Drivers/CMSIS/Include/cmsis_gcc.h **** 
 212:Drivers/CMSIS/Include/cmsis_gcc.h **** 
 213:Drivers/CMSIS/Include/cmsis_gcc.h **** /**
 214:Drivers/CMSIS/Include/cmsis_gcc.h ****   \brief   Get Control Register
 215:Drivers/CMSIS/Include/cmsis_gcc.h ****   \details Returns the content of the Control Register.
 216:Drivers/CMSIS/Include/cmsis_gcc.h ****   \return               Control Register value
ARM GAS  /tmp/ccQGQFth.s 			page 22


 217:Drivers/CMSIS/Include/cmsis_gcc.h ****  */
 218:Drivers/CMSIS/Include/cmsis_gcc.h **** __STATIC_FORCEINLINE uint32_t __get_CONTROL(void)
 219:Drivers/CMSIS/Include/cmsis_gcc.h **** {
 220:Drivers/CMSIS/Include/cmsis_gcc.h ****   uint32_t result;
 221:Drivers/CMSIS/Include/cmsis_gcc.h **** 
 222:Drivers/CMSIS/Include/cmsis_gcc.h ****   __ASM volatile ("MRS %0, control" : "=r" (result) );
 223:Drivers/CMSIS/Include/cmsis_gcc.h ****   return(result);
 224:Drivers/CMSIS/Include/cmsis_gcc.h **** }
 225:Drivers/CMSIS/Include/cmsis_gcc.h **** 
 226:Drivers/CMSIS/Include/cmsis_gcc.h **** 
 227:Drivers/CMSIS/Include/cmsis_gcc.h **** #if (defined (__ARM_FEATURE_CMSE ) && (__ARM_FEATURE_CMSE == 3))
 228:Drivers/CMSIS/Include/cmsis_gcc.h **** /**
 229:Drivers/CMSIS/Include/cmsis_gcc.h ****   \brief   Get Control Register (non-secure)
 230:Drivers/CMSIS/Include/cmsis_gcc.h ****   \details Returns the content of the non-secure Control Register when in secure mode.
 231:Drivers/CMSIS/Include/cmsis_gcc.h ****   \return               non-secure Control Register value
 232:Drivers/CMSIS/Include/cmsis_gcc.h ****  */
 233:Drivers/CMSIS/Include/cmsis_gcc.h **** __STATIC_FORCEINLINE uint32_t __TZ_get_CONTROL_NS(void)
 234:Drivers/CMSIS/Include/cmsis_gcc.h **** {
 235:Drivers/CMSIS/Include/cmsis_gcc.h ****   uint32_t result;
 236:Drivers/CMSIS/Include/cmsis_gcc.h **** 
 237:Drivers/CMSIS/Include/cmsis_gcc.h ****   __ASM volatile ("MRS %0, control_ns" : "=r" (result) );
 238:Drivers/CMSIS/Include/cmsis_gcc.h ****   return(result);
 239:Drivers/CMSIS/Include/cmsis_gcc.h **** }
 240:Drivers/CMSIS/Include/cmsis_gcc.h **** #endif
 241:Drivers/CMSIS/Include/cmsis_gcc.h **** 
 242:Drivers/CMSIS/Include/cmsis_gcc.h **** 
 243:Drivers/CMSIS/Include/cmsis_gcc.h **** /**
 244:Drivers/CMSIS/Include/cmsis_gcc.h ****   \brief   Set Control Register
 245:Drivers/CMSIS/Include/cmsis_gcc.h ****   \details Writes the given value to the Control Register.
 246:Drivers/CMSIS/Include/cmsis_gcc.h ****   \param [in]    control  Control Register value to set
 247:Drivers/CMSIS/Include/cmsis_gcc.h ****  */
 248:Drivers/CMSIS/Include/cmsis_gcc.h **** __STATIC_FORCEINLINE void __set_CONTROL(uint32_t control)
 249:Drivers/CMSIS/Include/cmsis_gcc.h **** {
 250:Drivers/CMSIS/Include/cmsis_gcc.h ****   __ASM volatile ("MSR control, %0" : : "r" (control) : "memory");
 251:Drivers/CMSIS/Include/cmsis_gcc.h **** }
 252:Drivers/CMSIS/Include/cmsis_gcc.h **** 
 253:Drivers/CMSIS/Include/cmsis_gcc.h **** 
 254:Drivers/CMSIS/Include/cmsis_gcc.h **** #if (defined (__ARM_FEATURE_CMSE ) && (__ARM_FEATURE_CMSE == 3))
 255:Drivers/CMSIS/Include/cmsis_gcc.h **** /**
 256:Drivers/CMSIS/Include/cmsis_gcc.h ****   \brief   Set Control Register (non-secure)
 257:Drivers/CMSIS/Include/cmsis_gcc.h ****   \details Writes the given value to the non-secure Control Register when in secure state.
 258:Drivers/CMSIS/Include/cmsis_gcc.h ****   \param [in]    control  Control Register value to set
 259:Drivers/CMSIS/Include/cmsis_gcc.h ****  */
 260:Drivers/CMSIS/Include/cmsis_gcc.h **** __STATIC_FORCEINLINE void __TZ_set_CONTROL_NS(uint32_t control)
 261:Drivers/CMSIS/Include/cmsis_gcc.h **** {
 262:Drivers/CMSIS/Include/cmsis_gcc.h ****   __ASM volatile ("MSR control_ns, %0" : : "r" (control) : "memory");
 263:Drivers/CMSIS/Include/cmsis_gcc.h **** }
 264:Drivers/CMSIS/Include/cmsis_gcc.h **** #endif
 265:Drivers/CMSIS/Include/cmsis_gcc.h **** 
 266:Drivers/CMSIS/Include/cmsis_gcc.h **** 
 267:Drivers/CMSIS/Include/cmsis_gcc.h **** /**
 268:Drivers/CMSIS/Include/cmsis_gcc.h ****   \brief   Get IPSR Register
 269:Drivers/CMSIS/Include/cmsis_gcc.h ****   \details Returns the content of the IPSR Register.
 270:Drivers/CMSIS/Include/cmsis_gcc.h ****   \return               IPSR Register value
 271:Drivers/CMSIS/Include/cmsis_gcc.h ****  */
 272:Drivers/CMSIS/Include/cmsis_gcc.h **** __STATIC_FORCEINLINE uint32_t __get_IPSR(void)
  91              		.loc 2 272 31 view .LVU15
ARM GAS  /tmp/ccQGQFth.s 			page 23


  92              	.LBB341:
 273:Drivers/CMSIS/Include/cmsis_gcc.h **** {
 274:Drivers/CMSIS/Include/cmsis_gcc.h ****   uint32_t result;
  93              		.loc 2 274 3 view .LVU16
 275:Drivers/CMSIS/Include/cmsis_gcc.h **** 
 276:Drivers/CMSIS/Include/cmsis_gcc.h ****   __ASM volatile ("MRS %0, ipsr" : "=r" (result) );
  94              		.loc 2 276 3 view .LVU17
  95              		.syntax unified
  96              	@ 276 "Drivers/CMSIS/Include/cmsis_gcc.h" 1
  97 0000 EFF30583 		MRS r3, ipsr
  98              	@ 0 "" 2
  99              	.LVL4:
 277:Drivers/CMSIS/Include/cmsis_gcc.h ****   return(result);
 100              		.loc 2 277 3 view .LVU18
 101              		.loc 2 277 3 is_stmt 0 view .LVU19
 102              		.thumb
 103              		.syntax unified
 104              	.LBE341:
 105              	.LBE340:
 188:Middlewares/Third_Party/FreeRTOS/Source/CMSIS_RTOS_V2/cmsis_os2.c ****     stat = osErrorISR;
 106              		.loc 1 188 6 view .LVU20
 107 0004 7BB9     		cbnz	r3, .L10
 108              	.LBB342:
 109              	.LBI342:
 278:Drivers/CMSIS/Include/cmsis_gcc.h **** }
 279:Drivers/CMSIS/Include/cmsis_gcc.h **** 
 280:Drivers/CMSIS/Include/cmsis_gcc.h **** 
 281:Drivers/CMSIS/Include/cmsis_gcc.h **** /**
 282:Drivers/CMSIS/Include/cmsis_gcc.h ****   \brief   Get APSR Register
 283:Drivers/CMSIS/Include/cmsis_gcc.h ****   \details Returns the content of the APSR Register.
 284:Drivers/CMSIS/Include/cmsis_gcc.h ****   \return               APSR Register value
 285:Drivers/CMSIS/Include/cmsis_gcc.h ****  */
 286:Drivers/CMSIS/Include/cmsis_gcc.h **** __STATIC_FORCEINLINE uint32_t __get_APSR(void)
 287:Drivers/CMSIS/Include/cmsis_gcc.h **** {
 288:Drivers/CMSIS/Include/cmsis_gcc.h ****   uint32_t result;
 289:Drivers/CMSIS/Include/cmsis_gcc.h **** 
 290:Drivers/CMSIS/Include/cmsis_gcc.h ****   __ASM volatile ("MRS %0, apsr" : "=r" (result) );
 291:Drivers/CMSIS/Include/cmsis_gcc.h ****   return(result);
 292:Drivers/CMSIS/Include/cmsis_gcc.h **** }
 293:Drivers/CMSIS/Include/cmsis_gcc.h **** 
 294:Drivers/CMSIS/Include/cmsis_gcc.h **** 
 295:Drivers/CMSIS/Include/cmsis_gcc.h **** /**
 296:Drivers/CMSIS/Include/cmsis_gcc.h ****   \brief   Get xPSR Register
 297:Drivers/CMSIS/Include/cmsis_gcc.h ****   \details Returns the content of the xPSR Register.
 298:Drivers/CMSIS/Include/cmsis_gcc.h ****   \return               xPSR Register value
 299:Drivers/CMSIS/Include/cmsis_gcc.h ****  */
 300:Drivers/CMSIS/Include/cmsis_gcc.h **** __STATIC_FORCEINLINE uint32_t __get_xPSR(void)
 301:Drivers/CMSIS/Include/cmsis_gcc.h **** {
 302:Drivers/CMSIS/Include/cmsis_gcc.h ****   uint32_t result;
 303:Drivers/CMSIS/Include/cmsis_gcc.h **** 
 304:Drivers/CMSIS/Include/cmsis_gcc.h ****   __ASM volatile ("MRS %0, xpsr" : "=r" (result) );
 305:Drivers/CMSIS/Include/cmsis_gcc.h ****   return(result);
 306:Drivers/CMSIS/Include/cmsis_gcc.h **** }
 307:Drivers/CMSIS/Include/cmsis_gcc.h **** 
 308:Drivers/CMSIS/Include/cmsis_gcc.h **** 
 309:Drivers/CMSIS/Include/cmsis_gcc.h **** /**
 310:Drivers/CMSIS/Include/cmsis_gcc.h ****   \brief   Get Process Stack Pointer
ARM GAS  /tmp/ccQGQFth.s 			page 24


 311:Drivers/CMSIS/Include/cmsis_gcc.h ****   \details Returns the current value of the Process Stack Pointer (PSP).
 312:Drivers/CMSIS/Include/cmsis_gcc.h ****   \return               PSP Register value
 313:Drivers/CMSIS/Include/cmsis_gcc.h ****  */
 314:Drivers/CMSIS/Include/cmsis_gcc.h **** __STATIC_FORCEINLINE uint32_t __get_PSP(void)
 315:Drivers/CMSIS/Include/cmsis_gcc.h **** {
 316:Drivers/CMSIS/Include/cmsis_gcc.h ****   uint32_t result;
 317:Drivers/CMSIS/Include/cmsis_gcc.h **** 
 318:Drivers/CMSIS/Include/cmsis_gcc.h ****   __ASM volatile ("MRS %0, psp"  : "=r" (result) );
 319:Drivers/CMSIS/Include/cmsis_gcc.h ****   return(result);
 320:Drivers/CMSIS/Include/cmsis_gcc.h **** }
 321:Drivers/CMSIS/Include/cmsis_gcc.h **** 
 322:Drivers/CMSIS/Include/cmsis_gcc.h **** 
 323:Drivers/CMSIS/Include/cmsis_gcc.h **** #if (defined (__ARM_FEATURE_CMSE ) && (__ARM_FEATURE_CMSE == 3))
 324:Drivers/CMSIS/Include/cmsis_gcc.h **** /**
 325:Drivers/CMSIS/Include/cmsis_gcc.h ****   \brief   Get Process Stack Pointer (non-secure)
 326:Drivers/CMSIS/Include/cmsis_gcc.h ****   \details Returns the current value of the non-secure Process Stack Pointer (PSP) when in secure s
 327:Drivers/CMSIS/Include/cmsis_gcc.h ****   \return               PSP Register value
 328:Drivers/CMSIS/Include/cmsis_gcc.h ****  */
 329:Drivers/CMSIS/Include/cmsis_gcc.h **** __STATIC_FORCEINLINE uint32_t __TZ_get_PSP_NS(void)
 330:Drivers/CMSIS/Include/cmsis_gcc.h **** {
 331:Drivers/CMSIS/Include/cmsis_gcc.h ****   uint32_t result;
 332:Drivers/CMSIS/Include/cmsis_gcc.h **** 
 333:Drivers/CMSIS/Include/cmsis_gcc.h ****   __ASM volatile ("MRS %0, psp_ns"  : "=r" (result) );
 334:Drivers/CMSIS/Include/cmsis_gcc.h ****   return(result);
 335:Drivers/CMSIS/Include/cmsis_gcc.h **** }
 336:Drivers/CMSIS/Include/cmsis_gcc.h **** #endif
 337:Drivers/CMSIS/Include/cmsis_gcc.h **** 
 338:Drivers/CMSIS/Include/cmsis_gcc.h **** 
 339:Drivers/CMSIS/Include/cmsis_gcc.h **** /**
 340:Drivers/CMSIS/Include/cmsis_gcc.h ****   \brief   Set Process Stack Pointer
 341:Drivers/CMSIS/Include/cmsis_gcc.h ****   \details Assigns the given value to the Process Stack Pointer (PSP).
 342:Drivers/CMSIS/Include/cmsis_gcc.h ****   \param [in]    topOfProcStack  Process Stack Pointer value to set
 343:Drivers/CMSIS/Include/cmsis_gcc.h ****  */
 344:Drivers/CMSIS/Include/cmsis_gcc.h **** __STATIC_FORCEINLINE void __set_PSP(uint32_t topOfProcStack)
 345:Drivers/CMSIS/Include/cmsis_gcc.h **** {
 346:Drivers/CMSIS/Include/cmsis_gcc.h ****   __ASM volatile ("MSR psp, %0" : : "r" (topOfProcStack) : );
 347:Drivers/CMSIS/Include/cmsis_gcc.h **** }
 348:Drivers/CMSIS/Include/cmsis_gcc.h **** 
 349:Drivers/CMSIS/Include/cmsis_gcc.h **** 
 350:Drivers/CMSIS/Include/cmsis_gcc.h **** #if (defined (__ARM_FEATURE_CMSE ) && (__ARM_FEATURE_CMSE == 3))
 351:Drivers/CMSIS/Include/cmsis_gcc.h **** /**
 352:Drivers/CMSIS/Include/cmsis_gcc.h ****   \brief   Set Process Stack Pointer (non-secure)
 353:Drivers/CMSIS/Include/cmsis_gcc.h ****   \details Assigns the given value to the non-secure Process Stack Pointer (PSP) when in secure sta
 354:Drivers/CMSIS/Include/cmsis_gcc.h ****   \param [in]    topOfProcStack  Process Stack Pointer value to set
 355:Drivers/CMSIS/Include/cmsis_gcc.h ****  */
 356:Drivers/CMSIS/Include/cmsis_gcc.h **** __STATIC_FORCEINLINE void __TZ_set_PSP_NS(uint32_t topOfProcStack)
 357:Drivers/CMSIS/Include/cmsis_gcc.h **** {
 358:Drivers/CMSIS/Include/cmsis_gcc.h ****   __ASM volatile ("MSR psp_ns, %0" : : "r" (topOfProcStack) : );
 359:Drivers/CMSIS/Include/cmsis_gcc.h **** }
 360:Drivers/CMSIS/Include/cmsis_gcc.h **** #endif
 361:Drivers/CMSIS/Include/cmsis_gcc.h **** 
 362:Drivers/CMSIS/Include/cmsis_gcc.h **** 
 363:Drivers/CMSIS/Include/cmsis_gcc.h **** /**
 364:Drivers/CMSIS/Include/cmsis_gcc.h ****   \brief   Get Main Stack Pointer
 365:Drivers/CMSIS/Include/cmsis_gcc.h ****   \details Returns the current value of the Main Stack Pointer (MSP).
 366:Drivers/CMSIS/Include/cmsis_gcc.h ****   \return               MSP Register value
 367:Drivers/CMSIS/Include/cmsis_gcc.h ****  */
ARM GAS  /tmp/ccQGQFth.s 			page 25


 368:Drivers/CMSIS/Include/cmsis_gcc.h **** __STATIC_FORCEINLINE uint32_t __get_MSP(void)
 369:Drivers/CMSIS/Include/cmsis_gcc.h **** {
 370:Drivers/CMSIS/Include/cmsis_gcc.h ****   uint32_t result;
 371:Drivers/CMSIS/Include/cmsis_gcc.h **** 
 372:Drivers/CMSIS/Include/cmsis_gcc.h ****   __ASM volatile ("MRS %0, msp" : "=r" (result) );
 373:Drivers/CMSIS/Include/cmsis_gcc.h ****   return(result);
 374:Drivers/CMSIS/Include/cmsis_gcc.h **** }
 375:Drivers/CMSIS/Include/cmsis_gcc.h **** 
 376:Drivers/CMSIS/Include/cmsis_gcc.h **** 
 377:Drivers/CMSIS/Include/cmsis_gcc.h **** #if (defined (__ARM_FEATURE_CMSE ) && (__ARM_FEATURE_CMSE == 3))
 378:Drivers/CMSIS/Include/cmsis_gcc.h **** /**
 379:Drivers/CMSIS/Include/cmsis_gcc.h ****   \brief   Get Main Stack Pointer (non-secure)
 380:Drivers/CMSIS/Include/cmsis_gcc.h ****   \details Returns the current value of the non-secure Main Stack Pointer (MSP) when in secure stat
 381:Drivers/CMSIS/Include/cmsis_gcc.h ****   \return               MSP Register value
 382:Drivers/CMSIS/Include/cmsis_gcc.h ****  */
 383:Drivers/CMSIS/Include/cmsis_gcc.h **** __STATIC_FORCEINLINE uint32_t __TZ_get_MSP_NS(void)
 384:Drivers/CMSIS/Include/cmsis_gcc.h **** {
 385:Drivers/CMSIS/Include/cmsis_gcc.h ****   uint32_t result;
 386:Drivers/CMSIS/Include/cmsis_gcc.h **** 
 387:Drivers/CMSIS/Include/cmsis_gcc.h ****   __ASM volatile ("MRS %0, msp_ns" : "=r" (result) );
 388:Drivers/CMSIS/Include/cmsis_gcc.h ****   return(result);
 389:Drivers/CMSIS/Include/cmsis_gcc.h **** }
 390:Drivers/CMSIS/Include/cmsis_gcc.h **** #endif
 391:Drivers/CMSIS/Include/cmsis_gcc.h **** 
 392:Drivers/CMSIS/Include/cmsis_gcc.h **** 
 393:Drivers/CMSIS/Include/cmsis_gcc.h **** /**
 394:Drivers/CMSIS/Include/cmsis_gcc.h ****   \brief   Set Main Stack Pointer
 395:Drivers/CMSIS/Include/cmsis_gcc.h ****   \details Assigns the given value to the Main Stack Pointer (MSP).
 396:Drivers/CMSIS/Include/cmsis_gcc.h ****   \param [in]    topOfMainStack  Main Stack Pointer value to set
 397:Drivers/CMSIS/Include/cmsis_gcc.h ****  */
 398:Drivers/CMSIS/Include/cmsis_gcc.h **** __STATIC_FORCEINLINE void __set_MSP(uint32_t topOfMainStack)
 399:Drivers/CMSIS/Include/cmsis_gcc.h **** {
 400:Drivers/CMSIS/Include/cmsis_gcc.h ****   __ASM volatile ("MSR msp, %0" : : "r" (topOfMainStack) : );
 401:Drivers/CMSIS/Include/cmsis_gcc.h **** }
 402:Drivers/CMSIS/Include/cmsis_gcc.h **** 
 403:Drivers/CMSIS/Include/cmsis_gcc.h **** 
 404:Drivers/CMSIS/Include/cmsis_gcc.h **** #if (defined (__ARM_FEATURE_CMSE ) && (__ARM_FEATURE_CMSE == 3))
 405:Drivers/CMSIS/Include/cmsis_gcc.h **** /**
 406:Drivers/CMSIS/Include/cmsis_gcc.h ****   \brief   Set Main Stack Pointer (non-secure)
 407:Drivers/CMSIS/Include/cmsis_gcc.h ****   \details Assigns the given value to the non-secure Main Stack Pointer (MSP) when in secure state.
 408:Drivers/CMSIS/Include/cmsis_gcc.h ****   \param [in]    topOfMainStack  Main Stack Pointer value to set
 409:Drivers/CMSIS/Include/cmsis_gcc.h ****  */
 410:Drivers/CMSIS/Include/cmsis_gcc.h **** __STATIC_FORCEINLINE void __TZ_set_MSP_NS(uint32_t topOfMainStack)
 411:Drivers/CMSIS/Include/cmsis_gcc.h **** {
 412:Drivers/CMSIS/Include/cmsis_gcc.h ****   __ASM volatile ("MSR msp_ns, %0" : : "r" (topOfMainStack) : );
 413:Drivers/CMSIS/Include/cmsis_gcc.h **** }
 414:Drivers/CMSIS/Include/cmsis_gcc.h **** #endif
 415:Drivers/CMSIS/Include/cmsis_gcc.h **** 
 416:Drivers/CMSIS/Include/cmsis_gcc.h **** 
 417:Drivers/CMSIS/Include/cmsis_gcc.h **** #if (defined (__ARM_FEATURE_CMSE ) && (__ARM_FEATURE_CMSE == 3))
 418:Drivers/CMSIS/Include/cmsis_gcc.h **** /**
 419:Drivers/CMSIS/Include/cmsis_gcc.h ****   \brief   Get Stack Pointer (non-secure)
 420:Drivers/CMSIS/Include/cmsis_gcc.h ****   \details Returns the current value of the non-secure Stack Pointer (SP) when in secure state.
 421:Drivers/CMSIS/Include/cmsis_gcc.h ****   \return               SP Register value
 422:Drivers/CMSIS/Include/cmsis_gcc.h ****  */
 423:Drivers/CMSIS/Include/cmsis_gcc.h **** __STATIC_FORCEINLINE uint32_t __TZ_get_SP_NS(void)
 424:Drivers/CMSIS/Include/cmsis_gcc.h **** {
ARM GAS  /tmp/ccQGQFth.s 			page 26


 425:Drivers/CMSIS/Include/cmsis_gcc.h ****   uint32_t result;
 426:Drivers/CMSIS/Include/cmsis_gcc.h **** 
 427:Drivers/CMSIS/Include/cmsis_gcc.h ****   __ASM volatile ("MRS %0, sp_ns" : "=r" (result) );
 428:Drivers/CMSIS/Include/cmsis_gcc.h ****   return(result);
 429:Drivers/CMSIS/Include/cmsis_gcc.h **** }
 430:Drivers/CMSIS/Include/cmsis_gcc.h **** 
 431:Drivers/CMSIS/Include/cmsis_gcc.h **** 
 432:Drivers/CMSIS/Include/cmsis_gcc.h **** /**
 433:Drivers/CMSIS/Include/cmsis_gcc.h ****   \brief   Set Stack Pointer (non-secure)
 434:Drivers/CMSIS/Include/cmsis_gcc.h ****   \details Assigns the given value to the non-secure Stack Pointer (SP) when in secure state.
 435:Drivers/CMSIS/Include/cmsis_gcc.h ****   \param [in]    topOfStack  Stack Pointer value to set
 436:Drivers/CMSIS/Include/cmsis_gcc.h ****  */
 437:Drivers/CMSIS/Include/cmsis_gcc.h **** __STATIC_FORCEINLINE void __TZ_set_SP_NS(uint32_t topOfStack)
 438:Drivers/CMSIS/Include/cmsis_gcc.h **** {
 439:Drivers/CMSIS/Include/cmsis_gcc.h ****   __ASM volatile ("MSR sp_ns, %0" : : "r" (topOfStack) : );
 440:Drivers/CMSIS/Include/cmsis_gcc.h **** }
 441:Drivers/CMSIS/Include/cmsis_gcc.h **** #endif
 442:Drivers/CMSIS/Include/cmsis_gcc.h **** 
 443:Drivers/CMSIS/Include/cmsis_gcc.h **** 
 444:Drivers/CMSIS/Include/cmsis_gcc.h **** /**
 445:Drivers/CMSIS/Include/cmsis_gcc.h ****   \brief   Get Priority Mask
 446:Drivers/CMSIS/Include/cmsis_gcc.h ****   \details Returns the current state of the priority mask bit from the Priority Mask Register.
 447:Drivers/CMSIS/Include/cmsis_gcc.h ****   \return               Priority Mask value
 448:Drivers/CMSIS/Include/cmsis_gcc.h ****  */
 449:Drivers/CMSIS/Include/cmsis_gcc.h **** __STATIC_FORCEINLINE uint32_t __get_PRIMASK(void)
 110              		.loc 2 449 31 is_stmt 1 view .LVU21
 111              	.LBB343:
 450:Drivers/CMSIS/Include/cmsis_gcc.h **** {
 451:Drivers/CMSIS/Include/cmsis_gcc.h ****   uint32_t result;
 112              		.loc 2 451 3 view .LVU22
 452:Drivers/CMSIS/Include/cmsis_gcc.h **** 
 453:Drivers/CMSIS/Include/cmsis_gcc.h ****   __ASM volatile ("MRS %0, primask" : "=r" (result) :: "memory");
 113              		.loc 2 453 3 view .LVU23
 114              		.syntax unified
 115              	@ 453 "Drivers/CMSIS/Include/cmsis_gcc.h" 1
 116 0006 EFF31083 		MRS r3, primask
 117              	@ 0 "" 2
 118              	.LVL5:
 454:Drivers/CMSIS/Include/cmsis_gcc.h ****   return(result);
 119              		.loc 2 454 3 view .LVU24
 120              		.loc 2 454 3 is_stmt 0 view .LVU25
 121              		.thumb
 122              		.syntax unified
 123              	.LBE343:
 124              	.LBE342:
 188:Middlewares/Third_Party/FreeRTOS/Source/CMSIS_RTOS_V2/cmsis_os2.c ****     stat = osErrorISR;
 125              		.loc 1 188 7 view .LVU26
 126 000a 43B9     		cbnz	r3, .L8
 127              	.LBB344:
 128              	.LBI344:
 455:Drivers/CMSIS/Include/cmsis_gcc.h **** }
 456:Drivers/CMSIS/Include/cmsis_gcc.h **** 
 457:Drivers/CMSIS/Include/cmsis_gcc.h **** 
 458:Drivers/CMSIS/Include/cmsis_gcc.h **** #if (defined (__ARM_FEATURE_CMSE ) && (__ARM_FEATURE_CMSE == 3))
 459:Drivers/CMSIS/Include/cmsis_gcc.h **** /**
 460:Drivers/CMSIS/Include/cmsis_gcc.h ****   \brief   Get Priority Mask (non-secure)
 461:Drivers/CMSIS/Include/cmsis_gcc.h ****   \details Returns the current state of the non-secure priority mask bit from the Priority Mask Reg
ARM GAS  /tmp/ccQGQFth.s 			page 27


 462:Drivers/CMSIS/Include/cmsis_gcc.h ****   \return               Priority Mask value
 463:Drivers/CMSIS/Include/cmsis_gcc.h ****  */
 464:Drivers/CMSIS/Include/cmsis_gcc.h **** __STATIC_FORCEINLINE uint32_t __TZ_get_PRIMASK_NS(void)
 465:Drivers/CMSIS/Include/cmsis_gcc.h **** {
 466:Drivers/CMSIS/Include/cmsis_gcc.h ****   uint32_t result;
 467:Drivers/CMSIS/Include/cmsis_gcc.h **** 
 468:Drivers/CMSIS/Include/cmsis_gcc.h ****   __ASM volatile ("MRS %0, primask_ns" : "=r" (result) :: "memory");
 469:Drivers/CMSIS/Include/cmsis_gcc.h ****   return(result);
 470:Drivers/CMSIS/Include/cmsis_gcc.h **** }
 471:Drivers/CMSIS/Include/cmsis_gcc.h **** #endif
 472:Drivers/CMSIS/Include/cmsis_gcc.h **** 
 473:Drivers/CMSIS/Include/cmsis_gcc.h **** 
 474:Drivers/CMSIS/Include/cmsis_gcc.h **** /**
 475:Drivers/CMSIS/Include/cmsis_gcc.h ****   \brief   Set Priority Mask
 476:Drivers/CMSIS/Include/cmsis_gcc.h ****   \details Assigns the given value to the Priority Mask Register.
 477:Drivers/CMSIS/Include/cmsis_gcc.h ****   \param [in]    priMask  Priority Mask
 478:Drivers/CMSIS/Include/cmsis_gcc.h ****  */
 479:Drivers/CMSIS/Include/cmsis_gcc.h **** __STATIC_FORCEINLINE void __set_PRIMASK(uint32_t priMask)
 480:Drivers/CMSIS/Include/cmsis_gcc.h **** {
 481:Drivers/CMSIS/Include/cmsis_gcc.h ****   __ASM volatile ("MSR primask, %0" : : "r" (priMask) : "memory");
 482:Drivers/CMSIS/Include/cmsis_gcc.h **** }
 483:Drivers/CMSIS/Include/cmsis_gcc.h **** 
 484:Drivers/CMSIS/Include/cmsis_gcc.h **** 
 485:Drivers/CMSIS/Include/cmsis_gcc.h **** #if (defined (__ARM_FEATURE_CMSE ) && (__ARM_FEATURE_CMSE == 3))
 486:Drivers/CMSIS/Include/cmsis_gcc.h **** /**
 487:Drivers/CMSIS/Include/cmsis_gcc.h ****   \brief   Set Priority Mask (non-secure)
 488:Drivers/CMSIS/Include/cmsis_gcc.h ****   \details Assigns the given value to the non-secure Priority Mask Register when in secure state.
 489:Drivers/CMSIS/Include/cmsis_gcc.h ****   \param [in]    priMask  Priority Mask
 490:Drivers/CMSIS/Include/cmsis_gcc.h ****  */
 491:Drivers/CMSIS/Include/cmsis_gcc.h **** __STATIC_FORCEINLINE void __TZ_set_PRIMASK_NS(uint32_t priMask)
 492:Drivers/CMSIS/Include/cmsis_gcc.h **** {
 493:Drivers/CMSIS/Include/cmsis_gcc.h ****   __ASM volatile ("MSR primask_ns, %0" : : "r" (priMask) : "memory");
 494:Drivers/CMSIS/Include/cmsis_gcc.h **** }
 495:Drivers/CMSIS/Include/cmsis_gcc.h **** #endif
 496:Drivers/CMSIS/Include/cmsis_gcc.h **** 
 497:Drivers/CMSIS/Include/cmsis_gcc.h **** 
 498:Drivers/CMSIS/Include/cmsis_gcc.h **** #if ((defined (__ARM_ARCH_7M__      ) && (__ARM_ARCH_7M__      == 1)) || \
 499:Drivers/CMSIS/Include/cmsis_gcc.h ****      (defined (__ARM_ARCH_7EM__     ) && (__ARM_ARCH_7EM__     == 1)) || \
 500:Drivers/CMSIS/Include/cmsis_gcc.h ****      (defined (__ARM_ARCH_8M_MAIN__ ) && (__ARM_ARCH_8M_MAIN__ == 1))    )
 501:Drivers/CMSIS/Include/cmsis_gcc.h **** /**
 502:Drivers/CMSIS/Include/cmsis_gcc.h ****   \brief   Enable FIQ
 503:Drivers/CMSIS/Include/cmsis_gcc.h ****   \details Enables FIQ interrupts by clearing the F-bit in the CPSR.
 504:Drivers/CMSIS/Include/cmsis_gcc.h ****            Can only be executed in Privileged modes.
 505:Drivers/CMSIS/Include/cmsis_gcc.h ****  */
 506:Drivers/CMSIS/Include/cmsis_gcc.h **** __STATIC_FORCEINLINE void __enable_fault_irq(void)
 507:Drivers/CMSIS/Include/cmsis_gcc.h **** {
 508:Drivers/CMSIS/Include/cmsis_gcc.h ****   __ASM volatile ("cpsie f" : : : "memory");
 509:Drivers/CMSIS/Include/cmsis_gcc.h **** }
 510:Drivers/CMSIS/Include/cmsis_gcc.h **** 
 511:Drivers/CMSIS/Include/cmsis_gcc.h **** 
 512:Drivers/CMSIS/Include/cmsis_gcc.h **** /**
 513:Drivers/CMSIS/Include/cmsis_gcc.h ****   \brief   Disable FIQ
 514:Drivers/CMSIS/Include/cmsis_gcc.h ****   \details Disables FIQ interrupts by setting the F-bit in the CPSR.
 515:Drivers/CMSIS/Include/cmsis_gcc.h ****            Can only be executed in Privileged modes.
 516:Drivers/CMSIS/Include/cmsis_gcc.h ****  */
 517:Drivers/CMSIS/Include/cmsis_gcc.h **** __STATIC_FORCEINLINE void __disable_fault_irq(void)
 518:Drivers/CMSIS/Include/cmsis_gcc.h **** {
ARM GAS  /tmp/ccQGQFth.s 			page 28


 519:Drivers/CMSIS/Include/cmsis_gcc.h ****   __ASM volatile ("cpsid f" : : : "memory");
 520:Drivers/CMSIS/Include/cmsis_gcc.h **** }
 521:Drivers/CMSIS/Include/cmsis_gcc.h **** 
 522:Drivers/CMSIS/Include/cmsis_gcc.h **** 
 523:Drivers/CMSIS/Include/cmsis_gcc.h **** /**
 524:Drivers/CMSIS/Include/cmsis_gcc.h ****   \brief   Get Base Priority
 525:Drivers/CMSIS/Include/cmsis_gcc.h ****   \details Returns the current value of the Base Priority register.
 526:Drivers/CMSIS/Include/cmsis_gcc.h ****   \return               Base Priority register value
 527:Drivers/CMSIS/Include/cmsis_gcc.h ****  */
 528:Drivers/CMSIS/Include/cmsis_gcc.h **** __STATIC_FORCEINLINE uint32_t __get_BASEPRI(void)
 129              		.loc 2 528 31 is_stmt 1 view .LVU27
 130              	.LBB345:
 529:Drivers/CMSIS/Include/cmsis_gcc.h **** {
 530:Drivers/CMSIS/Include/cmsis_gcc.h ****   uint32_t result;
 131              		.loc 2 530 3 view .LVU28
 531:Drivers/CMSIS/Include/cmsis_gcc.h **** 
 532:Drivers/CMSIS/Include/cmsis_gcc.h ****   __ASM volatile ("MRS %0, basepri" : "=r" (result) );
 132              		.loc 2 532 3 view .LVU29
 133              		.syntax unified
 134              	@ 532 "Drivers/CMSIS/Include/cmsis_gcc.h" 1
 135 000c EFF31183 		MRS r3, basepri
 136              	@ 0 "" 2
 137              	.LVL6:
 533:Drivers/CMSIS/Include/cmsis_gcc.h ****   return(result);
 138              		.loc 2 533 3 view .LVU30
 139              		.loc 2 533 3 is_stmt 0 view .LVU31
 140              		.thumb
 141              		.syntax unified
 142              	.LBE345:
 143              	.LBE344:
 188:Middlewares/Third_Party/FreeRTOS/Source/CMSIS_RTOS_V2/cmsis_os2.c ****     stat = osErrorISR;
 144              		.loc 1 188 7 view .LVU32
 145 0010 2BB9     		cbnz	r3, .L8
 146 0012 084B     		ldr	r3, .L15
 147 0014 1868     		ldr	r0, [r3]
 148              	.L9:
 192:Middlewares/Third_Party/FreeRTOS/Source/CMSIS_RTOS_V2/cmsis_os2.c ****       #if defined(USE_FREERTOS_HEAP_5) && (HEAP_5_REGION_SETUP == 1)
 149              		.loc 1 192 5 is_stmt 1 view .LVU33
 192:Middlewares/Third_Party/FreeRTOS/Source/CMSIS_RTOS_V2/cmsis_os2.c ****       #if defined(USE_FREERTOS_HEAP_5) && (HEAP_5_REGION_SETUP == 1)
 150              		.loc 1 192 8 is_stmt 0 view .LVU34
 151 0016 48B9     		cbnz	r0, .L11
 196:Middlewares/Third_Party/FreeRTOS/Source/CMSIS_RTOS_V2/cmsis_os2.c ****       stat = osOK;
 152              		.loc 1 196 7 is_stmt 1 view .LVU35
 196:Middlewares/Third_Party/FreeRTOS/Source/CMSIS_RTOS_V2/cmsis_os2.c ****       stat = osOK;
 153              		.loc 1 196 19 is_stmt 0 view .LVU36
 154 0018 0122     		movs	r2, #1
 155 001a 1A60     		str	r2, [r3]
 197:Middlewares/Third_Party/FreeRTOS/Source/CMSIS_RTOS_V2/cmsis_os2.c ****     } else {
 156              		.loc 1 197 7 is_stmt 1 view .LVU37
 157              	.LVL7:
 197:Middlewares/Third_Party/FreeRTOS/Source/CMSIS_RTOS_V2/cmsis_os2.c ****     } else {
 158              		.loc 1 197 7 is_stmt 0 view .LVU38
 159 001c 7047     		bx	lr
 160              	.LVL8:
 161              	.L8:
 188:Middlewares/Third_Party/FreeRTOS/Source/CMSIS_RTOS_V2/cmsis_os2.c ****     stat = osErrorISR;
 162              		.loc 1 188 7 discriminator 4 view .LVU39
ARM GAS  /tmp/ccQGQFth.s 			page 29


 163 001e 054B     		ldr	r3, .L15
 164 0020 1868     		ldr	r0, [r3]
 165 0022 0228     		cmp	r0, #2
 166 0024 F7D1     		bne	.L9
 167              	.L10:
 189:Middlewares/Third_Party/FreeRTOS/Source/CMSIS_RTOS_V2/cmsis_os2.c ****   }
 168              		.loc 1 189 10 view .LVU40
 169 0026 6FF00500 		mvn	r0, #5
 170 002a 7047     		bx	lr
 171              	.L11:
 199:Middlewares/Third_Party/FreeRTOS/Source/CMSIS_RTOS_V2/cmsis_os2.c ****     }
 172              		.loc 1 199 12 view .LVU41
 173 002c 4FF0FF30 		mov	r0, #-1
 174              	.LVL9:
 203:Middlewares/Third_Party/FreeRTOS/Source/CMSIS_RTOS_V2/cmsis_os2.c **** }
 175              		.loc 1 203 3 is_stmt 1 view .LVU42
 204:Middlewares/Third_Party/FreeRTOS/Source/CMSIS_RTOS_V2/cmsis_os2.c **** 
 176              		.loc 1 204 1 is_stmt 0 view .LVU43
 177 0030 7047     		bx	lr
 178              	.L16:
 179 0032 00BF     		.align	2
 180              	.L15:
 181 0034 00000000 		.word	.LANCHOR0
 182              		.cfi_endproc
 183              	.LFE109:
 185              		.section	.rodata.osKernelGetInfo.str1.4,"aMS",%progbits,1
 186              		.align	2
 187              	.LC0:
 188 0000 46726565 		.ascii	"FreeRTOS V10.2.0\000"
 188      52544F53 
 188      20563130 
 188      2E322E30 
 188      00
 189              		.section	.text.osKernelGetInfo,"ax",%progbits
 190              		.align	1
 191              		.p2align 2,,3
 192              		.global	osKernelGetInfo
 193              		.syntax unified
 194              		.thumb
 195              		.thumb_func
 196              		.fpu fpv4-sp-d16
 198              	osKernelGetInfo:
 199              	.LVL10:
 200              	.LFB110:
 206:Middlewares/Third_Party/FreeRTOS/Source/CMSIS_RTOS_V2/cmsis_os2.c **** 
 201              		.loc 1 206 83 is_stmt 1 view -0
 202              		.cfi_startproc
 203              		@ args = 0, pretend = 0, frame = 0
 204              		@ frame_needed = 0, uses_anonymous_args = 0
 208:Middlewares/Third_Party/FreeRTOS/Source/CMSIS_RTOS_V2/cmsis_os2.c ****     /* Version encoding is major.minor.rev: mmnnnrrrr dec */
 205              		.loc 1 208 3 view .LVU45
 206:Middlewares/Third_Party/FreeRTOS/Source/CMSIS_RTOS_V2/cmsis_os2.c **** 
 206              		.loc 1 206 83 is_stmt 0 view .LVU46
 207 0000 08B5     		push	{r3, lr}
 208              	.LCFI3:
 209              		.cfi_def_cfa_offset 8
 210              		.cfi_offset 3, -8
ARM GAS  /tmp/ccQGQFth.s 			page 30


 211              		.cfi_offset 14, -4
 208:Middlewares/Third_Party/FreeRTOS/Source/CMSIS_RTOS_V2/cmsis_os2.c ****     /* Version encoding is major.minor.rev: mmnnnrrrr dec */
 212              		.loc 1 208 6 view .LVU47
 213 0002 10B1     		cbz	r0, .L18
 210:Middlewares/Third_Party/FreeRTOS/Source/CMSIS_RTOS_V2/cmsis_os2.c ****     version->kernel = KERNEL_VERSION;
 214              		.loc 1 210 5 is_stmt 1 view .LVU48
 210:Middlewares/Third_Party/FreeRTOS/Source/CMSIS_RTOS_V2/cmsis_os2.c ****     version->kernel = KERNEL_VERSION;
 215              		.loc 1 210 21 is_stmt 0 view .LVU49
 216 0004 074B     		ldr	r3, .L31
 211:Middlewares/Third_Party/FreeRTOS/Source/CMSIS_RTOS_V2/cmsis_os2.c ****   }
 217              		.loc 1 211 21 view .LVU50
 218 0006 C0E90033 		strd	r3, r3, [r0]
 219              	.L18:
 214:Middlewares/Third_Party/FreeRTOS/Source/CMSIS_RTOS_V2/cmsis_os2.c ****     if (id_size > sizeof(KERNEL_ID)) {
 220              		.loc 1 214 3 is_stmt 1 view .LVU51
 214:Middlewares/Third_Party/FreeRTOS/Source/CMSIS_RTOS_V2/cmsis_os2.c ****     if (id_size > sizeof(KERNEL_ID)) {
 221              		.loc 1 214 6 is_stmt 0 view .LVU52
 222 000a 01B1     		cbz	r1, .L19
 214:Middlewares/Third_Party/FreeRTOS/Source/CMSIS_RTOS_V2/cmsis_os2.c ****     if (id_size > sizeof(KERNEL_ID)) {
 223              		.loc 1 214 24 discriminator 1 view .LVU53
 224 000c 0AB9     		cbnz	r2, .L30
 225              	.L19:
 221:Middlewares/Third_Party/FreeRTOS/Source/CMSIS_RTOS_V2/cmsis_os2.c **** }
 226              		.loc 1 221 3 is_stmt 1 view .LVU54
 222:Middlewares/Third_Party/FreeRTOS/Source/CMSIS_RTOS_V2/cmsis_os2.c **** 
 227              		.loc 1 222 1 is_stmt 0 view .LVU55
 228 000e 0020     		movs	r0, #0
 229              	.LVL11:
 222:Middlewares/Third_Party/FreeRTOS/Source/CMSIS_RTOS_V2/cmsis_os2.c **** 
 230              		.loc 1 222 1 view .LVU56
 231 0010 08BD     		pop	{r3, pc}
 232              	.LVL12:
 233              	.L30:
 215:Middlewares/Third_Party/FreeRTOS/Source/CMSIS_RTOS_V2/cmsis_os2.c ****       id_size = sizeof(KERNEL_ID);
 234              		.loc 1 215 5 is_stmt 1 view .LVU57
 218:Middlewares/Third_Party/FreeRTOS/Source/CMSIS_RTOS_V2/cmsis_os2.c ****   }
 235              		.loc 1 218 5 view .LVU58
 236 0012 112A     		cmp	r2, #17
 237 0014 28BF     		it	cs
 238 0016 1122     		movcs	r2, #17
 239              	.LVL13:
 218:Middlewares/Third_Party/FreeRTOS/Source/CMSIS_RTOS_V2/cmsis_os2.c ****   }
 240              		.loc 1 218 5 is_stmt 0 view .LVU59
 241 0018 0846     		mov	r0, r1
 242              	.LVL14:
 218:Middlewares/Third_Party/FreeRTOS/Source/CMSIS_RTOS_V2/cmsis_os2.c ****   }
 243              		.loc 1 218 5 view .LVU60
 244 001a 0349     		ldr	r1, .L31+4
 245              	.LVL15:
 218:Middlewares/Third_Party/FreeRTOS/Source/CMSIS_RTOS_V2/cmsis_os2.c ****   }
 246              		.loc 1 218 5 view .LVU61
 247 001c FFF7FEFF 		bl	memcpy
 248              	.LVL16:
 221:Middlewares/Third_Party/FreeRTOS/Source/CMSIS_RTOS_V2/cmsis_os2.c **** }
 249              		.loc 1 221 3 is_stmt 1 view .LVU62
 222:Middlewares/Third_Party/FreeRTOS/Source/CMSIS_RTOS_V2/cmsis_os2.c **** 
 250              		.loc 1 222 1 is_stmt 0 view .LVU63
ARM GAS  /tmp/ccQGQFth.s 			page 31


 251 0020 0020     		movs	r0, #0
 252 0022 08BD     		pop	{r3, pc}
 253              	.L32:
 254              		.align	2
 255              	.L31:
 256 0024 20EFF505 		.word	100003616
 257 0028 00000000 		.word	.LC0
 258              		.cfi_endproc
 259              	.LFE110:
 261              		.section	.text.osKernelGetState,"ax",%progbits
 262              		.align	1
 263              		.p2align 2,,3
 264              		.global	osKernelGetState
 265              		.syntax unified
 266              		.thumb
 267              		.thumb_func
 268              		.fpu fpv4-sp-d16
 270              	osKernelGetState:
 271              	.LFB111:
 224:Middlewares/Third_Party/FreeRTOS/Source/CMSIS_RTOS_V2/cmsis_os2.c ****   osKernelState_t state;
 272              		.loc 1 224 41 is_stmt 1 view -0
 273              		.cfi_startproc
 274              		@ args = 0, pretend = 0, frame = 0
 275              		@ frame_needed = 0, uses_anonymous_args = 0
 225:Middlewares/Third_Party/FreeRTOS/Source/CMSIS_RTOS_V2/cmsis_os2.c **** 
 276              		.loc 1 225 3 view .LVU65
 227:Middlewares/Third_Party/FreeRTOS/Source/CMSIS_RTOS_V2/cmsis_os2.c ****     case taskSCHEDULER_RUNNING:
 277              		.loc 1 227 3 view .LVU66
 224:Middlewares/Third_Party/FreeRTOS/Source/CMSIS_RTOS_V2/cmsis_os2.c ****   osKernelState_t state;
 278              		.loc 1 224 41 is_stmt 0 view .LVU67
 279 0000 08B5     		push	{r3, lr}
 280              	.LCFI4:
 281              		.cfi_def_cfa_offset 8
 282              		.cfi_offset 3, -8
 283              		.cfi_offset 14, -4
 227:Middlewares/Third_Party/FreeRTOS/Source/CMSIS_RTOS_V2/cmsis_os2.c ****     case taskSCHEDULER_RUNNING:
 284              		.loc 1 227 11 view .LVU68
 285 0002 FFF7FEFF 		bl	xTaskGetSchedulerState
 286              	.LVL17:
 227:Middlewares/Third_Party/FreeRTOS/Source/CMSIS_RTOS_V2/cmsis_os2.c ****     case taskSCHEDULER_RUNNING:
 287              		.loc 1 227 3 view .LVU69
 288 0006 48B1     		cbz	r0, .L35
 289 0008 0228     		cmp	r0, #2
 290 000a 06D0     		beq	.L33
 238:Middlewares/Third_Party/FreeRTOS/Source/CMSIS_RTOS_V2/cmsis_os2.c ****         state = osKernelReady;
 291              		.loc 1 238 7 is_stmt 1 view .LVU70
 238:Middlewares/Third_Party/FreeRTOS/Source/CMSIS_RTOS_V2/cmsis_os2.c ****         state = osKernelReady;
 292              		.loc 1 238 23 is_stmt 0 view .LVU71
 293 000c 044B     		ldr	r3, .L40
 238:Middlewares/Third_Party/FreeRTOS/Source/CMSIS_RTOS_V2/cmsis_os2.c ****         state = osKernelReady;
 294              		.loc 1 238 10 view .LVU72
 295 000e 1868     		ldr	r0, [r3]
 296 0010 A0F10100 		sub	r0, #1
 297 0014 B0FA80F0 		clz	r0, r0
 298 0018 4009     		lsrs	r0, r0, #5
 299              	.L33:
 247:Middlewares/Third_Party/FreeRTOS/Source/CMSIS_RTOS_V2/cmsis_os2.c **** 
ARM GAS  /tmp/ccQGQFth.s 			page 32


 300              		.loc 1 247 1 view .LVU73
 301 001a 08BD     		pop	{r3, pc}
 302              	.L35:
 227:Middlewares/Third_Party/FreeRTOS/Source/CMSIS_RTOS_V2/cmsis_os2.c ****     case taskSCHEDULER_RUNNING:
 303              		.loc 1 227 3 view .LVU74
 304 001c 0320     		movs	r0, #3
 305              	.LVL18:
 246:Middlewares/Third_Party/FreeRTOS/Source/CMSIS_RTOS_V2/cmsis_os2.c **** }
 306              		.loc 1 246 3 is_stmt 1 view .LVU75
 247:Middlewares/Third_Party/FreeRTOS/Source/CMSIS_RTOS_V2/cmsis_os2.c **** 
 307              		.loc 1 247 1 is_stmt 0 view .LVU76
 308 001e 08BD     		pop	{r3, pc}
 309              	.L41:
 310              		.align	2
 311              	.L40:
 312 0020 00000000 		.word	.LANCHOR0
 313              		.cfi_endproc
 314              	.LFE111:
 316              		.section	.text.osKernelStart,"ax",%progbits
 317              		.align	1
 318              		.p2align 2,,3
 319              		.global	osKernelStart
 320              		.syntax unified
 321              		.thumb
 322              		.thumb_func
 323              		.fpu fpv4-sp-d16
 325              	osKernelStart:
 326              	.LFB112:
 249:Middlewares/Third_Party/FreeRTOS/Source/CMSIS_RTOS_V2/cmsis_os2.c ****   osStatus_t stat;
 327              		.loc 1 249 33 is_stmt 1 view -0
 328              		.cfi_startproc
 329              		@ args = 0, pretend = 0, frame = 0
 330              		@ frame_needed = 0, uses_anonymous_args = 0
 250:Middlewares/Third_Party/FreeRTOS/Source/CMSIS_RTOS_V2/cmsis_os2.c **** 
 331              		.loc 1 250 3 view .LVU78
 252:Middlewares/Third_Party/FreeRTOS/Source/CMSIS_RTOS_V2/cmsis_os2.c ****     stat = osErrorISR;
 332              		.loc 1 252 3 view .LVU79
 333              	.LBB346:
 334              	.LBI346:
 272:Drivers/CMSIS/Include/cmsis_gcc.h **** {
 335              		.loc 2 272 31 view .LVU80
 336              	.LBB347:
 274:Drivers/CMSIS/Include/cmsis_gcc.h **** 
 337              		.loc 2 274 3 view .LVU81
 276:Drivers/CMSIS/Include/cmsis_gcc.h ****   return(result);
 338              		.loc 2 276 3 view .LVU82
 339              	.LBE347:
 340              	.LBE346:
 249:Middlewares/Third_Party/FreeRTOS/Source/CMSIS_RTOS_V2/cmsis_os2.c ****   osStatus_t stat;
 341              		.loc 1 249 33 is_stmt 0 view .LVU83
 342 0000 08B5     		push	{r3, lr}
 343              	.LCFI5:
 344              		.cfi_def_cfa_offset 8
 345              		.cfi_offset 3, -8
 346              		.cfi_offset 14, -4
 347              	.LBB349:
 348              	.LBB348:
ARM GAS  /tmp/ccQGQFth.s 			page 33


 276:Drivers/CMSIS/Include/cmsis_gcc.h ****   return(result);
 349              		.loc 2 276 3 view .LVU84
 350              		.syntax unified
 351              	@ 276 "Drivers/CMSIS/Include/cmsis_gcc.h" 1
 352 0002 EFF30583 		MRS r3, ipsr
 353              	@ 0 "" 2
 354              	.LVL19:
 277:Drivers/CMSIS/Include/cmsis_gcc.h **** }
 355              		.loc 2 277 3 is_stmt 1 view .LVU85
 277:Drivers/CMSIS/Include/cmsis_gcc.h **** }
 356              		.loc 2 277 3 is_stmt 0 view .LVU86
 357              		.thumb
 358              		.syntax unified
 359              	.LBE348:
 360              	.LBE349:
 252:Middlewares/Third_Party/FreeRTOS/Source/CMSIS_RTOS_V2/cmsis_os2.c ****     stat = osErrorISR;
 361              		.loc 1 252 6 view .LVU87
 362 0006 C3B9     		cbnz	r3, .L47
 363              	.LBB350:
 364              	.LBI350:
 449:Drivers/CMSIS/Include/cmsis_gcc.h **** {
 365              		.loc 2 449 31 is_stmt 1 view .LVU88
 366              	.LBB351:
 451:Drivers/CMSIS/Include/cmsis_gcc.h **** 
 367              		.loc 2 451 3 view .LVU89
 453:Drivers/CMSIS/Include/cmsis_gcc.h ****   return(result);
 368              		.loc 2 453 3 view .LVU90
 369              		.syntax unified
 370              	@ 453 "Drivers/CMSIS/Include/cmsis_gcc.h" 1
 371 0008 EFF31083 		MRS r3, primask
 372              	@ 0 "" 2
 373              	.LVL20:
 454:Drivers/CMSIS/Include/cmsis_gcc.h **** }
 374              		.loc 2 454 3 view .LVU91
 454:Drivers/CMSIS/Include/cmsis_gcc.h **** }
 375              		.loc 2 454 3 is_stmt 0 view .LVU92
 376              		.thumb
 377              		.syntax unified
 378              	.LBE351:
 379              	.LBE350:
 252:Middlewares/Third_Party/FreeRTOS/Source/CMSIS_RTOS_V2/cmsis_os2.c ****     stat = osErrorISR;
 380              		.loc 1 252 7 view .LVU93
 381 000c 5BB1     		cbz	r3, .L53
 382              	.L45:
 252:Middlewares/Third_Party/FreeRTOS/Source/CMSIS_RTOS_V2/cmsis_os2.c ****     stat = osErrorISR;
 383              		.loc 1 252 7 discriminator 4 view .LVU94
 384 000e 0C4B     		ldr	r3, .L54
 385 0010 1A68     		ldr	r2, [r3]
 386 0012 022A     		cmp	r2, #2
 387 0014 11D0     		beq	.L47
 388              	.L46:
 256:Middlewares/Third_Party/FreeRTOS/Source/CMSIS_RTOS_V2/cmsis_os2.c ****       /* Ensure SVC priority is at the reset value */
 389              		.loc 1 256 5 is_stmt 1 view .LVU95
 256:Middlewares/Third_Party/FreeRTOS/Source/CMSIS_RTOS_V2/cmsis_os2.c ****       /* Ensure SVC priority is at the reset value */
 390              		.loc 1 256 8 is_stmt 0 view .LVU96
 391 0016 012A     		cmp	r2, #1
 392 0018 0CD1     		bne	.L48
ARM GAS  /tmp/ccQGQFth.s 			page 34


 258:Middlewares/Third_Party/FreeRTOS/Source/CMSIS_RTOS_V2/cmsis_os2.c ****       /* Change state to enable IRQ masking check */
 393              		.loc 1 258 7 is_stmt 1 view .LVU97
 181:Middlewares/Third_Party/FreeRTOS/Source/CMSIS_RTOS_V2/cmsis_os2.c **** 
 394              		.loc 1 181 1 view .LVU98
 260:Middlewares/Third_Party/FreeRTOS/Source/CMSIS_RTOS_V2/cmsis_os2.c ****       /* Start the kernel scheduler */
 395              		.loc 1 260 7 view .LVU99
 260:Middlewares/Third_Party/FreeRTOS/Source/CMSIS_RTOS_V2/cmsis_os2.c ****       /* Start the kernel scheduler */
 396              		.loc 1 260 19 is_stmt 0 view .LVU100
 397 001a 0222     		movs	r2, #2
 398 001c 1A60     		str	r2, [r3]
 262:Middlewares/Third_Party/FreeRTOS/Source/CMSIS_RTOS_V2/cmsis_os2.c ****       stat = osOK;
 399              		.loc 1 262 7 is_stmt 1 view .LVU101
 400 001e FFF7FEFF 		bl	vTaskStartScheduler
 401              	.LVL21:
 263:Middlewares/Third_Party/FreeRTOS/Source/CMSIS_RTOS_V2/cmsis_os2.c ****     } else {
 402              		.loc 1 263 7 view .LVU102
 263:Middlewares/Third_Party/FreeRTOS/Source/CMSIS_RTOS_V2/cmsis_os2.c ****     } else {
 403              		.loc 1 263 12 is_stmt 0 view .LVU103
 404 0022 0020     		movs	r0, #0
 270:Middlewares/Third_Party/FreeRTOS/Source/CMSIS_RTOS_V2/cmsis_os2.c **** 
 405              		.loc 1 270 1 view .LVU104
 406 0024 08BD     		pop	{r3, pc}
 407              	.LVL22:
 408              	.L53:
 409              	.LBB352:
 410              	.LBI352:
 528:Drivers/CMSIS/Include/cmsis_gcc.h **** {
 411              		.loc 2 528 31 is_stmt 1 view .LVU105
 412              	.LBB353:
 530:Drivers/CMSIS/Include/cmsis_gcc.h **** 
 413              		.loc 2 530 3 view .LVU106
 532:Drivers/CMSIS/Include/cmsis_gcc.h ****   return(result);
 414              		.loc 2 532 3 view .LVU107
 415              		.syntax unified
 416              	@ 532 "Drivers/CMSIS/Include/cmsis_gcc.h" 1
 417 0026 EFF31183 		MRS r3, basepri
 418              	@ 0 "" 2
 419              	.LVL23:
 420              		.loc 2 533 3 view .LVU108
 421              		.loc 2 533 3 is_stmt 0 view .LVU109
 422              		.thumb
 423              		.syntax unified
 424              	.LBE353:
 425              	.LBE352:
 252:Middlewares/Third_Party/FreeRTOS/Source/CMSIS_RTOS_V2/cmsis_os2.c ****     stat = osErrorISR;
 426              		.loc 1 252 7 view .LVU110
 427 002a 002B     		cmp	r3, #0
 428 002c EFD1     		bne	.L45
 429 002e 044B     		ldr	r3, .L54
 430 0030 1A68     		ldr	r2, [r3]
 431 0032 F0E7     		b	.L46
 432              	.L48:
 265:Middlewares/Third_Party/FreeRTOS/Source/CMSIS_RTOS_V2/cmsis_os2.c ****     }
 433              		.loc 1 265 12 view .LVU111
 434 0034 4FF0FF30 		mov	r0, #-1
 435              	.LVL24:
 269:Middlewares/Third_Party/FreeRTOS/Source/CMSIS_RTOS_V2/cmsis_os2.c **** }
ARM GAS  /tmp/ccQGQFth.s 			page 35


 436              		.loc 1 269 3 is_stmt 1 view .LVU112
 270:Middlewares/Third_Party/FreeRTOS/Source/CMSIS_RTOS_V2/cmsis_os2.c **** 
 437              		.loc 1 270 1 is_stmt 0 view .LVU113
 438 0038 08BD     		pop	{r3, pc}
 439              	.LVL25:
 440              	.L47:
 253:Middlewares/Third_Party/FreeRTOS/Source/CMSIS_RTOS_V2/cmsis_os2.c ****   }
 441              		.loc 1 253 10 view .LVU114
 442 003a 6FF00500 		mvn	r0, #5
 270:Middlewares/Third_Party/FreeRTOS/Source/CMSIS_RTOS_V2/cmsis_os2.c **** 
 443              		.loc 1 270 1 view .LVU115
 444 003e 08BD     		pop	{r3, pc}
 445              	.L55:
 446              		.align	2
 447              	.L54:
 448 0040 00000000 		.word	.LANCHOR0
 449              		.cfi_endproc
 450              	.LFE112:
 452              		.section	.text.osKernelLock,"ax",%progbits
 453              		.align	1
 454              		.p2align 2,,3
 455              		.global	osKernelLock
 456              		.syntax unified
 457              		.thumb
 458              		.thumb_func
 459              		.fpu fpv4-sp-d16
 461              	osKernelLock:
 462              	.LFB113:
 272:Middlewares/Third_Party/FreeRTOS/Source/CMSIS_RTOS_V2/cmsis_os2.c ****   int32_t lock;
 463              		.loc 1 272 29 is_stmt 1 view -0
 464              		.cfi_startproc
 465              		@ args = 0, pretend = 0, frame = 0
 466              		@ frame_needed = 0, uses_anonymous_args = 0
 273:Middlewares/Third_Party/FreeRTOS/Source/CMSIS_RTOS_V2/cmsis_os2.c **** 
 467              		.loc 1 273 3 view .LVU117
 275:Middlewares/Third_Party/FreeRTOS/Source/CMSIS_RTOS_V2/cmsis_os2.c ****     lock = (int32_t)osErrorISR;
 468              		.loc 1 275 3 view .LVU118
 469              	.LBB354:
 470              	.LBI354:
 272:Drivers/CMSIS/Include/cmsis_gcc.h **** {
 471              		.loc 2 272 31 view .LVU119
 472              	.LBB355:
 274:Drivers/CMSIS/Include/cmsis_gcc.h **** 
 473              		.loc 2 274 3 view .LVU120
 276:Drivers/CMSIS/Include/cmsis_gcc.h ****   return(result);
 474              		.loc 2 276 3 view .LVU121
 475              	.LBE355:
 476              	.LBE354:
 272:Middlewares/Third_Party/FreeRTOS/Source/CMSIS_RTOS_V2/cmsis_os2.c ****   int32_t lock;
 477              		.loc 1 272 29 is_stmt 0 view .LVU122
 478 0000 08B5     		push	{r3, lr}
 479              	.LCFI6:
 480              		.cfi_def_cfa_offset 8
 481              		.cfi_offset 3, -8
 482              		.cfi_offset 14, -4
 483              	.LBB357:
 484              	.LBB356:
ARM GAS  /tmp/ccQGQFth.s 			page 36


 276:Drivers/CMSIS/Include/cmsis_gcc.h ****   return(result);
 485              		.loc 2 276 3 view .LVU123
 486              		.syntax unified
 487              	@ 276 "Drivers/CMSIS/Include/cmsis_gcc.h" 1
 488 0002 EFF30583 		MRS r3, ipsr
 489              	@ 0 "" 2
 490              	.LVL26:
 277:Drivers/CMSIS/Include/cmsis_gcc.h **** }
 491              		.loc 2 277 3 is_stmt 1 view .LVU124
 277:Drivers/CMSIS/Include/cmsis_gcc.h **** }
 492              		.loc 2 277 3 is_stmt 0 view .LVU125
 493              		.thumb
 494              		.syntax unified
 495              	.LBE356:
 496              	.LBE357:
 275:Middlewares/Third_Party/FreeRTOS/Source/CMSIS_RTOS_V2/cmsis_os2.c ****     lock = (int32_t)osErrorISR;
 497              		.loc 1 275 6 view .LVU126
 498 0006 E3B9     		cbnz	r3, .L61
 499              	.LBB358:
 500              	.LBI358:
 449:Drivers/CMSIS/Include/cmsis_gcc.h **** {
 501              		.loc 2 449 31 is_stmt 1 view .LVU127
 502              	.LBB359:
 451:Drivers/CMSIS/Include/cmsis_gcc.h **** 
 503              		.loc 2 451 3 view .LVU128
 453:Drivers/CMSIS/Include/cmsis_gcc.h ****   return(result);
 504              		.loc 2 453 3 view .LVU129
 505              		.syntax unified
 506              	@ 453 "Drivers/CMSIS/Include/cmsis_gcc.h" 1
 507 0008 EFF31083 		MRS r3, primask
 508              	@ 0 "" 2
 509              	.LVL27:
 454:Drivers/CMSIS/Include/cmsis_gcc.h **** }
 510              		.loc 2 454 3 view .LVU130
 454:Drivers/CMSIS/Include/cmsis_gcc.h **** }
 511              		.loc 2 454 3 is_stmt 0 view .LVU131
 512              		.thumb
 513              		.syntax unified
 514              	.LBE359:
 515              	.LBE358:
 275:Middlewares/Third_Party/FreeRTOS/Source/CMSIS_RTOS_V2/cmsis_os2.c ****     lock = (int32_t)osErrorISR;
 516              		.loc 1 275 7 view .LVU132
 517 000c 5BB1     		cbz	r3, .L72
 518              	.L59:
 275:Middlewares/Third_Party/FreeRTOS/Source/CMSIS_RTOS_V2/cmsis_os2.c ****     lock = (int32_t)osErrorISR;
 519              		.loc 1 275 7 discriminator 4 view .LVU133
 520 000e 0E4B     		ldr	r3, .L75
 521 0010 1B68     		ldr	r3, [r3]
 522 0012 022B     		cmp	r3, #2
 523 0014 15D0     		beq	.L61
 279:Middlewares/Third_Party/FreeRTOS/Source/CMSIS_RTOS_V2/cmsis_os2.c ****       case taskSCHEDULER_SUSPENDED:
 524              		.loc 1 279 5 is_stmt 1 view .LVU134
 279:Middlewares/Third_Party/FreeRTOS/Source/CMSIS_RTOS_V2/cmsis_os2.c ****       case taskSCHEDULER_SUSPENDED:
 525              		.loc 1 279 13 is_stmt 0 view .LVU135
 526 0016 FFF7FEFF 		bl	xTaskGetSchedulerState
 527              	.LVL28:
 279:Middlewares/Third_Party/FreeRTOS/Source/CMSIS_RTOS_V2/cmsis_os2.c ****       case taskSCHEDULER_SUSPENDED:
ARM GAS  /tmp/ccQGQFth.s 			page 37


 528              		.loc 1 279 5 view .LVU136
 529 001a 60B1     		cbz	r0, .L62
 530              	.L74:
 531 001c 0228     		cmp	r0, #2
 532 001e 0CD0     		beq	.L73
 533 0020 4FF0FF30 		mov	r0, #-1
 534              	.LVL29:
 296:Middlewares/Third_Party/FreeRTOS/Source/CMSIS_RTOS_V2/cmsis_os2.c **** }
 535              		.loc 1 296 3 is_stmt 1 view .LVU137
 297:Middlewares/Third_Party/FreeRTOS/Source/CMSIS_RTOS_V2/cmsis_os2.c **** 
 536              		.loc 1 297 1 is_stmt 0 view .LVU138
 537 0024 08BD     		pop	{r3, pc}
 538              	.LVL30:
 539              	.L72:
 540              	.LBB360:
 541              	.LBI360:
 528:Drivers/CMSIS/Include/cmsis_gcc.h **** {
 542              		.loc 2 528 31 is_stmt 1 view .LVU139
 543              	.LBB361:
 530:Drivers/CMSIS/Include/cmsis_gcc.h **** 
 544              		.loc 2 530 3 view .LVU140
 532:Drivers/CMSIS/Include/cmsis_gcc.h ****   return(result);
 545              		.loc 2 532 3 view .LVU141
 546              		.syntax unified
 547              	@ 532 "Drivers/CMSIS/Include/cmsis_gcc.h" 1
 548 0026 EFF31183 		MRS r3, basepri
 549              	@ 0 "" 2
 550              	.LVL31:
 551              		.loc 2 533 3 view .LVU142
 552              		.loc 2 533 3 is_stmt 0 view .LVU143
 553              		.thumb
 554              		.syntax unified
 555              	.LBE361:
 556              	.LBE360:
 275:Middlewares/Third_Party/FreeRTOS/Source/CMSIS_RTOS_V2/cmsis_os2.c ****     lock = (int32_t)osErrorISR;
 557              		.loc 1 275 7 view .LVU144
 558 002a 002B     		cmp	r3, #0
 559 002c EFD1     		bne	.L59
 279:Middlewares/Third_Party/FreeRTOS/Source/CMSIS_RTOS_V2/cmsis_os2.c ****       case taskSCHEDULER_SUSPENDED:
 560              		.loc 1 279 5 is_stmt 1 view .LVU145
 279:Middlewares/Third_Party/FreeRTOS/Source/CMSIS_RTOS_V2/cmsis_os2.c ****       case taskSCHEDULER_SUSPENDED:
 561              		.loc 1 279 13 is_stmt 0 view .LVU146
 562 002e FFF7FEFF 		bl	xTaskGetSchedulerState
 563              	.LVL32:
 279:Middlewares/Third_Party/FreeRTOS/Source/CMSIS_RTOS_V2/cmsis_os2.c ****       case taskSCHEDULER_SUSPENDED:
 564              		.loc 1 279 5 view .LVU147
 565 0032 0028     		cmp	r0, #0
 566 0034 F2D1     		bne	.L74
 567              	.L62:
 281:Middlewares/Third_Party/FreeRTOS/Source/CMSIS_RTOS_V2/cmsis_os2.c ****         break;
 568              		.loc 1 281 14 view .LVU148
 569 0036 0120     		movs	r0, #1
 297:Middlewares/Third_Party/FreeRTOS/Source/CMSIS_RTOS_V2/cmsis_os2.c **** 
 570              		.loc 1 297 1 view .LVU149
 571 0038 08BD     		pop	{r3, pc}
 572              	.L73:
 285:Middlewares/Third_Party/FreeRTOS/Source/CMSIS_RTOS_V2/cmsis_os2.c ****         lock = 0;
ARM GAS  /tmp/ccQGQFth.s 			page 38


 573              		.loc 1 285 9 is_stmt 1 view .LVU150
 574 003a FFF7FEFF 		bl	vTaskSuspendAll
 575              	.LVL33:
 286:Middlewares/Third_Party/FreeRTOS/Source/CMSIS_RTOS_V2/cmsis_os2.c ****         break;
 576              		.loc 1 286 9 view .LVU151
 287:Middlewares/Third_Party/FreeRTOS/Source/CMSIS_RTOS_V2/cmsis_os2.c **** 
 577              		.loc 1 287 9 view .LVU152
 286:Middlewares/Third_Party/FreeRTOS/Source/CMSIS_RTOS_V2/cmsis_os2.c ****         break;
 578              		.loc 1 286 14 is_stmt 0 view .LVU153
 579 003e 0020     		movs	r0, #0
 297:Middlewares/Third_Party/FreeRTOS/Source/CMSIS_RTOS_V2/cmsis_os2.c **** 
 580              		.loc 1 297 1 view .LVU154
 581 0040 08BD     		pop	{r3, pc}
 582              	.LVL34:
 583              	.L61:
 276:Middlewares/Third_Party/FreeRTOS/Source/CMSIS_RTOS_V2/cmsis_os2.c ****   }
 584              		.loc 1 276 10 view .LVU155
 585 0042 6FF00500 		mvn	r0, #5
 297:Middlewares/Third_Party/FreeRTOS/Source/CMSIS_RTOS_V2/cmsis_os2.c **** 
 586              		.loc 1 297 1 view .LVU156
 587 0046 08BD     		pop	{r3, pc}
 588              	.L76:
 589              		.align	2
 590              	.L75:
 591 0048 00000000 		.word	.LANCHOR0
 592              		.cfi_endproc
 593              	.LFE113:
 595              		.section	.text.osKernelUnlock,"ax",%progbits
 596              		.align	1
 597              		.p2align 2,,3
 598              		.global	osKernelUnlock
 599              		.syntax unified
 600              		.thumb
 601              		.thumb_func
 602              		.fpu fpv4-sp-d16
 604              	osKernelUnlock:
 605              	.LFB114:
 299:Middlewares/Third_Party/FreeRTOS/Source/CMSIS_RTOS_V2/cmsis_os2.c ****   int32_t lock;
 606              		.loc 1 299 31 is_stmt 1 view -0
 607              		.cfi_startproc
 608              		@ args = 0, pretend = 0, frame = 0
 609              		@ frame_needed = 0, uses_anonymous_args = 0
 300:Middlewares/Third_Party/FreeRTOS/Source/CMSIS_RTOS_V2/cmsis_os2.c **** 
 610              		.loc 1 300 3 view .LVU158
 302:Middlewares/Third_Party/FreeRTOS/Source/CMSIS_RTOS_V2/cmsis_os2.c ****     lock = (int32_t)osErrorISR;
 611              		.loc 1 302 3 view .LVU159
 612              	.LBB362:
 613              	.LBI362:
 272:Drivers/CMSIS/Include/cmsis_gcc.h **** {
 614              		.loc 2 272 31 view .LVU160
 615              	.LBB363:
 274:Drivers/CMSIS/Include/cmsis_gcc.h **** 
 616              		.loc 2 274 3 view .LVU161
 276:Drivers/CMSIS/Include/cmsis_gcc.h ****   return(result);
 617              		.loc 2 276 3 view .LVU162
 618              	.LBE363:
 619              	.LBE362:
ARM GAS  /tmp/ccQGQFth.s 			page 39


 299:Middlewares/Third_Party/FreeRTOS/Source/CMSIS_RTOS_V2/cmsis_os2.c ****   int32_t lock;
 620              		.loc 1 299 31 is_stmt 0 view .LVU163
 621 0000 08B5     		push	{r3, lr}
 622              	.LCFI7:
 623              		.cfi_def_cfa_offset 8
 624              		.cfi_offset 3, -8
 625              		.cfi_offset 14, -4
 626              	.LBB365:
 627              	.LBB364:
 276:Drivers/CMSIS/Include/cmsis_gcc.h ****   return(result);
 628              		.loc 2 276 3 view .LVU164
 629              		.syntax unified
 630              	@ 276 "Drivers/CMSIS/Include/cmsis_gcc.h" 1
 631 0002 EFF30583 		MRS r3, ipsr
 632              	@ 0 "" 2
 633              	.LVL35:
 277:Drivers/CMSIS/Include/cmsis_gcc.h **** }
 634              		.loc 2 277 3 is_stmt 1 view .LVU165
 277:Drivers/CMSIS/Include/cmsis_gcc.h **** }
 635              		.loc 2 277 3 is_stmt 0 view .LVU166
 636              		.thumb
 637              		.syntax unified
 638              	.LBE364:
 639              	.LBE365:
 302:Middlewares/Third_Party/FreeRTOS/Source/CMSIS_RTOS_V2/cmsis_os2.c ****     lock = (int32_t)osErrorISR;
 640              		.loc 1 302 6 view .LVU167
 641 0006 1BBB     		cbnz	r3, .L82
 642              	.LBB366:
 643              	.LBI366:
 449:Drivers/CMSIS/Include/cmsis_gcc.h **** {
 644              		.loc 2 449 31 is_stmt 1 view .LVU168
 645              	.LBB367:
 451:Drivers/CMSIS/Include/cmsis_gcc.h **** 
 646              		.loc 2 451 3 view .LVU169
 453:Drivers/CMSIS/Include/cmsis_gcc.h ****   return(result);
 647              		.loc 2 453 3 view .LVU170
 648              		.syntax unified
 649              	@ 453 "Drivers/CMSIS/Include/cmsis_gcc.h" 1
 650 0008 EFF31083 		MRS r3, primask
 651              	@ 0 "" 2
 652              	.LVL36:
 454:Drivers/CMSIS/Include/cmsis_gcc.h **** }
 653              		.loc 2 454 3 view .LVU171
 454:Drivers/CMSIS/Include/cmsis_gcc.h **** }
 654              		.loc 2 454 3 is_stmt 0 view .LVU172
 655              		.thumb
 656              		.syntax unified
 657              	.LBE367:
 658              	.LBE366:
 302:Middlewares/Third_Party/FreeRTOS/Source/CMSIS_RTOS_V2/cmsis_os2.c ****     lock = (int32_t)osErrorISR;
 659              		.loc 1 302 7 view .LVU173
 660 000c 5BB1     		cbz	r3, .L94
 661              	.L80:
 302:Middlewares/Third_Party/FreeRTOS/Source/CMSIS_RTOS_V2/cmsis_os2.c ****     lock = (int32_t)osErrorISR;
 662              		.loc 1 302 7 discriminator 4 view .LVU174
 663 000e 124B     		ldr	r3, .L96
 664 0010 1B68     		ldr	r3, [r3]
ARM GAS  /tmp/ccQGQFth.s 			page 40


 665 0012 022B     		cmp	r3, #2
 666 0014 1CD0     		beq	.L82
 306:Middlewares/Third_Party/FreeRTOS/Source/CMSIS_RTOS_V2/cmsis_os2.c ****       case taskSCHEDULER_SUSPENDED:
 667              		.loc 1 306 5 is_stmt 1 view .LVU175
 306:Middlewares/Third_Party/FreeRTOS/Source/CMSIS_RTOS_V2/cmsis_os2.c ****       case taskSCHEDULER_SUSPENDED:
 668              		.loc 1 306 13 is_stmt 0 view .LVU176
 669 0016 FFF7FEFF 		bl	xTaskGetSchedulerState
 670              	.LVL37:
 306:Middlewares/Third_Party/FreeRTOS/Source/CMSIS_RTOS_V2/cmsis_os2.c ****       case taskSCHEDULER_SUSPENDED:
 671              		.loc 1 306 5 view .LVU177
 672 001a 60B1     		cbz	r0, .L83
 673              	.L95:
 674 001c 0238     		subs	r0, r0, #2
 675 001e 18BF     		it	ne
 676 0020 4FF0FF30 		movne	r0, #-1
 329:Middlewares/Third_Party/FreeRTOS/Source/CMSIS_RTOS_V2/cmsis_os2.c **** 
 677              		.loc 1 329 1 view .LVU178
 678 0024 08BD     		pop	{r3, pc}
 679              	.L94:
 680              	.LBB368:
 681              	.LBI368:
 528:Drivers/CMSIS/Include/cmsis_gcc.h **** {
 682              		.loc 2 528 31 is_stmt 1 view .LVU179
 683              	.LBB369:
 530:Drivers/CMSIS/Include/cmsis_gcc.h **** 
 684              		.loc 2 530 3 view .LVU180
 532:Drivers/CMSIS/Include/cmsis_gcc.h ****   return(result);
 685              		.loc 2 532 3 view .LVU181
 686              		.syntax unified
 687              	@ 532 "Drivers/CMSIS/Include/cmsis_gcc.h" 1
 688 0026 EFF31183 		MRS r3, basepri
 689              	@ 0 "" 2
 690              	.LVL38:
 691              		.loc 2 533 3 view .LVU182
 692              		.loc 2 533 3 is_stmt 0 view .LVU183
 693              		.thumb
 694              		.syntax unified
 695              	.LBE369:
 696              	.LBE368:
 302:Middlewares/Third_Party/FreeRTOS/Source/CMSIS_RTOS_V2/cmsis_os2.c ****     lock = (int32_t)osErrorISR;
 697              		.loc 1 302 7 view .LVU184
 698 002a 002B     		cmp	r3, #0
 699 002c EFD1     		bne	.L80
 306:Middlewares/Third_Party/FreeRTOS/Source/CMSIS_RTOS_V2/cmsis_os2.c ****       case taskSCHEDULER_SUSPENDED:
 700              		.loc 1 306 5 is_stmt 1 view .LVU185
 306:Middlewares/Third_Party/FreeRTOS/Source/CMSIS_RTOS_V2/cmsis_os2.c ****       case taskSCHEDULER_SUSPENDED:
 701              		.loc 1 306 13 is_stmt 0 view .LVU186
 702 002e FFF7FEFF 		bl	xTaskGetSchedulerState
 703              	.LVL39:
 306:Middlewares/Third_Party/FreeRTOS/Source/CMSIS_RTOS_V2/cmsis_os2.c ****       case taskSCHEDULER_SUSPENDED:
 704              		.loc 1 306 5 view .LVU187
 705 0032 0028     		cmp	r0, #0
 706 0034 F2D1     		bne	.L95
 707              	.L83:
 308:Middlewares/Third_Party/FreeRTOS/Source/CMSIS_RTOS_V2/cmsis_os2.c **** 
 708              		.loc 1 308 9 is_stmt 1 view .LVU188
 709              	.LVL40:
ARM GAS  /tmp/ccQGQFth.s 			page 41


 310:Middlewares/Third_Party/FreeRTOS/Source/CMSIS_RTOS_V2/cmsis_os2.c ****           if (xTaskGetSchedulerState() == taskSCHEDULER_SUSPENDED) {
 710              		.loc 1 310 9 view .LVU189
 310:Middlewares/Third_Party/FreeRTOS/Source/CMSIS_RTOS_V2/cmsis_os2.c ****           if (xTaskGetSchedulerState() == taskSCHEDULER_SUSPENDED) {
 711              		.loc 1 310 13 is_stmt 0 view .LVU190
 712 0036 FFF7FEFF 		bl	xTaskResumeAll
 713              	.LVL41:
 310:Middlewares/Third_Party/FreeRTOS/Source/CMSIS_RTOS_V2/cmsis_os2.c ****           if (xTaskGetSchedulerState() == taskSCHEDULER_SUSPENDED) {
 714              		.loc 1 310 12 view .LVU191
 715 003a 0128     		cmp	r0, #1
 716 003c 01D1     		bne	.L84
 717              	.L85:
 308:Middlewares/Third_Party/FreeRTOS/Source/CMSIS_RTOS_V2/cmsis_os2.c **** 
 718              		.loc 1 308 14 view .LVU192
 719 003e 0120     		movs	r0, #1
 329:Middlewares/Third_Party/FreeRTOS/Source/CMSIS_RTOS_V2/cmsis_os2.c **** 
 720              		.loc 1 329 1 view .LVU193
 721 0040 08BD     		pop	{r3, pc}
 722              	.L84:
 311:Middlewares/Third_Party/FreeRTOS/Source/CMSIS_RTOS_V2/cmsis_os2.c ****             lock = (int32_t)osError;
 723              		.loc 1 311 11 is_stmt 1 view .LVU194
 311:Middlewares/Third_Party/FreeRTOS/Source/CMSIS_RTOS_V2/cmsis_os2.c ****             lock = (int32_t)osError;
 724              		.loc 1 311 15 is_stmt 0 view .LVU195
 725 0042 FFF7FEFF 		bl	xTaskGetSchedulerState
 726              	.LVL42:
 311:Middlewares/Third_Party/FreeRTOS/Source/CMSIS_RTOS_V2/cmsis_os2.c ****             lock = (int32_t)osError;
 727              		.loc 1 311 14 view .LVU196
 728 0046 0028     		cmp	r0, #0
 729 0048 F9D1     		bne	.L85
 312:Middlewares/Third_Party/FreeRTOS/Source/CMSIS_RTOS_V2/cmsis_os2.c ****           }
 730              		.loc 1 312 18 view .LVU197
 731 004a 4FF0FF30 		mov	r0, #-1
 732              	.LVL43:
 328:Middlewares/Third_Party/FreeRTOS/Source/CMSIS_RTOS_V2/cmsis_os2.c **** }
 733              		.loc 1 328 3 is_stmt 1 view .LVU198
 329:Middlewares/Third_Party/FreeRTOS/Source/CMSIS_RTOS_V2/cmsis_os2.c **** 
 734              		.loc 1 329 1 is_stmt 0 view .LVU199
 735 004e 08BD     		pop	{r3, pc}
 736              	.LVL44:
 737              	.L82:
 303:Middlewares/Third_Party/FreeRTOS/Source/CMSIS_RTOS_V2/cmsis_os2.c ****   }
 738              		.loc 1 303 10 view .LVU200
 739 0050 6FF00500 		mvn	r0, #5
 329:Middlewares/Third_Party/FreeRTOS/Source/CMSIS_RTOS_V2/cmsis_os2.c **** 
 740              		.loc 1 329 1 view .LVU201
 741 0054 08BD     		pop	{r3, pc}
 742              	.L97:
 743 0056 00BF     		.align	2
 744              	.L96:
 745 0058 00000000 		.word	.LANCHOR0
 746              		.cfi_endproc
 747              	.LFE114:
 749              		.section	.text.osKernelRestoreLock,"ax",%progbits
 750              		.align	1
 751              		.p2align 2,,3
 752              		.global	osKernelRestoreLock
 753              		.syntax unified
 754              		.thumb
ARM GAS  /tmp/ccQGQFth.s 			page 42


 755              		.thumb_func
 756              		.fpu fpv4-sp-d16
 758              	osKernelRestoreLock:
 759              	.LVL45:
 760              	.LFB115:
 331:Middlewares/Third_Party/FreeRTOS/Source/CMSIS_RTOS_V2/cmsis_os2.c **** 
 761              		.loc 1 331 44 is_stmt 1 view -0
 762              		.cfi_startproc
 763              		@ args = 0, pretend = 0, frame = 0
 764              		@ frame_needed = 0, uses_anonymous_args = 0
 333:Middlewares/Third_Party/FreeRTOS/Source/CMSIS_RTOS_V2/cmsis_os2.c ****     lock = (int32_t)osErrorISR;
 765              		.loc 1 333 3 view .LVU203
 766              	.LBB370:
 767              	.LBI370:
 272:Drivers/CMSIS/Include/cmsis_gcc.h **** {
 768              		.loc 2 272 31 view .LVU204
 769              	.LBB371:
 274:Drivers/CMSIS/Include/cmsis_gcc.h **** 
 770              		.loc 2 274 3 view .LVU205
 276:Drivers/CMSIS/Include/cmsis_gcc.h ****   return(result);
 771              		.loc 2 276 3 view .LVU206
 772              		.syntax unified
 773              	@ 276 "Drivers/CMSIS/Include/cmsis_gcc.h" 1
 774 0000 EFF30583 		MRS r3, ipsr
 775              	@ 0 "" 2
 776              	.LVL46:
 277:Drivers/CMSIS/Include/cmsis_gcc.h **** }
 777              		.loc 2 277 3 view .LVU207
 277:Drivers/CMSIS/Include/cmsis_gcc.h **** }
 778              		.loc 2 277 3 is_stmt 0 view .LVU208
 779              		.thumb
 780              		.syntax unified
 781              	.LBE371:
 782              	.LBE370:
 333:Middlewares/Third_Party/FreeRTOS/Source/CMSIS_RTOS_V2/cmsis_os2.c ****     lock = (int32_t)osErrorISR;
 783              		.loc 1 333 6 view .LVU209
 784 0004 6BBB     		cbnz	r3, .L117
 785              	.LBB372:
 786              	.LBI372:
 449:Drivers/CMSIS/Include/cmsis_gcc.h **** {
 787              		.loc 2 449 31 is_stmt 1 view .LVU210
 788              	.LBB373:
 451:Drivers/CMSIS/Include/cmsis_gcc.h **** 
 789              		.loc 2 451 3 view .LVU211
 453:Drivers/CMSIS/Include/cmsis_gcc.h ****   return(result);
 790              		.loc 2 453 3 view .LVU212
 791              	.LBE373:
 792              	.LBE372:
 331:Middlewares/Third_Party/FreeRTOS/Source/CMSIS_RTOS_V2/cmsis_os2.c **** 
 793              		.loc 1 331 44 is_stmt 0 view .LVU213
 794 0006 10B5     		push	{r4, lr}
 795              	.LCFI8:
 796              		.cfi_def_cfa_offset 8
 797              		.cfi_offset 4, -8
 798              		.cfi_offset 14, -4
 799 0008 0446     		mov	r4, r0
 800              	.LBB375:
ARM GAS  /tmp/ccQGQFth.s 			page 43


 801              	.LBB374:
 453:Drivers/CMSIS/Include/cmsis_gcc.h ****   return(result);
 802              		.loc 2 453 3 view .LVU214
 803              		.syntax unified
 804              	@ 453 "Drivers/CMSIS/Include/cmsis_gcc.h" 1
 805 000a EFF31083 		MRS r3, primask
 806              	@ 0 "" 2
 807              	.LVL47:
 454:Drivers/CMSIS/Include/cmsis_gcc.h **** }
 808              		.loc 2 454 3 is_stmt 1 view .LVU215
 454:Drivers/CMSIS/Include/cmsis_gcc.h **** }
 809              		.loc 2 454 3 is_stmt 0 view .LVU216
 810              		.thumb
 811              		.syntax unified
 812              	.LBE374:
 813              	.LBE375:
 333:Middlewares/Third_Party/FreeRTOS/Source/CMSIS_RTOS_V2/cmsis_os2.c ****     lock = (int32_t)osErrorISR;
 814              		.loc 1 333 7 view .LVU217
 815 000e ABB1     		cbz	r3, .L118
 816              	.L101:
 333:Middlewares/Third_Party/FreeRTOS/Source/CMSIS_RTOS_V2/cmsis_os2.c ****     lock = (int32_t)osErrorISR;
 817              		.loc 1 333 7 discriminator 4 view .LVU218
 818 0010 154B     		ldr	r3, .L122
 819 0012 1B68     		ldr	r3, [r3]
 820 0014 022B     		cmp	r3, #2
 821 0016 21D0     		beq	.L103
 822              	.L102:
 337:Middlewares/Third_Party/FreeRTOS/Source/CMSIS_RTOS_V2/cmsis_os2.c ****       case taskSCHEDULER_SUSPENDED:
 823              		.loc 1 337 5 is_stmt 1 view .LVU219
 337:Middlewares/Third_Party/FreeRTOS/Source/CMSIS_RTOS_V2/cmsis_os2.c ****       case taskSCHEDULER_SUSPENDED:
 824              		.loc 1 337 13 is_stmt 0 view .LVU220
 825 0018 FFF7FEFF 		bl	xTaskGetSchedulerState
 826              	.LVL48:
 337:Middlewares/Third_Party/FreeRTOS/Source/CMSIS_RTOS_V2/cmsis_os2.c ****       case taskSCHEDULER_SUSPENDED:
 827              		.loc 1 337 5 view .LVU221
 828 001c 30F00203 		bics	r3, r0, #2
 829 0020 02D0     		beq	.L119
 830              	.L106:
 345:Middlewares/Third_Party/FreeRTOS/Source/CMSIS_RTOS_V2/cmsis_os2.c ****           }
 831              		.loc 1 345 18 view .LVU222
 832 0022 4FF0FF30 		mov	r0, #-1
 365:Middlewares/Third_Party/FreeRTOS/Source/CMSIS_RTOS_V2/cmsis_os2.c **** 
 833              		.loc 1 365 1 view .LVU223
 834 0026 10BD     		pop	{r4, pc}
 835              	.LVL49:
 836              	.L119:
 340:Middlewares/Third_Party/FreeRTOS/Source/CMSIS_RTOS_V2/cmsis_os2.c ****           vTaskSuspendAll();
 837              		.loc 1 340 9 is_stmt 1 view .LVU224
 340:Middlewares/Third_Party/FreeRTOS/Source/CMSIS_RTOS_V2/cmsis_os2.c ****           vTaskSuspendAll();
 838              		.loc 1 340 12 is_stmt 0 view .LVU225
 839 0028 012C     		cmp	r4, #1
 840 002a 13D0     		beq	.L120
 344:Middlewares/Third_Party/FreeRTOS/Source/CMSIS_RTOS_V2/cmsis_os2.c ****             lock = (int32_t)osError;
 841              		.loc 1 344 11 is_stmt 1 view .LVU226
 344:Middlewares/Third_Party/FreeRTOS/Source/CMSIS_RTOS_V2/cmsis_os2.c ****             lock = (int32_t)osError;
 842              		.loc 1 344 14 is_stmt 0 view .LVU227
 843 002c 002C     		cmp	r4, #0
ARM GAS  /tmp/ccQGQFth.s 			page 44


 844 002e F8D1     		bne	.L106
 348:Middlewares/Third_Party/FreeRTOS/Source/CMSIS_RTOS_V2/cmsis_os2.c ****               if (xTaskGetSchedulerState() != taskSCHEDULER_RUNNING) {
 845              		.loc 1 348 13 is_stmt 1 view .LVU228
 348:Middlewares/Third_Party/FreeRTOS/Source/CMSIS_RTOS_V2/cmsis_os2.c ****               if (xTaskGetSchedulerState() != taskSCHEDULER_RUNNING) {
 846              		.loc 1 348 17 is_stmt 0 view .LVU229
 847 0030 FFF7FEFF 		bl	xTaskResumeAll
 848              	.LVL50:
 348:Middlewares/Third_Party/FreeRTOS/Source/CMSIS_RTOS_V2/cmsis_os2.c ****               if (xTaskGetSchedulerState() != taskSCHEDULER_RUNNING) {
 849              		.loc 1 348 16 view .LVU230
 850 0034 0128     		cmp	r0, #1
 851 0036 06D1     		bne	.L121
 852 0038 2046     		mov	r0, r4
 364:Middlewares/Third_Party/FreeRTOS/Source/CMSIS_RTOS_V2/cmsis_os2.c **** }
 853              		.loc 1 364 3 is_stmt 1 view .LVU231
 365:Middlewares/Third_Party/FreeRTOS/Source/CMSIS_RTOS_V2/cmsis_os2.c **** 
 854              		.loc 1 365 1 is_stmt 0 view .LVU232
 855 003a 10BD     		pop	{r4, pc}
 856              	.LVL51:
 857              	.L118:
 858              	.LBB376:
 859              	.LBI376:
 528:Drivers/CMSIS/Include/cmsis_gcc.h **** {
 860              		.loc 2 528 31 is_stmt 1 view .LVU233
 861              	.LBB377:
 530:Drivers/CMSIS/Include/cmsis_gcc.h **** 
 862              		.loc 2 530 3 view .LVU234
 532:Drivers/CMSIS/Include/cmsis_gcc.h ****   return(result);
 863              		.loc 2 532 3 view .LVU235
 864              		.syntax unified
 865              	@ 532 "Drivers/CMSIS/Include/cmsis_gcc.h" 1
 866 003c EFF31183 		MRS r3, basepri
 867              	@ 0 "" 2
 868              	.LVL52:
 869              		.loc 2 533 3 view .LVU236
 870              		.loc 2 533 3 is_stmt 0 view .LVU237
 871              		.thumb
 872              		.syntax unified
 873              	.LBE377:
 874              	.LBE376:
 333:Middlewares/Third_Party/FreeRTOS/Source/CMSIS_RTOS_V2/cmsis_os2.c ****     lock = (int32_t)osErrorISR;
 875              		.loc 1 333 7 view .LVU238
 876 0040 002B     		cmp	r3, #0
 877 0042 E9D0     		beq	.L102
 878 0044 E4E7     		b	.L101
 879              	.LVL53:
 880              	.L121:
 349:Middlewares/Third_Party/FreeRTOS/Source/CMSIS_RTOS_V2/cmsis_os2.c ****                 lock = (int32_t)osError;
 881              		.loc 1 349 15 is_stmt 1 view .LVU239
 349:Middlewares/Third_Party/FreeRTOS/Source/CMSIS_RTOS_V2/cmsis_os2.c ****                 lock = (int32_t)osError;
 882              		.loc 1 349 19 is_stmt 0 view .LVU240
 883 0046 FFF7FEFF 		bl	xTaskGetSchedulerState
 884              	.LVL54:
 349:Middlewares/Third_Party/FreeRTOS/Source/CMSIS_RTOS_V2/cmsis_os2.c ****                 lock = (int32_t)osError;
 885              		.loc 1 349 18 view .LVU241
 886 004a 0238     		subs	r0, r0, #2
 887 004c 18BF     		it	ne
 888 004e 4FF0FF30 		movne	r0, #-1
ARM GAS  /tmp/ccQGQFth.s 			page 45


 365:Middlewares/Third_Party/FreeRTOS/Source/CMSIS_RTOS_V2/cmsis_os2.c **** 
 889              		.loc 1 365 1 view .LVU242
 890 0052 10BD     		pop	{r4, pc}
 891              	.LVL55:
 892              	.L120:
 341:Middlewares/Third_Party/FreeRTOS/Source/CMSIS_RTOS_V2/cmsis_os2.c ****         }
 893              		.loc 1 341 11 is_stmt 1 view .LVU243
 894 0054 FFF7FEFF 		bl	vTaskSuspendAll
 895              	.LVL56:
 896 0058 2046     		mov	r0, r4
 365:Middlewares/Third_Party/FreeRTOS/Source/CMSIS_RTOS_V2/cmsis_os2.c **** 
 897              		.loc 1 365 1 is_stmt 0 view .LVU244
 898 005a 10BD     		pop	{r4, pc}
 899              	.LVL57:
 900              	.L103:
 334:Middlewares/Third_Party/FreeRTOS/Source/CMSIS_RTOS_V2/cmsis_os2.c ****   }
 901              		.loc 1 334 10 view .LVU245
 902 005c 6FF00500 		mvn	r0, #5
 903              	.LVL58:
 365:Middlewares/Third_Party/FreeRTOS/Source/CMSIS_RTOS_V2/cmsis_os2.c **** 
 904              		.loc 1 365 1 view .LVU246
 905 0060 10BD     		pop	{r4, pc}
 906              	.LVL59:
 907              	.L117:
 908              	.LCFI9:
 909              		.cfi_def_cfa_offset 0
 910              		.cfi_restore 4
 911              		.cfi_restore 14
 334:Middlewares/Third_Party/FreeRTOS/Source/CMSIS_RTOS_V2/cmsis_os2.c ****   }
 912              		.loc 1 334 10 view .LVU247
 913 0062 6FF00500 		mvn	r0, #5
 914              	.LVL60:
 365:Middlewares/Third_Party/FreeRTOS/Source/CMSIS_RTOS_V2/cmsis_os2.c **** 
 915              		.loc 1 365 1 view .LVU248
 916 0066 7047     		bx	lr
 917              	.L123:
 918              		.align	2
 919              	.L122:
 920 0068 00000000 		.word	.LANCHOR0
 921              		.cfi_endproc
 922              	.LFE115:
 924              		.section	.text.osKernelGetTickCount,"ax",%progbits
 925              		.align	1
 926              		.p2align 2,,3
 927              		.global	osKernelGetTickCount
 928              		.syntax unified
 929              		.thumb
 930              		.thumb_func
 931              		.fpu fpv4-sp-d16
 933              	osKernelGetTickCount:
 934              	.LFB116:
 367:Middlewares/Third_Party/FreeRTOS/Source/CMSIS_RTOS_V2/cmsis_os2.c ****   TickType_t ticks;
 935              		.loc 1 367 38 is_stmt 1 view -0
 936              		.cfi_startproc
 937              		@ args = 0, pretend = 0, frame = 0
 938              		@ frame_needed = 0, uses_anonymous_args = 0
 939              		@ link register save eliminated.
ARM GAS  /tmp/ccQGQFth.s 			page 46


 368:Middlewares/Third_Party/FreeRTOS/Source/CMSIS_RTOS_V2/cmsis_os2.c **** 
 940              		.loc 1 368 3 view .LVU250
 370:Middlewares/Third_Party/FreeRTOS/Source/CMSIS_RTOS_V2/cmsis_os2.c ****     ticks = xTaskGetTickCountFromISR();
 941              		.loc 1 370 3 view .LVU251
 942              	.LBB378:
 943              	.LBI378:
 272:Drivers/CMSIS/Include/cmsis_gcc.h **** {
 944              		.loc 2 272 31 view .LVU252
 945              	.LBB379:
 274:Drivers/CMSIS/Include/cmsis_gcc.h **** 
 946              		.loc 2 274 3 view .LVU253
 276:Drivers/CMSIS/Include/cmsis_gcc.h ****   return(result);
 947              		.loc 2 276 3 view .LVU254
 948              		.syntax unified
 949              	@ 276 "Drivers/CMSIS/Include/cmsis_gcc.h" 1
 950 0000 EFF30583 		MRS r3, ipsr
 951              	@ 0 "" 2
 952              	.LVL61:
 277:Drivers/CMSIS/Include/cmsis_gcc.h **** }
 953              		.loc 2 277 3 view .LVU255
 277:Drivers/CMSIS/Include/cmsis_gcc.h **** }
 954              		.loc 2 277 3 is_stmt 0 view .LVU256
 955              		.thumb
 956              		.syntax unified
 957              	.LBE379:
 958              	.LBE378:
 370:Middlewares/Third_Party/FreeRTOS/Source/CMSIS_RTOS_V2/cmsis_os2.c ****     ticks = xTaskGetTickCountFromISR();
 959              		.loc 1 370 6 view .LVU257
 960 0004 43B9     		cbnz	r3, .L128
 961              	.LBB380:
 962              	.LBI380:
 449:Drivers/CMSIS/Include/cmsis_gcc.h **** {
 963              		.loc 2 449 31 is_stmt 1 view .LVU258
 964              	.LBB381:
 451:Drivers/CMSIS/Include/cmsis_gcc.h **** 
 965              		.loc 2 451 3 view .LVU259
 453:Drivers/CMSIS/Include/cmsis_gcc.h ****   return(result);
 966              		.loc 2 453 3 view .LVU260
 967              		.syntax unified
 968              	@ 453 "Drivers/CMSIS/Include/cmsis_gcc.h" 1
 969 0006 EFF31083 		MRS r3, primask
 970              	@ 0 "" 2
 971              	.LVL62:
 454:Drivers/CMSIS/Include/cmsis_gcc.h **** }
 972              		.loc 2 454 3 view .LVU261
 454:Drivers/CMSIS/Include/cmsis_gcc.h **** }
 973              		.loc 2 454 3 is_stmt 0 view .LVU262
 974              		.thumb
 975              		.syntax unified
 976              	.LBE381:
 977              	.LBE380:
 370:Middlewares/Third_Party/FreeRTOS/Source/CMSIS_RTOS_V2/cmsis_os2.c ****     ticks = xTaskGetTickCountFromISR();
 978              		.loc 1 370 7 view .LVU263
 979 000a 3BB1     		cbz	r3, .L135
 370:Middlewares/Third_Party/FreeRTOS/Source/CMSIS_RTOS_V2/cmsis_os2.c ****     ticks = xTaskGetTickCountFromISR();
 980              		.loc 1 370 7 discriminator 4 view .LVU264
 981 000c 084B     		ldr	r3, .L136
ARM GAS  /tmp/ccQGQFth.s 			page 47


 982 000e 1B68     		ldr	r3, [r3]
 983 0010 022B     		cmp	r3, #2
 984 0012 01D0     		beq	.L128
 985              	.L127:
 373:Middlewares/Third_Party/FreeRTOS/Source/CMSIS_RTOS_V2/cmsis_os2.c ****   }
 986              		.loc 1 373 5 is_stmt 1 view .LVU265
 373:Middlewares/Third_Party/FreeRTOS/Source/CMSIS_RTOS_V2/cmsis_os2.c ****   }
 987              		.loc 1 373 13 is_stmt 0 view .LVU266
 988 0014 FFF7FEBF 		b	xTaskGetTickCount
 989              	.LVL63:
 990              	.L128:
 371:Middlewares/Third_Party/FreeRTOS/Source/CMSIS_RTOS_V2/cmsis_os2.c ****   } else {
 991              		.loc 1 371 5 is_stmt 1 view .LVU267
 371:Middlewares/Third_Party/FreeRTOS/Source/CMSIS_RTOS_V2/cmsis_os2.c ****   } else {
 992              		.loc 1 371 13 is_stmt 0 view .LVU268
 993 0018 FFF7FEBF 		b	xTaskGetTickCountFromISR
 994              	.LVL64:
 995              	.L135:
 996              	.LBB382:
 997              	.LBI382:
 528:Drivers/CMSIS/Include/cmsis_gcc.h **** {
 998              		.loc 2 528 31 is_stmt 1 view .LVU269
 999              	.LBB383:
 530:Drivers/CMSIS/Include/cmsis_gcc.h **** 
 1000              		.loc 2 530 3 view .LVU270
 532:Drivers/CMSIS/Include/cmsis_gcc.h ****   return(result);
 1001              		.loc 2 532 3 view .LVU271
 1002              		.syntax unified
 1003              	@ 532 "Drivers/CMSIS/Include/cmsis_gcc.h" 1
 1004 001c EFF31183 		MRS r3, basepri
 1005              	@ 0 "" 2
 1006              	.LVL65:
 1007              		.loc 2 533 3 view .LVU272
 1008              		.loc 2 533 3 is_stmt 0 view .LVU273
 1009              		.thumb
 1010              		.syntax unified
 1011              	.LBE383:
 1012              	.LBE382:
 370:Middlewares/Third_Party/FreeRTOS/Source/CMSIS_RTOS_V2/cmsis_os2.c ****     ticks = xTaskGetTickCountFromISR();
 1013              		.loc 1 370 7 view .LVU274
 1014 0020 002B     		cmp	r3, #0
 1015 0022 F7D0     		beq	.L127
 1016 0024 024B     		ldr	r3, .L136
 1017 0026 1B68     		ldr	r3, [r3]
 1018 0028 022B     		cmp	r3, #2
 1019 002a F3D1     		bne	.L127
 1020 002c F4E7     		b	.L128
 1021              	.L137:
 1022 002e 00BF     		.align	2
 1023              	.L136:
 1024 0030 00000000 		.word	.LANCHOR0
 1025              		.cfi_endproc
 1026              	.LFE116:
 1028              		.section	.text.osKernelGetTickFreq,"ax",%progbits
 1029              		.align	1
 1030              		.p2align 2,,3
 1031              		.global	osKernelGetTickFreq
ARM GAS  /tmp/ccQGQFth.s 			page 48


 1032              		.syntax unified
 1033              		.thumb
 1034              		.thumb_func
 1035              		.fpu fpv4-sp-d16
 1037              	osKernelGetTickFreq:
 1038              	.LFB117:
 379:Middlewares/Third_Party/FreeRTOS/Source/CMSIS_RTOS_V2/cmsis_os2.c ****   return (configTICK_RATE_HZ);
 1039              		.loc 1 379 37 is_stmt 1 view -0
 1040              		.cfi_startproc
 1041              		@ args = 0, pretend = 0, frame = 0
 1042              		@ frame_needed = 0, uses_anonymous_args = 0
 1043              		@ link register save eliminated.
 380:Middlewares/Third_Party/FreeRTOS/Source/CMSIS_RTOS_V2/cmsis_os2.c **** }
 1044              		.loc 1 380 3 view .LVU276
 381:Middlewares/Third_Party/FreeRTOS/Source/CMSIS_RTOS_V2/cmsis_os2.c **** 
 1045              		.loc 1 381 1 is_stmt 0 view .LVU277
 1046 0000 4FF47A70 		mov	r0, #1000
 1047 0004 7047     		bx	lr
 1048              		.cfi_endproc
 1049              	.LFE117:
 1051 0006 00BF     		.section	.text.osKernelGetSysTimerCount,"ax",%progbits
 1052              		.align	1
 1053              		.p2align 2,,3
 1054              		.global	osKernelGetSysTimerCount
 1055              		.syntax unified
 1056              		.thumb
 1057              		.thumb_func
 1058              		.fpu fpv4-sp-d16
 1060              	osKernelGetSysTimerCount:
 1061              	.LFB118:
 383:Middlewares/Third_Party/FreeRTOS/Source/CMSIS_RTOS_V2/cmsis_os2.c ****   uint32_t irqmask = IS_IRQ_MASKED();
 1062              		.loc 1 383 42 is_stmt 1 view -0
 1063              		.cfi_startproc
 1064              		@ args = 0, pretend = 0, frame = 0
 1065              		@ frame_needed = 0, uses_anonymous_args = 0
 384:Middlewares/Third_Party/FreeRTOS/Source/CMSIS_RTOS_V2/cmsis_os2.c ****   TickType_t ticks;
 1066              		.loc 1 384 3 view .LVU279
 1067              	.LBB384:
 1068              	.LBI384:
 449:Drivers/CMSIS/Include/cmsis_gcc.h **** {
 1069              		.loc 2 449 31 view .LVU280
 1070              	.LBB385:
 451:Drivers/CMSIS/Include/cmsis_gcc.h **** 
 1071              		.loc 2 451 3 view .LVU281
 453:Drivers/CMSIS/Include/cmsis_gcc.h ****   return(result);
 1072              		.loc 2 453 3 view .LVU282
 1073              	.LBE385:
 1074              	.LBE384:
 383:Middlewares/Third_Party/FreeRTOS/Source/CMSIS_RTOS_V2/cmsis_os2.c ****   uint32_t irqmask = IS_IRQ_MASKED();
 1075              		.loc 1 383 42 is_stmt 0 view .LVU283
 1076 0000 08B5     		push	{r3, lr}
 1077              	.LCFI10:
 1078              		.cfi_def_cfa_offset 8
 1079              		.cfi_offset 3, -8
 1080              		.cfi_offset 14, -4
 1081              	.LBB387:
 1082              	.LBB386:
ARM GAS  /tmp/ccQGQFth.s 			page 49


 453:Drivers/CMSIS/Include/cmsis_gcc.h ****   return(result);
 1083              		.loc 2 453 3 view .LVU284
 1084              		.syntax unified
 1085              	@ 453 "Drivers/CMSIS/Include/cmsis_gcc.h" 1
 1086 0002 EFF31083 		MRS r3, primask
 1087              	@ 0 "" 2
 1088              	.LVL66:
 454:Drivers/CMSIS/Include/cmsis_gcc.h **** }
 1089              		.loc 2 454 3 is_stmt 1 view .LVU285
 454:Drivers/CMSIS/Include/cmsis_gcc.h **** }
 1090              		.loc 2 454 3 is_stmt 0 view .LVU286
 1091              		.thumb
 1092              		.syntax unified
 1093              	.LBE386:
 1094              	.LBE387:
 384:Middlewares/Third_Party/FreeRTOS/Source/CMSIS_RTOS_V2/cmsis_os2.c ****   TickType_t ticks;
 1095              		.loc 1 384 22 view .LVU287
 1096 0006 13B9     		cbnz	r3, .L140
 1097              	.LBB388:
 1098              	.LBI388:
 528:Drivers/CMSIS/Include/cmsis_gcc.h **** {
 1099              		.loc 2 528 31 is_stmt 1 view .LVU288
 1100              	.LBB389:
 530:Drivers/CMSIS/Include/cmsis_gcc.h **** 
 1101              		.loc 2 530 3 view .LVU289
 532:Drivers/CMSIS/Include/cmsis_gcc.h ****   return(result);
 1102              		.loc 2 532 3 view .LVU290
 1103              		.syntax unified
 1104              	@ 532 "Drivers/CMSIS/Include/cmsis_gcc.h" 1
 1105 0008 EFF31183 		MRS r3, basepri
 1106              	@ 0 "" 2
 1107              	.LVL67:
 1108              		.loc 2 533 3 view .LVU291
 1109              		.loc 2 533 3 is_stmt 0 view .LVU292
 1110              		.thumb
 1111              		.syntax unified
 1112              	.LBE389:
 1113              	.LBE388:
 384:Middlewares/Third_Party/FreeRTOS/Source/CMSIS_RTOS_V2/cmsis_os2.c ****   TickType_t ticks;
 1114              		.loc 1 384 22 view .LVU293
 1115 000c 5BB1     		cbz	r3, .L141
 1116              	.L140:
 1117              	.LVL68:
 385:Middlewares/Third_Party/FreeRTOS/Source/CMSIS_RTOS_V2/cmsis_os2.c ****   uint32_t val;
 1118              		.loc 1 385 3 is_stmt 1 view .LVU294
 386:Middlewares/Third_Party/FreeRTOS/Source/CMSIS_RTOS_V2/cmsis_os2.c **** 
 1119              		.loc 1 386 3 view .LVU295
 388:Middlewares/Third_Party/FreeRTOS/Source/CMSIS_RTOS_V2/cmsis_os2.c **** 
 1120              		.loc 1 388 3 view .LVU296
 1121              	.LBB390:
 1122              	.LBI390:
 207:Drivers/CMSIS/Include/cmsis_gcc.h **** {
 1123              		.loc 2 207 27 view .LVU297
 1124              	.LBB391:
 209:Drivers/CMSIS/Include/cmsis_gcc.h **** }
 1125              		.loc 2 209 3 view .LVU298
 1126              		.syntax unified
ARM GAS  /tmp/ccQGQFth.s 			page 50


 1127              	@ 209 "Drivers/CMSIS/Include/cmsis_gcc.h" 1
 1128 000e 72B6     		cpsid i
 1129              	@ 0 "" 2
 1130              		.thumb
 1131              		.syntax unified
 1132              	.LBE391:
 1133              	.LBE390:
 390:Middlewares/Third_Party/FreeRTOS/Source/CMSIS_RTOS_V2/cmsis_os2.c **** 
 1134              		.loc 1 390 3 view .LVU299
 390:Middlewares/Third_Party/FreeRTOS/Source/CMSIS_RTOS_V2/cmsis_os2.c **** 
 1135              		.loc 1 390 11 is_stmt 0 view .LVU300
 1136 0010 FFF7FEFF 		bl	xTaskGetTickCount
 1137              	.LVL69:
 392:Middlewares/Third_Party/FreeRTOS/Source/CMSIS_RTOS_V2/cmsis_os2.c ****   if (irqmask == 0U) {
 1138              		.loc 1 392 3 is_stmt 1 view .LVU301
 392:Middlewares/Third_Party/FreeRTOS/Source/CMSIS_RTOS_V2/cmsis_os2.c ****   if (irqmask == 0U) {
 1139              		.loc 1 392 38 is_stmt 0 view .LVU302
 1140 0014 0A4B     		ldr	r3, .L144
 1141 0016 0B4A     		ldr	r2, .L144+4
 1142 0018 1B68     		ldr	r3, [r3]
 1143 001a A2FB0323 		umull	r2, r3, r2, r3
 1144 001e 9B09     		lsrs	r3, r3, #6
 392:Middlewares/Third_Party/FreeRTOS/Source/CMSIS_RTOS_V2/cmsis_os2.c ****   if (irqmask == 0U) {
 1145              		.loc 1 392 7 view .LVU303
 1146 0020 00FB03F0 		mul	r0, r0, r3
 1147              	.LVL70:
 393:Middlewares/Third_Party/FreeRTOS/Source/CMSIS_RTOS_V2/cmsis_os2.c ****     __enable_irq();
 1148              		.loc 1 393 3 is_stmt 1 view .LVU304
 398:Middlewares/Third_Party/FreeRTOS/Source/CMSIS_RTOS_V2/cmsis_os2.c **** 
 1149              		.loc 1 398 1 is_stmt 0 view .LVU305
 1150 0024 08BD     		pop	{r3, pc}
 1151              	.LVL71:
 1152              	.L141:
 385:Middlewares/Third_Party/FreeRTOS/Source/CMSIS_RTOS_V2/cmsis_os2.c ****   uint32_t val;
 1153              		.loc 1 385 3 is_stmt 1 view .LVU306
 386:Middlewares/Third_Party/FreeRTOS/Source/CMSIS_RTOS_V2/cmsis_os2.c **** 
 1154              		.loc 1 386 3 view .LVU307
 388:Middlewares/Third_Party/FreeRTOS/Source/CMSIS_RTOS_V2/cmsis_os2.c **** 
 1155              		.loc 1 388 3 view .LVU308
 1156              	.LBB393:
 207:Drivers/CMSIS/Include/cmsis_gcc.h **** {
 1157              		.loc 2 207 27 view .LVU309
 1158              	.LBB392:
 209:Drivers/CMSIS/Include/cmsis_gcc.h **** }
 1159              		.loc 2 209 3 view .LVU310
 1160              		.syntax unified
 1161              	@ 209 "Drivers/CMSIS/Include/cmsis_gcc.h" 1
 1162 0026 72B6     		cpsid i
 1163              	@ 0 "" 2
 1164              		.thumb
 1165              		.syntax unified
 1166              	.LBE392:
 1167              	.LBE393:
 390:Middlewares/Third_Party/FreeRTOS/Source/CMSIS_RTOS_V2/cmsis_os2.c **** 
 1168              		.loc 1 390 3 view .LVU311
 390:Middlewares/Third_Party/FreeRTOS/Source/CMSIS_RTOS_V2/cmsis_os2.c **** 
 1169              		.loc 1 390 11 is_stmt 0 view .LVU312
ARM GAS  /tmp/ccQGQFth.s 			page 51


 1170 0028 FFF7FEFF 		bl	xTaskGetTickCount
 1171              	.LVL72:
 392:Middlewares/Third_Party/FreeRTOS/Source/CMSIS_RTOS_V2/cmsis_os2.c ****   if (irqmask == 0U) {
 1172              		.loc 1 392 3 is_stmt 1 view .LVU313
 392:Middlewares/Third_Party/FreeRTOS/Source/CMSIS_RTOS_V2/cmsis_os2.c ****   if (irqmask == 0U) {
 1173              		.loc 1 392 38 is_stmt 0 view .LVU314
 1174 002c 044B     		ldr	r3, .L144
 1175 002e 054A     		ldr	r2, .L144+4
 1176 0030 1B68     		ldr	r3, [r3]
 1177 0032 A2FB0323 		umull	r2, r3, r2, r3
 1178 0036 9B09     		lsrs	r3, r3, #6
 392:Middlewares/Third_Party/FreeRTOS/Source/CMSIS_RTOS_V2/cmsis_os2.c ****   if (irqmask == 0U) {
 1179              		.loc 1 392 7 view .LVU315
 1180 0038 00FB03F0 		mul	r0, r0, r3
 1181              	.LVL73:
 393:Middlewares/Third_Party/FreeRTOS/Source/CMSIS_RTOS_V2/cmsis_os2.c ****     __enable_irq();
 1182              		.loc 1 393 3 is_stmt 1 view .LVU316
 394:Middlewares/Third_Party/FreeRTOS/Source/CMSIS_RTOS_V2/cmsis_os2.c ****   }
 1183              		.loc 1 394 5 view .LVU317
 1184              	.LBB394:
 1185              	.LBI394:
 196:Drivers/CMSIS/Include/cmsis_gcc.h **** {
 1186              		.loc 2 196 27 view .LVU318
 1187              	.LBB395:
 198:Drivers/CMSIS/Include/cmsis_gcc.h **** }
 1188              		.loc 2 198 3 view .LVU319
 1189              		.syntax unified
 1190              	@ 198 "Drivers/CMSIS/Include/cmsis_gcc.h" 1
 1191 003c 62B6     		cpsie i
 1192              	@ 0 "" 2
 1193              		.thumb
 1194              		.syntax unified
 1195              	.LBE395:
 1196              	.LBE394:
 397:Middlewares/Third_Party/FreeRTOS/Source/CMSIS_RTOS_V2/cmsis_os2.c **** }
 1197              		.loc 1 397 3 view .LVU320
 398:Middlewares/Third_Party/FreeRTOS/Source/CMSIS_RTOS_V2/cmsis_os2.c **** 
 1198              		.loc 1 398 1 is_stmt 0 view .LVU321
 1199 003e 08BD     		pop	{r3, pc}
 1200              	.L145:
 1201              		.align	2
 1202              	.L144:
 1203 0040 00000000 		.word	SystemCoreClock
 1204 0044 D34D6210 		.word	274877907
 1205              		.cfi_endproc
 1206              	.LFE118:
 1208              		.section	.text.osKernelGetSysTimerFreq,"ax",%progbits
 1209              		.align	1
 1210              		.p2align 2,,3
 1211              		.global	osKernelGetSysTimerFreq
 1212              		.syntax unified
 1213              		.thumb
 1214              		.thumb_func
 1215              		.fpu fpv4-sp-d16
 1217              	osKernelGetSysTimerFreq:
 1218              	.LFB119:
 400:Middlewares/Third_Party/FreeRTOS/Source/CMSIS_RTOS_V2/cmsis_os2.c ****   return (configCPU_CLOCK_HZ);
ARM GAS  /tmp/ccQGQFth.s 			page 52


 1219              		.loc 1 400 41 is_stmt 1 view -0
 1220              		.cfi_startproc
 1221              		@ args = 0, pretend = 0, frame = 0
 1222              		@ frame_needed = 0, uses_anonymous_args = 0
 1223              		@ link register save eliminated.
 401:Middlewares/Third_Party/FreeRTOS/Source/CMSIS_RTOS_V2/cmsis_os2.c **** }
 1224              		.loc 1 401 3 view .LVU323
 401:Middlewares/Third_Party/FreeRTOS/Source/CMSIS_RTOS_V2/cmsis_os2.c **** }
 1225              		.loc 1 401 10 is_stmt 0 view .LVU324
 1226 0000 014B     		ldr	r3, .L147
 402:Middlewares/Third_Party/FreeRTOS/Source/CMSIS_RTOS_V2/cmsis_os2.c **** 
 1227              		.loc 1 402 1 view .LVU325
 1228 0002 1868     		ldr	r0, [r3]
 1229 0004 7047     		bx	lr
 1230              	.L148:
 1231 0006 00BF     		.align	2
 1232              	.L147:
 1233 0008 00000000 		.word	SystemCoreClock
 1234              		.cfi_endproc
 1235              	.LFE119:
 1237              		.section	.text.osThreadNew,"ax",%progbits
 1238              		.align	1
 1239              		.p2align 2,,3
 1240              		.global	osThreadNew
 1241              		.syntax unified
 1242              		.thumb
 1243              		.thumb_func
 1244              		.fpu fpv4-sp-d16
 1246              	osThreadNew:
 1247              	.LVL74:
 1248              	.LFB120:
 406:Middlewares/Third_Party/FreeRTOS/Source/CMSIS_RTOS_V2/cmsis_os2.c ****   const char *name;
 1249              		.loc 1 406 92 is_stmt 1 view -0
 1250              		.cfi_startproc
 1251              		@ args = 0, pretend = 0, frame = 8
 1252              		@ frame_needed = 0, uses_anonymous_args = 0
 407:Middlewares/Third_Party/FreeRTOS/Source/CMSIS_RTOS_V2/cmsis_os2.c ****   uint32_t stack;
 1253              		.loc 1 407 3 view .LVU327
 408:Middlewares/Third_Party/FreeRTOS/Source/CMSIS_RTOS_V2/cmsis_os2.c ****   TaskHandle_t hTask;
 1254              		.loc 1 408 3 view .LVU328
 409:Middlewares/Third_Party/FreeRTOS/Source/CMSIS_RTOS_V2/cmsis_os2.c ****   UBaseType_t prio;
 1255              		.loc 1 409 3 view .LVU329
 410:Middlewares/Third_Party/FreeRTOS/Source/CMSIS_RTOS_V2/cmsis_os2.c ****   int32_t mem;
 1256              		.loc 1 410 3 view .LVU330
 411:Middlewares/Third_Party/FreeRTOS/Source/CMSIS_RTOS_V2/cmsis_os2.c **** 
 1257              		.loc 1 411 3 view .LVU331
 413:Middlewares/Third_Party/FreeRTOS/Source/CMSIS_RTOS_V2/cmsis_os2.c **** 
 1258              		.loc 1 413 3 view .LVU332
 406:Middlewares/Third_Party/FreeRTOS/Source/CMSIS_RTOS_V2/cmsis_os2.c ****   const char *name;
 1259              		.loc 1 406 92 is_stmt 0 view .LVU333
 1260 0000 F0B5     		push	{r4, r5, r6, r7, lr}
 1261              	.LCFI11:
 1262              		.cfi_def_cfa_offset 20
 1263              		.cfi_offset 4, -20
 1264              		.cfi_offset 5, -16
 1265              		.cfi_offset 6, -12
 1266              		.cfi_offset 7, -8
ARM GAS  /tmp/ccQGQFth.s 			page 53


 1267              		.cfi_offset 14, -4
 1268 0002 87B0     		sub	sp, sp, #28
 1269              	.LCFI12:
 1270              		.cfi_def_cfa_offset 48
 413:Middlewares/Third_Party/FreeRTOS/Source/CMSIS_RTOS_V2/cmsis_os2.c **** 
 1271              		.loc 1 413 9 view .LVU334
 1272 0004 0024     		movs	r4, #0
 406:Middlewares/Third_Party/FreeRTOS/Source/CMSIS_RTOS_V2/cmsis_os2.c ****   const char *name;
 1273              		.loc 1 406 92 view .LVU335
 1274 0006 1546     		mov	r5, r2
 413:Middlewares/Third_Party/FreeRTOS/Source/CMSIS_RTOS_V2/cmsis_os2.c **** 
 1275              		.loc 1 413 9 view .LVU336
 1276 0008 0594     		str	r4, [sp, #20]
 415:Middlewares/Third_Party/FreeRTOS/Source/CMSIS_RTOS_V2/cmsis_os2.c ****     stack = configMINIMAL_STACK_SIZE;
 1277              		.loc 1 415 3 is_stmt 1 view .LVU337
 1278              	.LBB396:
 1279              	.LBI396:
 272:Drivers/CMSIS/Include/cmsis_gcc.h **** {
 1280              		.loc 2 272 31 view .LVU338
 1281              	.LBB397:
 274:Drivers/CMSIS/Include/cmsis_gcc.h **** 
 1282              		.loc 2 274 3 view .LVU339
 276:Drivers/CMSIS/Include/cmsis_gcc.h ****   return(result);
 1283              		.loc 2 276 3 view .LVU340
 1284              		.syntax unified
 1285              	@ 276 "Drivers/CMSIS/Include/cmsis_gcc.h" 1
 1286 000a EFF30582 		MRS r2, ipsr
 1287              	@ 0 "" 2
 1288              	.LVL75:
 277:Drivers/CMSIS/Include/cmsis_gcc.h **** }
 1289              		.loc 2 277 3 view .LVU341
 277:Drivers/CMSIS/Include/cmsis_gcc.h **** }
 1290              		.loc 2 277 3 is_stmt 0 view .LVU342
 1291              		.thumb
 1292              		.syntax unified
 1293              	.LBE397:
 1294              	.LBE396:
 415:Middlewares/Third_Party/FreeRTOS/Source/CMSIS_RTOS_V2/cmsis_os2.c ****     stack = configMINIMAL_STACK_SIZE;
 1295              		.loc 1 415 6 view .LVU343
 1296 000e 002A     		cmp	r2, #0
 1297 0010 37D1     		bne	.L163
 1298              	.LBB398:
 1299              	.LBI398:
 449:Drivers/CMSIS/Include/cmsis_gcc.h **** {
 1300              		.loc 2 449 31 is_stmt 1 view .LVU344
 1301              	.LBB399:
 451:Drivers/CMSIS/Include/cmsis_gcc.h **** 
 1302              		.loc 2 451 3 view .LVU345
 453:Drivers/CMSIS/Include/cmsis_gcc.h ****   return(result);
 1303              		.loc 2 453 3 view .LVU346
 1304              		.syntax unified
 1305              	@ 453 "Drivers/CMSIS/Include/cmsis_gcc.h" 1
 1306 0012 EFF31083 		MRS r3, primask
 1307              	@ 0 "" 2
 1308              	.LVL76:
 454:Drivers/CMSIS/Include/cmsis_gcc.h **** }
 1309              		.loc 2 454 3 view .LVU347
ARM GAS  /tmp/ccQGQFth.s 			page 54


 454:Drivers/CMSIS/Include/cmsis_gcc.h **** }
 1310              		.loc 2 454 3 is_stmt 0 view .LVU348
 1311              		.thumb
 1312              		.syntax unified
 1313              	.LBE399:
 1314              	.LBE398:
 415:Middlewares/Third_Party/FreeRTOS/Source/CMSIS_RTOS_V2/cmsis_os2.c ****     stack = configMINIMAL_STACK_SIZE;
 1315              		.loc 1 415 7 view .LVU349
 1316 0016 002B     		cmp	r3, #0
 1317 0018 36D1     		bne	.L151
 1318              	.LBB400:
 1319              	.LBI400:
 528:Drivers/CMSIS/Include/cmsis_gcc.h **** {
 1320              		.loc 2 528 31 is_stmt 1 view .LVU350
 1321              	.LBB401:
 530:Drivers/CMSIS/Include/cmsis_gcc.h **** 
 1322              		.loc 2 530 3 view .LVU351
 532:Drivers/CMSIS/Include/cmsis_gcc.h ****   return(result);
 1323              		.loc 2 532 3 view .LVU352
 1324              		.syntax unified
 1325              	@ 532 "Drivers/CMSIS/Include/cmsis_gcc.h" 1
 1326 001a EFF31183 		MRS r3, basepri
 1327              	@ 0 "" 2
 1328              	.LVL77:
 1329              		.loc 2 533 3 view .LVU353
 1330              		.loc 2 533 3 is_stmt 0 view .LVU354
 1331              		.thumb
 1332              		.syntax unified
 1333              	.LBE401:
 1334              	.LBE400:
 415:Middlewares/Third_Party/FreeRTOS/Source/CMSIS_RTOS_V2/cmsis_os2.c ****     stack = configMINIMAL_STACK_SIZE;
 1335              		.loc 1 415 8 view .LVU355
 1336 001e 002B     		cmp	r3, #0
 1337 0020 32D1     		bne	.L151
 1338              	.L152:
 415:Middlewares/Third_Party/FreeRTOS/Source/CMSIS_RTOS_V2/cmsis_os2.c ****     stack = configMINIMAL_STACK_SIZE;
 1339              		.loc 1 415 17 discriminator 6 view .LVU356
 1340 0022 0028     		cmp	r0, #0
 1341 0024 34D0     		beq	.L179
 416:Middlewares/Third_Party/FreeRTOS/Source/CMSIS_RTOS_V2/cmsis_os2.c ****     prio  = (UBaseType_t)osPriorityNormal;
 1342              		.loc 1 416 5 is_stmt 1 view .LVU357
 1343              	.LVL78:
 417:Middlewares/Third_Party/FreeRTOS/Source/CMSIS_RTOS_V2/cmsis_os2.c **** 
 1344              		.loc 1 417 5 view .LVU358
 419:Middlewares/Third_Party/FreeRTOS/Source/CMSIS_RTOS_V2/cmsis_os2.c ****     mem  = -1;
 1345              		.loc 1 419 5 view .LVU359
 420:Middlewares/Third_Party/FreeRTOS/Source/CMSIS_RTOS_V2/cmsis_os2.c **** 
 1346              		.loc 1 420 5 view .LVU360
 422:Middlewares/Third_Party/FreeRTOS/Source/CMSIS_RTOS_V2/cmsis_os2.c ****       if (attr->name != NULL) {
 1347              		.loc 1 422 5 view .LVU361
 422:Middlewares/Third_Party/FreeRTOS/Source/CMSIS_RTOS_V2/cmsis_os2.c ****       if (attr->name != NULL) {
 1348              		.loc 1 422 8 is_stmt 0 view .LVU362
 1349 0026 0DB3     		cbz	r5, .L160
 423:Middlewares/Third_Party/FreeRTOS/Source/CMSIS_RTOS_V2/cmsis_os2.c ****         name = attr->name;
 1350              		.loc 1 423 7 is_stmt 1 view .LVU363
 1351              	.LVL79:
 426:Middlewares/Third_Party/FreeRTOS/Source/CMSIS_RTOS_V2/cmsis_os2.c ****         prio = (UBaseType_t)attr->priority;
ARM GAS  /tmp/ccQGQFth.s 			page 55


 1352              		.loc 1 426 7 view .LVU364
 426:Middlewares/Third_Party/FreeRTOS/Source/CMSIS_RTOS_V2/cmsis_os2.c ****         prio = (UBaseType_t)attr->priority;
 1353              		.loc 1 426 15 is_stmt 0 view .LVU365
 1354 0028 AB69     		ldr	r3, [r5, #24]
 426:Middlewares/Third_Party/FreeRTOS/Source/CMSIS_RTOS_V2/cmsis_os2.c ****         prio = (UBaseType_t)attr->priority;
 1355              		.loc 1 426 10 view .LVU366
 1356 002a 002B     		cmp	r3, #0
 1357 002c 33D0     		beq	.L161
 427:Middlewares/Third_Party/FreeRTOS/Source/CMSIS_RTOS_V2/cmsis_os2.c ****       }
 1358              		.loc 1 427 9 is_stmt 1 view .LVU367
 1359              	.LVL80:
 430:Middlewares/Third_Party/FreeRTOS/Source/CMSIS_RTOS_V2/cmsis_os2.c ****         return (NULL);
 1360              		.loc 1 430 35 is_stmt 0 view .LVU368
 1361 002e 5A1E     		subs	r2, r3, #1
 430:Middlewares/Third_Party/FreeRTOS/Source/CMSIS_RTOS_V2/cmsis_os2.c ****         return (NULL);
 1362              		.loc 1 430 7 is_stmt 1 view .LVU369
 430:Middlewares/Third_Party/FreeRTOS/Source/CMSIS_RTOS_V2/cmsis_os2.c ****         return (NULL);
 1363              		.loc 1 430 10 is_stmt 0 view .LVU370
 1364 0030 372A     		cmp	r2, #55
 1365 0032 26D8     		bhi	.L163
 1366              	.LVL81:
 1367              	.L155:
 430:Middlewares/Third_Party/FreeRTOS/Source/CMSIS_RTOS_V2/cmsis_os2.c ****         return (NULL);
 1368              		.loc 1 430 82 discriminator 1 view .LVU371
 1369 0034 6A68     		ldr	r2, [r5, #4]
 430:Middlewares/Third_Party/FreeRTOS/Source/CMSIS_RTOS_V2/cmsis_os2.c ****         return (NULL);
 1370              		.loc 1 430 61 discriminator 1 view .LVU372
 1371 0036 D207     		lsls	r2, r2, #31
 1372 0038 23D4     		bmi	.L163
 434:Middlewares/Third_Party/FreeRTOS/Source/CMSIS_RTOS_V2/cmsis_os2.c ****         /* In FreeRTOS stack is not in bytes, but in sizeof(StackType_t) which is 4 on ARM ports.  
 1373              		.loc 1 434 7 is_stmt 1 view .LVU373
 434:Middlewares/Third_Party/FreeRTOS/Source/CMSIS_RTOS_V2/cmsis_os2.c ****         /* In FreeRTOS stack is not in bytes, but in sizeof(StackType_t) which is 4 on ARM ports.  
 1374              		.loc 1 434 15 is_stmt 0 view .LVU374
 1375 003a 6C69     		ldr	r4, [r5, #20]
 434:Middlewares/Third_Party/FreeRTOS/Source/CMSIS_RTOS_V2/cmsis_os2.c ****         /* In FreeRTOS stack is not in bytes, but in sizeof(StackType_t) which is 4 on ARM ports.  
 1376              		.loc 1 434 10 view .LVU375
 1377 003c 6CB3     		cbz	r4, .L164
 437:Middlewares/Third_Party/FreeRTOS/Source/CMSIS_RTOS_V2/cmsis_os2.c ****       }
 1378              		.loc 1 437 9 is_stmt 1 view .LVU376
 437:Middlewares/Third_Party/FreeRTOS/Source/CMSIS_RTOS_V2/cmsis_os2.c ****       }
 1379              		.loc 1 437 15 is_stmt 0 view .LVU377
 1380 003e 4FEA940C 		lsr	ip, r4, #2
 1381              	.LVL82:
 1382              	.L157:
 437:Middlewares/Third_Party/FreeRTOS/Source/CMSIS_RTOS_V2/cmsis_os2.c ****       }
 1383              		.loc 1 437 15 view .LVU378
 1384 0042 2F68     		ldr	r7, [r5]
 440:Middlewares/Third_Party/FreeRTOS/Source/CMSIS_RTOS_V2/cmsis_os2.c ****           (attr->stack_mem != NULL) && (attr->stack_size >  0U)) {
 1385              		.loc 1 440 16 view .LVU379
 1386 0044 AE68     		ldr	r6, [r5, #8]
 1387 0046 002F     		cmp	r7, #0
 1388 0048 38BF     		it	cc
 1389 004a 0027     		movcc	r7, #0
 1390              	.LVL83:
 440:Middlewares/Third_Party/FreeRTOS/Source/CMSIS_RTOS_V2/cmsis_os2.c ****           (attr->stack_mem != NULL) && (attr->stack_size >  0U)) {
 1391              		.loc 1 440 7 is_stmt 1 view .LVU380
 440:Middlewares/Third_Party/FreeRTOS/Source/CMSIS_RTOS_V2/cmsis_os2.c ****           (attr->stack_mem != NULL) && (attr->stack_size >  0U)) {
ARM GAS  /tmp/ccQGQFth.s 			page 56


 1392              		.loc 1 440 10 is_stmt 0 view .LVU381
 1393 004c 46B3     		cbz	r6, .L158
 440:Middlewares/Third_Party/FreeRTOS/Source/CMSIS_RTOS_V2/cmsis_os2.c ****           (attr->stack_mem != NULL) && (attr->stack_size >  0U)) {
 1394              		.loc 1 440 37 discriminator 1 view .LVU382
 1395 004e EA68     		ldr	r2, [r5, #12]
 1396 0050 5B2A     		cmp	r2, #91
 1397 0052 1DD9     		bls	.L179
 441:Middlewares/Third_Party/FreeRTOS/Source/CMSIS_RTOS_V2/cmsis_os2.c ****         mem = 1;
 1398              		.loc 1 441 16 discriminator 2 view .LVU383
 1399 0054 2D69     		ldr	r5, [r5, #16]
 1400              	.LVL84:
 440:Middlewares/Third_Party/FreeRTOS/Source/CMSIS_RTOS_V2/cmsis_os2.c ****           (attr->stack_mem != NULL) && (attr->stack_size >  0U)) {
 1401              		.loc 1 440 83 discriminator 2 view .LVU384
 1402 0056 DDB1     		cbz	r5, .L179
 441:Middlewares/Third_Party/FreeRTOS/Source/CMSIS_RTOS_V2/cmsis_os2.c ****         mem = 1;
 1403              		.loc 1 441 37 view .LVU385
 1404 0058 D4B1     		cbz	r4, .L179
 1405              	.LVL85:
 454:Middlewares/Third_Party/FreeRTOS/Source/CMSIS_RTOS_V2/cmsis_os2.c ****       hTask = xTaskCreateStatic ((TaskFunction_t)func, name, stack, argument, prio, (StackType_t  *
 1406              		.loc 1 454 5 is_stmt 1 view .LVU386
 455:Middlewares/Third_Party/FreeRTOS/Source/CMSIS_RTOS_V2/cmsis_os2.c ****                                                                                     (StaticTask_t *
 1407              		.loc 1 455 7 view .LVU387
 455:Middlewares/Third_Party/FreeRTOS/Source/CMSIS_RTOS_V2/cmsis_os2.c ****                                                                                     (StaticTask_t *
 1408              		.loc 1 455 15 is_stmt 0 view .LVU388
 1409 005a 0093     		str	r3, [sp]
 1410              	.LVL86:
 455:Middlewares/Third_Party/FreeRTOS/Source/CMSIS_RTOS_V2/cmsis_os2.c ****                                                                                     (StaticTask_t *
 1411              		.loc 1 455 15 view .LVU389
 1412 005c CDE90156 		strd	r5, r6, [sp, #4]
 1413 0060 0B46     		mov	r3, r1
 1414              	.LVL87:
 455:Middlewares/Third_Party/FreeRTOS/Source/CMSIS_RTOS_V2/cmsis_os2.c ****                                                                                     (StaticTask_t *
 1415              		.loc 1 455 15 view .LVU390
 1416 0062 6246     		mov	r2, ip
 1417 0064 3946     		mov	r1, r7
 1418              	.LVL88:
 455:Middlewares/Third_Party/FreeRTOS/Source/CMSIS_RTOS_V2/cmsis_os2.c ****                                                                                     (StaticTask_t *
 1419              		.loc 1 455 15 view .LVU391
 1420 0066 FFF7FEFF 		bl	xTaskCreateStatic
 1421              	.LVL89:
 455:Middlewares/Third_Party/FreeRTOS/Source/CMSIS_RTOS_V2/cmsis_os2.c ****                                                                                     (StaticTask_t *
 1422              		.loc 1 455 15 view .LVU392
 1423 006a 0BE0     		b	.L149
 1424              	.LVL90:
 1425              	.L160:
 455:Middlewares/Third_Party/FreeRTOS/Source/CMSIS_RTOS_V2/cmsis_os2.c ****                                                                                     (StaticTask_t *
 1426              		.loc 1 455 15 view .LVU393
 1427 006c 8022     		movs	r2, #128
 417:Middlewares/Third_Party/FreeRTOS/Source/CMSIS_RTOS_V2/cmsis_os2.c **** 
 1428              		.loc 1 417 11 view .LVU394
 1429 006e 1823     		movs	r3, #24
 1430              	.LVL91:
 1431              	.L154:
 460:Middlewares/Third_Party/FreeRTOS/Source/CMSIS_RTOS_V2/cmsis_os2.c ****           hTask = NULL;
 1432              		.loc 1 460 9 is_stmt 1 view .LVU395
 460:Middlewares/Third_Party/FreeRTOS/Source/CMSIS_RTOS_V2/cmsis_os2.c ****           hTask = NULL;
 1433              		.loc 1 460 13 is_stmt 0 view .LVU396
ARM GAS  /tmp/ccQGQFth.s 			page 57


 1434 0070 05AC     		add	r4, sp, #20
 1435 0072 0093     		str	r3, [sp]
 1436 0074 0194     		str	r4, [sp, #4]
 1437 0076 0B46     		mov	r3, r1
 1438 0078 2946     		mov	r1, r5
 1439              	.LVL92:
 460:Middlewares/Third_Party/FreeRTOS/Source/CMSIS_RTOS_V2/cmsis_os2.c ****           hTask = NULL;
 1440              		.loc 1 460 13 view .LVU397
 1441 007a FFF7FEFF 		bl	xTaskCreate
 1442              	.LVL93:
 460:Middlewares/Third_Party/FreeRTOS/Source/CMSIS_RTOS_V2/cmsis_os2.c ****           hTask = NULL;
 1443              		.loc 1 460 12 view .LVU398
 1444 007e 0128     		cmp	r0, #1
 1445 0080 06D0     		beq	.L179
 1446              	.L163:
 431:Middlewares/Third_Party/FreeRTOS/Source/CMSIS_RTOS_V2/cmsis_os2.c ****       }
 1447              		.loc 1 431 16 view .LVU399
 1448 0082 0020     		movs	r0, #0
 1449              	.L149:
 468:Middlewares/Third_Party/FreeRTOS/Source/CMSIS_RTOS_V2/cmsis_os2.c **** 
 1450              		.loc 1 468 1 view .LVU400
 1451 0084 07B0     		add	sp, sp, #28
 1452              	.LCFI13:
 1453              		.cfi_remember_state
 1454              		.cfi_def_cfa_offset 20
 1455              		@ sp needed
 1456 0086 F0BD     		pop	{r4, r5, r6, r7, pc}
 1457              	.LVL94:
 1458              	.L151:
 1459              	.LCFI14:
 1460              		.cfi_restore_state
 415:Middlewares/Third_Party/FreeRTOS/Source/CMSIS_RTOS_V2/cmsis_os2.c ****     stack = configMINIMAL_STACK_SIZE;
 1461              		.loc 1 415 8 discriminator 5 view .LVU401
 1462 0088 0A4B     		ldr	r3, .L180
 1463 008a 1B68     		ldr	r3, [r3]
 1464 008c 022B     		cmp	r3, #2
 1465 008e C8D1     		bne	.L152
 1466              	.LVL95:
 1467              	.L179:
 415:Middlewares/Third_Party/FreeRTOS/Source/CMSIS_RTOS_V2/cmsis_os2.c ****     stack = configMINIMAL_STACK_SIZE;
 1468              		.loc 1 415 8 discriminator 5 view .LVU402
 1469 0090 0598     		ldr	r0, [sp, #20]
 468:Middlewares/Third_Party/FreeRTOS/Source/CMSIS_RTOS_V2/cmsis_os2.c **** 
 1470              		.loc 1 468 1 view .LVU403
 1471 0092 07B0     		add	sp, sp, #28
 1472              	.LCFI15:
 1473              		.cfi_remember_state
 1474              		.cfi_def_cfa_offset 20
 1475              		@ sp needed
 1476 0094 F0BD     		pop	{r4, r5, r6, r7, pc}
 1477              	.LVL96:
 1478              	.L161:
 1479              	.LCFI16:
 1480              		.cfi_restore_state
 468:Middlewares/Third_Party/FreeRTOS/Source/CMSIS_RTOS_V2/cmsis_os2.c **** 
 1481              		.loc 1 468 1 view .LVU404
 1482 0096 1823     		movs	r3, #24
ARM GAS  /tmp/ccQGQFth.s 			page 58


 1483 0098 CCE7     		b	.L155
 1484              	.LVL97:
 1485              	.L164:
 416:Middlewares/Third_Party/FreeRTOS/Source/CMSIS_RTOS_V2/cmsis_os2.c ****     prio  = (UBaseType_t)osPriorityNormal;
 1486              		.loc 1 416 11 view .LVU405
 1487 009a 4FF0800C 		mov	ip, #128
 1488 009e D0E7     		b	.L157
 1489              	.LVL98:
 1490              	.L158:
 445:Middlewares/Third_Party/FreeRTOS/Source/CMSIS_RTOS_V2/cmsis_os2.c ****           mem = 0;
 1491              		.loc 1 445 9 is_stmt 1 discriminator 1 view .LVU406
 445:Middlewares/Third_Party/FreeRTOS/Source/CMSIS_RTOS_V2/cmsis_os2.c ****           mem = 0;
 1492              		.loc 1 445 36 is_stmt 0 discriminator 1 view .LVU407
 1493 00a0 EC68     		ldr	r4, [r5, #12]
 1494 00a2 002C     		cmp	r4, #0
 1495 00a4 F4D1     		bne	.L179
 445:Middlewares/Third_Party/FreeRTOS/Source/CMSIS_RTOS_V2/cmsis_os2.c ****           mem = 0;
 1496              		.loc 1 445 61 discriminator 2 view .LVU408
 1497 00a6 2C69     		ldr	r4, [r5, #16]
 1498 00a8 002C     		cmp	r4, #0
 1499 00aa F1D1     		bne	.L179
 1500 00ac 1FFA8CF2 		uxth	r2, ip
 445:Middlewares/Third_Party/FreeRTOS/Source/CMSIS_RTOS_V2/cmsis_os2.c ****           mem = 0;
 1501              		.loc 1 445 61 view .LVU409
 1502 00b0 3D46     		mov	r5, r7
 1503              	.LVL99:
 445:Middlewares/Third_Party/FreeRTOS/Source/CMSIS_RTOS_V2/cmsis_os2.c ****           mem = 0;
 1504              		.loc 1 445 61 view .LVU410
 1505 00b2 DDE7     		b	.L154
 1506              	.L181:
 1507              		.align	2
 1508              	.L180:
 1509 00b4 00000000 		.word	.LANCHOR0
 1510              		.cfi_endproc
 1511              	.LFE120:
 1513              		.section	.text.osThreadGetName,"ax",%progbits
 1514              		.align	1
 1515              		.p2align 2,,3
 1516              		.global	osThreadGetName
 1517              		.syntax unified
 1518              		.thumb
 1519              		.thumb_func
 1520              		.fpu fpv4-sp-d16
 1522              	osThreadGetName:
 1523              	.LVL100:
 1524              	.LFB121:
 470:Middlewares/Third_Party/FreeRTOS/Source/CMSIS_RTOS_V2/cmsis_os2.c ****   TaskHandle_t hTask = (TaskHandle_t)thread_id;
 1525              		.loc 1 470 54 is_stmt 1 view -0
 1526              		.cfi_startproc
 1527              		@ args = 0, pretend = 0, frame = 0
 1528              		@ frame_needed = 0, uses_anonymous_args = 0
 1529              		@ link register save eliminated.
 471:Middlewares/Third_Party/FreeRTOS/Source/CMSIS_RTOS_V2/cmsis_os2.c ****   const char *name;
 1530              		.loc 1 471 3 view .LVU412
 472:Middlewares/Third_Party/FreeRTOS/Source/CMSIS_RTOS_V2/cmsis_os2.c **** 
 1531              		.loc 1 472 3 view .LVU413
 474:Middlewares/Third_Party/FreeRTOS/Source/CMSIS_RTOS_V2/cmsis_os2.c ****     name = NULL;
ARM GAS  /tmp/ccQGQFth.s 			page 59


 1532              		.loc 1 474 3 view .LVU414
 1533              	.LBB402:
 1534              	.LBI402:
 272:Drivers/CMSIS/Include/cmsis_gcc.h **** {
 1535              		.loc 2 272 31 view .LVU415
 1536              	.LBB403:
 274:Drivers/CMSIS/Include/cmsis_gcc.h **** 
 1537              		.loc 2 274 3 view .LVU416
 276:Drivers/CMSIS/Include/cmsis_gcc.h ****   return(result);
 1538              		.loc 2 276 3 view .LVU417
 1539              		.syntax unified
 1540              	@ 276 "Drivers/CMSIS/Include/cmsis_gcc.h" 1
 1541 0000 EFF30583 		MRS r3, ipsr
 1542              	@ 0 "" 2
 1543              	.LVL101:
 277:Drivers/CMSIS/Include/cmsis_gcc.h **** }
 1544              		.loc 2 277 3 view .LVU418
 277:Drivers/CMSIS/Include/cmsis_gcc.h **** }
 1545              		.loc 2 277 3 is_stmt 0 view .LVU419
 1546              		.thumb
 1547              		.syntax unified
 1548              	.LBE403:
 1549              	.LBE402:
 474:Middlewares/Third_Party/FreeRTOS/Source/CMSIS_RTOS_V2/cmsis_os2.c ****     name = NULL;
 1550              		.loc 1 474 6 view .LVU420
 1551 0004 4BB9     		cbnz	r3, .L184
 1552              	.LBB404:
 1553              	.LBI404:
 449:Drivers/CMSIS/Include/cmsis_gcc.h **** {
 1554              		.loc 2 449 31 is_stmt 1 view .LVU421
 1555              	.LBB405:
 451:Drivers/CMSIS/Include/cmsis_gcc.h **** 
 1556              		.loc 2 451 3 view .LVU422
 453:Drivers/CMSIS/Include/cmsis_gcc.h ****   return(result);
 1557              		.loc 2 453 3 view .LVU423
 1558              		.syntax unified
 1559              	@ 453 "Drivers/CMSIS/Include/cmsis_gcc.h" 1
 1560 0006 EFF31083 		MRS r3, primask
 1561              	@ 0 "" 2
 1562              	.LVL102:
 454:Drivers/CMSIS/Include/cmsis_gcc.h **** }
 1563              		.loc 2 454 3 view .LVU424
 454:Drivers/CMSIS/Include/cmsis_gcc.h **** }
 1564              		.loc 2 454 3 is_stmt 0 view .LVU425
 1565              		.thumb
 1566              		.syntax unified
 1567              	.LBE405:
 1568              	.LBE404:
 474:Middlewares/Third_Party/FreeRTOS/Source/CMSIS_RTOS_V2/cmsis_os2.c ****     name = NULL;
 1569              		.loc 1 474 7 view .LVU426
 1570 000a 43B1     		cbz	r3, .L197
 474:Middlewares/Third_Party/FreeRTOS/Source/CMSIS_RTOS_V2/cmsis_os2.c ****     name = NULL;
 1571              		.loc 1 474 7 discriminator 4 view .LVU427
 1572 000c 084B     		ldr	r3, .L198
 1573 000e 1B68     		ldr	r3, [r3]
 1574 0010 022B     		cmp	r3, #2
 1575 0012 02D0     		beq	.L184
ARM GAS  /tmp/ccQGQFth.s 			page 60


 1576              	.L186:
 474:Middlewares/Third_Party/FreeRTOS/Source/CMSIS_RTOS_V2/cmsis_os2.c ****     name = NULL;
 1577              		.loc 1 474 16 discriminator 6 view .LVU428
 1578 0014 08B1     		cbz	r0, .L184
 477:Middlewares/Third_Party/FreeRTOS/Source/CMSIS_RTOS_V2/cmsis_os2.c ****   }
 1579              		.loc 1 477 5 is_stmt 1 view .LVU429
 477:Middlewares/Third_Party/FreeRTOS/Source/CMSIS_RTOS_V2/cmsis_os2.c ****   }
 1580              		.loc 1 477 12 is_stmt 0 view .LVU430
 1581 0016 FFF7FEBF 		b	pcTaskGetName
 1582              	.LVL103:
 1583              	.L184:
 480:Middlewares/Third_Party/FreeRTOS/Source/CMSIS_RTOS_V2/cmsis_os2.c **** }
 1584              		.loc 1 480 3 is_stmt 1 view .LVU431
 481:Middlewares/Third_Party/FreeRTOS/Source/CMSIS_RTOS_V2/cmsis_os2.c **** 
 1585              		.loc 1 481 1 is_stmt 0 view .LVU432
 1586 001a 0020     		movs	r0, #0
 1587              	.LVL104:
 481:Middlewares/Third_Party/FreeRTOS/Source/CMSIS_RTOS_V2/cmsis_os2.c **** 
 1588              		.loc 1 481 1 view .LVU433
 1589 001c 7047     		bx	lr
 1590              	.LVL105:
 1591              	.L197:
 1592              	.LBB406:
 1593              	.LBI406:
 528:Drivers/CMSIS/Include/cmsis_gcc.h **** {
 1594              		.loc 2 528 31 is_stmt 1 view .LVU434
 1595              	.LBB407:
 530:Drivers/CMSIS/Include/cmsis_gcc.h **** 
 1596              		.loc 2 530 3 view .LVU435
 532:Drivers/CMSIS/Include/cmsis_gcc.h ****   return(result);
 1597              		.loc 2 532 3 view .LVU436
 1598              		.syntax unified
 1599              	@ 532 "Drivers/CMSIS/Include/cmsis_gcc.h" 1
 1600 001e EFF31183 		MRS r3, basepri
 1601              	@ 0 "" 2
 1602              	.LVL106:
 1603              		.loc 2 533 3 view .LVU437
 1604              		.loc 2 533 3 is_stmt 0 view .LVU438
 1605              		.thumb
 1606              		.syntax unified
 1607              	.LBE407:
 1608              	.LBE406:
 474:Middlewares/Third_Party/FreeRTOS/Source/CMSIS_RTOS_V2/cmsis_os2.c ****     name = NULL;
 1609              		.loc 1 474 7 view .LVU439
 1610 0022 002B     		cmp	r3, #0
 1611 0024 F6D0     		beq	.L186
 1612 0026 024B     		ldr	r3, .L198
 1613 0028 1B68     		ldr	r3, [r3]
 1614 002a 022B     		cmp	r3, #2
 1615 002c F2D1     		bne	.L186
 1616 002e F4E7     		b	.L184
 1617              	.L199:
 1618              		.align	2
 1619              	.L198:
 1620 0030 00000000 		.word	.LANCHOR0
 1621              		.cfi_endproc
 1622              	.LFE121:
ARM GAS  /tmp/ccQGQFth.s 			page 61


 1624              		.section	.text.osThreadGetId,"ax",%progbits
 1625              		.align	1
 1626              		.p2align 2,,3
 1627              		.global	osThreadGetId
 1628              		.syntax unified
 1629              		.thumb
 1630              		.thumb_func
 1631              		.fpu fpv4-sp-d16
 1633              	osThreadGetId:
 1634              	.LFB122:
 483:Middlewares/Third_Party/FreeRTOS/Source/CMSIS_RTOS_V2/cmsis_os2.c ****   osThreadId_t id;
 1635              		.loc 1 483 35 is_stmt 1 view -0
 1636              		.cfi_startproc
 1637              		@ args = 0, pretend = 0, frame = 0
 1638              		@ frame_needed = 0, uses_anonymous_args = 0
 1639              		@ link register save eliminated.
 484:Middlewares/Third_Party/FreeRTOS/Source/CMSIS_RTOS_V2/cmsis_os2.c **** 
 1640              		.loc 1 484 3 view .LVU441
 486:Middlewares/Third_Party/FreeRTOS/Source/CMSIS_RTOS_V2/cmsis_os2.c **** 
 1641              		.loc 1 486 3 view .LVU442
 486:Middlewares/Third_Party/FreeRTOS/Source/CMSIS_RTOS_V2/cmsis_os2.c **** 
 1642              		.loc 1 486 22 is_stmt 0 view .LVU443
 1643 0000 FFF7FEBF 		b	xTaskGetCurrentTaskHandle
 1644              	.LVL107:
 1645              		.cfi_endproc
 1646              	.LFE122:
 1648              		.section	.text.osThreadGetState,"ax",%progbits
 1649              		.align	1
 1650              		.p2align 2,,3
 1651              		.global	osThreadGetState
 1652              		.syntax unified
 1653              		.thumb
 1654              		.thumb_func
 1655              		.fpu fpv4-sp-d16
 1657              	osThreadGetState:
 1658              	.LVL108:
 1659              	.LFB123:
 491:Middlewares/Third_Party/FreeRTOS/Source/CMSIS_RTOS_V2/cmsis_os2.c ****   TaskHandle_t hTask = (TaskHandle_t)thread_id;
 1660              		.loc 1 491 59 is_stmt 1 view -0
 1661              		.cfi_startproc
 1662              		@ args = 0, pretend = 0, frame = 0
 1663              		@ frame_needed = 0, uses_anonymous_args = 0
 492:Middlewares/Third_Party/FreeRTOS/Source/CMSIS_RTOS_V2/cmsis_os2.c ****   osThreadState_t state;
 1664              		.loc 1 492 3 view .LVU445
 493:Middlewares/Third_Party/FreeRTOS/Source/CMSIS_RTOS_V2/cmsis_os2.c **** 
 1665              		.loc 1 493 3 view .LVU446
 495:Middlewares/Third_Party/FreeRTOS/Source/CMSIS_RTOS_V2/cmsis_os2.c ****     state = osThreadError;
 1666              		.loc 1 495 3 view .LVU447
 1667              	.LBB408:
 1668              	.LBI408:
 272:Drivers/CMSIS/Include/cmsis_gcc.h **** {
 1669              		.loc 2 272 31 view .LVU448
 1670              	.LBB409:
 274:Drivers/CMSIS/Include/cmsis_gcc.h **** 
 1671              		.loc 2 274 3 view .LVU449
 276:Drivers/CMSIS/Include/cmsis_gcc.h ****   return(result);
 1672              		.loc 2 276 3 view .LVU450
ARM GAS  /tmp/ccQGQFth.s 			page 62


 1673              	.LBE409:
 1674              	.LBE408:
 491:Middlewares/Third_Party/FreeRTOS/Source/CMSIS_RTOS_V2/cmsis_os2.c ****   TaskHandle_t hTask = (TaskHandle_t)thread_id;
 1675              		.loc 1 491 59 is_stmt 0 view .LVU451
 1676 0000 08B5     		push	{r3, lr}
 1677              	.LCFI17:
 1678              		.cfi_def_cfa_offset 8
 1679              		.cfi_offset 3, -8
 1680              		.cfi_offset 14, -4
 1681              	.LBB411:
 1682              	.LBB410:
 276:Drivers/CMSIS/Include/cmsis_gcc.h ****   return(result);
 1683              		.loc 2 276 3 view .LVU452
 1684              		.syntax unified
 1685              	@ 276 "Drivers/CMSIS/Include/cmsis_gcc.h" 1
 1686 0002 EFF30583 		MRS r3, ipsr
 1687              	@ 0 "" 2
 1688              	.LVL109:
 277:Drivers/CMSIS/Include/cmsis_gcc.h **** }
 1689              		.loc 2 277 3 is_stmt 1 view .LVU453
 277:Drivers/CMSIS/Include/cmsis_gcc.h **** }
 1690              		.loc 2 277 3 is_stmt 0 view .LVU454
 1691              		.thumb
 1692              		.syntax unified
 1693              	.LBE410:
 1694              	.LBE411:
 495:Middlewares/Third_Party/FreeRTOS/Source/CMSIS_RTOS_V2/cmsis_os2.c ****     state = osThreadError;
 1695              		.loc 1 495 6 view .LVU455
 1696 0006 5BB9     		cbnz	r3, .L206
 1697              	.LBB412:
 1698              	.LBI412:
 449:Drivers/CMSIS/Include/cmsis_gcc.h **** {
 1699              		.loc 2 449 31 is_stmt 1 view .LVU456
 1700              	.LBB413:
 451:Drivers/CMSIS/Include/cmsis_gcc.h **** 
 1701              		.loc 2 451 3 view .LVU457
 453:Drivers/CMSIS/Include/cmsis_gcc.h ****   return(result);
 1702              		.loc 2 453 3 view .LVU458
 1703              		.syntax unified
 1704              	@ 453 "Drivers/CMSIS/Include/cmsis_gcc.h" 1
 1705 0008 EFF31083 		MRS r3, primask
 1706              	@ 0 "" 2
 1707              	.LVL110:
 454:Drivers/CMSIS/Include/cmsis_gcc.h **** }
 1708              		.loc 2 454 3 view .LVU459
 454:Drivers/CMSIS/Include/cmsis_gcc.h **** }
 1709              		.loc 2 454 3 is_stmt 0 view .LVU460
 1710              		.thumb
 1711              		.syntax unified
 1712              	.LBE413:
 1713              	.LBE412:
 495:Middlewares/Third_Party/FreeRTOS/Source/CMSIS_RTOS_V2/cmsis_os2.c ****     state = osThreadError;
 1714              		.loc 1 495 7 view .LVU461
 1715 000c 5BB1     		cbz	r3, .L217
 495:Middlewares/Third_Party/FreeRTOS/Source/CMSIS_RTOS_V2/cmsis_os2.c ****     state = osThreadError;
 1716              		.loc 1 495 7 discriminator 4 view .LVU462
 1717 000e 0C4B     		ldr	r3, .L219
ARM GAS  /tmp/ccQGQFth.s 			page 63


 1718 0010 1B68     		ldr	r3, [r3]
 1719 0012 022B     		cmp	r3, #2
 1720 0014 04D0     		beq	.L206
 1721              	.L205:
 495:Middlewares/Third_Party/FreeRTOS/Source/CMSIS_RTOS_V2/cmsis_os2.c ****     state = osThreadError;
 1722              		.loc 1 495 16 discriminator 6 view .LVU463
 1723 0016 18B1     		cbz	r0, .L206
 499:Middlewares/Third_Party/FreeRTOS/Source/CMSIS_RTOS_V2/cmsis_os2.c ****       case eRunning:   state = osThreadRunning;    break;
 1724              		.loc 1 499 5 is_stmt 1 view .LVU464
 499:Middlewares/Third_Party/FreeRTOS/Source/CMSIS_RTOS_V2/cmsis_os2.c ****       case eRunning:   state = osThreadRunning;    break;
 1725              		.loc 1 499 13 is_stmt 0 view .LVU465
 1726 0018 FFF7FEFF 		bl	eTaskGetState
 1727              	.LVL111:
 499:Middlewares/Third_Party/FreeRTOS/Source/CMSIS_RTOS_V2/cmsis_os2.c ****       case eRunning:   state = osThreadRunning;    break;
 1728              		.loc 1 499 13 view .LVU466
 1729 001c 0428     		cmp	r0, #4
 1730 001e 0BD9     		bls	.L218
 1731              	.L206:
 496:Middlewares/Third_Party/FreeRTOS/Source/CMSIS_RTOS_V2/cmsis_os2.c ****   }
 1732              		.loc 1 496 11 view .LVU467
 1733 0020 4FF0FF30 		mov	r0, #-1
 511:Middlewares/Third_Party/FreeRTOS/Source/CMSIS_RTOS_V2/cmsis_os2.c **** 
 1734              		.loc 1 511 1 view .LVU468
 1735 0024 08BD     		pop	{r3, pc}
 1736              	.LVL112:
 1737              	.L217:
 1738              	.LBB414:
 1739              	.LBI414:
 528:Drivers/CMSIS/Include/cmsis_gcc.h **** {
 1740              		.loc 2 528 31 is_stmt 1 view .LVU469
 1741              	.LBB415:
 530:Drivers/CMSIS/Include/cmsis_gcc.h **** 
 1742              		.loc 2 530 3 view .LVU470
 532:Drivers/CMSIS/Include/cmsis_gcc.h ****   return(result);
 1743              		.loc 2 532 3 view .LVU471
 1744              		.syntax unified
 1745              	@ 532 "Drivers/CMSIS/Include/cmsis_gcc.h" 1
 1746 0026 EFF31183 		MRS r3, basepri
 1747              	@ 0 "" 2
 1748              	.LVL113:
 1749              		.loc 2 533 3 view .LVU472
 1750              		.loc 2 533 3 is_stmt 0 view .LVU473
 1751              		.thumb
 1752              		.syntax unified
 1753              	.LBE415:
 1754              	.LBE414:
 495:Middlewares/Third_Party/FreeRTOS/Source/CMSIS_RTOS_V2/cmsis_os2.c ****     state = osThreadError;
 1755              		.loc 1 495 7 view .LVU474
 1756 002a 002B     		cmp	r3, #0
 1757 002c F3D0     		beq	.L205
 1758 002e 044B     		ldr	r3, .L219
 1759 0030 1B68     		ldr	r3, [r3]
 1760 0032 022B     		cmp	r3, #2
 1761 0034 EFD1     		bne	.L205
 1762 0036 F3E7     		b	.L206
 1763              	.LVL114:
 1764              	.L218:
ARM GAS  /tmp/ccQGQFth.s 			page 64


 495:Middlewares/Third_Party/FreeRTOS/Source/CMSIS_RTOS_V2/cmsis_os2.c ****     state = osThreadError;
 1765              		.loc 1 495 7 view .LVU475
 1766 0038 024B     		ldr	r3, .L219+4
 1767 003a 53F82000 		ldr	r0, [r3, r0, lsl #2]
 1768              	.LVL115:
 510:Middlewares/Third_Party/FreeRTOS/Source/CMSIS_RTOS_V2/cmsis_os2.c **** }
 1769              		.loc 1 510 3 is_stmt 1 view .LVU476
 511:Middlewares/Third_Party/FreeRTOS/Source/CMSIS_RTOS_V2/cmsis_os2.c **** 
 1770              		.loc 1 511 1 is_stmt 0 view .LVU477
 1771 003e 08BD     		pop	{r3, pc}
 1772              	.L220:
 1773              		.align	2
 1774              	.L219:
 1775 0040 00000000 		.word	.LANCHOR0
 1776 0044 00000000 		.word	.LANCHOR1
 1777              		.cfi_endproc
 1778              	.LFE123:
 1780              		.section	.text.osThreadGetStackSpace,"ax",%progbits
 1781              		.align	1
 1782              		.p2align 2,,3
 1783              		.global	osThreadGetStackSpace
 1784              		.syntax unified
 1785              		.thumb
 1786              		.thumb_func
 1787              		.fpu fpv4-sp-d16
 1789              	osThreadGetStackSpace:
 1790              	.LVL116:
 1791              	.LFB124:
 513:Middlewares/Third_Party/FreeRTOS/Source/CMSIS_RTOS_V2/cmsis_os2.c ****   TaskHandle_t hTask = (TaskHandle_t)thread_id;
 1792              		.loc 1 513 57 is_stmt 1 view -0
 1793              		.cfi_startproc
 1794              		@ args = 0, pretend = 0, frame = 0
 1795              		@ frame_needed = 0, uses_anonymous_args = 0
 1796              		@ link register save eliminated.
 514:Middlewares/Third_Party/FreeRTOS/Source/CMSIS_RTOS_V2/cmsis_os2.c ****   uint32_t sz;
 1797              		.loc 1 514 3 view .LVU479
 515:Middlewares/Third_Party/FreeRTOS/Source/CMSIS_RTOS_V2/cmsis_os2.c **** 
 1798              		.loc 1 515 3 view .LVU480
 517:Middlewares/Third_Party/FreeRTOS/Source/CMSIS_RTOS_V2/cmsis_os2.c ****     sz = 0U;
 1799              		.loc 1 517 3 view .LVU481
 1800              	.LBB416:
 1801              	.LBI416:
 272:Drivers/CMSIS/Include/cmsis_gcc.h **** {
 1802              		.loc 2 272 31 view .LVU482
 1803              	.LBB417:
 274:Drivers/CMSIS/Include/cmsis_gcc.h **** 
 1804              		.loc 2 274 3 view .LVU483
 276:Drivers/CMSIS/Include/cmsis_gcc.h ****   return(result);
 1805              		.loc 2 276 3 view .LVU484
 1806              		.syntax unified
 1807              	@ 276 "Drivers/CMSIS/Include/cmsis_gcc.h" 1
 1808 0000 EFF30583 		MRS r3, ipsr
 1809              	@ 0 "" 2
 1810              	.LVL117:
 277:Drivers/CMSIS/Include/cmsis_gcc.h **** }
 1811              		.loc 2 277 3 view .LVU485
 277:Drivers/CMSIS/Include/cmsis_gcc.h **** }
ARM GAS  /tmp/ccQGQFth.s 			page 65


 1812              		.loc 2 277 3 is_stmt 0 view .LVU486
 1813              		.thumb
 1814              		.syntax unified
 1815              	.LBE417:
 1816              	.LBE416:
 517:Middlewares/Third_Party/FreeRTOS/Source/CMSIS_RTOS_V2/cmsis_os2.c ****     sz = 0U;
 1817              		.loc 1 517 6 view .LVU487
 1818 0004 4BB9     		cbnz	r3, .L223
 1819              	.LBB418:
 1820              	.LBI418:
 449:Drivers/CMSIS/Include/cmsis_gcc.h **** {
 1821              		.loc 2 449 31 is_stmt 1 view .LVU488
 1822              	.LBB419:
 451:Drivers/CMSIS/Include/cmsis_gcc.h **** 
 1823              		.loc 2 451 3 view .LVU489
 453:Drivers/CMSIS/Include/cmsis_gcc.h ****   return(result);
 1824              		.loc 2 453 3 view .LVU490
 1825              		.syntax unified
 1826              	@ 453 "Drivers/CMSIS/Include/cmsis_gcc.h" 1
 1827 0006 EFF31083 		MRS r3, primask
 1828              	@ 0 "" 2
 1829              	.LVL118:
 454:Drivers/CMSIS/Include/cmsis_gcc.h **** }
 1830              		.loc 2 454 3 view .LVU491
 454:Drivers/CMSIS/Include/cmsis_gcc.h **** }
 1831              		.loc 2 454 3 is_stmt 0 view .LVU492
 1832              		.thumb
 1833              		.syntax unified
 1834              	.LBE419:
 1835              	.LBE418:
 517:Middlewares/Third_Party/FreeRTOS/Source/CMSIS_RTOS_V2/cmsis_os2.c ****     sz = 0U;
 1836              		.loc 1 517 7 view .LVU493
 1837 000a 43B1     		cbz	r3, .L236
 517:Middlewares/Third_Party/FreeRTOS/Source/CMSIS_RTOS_V2/cmsis_os2.c ****     sz = 0U;
 1838              		.loc 1 517 7 discriminator 4 view .LVU494
 1839 000c 084B     		ldr	r3, .L237
 1840 000e 1B68     		ldr	r3, [r3]
 1841 0010 022B     		cmp	r3, #2
 1842 0012 02D0     		beq	.L223
 1843              	.L225:
 517:Middlewares/Third_Party/FreeRTOS/Source/CMSIS_RTOS_V2/cmsis_os2.c ****     sz = 0U;
 1844              		.loc 1 517 16 discriminator 6 view .LVU495
 1845 0014 08B1     		cbz	r0, .L223
 520:Middlewares/Third_Party/FreeRTOS/Source/CMSIS_RTOS_V2/cmsis_os2.c ****   }
 1846              		.loc 1 520 5 is_stmt 1 view .LVU496
 520:Middlewares/Third_Party/FreeRTOS/Source/CMSIS_RTOS_V2/cmsis_os2.c ****   }
 1847              		.loc 1 520 20 is_stmt 0 view .LVU497
 1848 0016 FFF7FEBF 		b	uxTaskGetStackHighWaterMark
 1849              	.LVL119:
 1850              	.L223:
 523:Middlewares/Third_Party/FreeRTOS/Source/CMSIS_RTOS_V2/cmsis_os2.c **** }
 1851              		.loc 1 523 3 is_stmt 1 view .LVU498
 524:Middlewares/Third_Party/FreeRTOS/Source/CMSIS_RTOS_V2/cmsis_os2.c **** 
 1852              		.loc 1 524 1 is_stmt 0 view .LVU499
 1853 001a 0020     		movs	r0, #0
 1854              	.LVL120:
 524:Middlewares/Third_Party/FreeRTOS/Source/CMSIS_RTOS_V2/cmsis_os2.c **** 
ARM GAS  /tmp/ccQGQFth.s 			page 66


 1855              		.loc 1 524 1 view .LVU500
 1856 001c 7047     		bx	lr
 1857              	.LVL121:
 1858              	.L236:
 1859              	.LBB420:
 1860              	.LBI420:
 528:Drivers/CMSIS/Include/cmsis_gcc.h **** {
 1861              		.loc 2 528 31 is_stmt 1 view .LVU501
 1862              	.LBB421:
 530:Drivers/CMSIS/Include/cmsis_gcc.h **** 
 1863              		.loc 2 530 3 view .LVU502
 532:Drivers/CMSIS/Include/cmsis_gcc.h ****   return(result);
 1864              		.loc 2 532 3 view .LVU503
 1865              		.syntax unified
 1866              	@ 532 "Drivers/CMSIS/Include/cmsis_gcc.h" 1
 1867 001e EFF31183 		MRS r3, basepri
 1868              	@ 0 "" 2
 1869              	.LVL122:
 1870              		.loc 2 533 3 view .LVU504
 1871              		.loc 2 533 3 is_stmt 0 view .LVU505
 1872              		.thumb
 1873              		.syntax unified
 1874              	.LBE421:
 1875              	.LBE420:
 517:Middlewares/Third_Party/FreeRTOS/Source/CMSIS_RTOS_V2/cmsis_os2.c ****     sz = 0U;
 1876              		.loc 1 517 7 view .LVU506
 1877 0022 002B     		cmp	r3, #0
 1878 0024 F6D0     		beq	.L225
 1879 0026 024B     		ldr	r3, .L237
 1880 0028 1B68     		ldr	r3, [r3]
 1881 002a 022B     		cmp	r3, #2
 1882 002c F2D1     		bne	.L225
 1883 002e F4E7     		b	.L223
 1884              	.L238:
 1885              		.align	2
 1886              	.L237:
 1887 0030 00000000 		.word	.LANCHOR0
 1888              		.cfi_endproc
 1889              	.LFE124:
 1891              		.section	.text.osThreadSetPriority,"ax",%progbits
 1892              		.align	1
 1893              		.p2align 2,,3
 1894              		.global	osThreadSetPriority
 1895              		.syntax unified
 1896              		.thumb
 1897              		.thumb_func
 1898              		.fpu fpv4-sp-d16
 1900              	osThreadSetPriority:
 1901              	.LVL123:
 1902              	.LFB125:
 526:Middlewares/Third_Party/FreeRTOS/Source/CMSIS_RTOS_V2/cmsis_os2.c ****   TaskHandle_t hTask = (TaskHandle_t)thread_id;
 1903              		.loc 1 526 80 is_stmt 1 view -0
 1904              		.cfi_startproc
 1905              		@ args = 0, pretend = 0, frame = 0
 1906              		@ frame_needed = 0, uses_anonymous_args = 0
 527:Middlewares/Third_Party/FreeRTOS/Source/CMSIS_RTOS_V2/cmsis_os2.c ****   osStatus_t stat;
 1907              		.loc 1 527 3 view .LVU508
ARM GAS  /tmp/ccQGQFth.s 			page 67


 528:Middlewares/Third_Party/FreeRTOS/Source/CMSIS_RTOS_V2/cmsis_os2.c **** 
 1908              		.loc 1 528 3 view .LVU509
 530:Middlewares/Third_Party/FreeRTOS/Source/CMSIS_RTOS_V2/cmsis_os2.c ****     stat = osErrorISR;
 1909              		.loc 1 530 3 view .LVU510
 1910              	.LBB422:
 1911              	.LBI422:
 272:Drivers/CMSIS/Include/cmsis_gcc.h **** {
 1912              		.loc 2 272 31 view .LVU511
 1913              	.LBB423:
 274:Drivers/CMSIS/Include/cmsis_gcc.h **** 
 1914              		.loc 2 274 3 view .LVU512
 276:Drivers/CMSIS/Include/cmsis_gcc.h ****   return(result);
 1915              		.loc 2 276 3 view .LVU513
 1916              	.LBE423:
 1917              	.LBE422:
 526:Middlewares/Third_Party/FreeRTOS/Source/CMSIS_RTOS_V2/cmsis_os2.c ****   TaskHandle_t hTask = (TaskHandle_t)thread_id;
 1918              		.loc 1 526 80 is_stmt 0 view .LVU514
 1919 0000 08B5     		push	{r3, lr}
 1920              	.LCFI18:
 1921              		.cfi_def_cfa_offset 8
 1922              		.cfi_offset 3, -8
 1923              		.cfi_offset 14, -4
 1924              	.LBB425:
 1925              	.LBB424:
 276:Drivers/CMSIS/Include/cmsis_gcc.h ****   return(result);
 1926              		.loc 2 276 3 view .LVU515
 1927              		.syntax unified
 1928              	@ 276 "Drivers/CMSIS/Include/cmsis_gcc.h" 1
 1929 0002 EFF30583 		MRS r3, ipsr
 1930              	@ 0 "" 2
 1931              	.LVL124:
 277:Drivers/CMSIS/Include/cmsis_gcc.h **** }
 1932              		.loc 2 277 3 is_stmt 1 view .LVU516
 277:Drivers/CMSIS/Include/cmsis_gcc.h **** }
 1933              		.loc 2 277 3 is_stmt 0 view .LVU517
 1934              		.thumb
 1935              		.syntax unified
 1936              	.LBE424:
 1937              	.LBE425:
 530:Middlewares/Third_Party/FreeRTOS/Source/CMSIS_RTOS_V2/cmsis_os2.c ****     stat = osErrorISR;
 1938              		.loc 1 530 6 view .LVU518
 1939 0006 B3B9     		cbnz	r3, .L244
 1940              	.LBB426:
 1941              	.LBI426:
 449:Drivers/CMSIS/Include/cmsis_gcc.h **** {
 1942              		.loc 2 449 31 is_stmt 1 view .LVU519
 1943              	.LBB427:
 451:Drivers/CMSIS/Include/cmsis_gcc.h **** 
 1944              		.loc 2 451 3 view .LVU520
 453:Drivers/CMSIS/Include/cmsis_gcc.h ****   return(result);
 1945              		.loc 2 453 3 view .LVU521
 1946              		.syntax unified
 1947              	@ 453 "Drivers/CMSIS/Include/cmsis_gcc.h" 1
 1948 0008 EFF31083 		MRS r3, primask
 1949              	@ 0 "" 2
 1950              	.LVL125:
 454:Drivers/CMSIS/Include/cmsis_gcc.h **** }
ARM GAS  /tmp/ccQGQFth.s 			page 68


 1951              		.loc 2 454 3 view .LVU522
 454:Drivers/CMSIS/Include/cmsis_gcc.h **** }
 1952              		.loc 2 454 3 is_stmt 0 view .LVU523
 1953              		.thumb
 1954              		.syntax unified
 1955              	.LBE427:
 1956              	.LBE426:
 530:Middlewares/Third_Party/FreeRTOS/Source/CMSIS_RTOS_V2/cmsis_os2.c ****     stat = osErrorISR;
 1957              		.loc 1 530 7 view .LVU524
 1958 000c 5BB1     		cbz	r3, .L254
 530:Middlewares/Third_Party/FreeRTOS/Source/CMSIS_RTOS_V2/cmsis_os2.c ****     stat = osErrorISR;
 1959              		.loc 1 530 7 discriminator 4 view .LVU525
 1960 000e 0D4B     		ldr	r3, .L255
 1961 0010 1B68     		ldr	r3, [r3]
 1962 0012 022B     		cmp	r3, #2
 1963 0014 0FD0     		beq	.L244
 1964              	.L243:
 533:Middlewares/Third_Party/FreeRTOS/Source/CMSIS_RTOS_V2/cmsis_os2.c ****     stat = osErrorParameter;
 1965              		.loc 1 533 8 is_stmt 1 view .LVU526
 533:Middlewares/Third_Party/FreeRTOS/Source/CMSIS_RTOS_V2/cmsis_os2.c ****     stat = osErrorParameter;
 1966              		.loc 1 533 11 is_stmt 0 view .LVU527
 1967 0016 88B1     		cbz	r0, .L246
 533:Middlewares/Third_Party/FreeRTOS/Source/CMSIS_RTOS_V2/cmsis_os2.c ****     stat = osErrorParameter;
 1968              		.loc 1 533 28 discriminator 1 view .LVU528
 1969 0018 4B1E     		subs	r3, r1, #1
 1970 001a 372B     		cmp	r3, #55
 1971 001c 0ED8     		bhi	.L246
 537:Middlewares/Third_Party/FreeRTOS/Source/CMSIS_RTOS_V2/cmsis_os2.c ****     vTaskPrioritySet (hTask, (UBaseType_t)priority);
 1972              		.loc 1 537 5 is_stmt 1 view .LVU529
 1973              	.LVL126:
 538:Middlewares/Third_Party/FreeRTOS/Source/CMSIS_RTOS_V2/cmsis_os2.c ****   }
 1974              		.loc 1 538 5 view .LVU530
 1975 001e FFF7FEFF 		bl	vTaskPrioritySet
 1976              	.LVL127:
 537:Middlewares/Third_Party/FreeRTOS/Source/CMSIS_RTOS_V2/cmsis_os2.c ****     vTaskPrioritySet (hTask, (UBaseType_t)priority);
 1977              		.loc 1 537 10 is_stmt 0 view .LVU531
 1978 0022 0020     		movs	r0, #0
 542:Middlewares/Third_Party/FreeRTOS/Source/CMSIS_RTOS_V2/cmsis_os2.c **** 
 1979              		.loc 1 542 1 view .LVU532
 1980 0024 08BD     		pop	{r3, pc}
 1981              	.LVL128:
 1982              	.L254:
 1983              	.LBB428:
 1984              	.LBI428:
 528:Drivers/CMSIS/Include/cmsis_gcc.h **** {
 1985              		.loc 2 528 31 is_stmt 1 view .LVU533
 1986              	.LBB429:
 530:Drivers/CMSIS/Include/cmsis_gcc.h **** 
 1987              		.loc 2 530 3 view .LVU534
 532:Drivers/CMSIS/Include/cmsis_gcc.h ****   return(result);
 1988              		.loc 2 532 3 view .LVU535
 1989              		.syntax unified
 1990              	@ 532 "Drivers/CMSIS/Include/cmsis_gcc.h" 1
 1991 0026 EFF31183 		MRS r3, basepri
 1992              	@ 0 "" 2
 1993              	.LVL129:
 1994              		.loc 2 533 3 view .LVU536
ARM GAS  /tmp/ccQGQFth.s 			page 69


 1995              		.loc 2 533 3 is_stmt 0 view .LVU537
 1996              		.thumb
 1997              		.syntax unified
 1998              	.LBE429:
 1999              	.LBE428:
 530:Middlewares/Third_Party/FreeRTOS/Source/CMSIS_RTOS_V2/cmsis_os2.c ****     stat = osErrorISR;
 2000              		.loc 1 530 7 view .LVU538
 2001 002a 002B     		cmp	r3, #0
 2002 002c F3D0     		beq	.L243
 2003 002e 054B     		ldr	r3, .L255
 2004 0030 1B68     		ldr	r3, [r3]
 2005 0032 022B     		cmp	r3, #2
 2006 0034 EFD1     		bne	.L243
 2007              	.L244:
 531:Middlewares/Third_Party/FreeRTOS/Source/CMSIS_RTOS_V2/cmsis_os2.c ****   }
 2008              		.loc 1 531 10 view .LVU539
 2009 0036 6FF00500 		mvn	r0, #5
 2010              	.LVL130:
 542:Middlewares/Third_Party/FreeRTOS/Source/CMSIS_RTOS_V2/cmsis_os2.c **** 
 2011              		.loc 1 542 1 view .LVU540
 2012 003a 08BD     		pop	{r3, pc}
 2013              	.LVL131:
 2014              	.L246:
 534:Middlewares/Third_Party/FreeRTOS/Source/CMSIS_RTOS_V2/cmsis_os2.c ****   }
 2015              		.loc 1 534 10 view .LVU541
 2016 003c 6FF00300 		mvn	r0, #3
 2017              	.LVL132:
 541:Middlewares/Third_Party/FreeRTOS/Source/CMSIS_RTOS_V2/cmsis_os2.c **** }
 2018              		.loc 1 541 3 is_stmt 1 view .LVU542
 542:Middlewares/Third_Party/FreeRTOS/Source/CMSIS_RTOS_V2/cmsis_os2.c **** 
 2019              		.loc 1 542 1 is_stmt 0 view .LVU543
 2020 0040 08BD     		pop	{r3, pc}
 2021              	.L256:
 2022 0042 00BF     		.align	2
 2023              	.L255:
 2024 0044 00000000 		.word	.LANCHOR0
 2025              		.cfi_endproc
 2026              	.LFE125:
 2028              		.section	.text.osThreadGetPriority,"ax",%progbits
 2029              		.align	1
 2030              		.p2align 2,,3
 2031              		.global	osThreadGetPriority
 2032              		.syntax unified
 2033              		.thumb
 2034              		.thumb_func
 2035              		.fpu fpv4-sp-d16
 2037              	osThreadGetPriority:
 2038              	.LVL133:
 2039              	.LFB126:
 544:Middlewares/Third_Party/FreeRTOS/Source/CMSIS_RTOS_V2/cmsis_os2.c ****   TaskHandle_t hTask = (TaskHandle_t)thread_id;
