ARM GAS  /tmp/ccZCJYQx.s 			page 1


   1              		.cpu cortex-m4
   2              		.eabi_attribute 27, 1
   3              		.eabi_attribute 28, 1
   4              		.eabi_attribute 20, 1
   5              		.eabi_attribute 21, 1
   6              		.eabi_attribute 23, 3
   7              		.eabi_attribute 24, 1
   8              		.eabi_attribute 25, 1
   9              		.eabi_attribute 26, 1
  10              		.eabi_attribute 30, 2
  11              		.eabi_attribute 34, 1
  12              		.eabi_attribute 18, 4
  13              		.file	"event_groups.c"
  14              		.text
  15              	.Ltext0:
  16              		.cfi_sections	.debug_frame
  17              		.section	.text.xEventGroupCreateStatic,"ax",%progbits
  18              		.align	1
  19              		.p2align 2,,3
  20              		.global	xEventGroupCreateStatic
  21              		.arch armv7e-m
  22              		.syntax unified
  23              		.thumb
  24              		.thumb_func
  25              		.fpu fpv4-sp-d16
  27              	xEventGroupCreateStatic:
  28              	.LVL0:
  29              	.LFB4:
  30              		.file 1 "Middlewares/Third_Party/FreeRTOS/Source/event_groups.c"
   1:Middlewares/Third_Party/FreeRTOS/Source/event_groups.c **** /*
   2:Middlewares/Third_Party/FreeRTOS/Source/event_groups.c ****  * FreeRTOS Kernel V10.2.1
   3:Middlewares/Third_Party/FreeRTOS/Source/event_groups.c ****  * Copyright (C) 2019 Amazon.com, Inc. or its affiliates.  All Rights Reserved.
   4:Middlewares/Third_Party/FreeRTOS/Source/event_groups.c ****  *
   5:Middlewares/Third_Party/FreeRTOS/Source/event_groups.c ****  * Permission is hereby granted, free of charge, to any person obtaining a copy of
   6:Middlewares/Third_Party/FreeRTOS/Source/event_groups.c ****  * this software and associated documentation files (the "Software"), to deal in
   7:Middlewares/Third_Party/FreeRTOS/Source/event_groups.c ****  * the Software without restriction, including without limitation the rights to
   8:Middlewares/Third_Party/FreeRTOS/Source/event_groups.c ****  * use, copy, modify, merge, publish, distribute, sublicense, and/or sell copies of
   9:Middlewares/Third_Party/FreeRTOS/Source/event_groups.c ****  * the Software, and to permit persons to whom the Software is furnished to do so,
  10:Middlewares/Third_Party/FreeRTOS/Source/event_groups.c ****  * subject to the following conditions:
  11:Middlewares/Third_Party/FreeRTOS/Source/event_groups.c ****  *
  12:Middlewares/Third_Party/FreeRTOS/Source/event_groups.c ****  * The above copyright notice and this permission notice shall be included in all
  13:Middlewares/Third_Party/FreeRTOS/Source/event_groups.c ****  * copies or substantial portions of the Software.
  14:Middlewares/Third_Party/FreeRTOS/Source/event_groups.c ****  *
  15:Middlewares/Third_Party/FreeRTOS/Source/event_groups.c ****  * THE SOFTWARE IS PROVIDED "AS IS", WITHOUT WARRANTY OF ANY KIND, EXPRESS OR
  16:Middlewares/Third_Party/FreeRTOS/Source/event_groups.c ****  * IMPLIED, INCLUDING BUT NOT LIMITED TO THE WARRANTIES OF MERCHANTABILITY, FITNESS
  17:Middlewares/Third_Party/FreeRTOS/Source/event_groups.c ****  * FOR A PARTICULAR PURPOSE AND NONINFRINGEMENT. IN NO EVENT SHALL THE AUTHORS OR
  18:Middlewares/Third_Party/FreeRTOS/Source/event_groups.c ****  * COPYRIGHT HOLDERS BE LIABLE FOR ANY CLAIM, DAMAGES OR OTHER LIABILITY, WHETHER
  19:Middlewares/Third_Party/FreeRTOS/Source/event_groups.c ****  * IN AN ACTION OF CONTRACT, TORT OR OTHERWISE, ARISING FROM, OUT OF OR IN
  20:Middlewares/Third_Party/FreeRTOS/Source/event_groups.c ****  * CONNECTION WITH THE SOFTWARE OR THE USE OR OTHER DEALINGS IN THE SOFTWARE.
  21:Middlewares/Third_Party/FreeRTOS/Source/event_groups.c ****  *
  22:Middlewares/Third_Party/FreeRTOS/Source/event_groups.c ****  * http://www.FreeRTOS.org
  23:Middlewares/Third_Party/FreeRTOS/Source/event_groups.c ****  * http://aws.amazon.com/freertos
  24:Middlewares/Third_Party/FreeRTOS/Source/event_groups.c ****  *
  25:Middlewares/Third_Party/FreeRTOS/Source/event_groups.c ****  * 1 tab == 4 spaces!
  26:Middlewares/Third_Party/FreeRTOS/Source/event_groups.c ****  */
  27:Middlewares/Third_Party/FreeRTOS/Source/event_groups.c **** 
  28:Middlewares/Third_Party/FreeRTOS/Source/event_groups.c **** /* Standard includes. */
ARM GAS  /tmp/ccZCJYQx.s 			page 2


  29:Middlewares/Third_Party/FreeRTOS/Source/event_groups.c **** #include <stdlib.h>
  30:Middlewares/Third_Party/FreeRTOS/Source/event_groups.c **** 
  31:Middlewares/Third_Party/FreeRTOS/Source/event_groups.c **** /* Defining MPU_WRAPPERS_INCLUDED_FROM_API_FILE prevents task.h from redefining
  32:Middlewares/Third_Party/FreeRTOS/Source/event_groups.c **** all the API functions to use the MPU wrappers.  That should only be done when
  33:Middlewares/Third_Party/FreeRTOS/Source/event_groups.c **** task.h is included from an application file. */
  34:Middlewares/Third_Party/FreeRTOS/Source/event_groups.c **** #define MPU_WRAPPERS_INCLUDED_FROM_API_FILE
  35:Middlewares/Third_Party/FreeRTOS/Source/event_groups.c **** 
  36:Middlewares/Third_Party/FreeRTOS/Source/event_groups.c **** /* FreeRTOS includes. */
  37:Middlewares/Third_Party/FreeRTOS/Source/event_groups.c **** #include "FreeRTOS.h"
  38:Middlewares/Third_Party/FreeRTOS/Source/event_groups.c **** #include "task.h"
  39:Middlewares/Third_Party/FreeRTOS/Source/event_groups.c **** #include "timers.h"
  40:Middlewares/Third_Party/FreeRTOS/Source/event_groups.c **** #include "event_groups.h"
  41:Middlewares/Third_Party/FreeRTOS/Source/event_groups.c **** 
  42:Middlewares/Third_Party/FreeRTOS/Source/event_groups.c **** /* Lint e961, e750 and e9021 are suppressed as a MISRA exception justified
  43:Middlewares/Third_Party/FreeRTOS/Source/event_groups.c **** because the MPU ports require MPU_WRAPPERS_INCLUDED_FROM_API_FILE to be defined
  44:Middlewares/Third_Party/FreeRTOS/Source/event_groups.c **** for the header files above, but not in this file, in order to generate the
  45:Middlewares/Third_Party/FreeRTOS/Source/event_groups.c **** correct privileged Vs unprivileged linkage and placement. */
  46:Middlewares/Third_Party/FreeRTOS/Source/event_groups.c **** #undef MPU_WRAPPERS_INCLUDED_FROM_API_FILE /*lint !e961 !e750 !e9021 See comment above. */
  47:Middlewares/Third_Party/FreeRTOS/Source/event_groups.c **** 
  48:Middlewares/Third_Party/FreeRTOS/Source/event_groups.c **** /* The following bit fields convey control information in a task's event list
  49:Middlewares/Third_Party/FreeRTOS/Source/event_groups.c **** item value.  It is important they don't clash with the
  50:Middlewares/Third_Party/FreeRTOS/Source/event_groups.c **** taskEVENT_LIST_ITEM_VALUE_IN_USE definition. */
  51:Middlewares/Third_Party/FreeRTOS/Source/event_groups.c **** #if configUSE_16_BIT_TICKS == 1
  52:Middlewares/Third_Party/FreeRTOS/Source/event_groups.c **** 	#define eventCLEAR_EVENTS_ON_EXIT_BIT	0x0100U
  53:Middlewares/Third_Party/FreeRTOS/Source/event_groups.c **** 	#define eventUNBLOCKED_DUE_TO_BIT_SET	0x0200U
  54:Middlewares/Third_Party/FreeRTOS/Source/event_groups.c **** 	#define eventWAIT_FOR_ALL_BITS			0x0400U
  55:Middlewares/Third_Party/FreeRTOS/Source/event_groups.c **** 	#define eventEVENT_BITS_CONTROL_BYTES	0xff00U
  56:Middlewares/Third_Party/FreeRTOS/Source/event_groups.c **** #else
  57:Middlewares/Third_Party/FreeRTOS/Source/event_groups.c **** 	#define eventCLEAR_EVENTS_ON_EXIT_BIT	0x01000000UL
  58:Middlewares/Third_Party/FreeRTOS/Source/event_groups.c **** 	#define eventUNBLOCKED_DUE_TO_BIT_SET	0x02000000UL
  59:Middlewares/Third_Party/FreeRTOS/Source/event_groups.c **** 	#define eventWAIT_FOR_ALL_BITS			0x04000000UL
  60:Middlewares/Third_Party/FreeRTOS/Source/event_groups.c **** 	#define eventEVENT_BITS_CONTROL_BYTES	0xff000000UL
  61:Middlewares/Third_Party/FreeRTOS/Source/event_groups.c **** #endif
  62:Middlewares/Third_Party/FreeRTOS/Source/event_groups.c **** 
  63:Middlewares/Third_Party/FreeRTOS/Source/event_groups.c **** typedef struct EventGroupDef_t
  64:Middlewares/Third_Party/FreeRTOS/Source/event_groups.c **** {
  65:Middlewares/Third_Party/FreeRTOS/Source/event_groups.c **** 	EventBits_t uxEventBits;
  66:Middlewares/Third_Party/FreeRTOS/Source/event_groups.c **** 	List_t xTasksWaitingForBits;		/*< List of tasks waiting for a bit to be set. */
  67:Middlewares/Third_Party/FreeRTOS/Source/event_groups.c **** 
  68:Middlewares/Third_Party/FreeRTOS/Source/event_groups.c **** 	#if( configUSE_TRACE_FACILITY == 1 )
  69:Middlewares/Third_Party/FreeRTOS/Source/event_groups.c **** 		UBaseType_t uxEventGroupNumber;
  70:Middlewares/Third_Party/FreeRTOS/Source/event_groups.c **** 	#endif
  71:Middlewares/Third_Party/FreeRTOS/Source/event_groups.c **** 
  72:Middlewares/Third_Party/FreeRTOS/Source/event_groups.c **** 	#if( ( configSUPPORT_STATIC_ALLOCATION == 1 ) && ( configSUPPORT_DYNAMIC_ALLOCATION == 1 ) )
  73:Middlewares/Third_Party/FreeRTOS/Source/event_groups.c **** 		uint8_t ucStaticallyAllocated; /*< Set to pdTRUE if the event group is statically allocated to en
  74:Middlewares/Third_Party/FreeRTOS/Source/event_groups.c **** 	#endif
  75:Middlewares/Third_Party/FreeRTOS/Source/event_groups.c **** } EventGroup_t;
  76:Middlewares/Third_Party/FreeRTOS/Source/event_groups.c **** 
  77:Middlewares/Third_Party/FreeRTOS/Source/event_groups.c **** /*-----------------------------------------------------------*/
  78:Middlewares/Third_Party/FreeRTOS/Source/event_groups.c **** 
  79:Middlewares/Third_Party/FreeRTOS/Source/event_groups.c **** /*
  80:Middlewares/Third_Party/FreeRTOS/Source/event_groups.c ****  * Test the bits set in uxCurrentEventBits to see if the wait condition is met.
  81:Middlewares/Third_Party/FreeRTOS/Source/event_groups.c ****  * The wait condition is defined by xWaitForAllBits.  If xWaitForAllBits is
  82:Middlewares/Third_Party/FreeRTOS/Source/event_groups.c ****  * pdTRUE then the wait condition is met if all the bits set in uxBitsToWaitFor
  83:Middlewares/Third_Party/FreeRTOS/Source/event_groups.c ****  * are also set in uxCurrentEventBits.  If xWaitForAllBits is pdFALSE then the
  84:Middlewares/Third_Party/FreeRTOS/Source/event_groups.c ****  * wait condition is met if any of the bits set in uxBitsToWait for are also set
  85:Middlewares/Third_Party/FreeRTOS/Source/event_groups.c ****  * in uxCurrentEventBits.
ARM GAS  /tmp/ccZCJYQx.s 			page 3


  86:Middlewares/Third_Party/FreeRTOS/Source/event_groups.c ****  */
  87:Middlewares/Third_Party/FreeRTOS/Source/event_groups.c **** static BaseType_t prvTestWaitCondition( const EventBits_t uxCurrentEventBits, const EventBits_t uxB
  88:Middlewares/Third_Party/FreeRTOS/Source/event_groups.c **** 
  89:Middlewares/Third_Party/FreeRTOS/Source/event_groups.c **** /*-----------------------------------------------------------*/
  90:Middlewares/Third_Party/FreeRTOS/Source/event_groups.c **** 
  91:Middlewares/Third_Party/FreeRTOS/Source/event_groups.c **** #if( configSUPPORT_STATIC_ALLOCATION == 1 )
  92:Middlewares/Third_Party/FreeRTOS/Source/event_groups.c **** 
  93:Middlewares/Third_Party/FreeRTOS/Source/event_groups.c **** 	EventGroupHandle_t xEventGroupCreateStatic( StaticEventGroup_t *pxEventGroupBuffer )
  94:Middlewares/Third_Party/FreeRTOS/Source/event_groups.c **** 	{
  31              		.loc 1 94 2 view -0
  32              		.cfi_startproc
  33              		@ args = 0, pretend = 0, frame = 8
  34              		@ frame_needed = 0, uses_anonymous_args = 0
  95:Middlewares/Third_Party/FreeRTOS/Source/event_groups.c **** 	EventGroup_t *pxEventBits;
  35              		.loc 1 95 2 view .LVU1
  96:Middlewares/Third_Party/FreeRTOS/Source/event_groups.c **** 
  97:Middlewares/Third_Party/FreeRTOS/Source/event_groups.c **** 		/* A StaticEventGroup_t object must be provided. */
  98:Middlewares/Third_Party/FreeRTOS/Source/event_groups.c **** 		configASSERT( pxEventGroupBuffer );
  36              		.loc 1 98 3 view .LVU2
  37 0000 78B1     		cbz	r0, .L9
  38              		.loc 1 98 37 discriminator 2 view .LVU3
  39              	.LBB57:
  99:Middlewares/Third_Party/FreeRTOS/Source/event_groups.c **** 
 100:Middlewares/Third_Party/FreeRTOS/Source/event_groups.c **** 		#if( configASSERT_DEFINED == 1 )
 101:Middlewares/Third_Party/FreeRTOS/Source/event_groups.c **** 		{
 102:Middlewares/Third_Party/FreeRTOS/Source/event_groups.c **** 			/* Sanity check that the size of the structure used to declare a
 103:Middlewares/Third_Party/FreeRTOS/Source/event_groups.c **** 			variable of type StaticEventGroup_t equals the size of the real
 104:Middlewares/Third_Party/FreeRTOS/Source/event_groups.c **** 			event group structure. */
 105:Middlewares/Third_Party/FreeRTOS/Source/event_groups.c **** 			volatile size_t xSize = sizeof( StaticEventGroup_t );
  40              		.loc 1 105 4 discriminator 2 view .LVU4
  41              	.LBE57:
  94:Middlewares/Third_Party/FreeRTOS/Source/event_groups.c **** 	EventGroup_t *pxEventBits;
  42              		.loc 1 94 2 is_stmt 0 discriminator 2 view .LVU5
  43 0002 10B5     		push	{r4, lr}
  44              	.LCFI0:
  45              		.cfi_def_cfa_offset 8
  46              		.cfi_offset 4, -8
  47              		.cfi_offset 14, -4
  48 0004 82B0     		sub	sp, sp, #8
  49              	.LCFI1:
  50              		.cfi_def_cfa_offset 16
  51              	.LBB60:
  52              		.loc 1 105 20 discriminator 2 view .LVU6
  53 0006 2023     		movs	r3, #32
  54 0008 0193     		str	r3, [sp, #4]
 106:Middlewares/Third_Party/FreeRTOS/Source/event_groups.c **** 			configASSERT( xSize == sizeof( EventGroup_t ) );
  55              		.loc 1 106 4 is_stmt 1 discriminator 2 view .LVU7
  56 000a 019B     		ldr	r3, [sp, #4]
  57 000c 202B     		cmp	r3, #32
  58 000e 11D0     		beq	.L4
  59              		.loc 1 106 4 view .LVU8
  60              	.LBB58:
  61              	.LBI58:
  62              		.file 2 "Middlewares/Third_Party/FreeRTOS/Source/portable/GCC/ARM_CM4F/portmacro.h"
   1:Middlewares/Third_Party/FreeRTOS/Source/portable/GCC/ARM_CM4F/portmacro.h **** /*
   2:Middlewares/Third_Party/FreeRTOS/Source/portable/GCC/ARM_CM4F/portmacro.h ****  * FreeRTOS Kernel V10.2.1
   3:Middlewares/Third_Party/FreeRTOS/Source/portable/GCC/ARM_CM4F/portmacro.h ****  * Copyright (C) 2019 Amazon.com, Inc. or its affiliates.  All Rights Reserved.
ARM GAS  /tmp/ccZCJYQx.s 			page 4


   4:Middlewares/Third_Party/FreeRTOS/Source/portable/GCC/ARM_CM4F/portmacro.h ****  *
   5:Middlewares/Third_Party/FreeRTOS/Source/portable/GCC/ARM_CM4F/portmacro.h ****  * Permission is hereby granted, free of charge, to any person obtaining a copy of
   6:Middlewares/Third_Party/FreeRTOS/Source/portable/GCC/ARM_CM4F/portmacro.h ****  * this software and associated documentation files (the "Software"), to deal in
   7:Middlewares/Third_Party/FreeRTOS/Source/portable/GCC/ARM_CM4F/portmacro.h ****  * the Software without restriction, including without limitation the rights to
   8:Middlewares/Third_Party/FreeRTOS/Source/portable/GCC/ARM_CM4F/portmacro.h ****  * use, copy, modify, merge, publish, distribute, sublicense, and/or sell copies of
   9:Middlewares/Third_Party/FreeRTOS/Source/portable/GCC/ARM_CM4F/portmacro.h ****  * the Software, and to permit persons to whom the Software is furnished to do so,
  10:Middlewares/Third_Party/FreeRTOS/Source/portable/GCC/ARM_CM4F/portmacro.h ****  * subject to the following conditions:
  11:Middlewares/Third_Party/FreeRTOS/Source/portable/GCC/ARM_CM4F/portmacro.h ****  *
  12:Middlewares/Third_Party/FreeRTOS/Source/portable/GCC/ARM_CM4F/portmacro.h ****  * The above copyright notice and this permission notice shall be included in all
  13:Middlewares/Third_Party/FreeRTOS/Source/portable/GCC/ARM_CM4F/portmacro.h ****  * copies or substantial portions of the Software.
  14:Middlewares/Third_Party/FreeRTOS/Source/portable/GCC/ARM_CM4F/portmacro.h ****  *
  15:Middlewares/Third_Party/FreeRTOS/Source/portable/GCC/ARM_CM4F/portmacro.h ****  * THE SOFTWARE IS PROVIDED "AS IS", WITHOUT WARRANTY OF ANY KIND, EXPRESS OR
  16:Middlewares/Third_Party/FreeRTOS/Source/portable/GCC/ARM_CM4F/portmacro.h ****  * IMPLIED, INCLUDING BUT NOT LIMITED TO THE WARRANTIES OF MERCHANTABILITY, FITNESS
  17:Middlewares/Third_Party/FreeRTOS/Source/portable/GCC/ARM_CM4F/portmacro.h ****  * FOR A PARTICULAR PURPOSE AND NONINFRINGEMENT. IN NO EVENT SHALL THE AUTHORS OR
  18:Middlewares/Third_Party/FreeRTOS/Source/portable/GCC/ARM_CM4F/portmacro.h ****  * COPYRIGHT HOLDERS BE LIABLE FOR ANY CLAIM, DAMAGES OR OTHER LIABILITY, WHETHER
  19:Middlewares/Third_Party/FreeRTOS/Source/portable/GCC/ARM_CM4F/portmacro.h ****  * IN AN ACTION OF CONTRACT, TORT OR OTHERWISE, ARISING FROM, OUT OF OR IN
  20:Middlewares/Third_Party/FreeRTOS/Source/portable/GCC/ARM_CM4F/portmacro.h ****  * CONNECTION WITH THE SOFTWARE OR THE USE OR OTHER DEALINGS IN THE SOFTWARE.
  21:Middlewares/Third_Party/FreeRTOS/Source/portable/GCC/ARM_CM4F/portmacro.h ****  *
  22:Middlewares/Third_Party/FreeRTOS/Source/portable/GCC/ARM_CM4F/portmacro.h ****  * http://www.FreeRTOS.org
  23:Middlewares/Third_Party/FreeRTOS/Source/portable/GCC/ARM_CM4F/portmacro.h ****  * http://aws.amazon.com/freertos
  24:Middlewares/Third_Party/FreeRTOS/Source/portable/GCC/ARM_CM4F/portmacro.h ****  *
  25:Middlewares/Third_Party/FreeRTOS/Source/portable/GCC/ARM_CM4F/portmacro.h ****  * 1 tab == 4 spaces!
  26:Middlewares/Third_Party/FreeRTOS/Source/portable/GCC/ARM_CM4F/portmacro.h ****  */
  27:Middlewares/Third_Party/FreeRTOS/Source/portable/GCC/ARM_CM4F/portmacro.h **** 
  28:Middlewares/Third_Party/FreeRTOS/Source/portable/GCC/ARM_CM4F/portmacro.h **** 
  29:Middlewares/Third_Party/FreeRTOS/Source/portable/GCC/ARM_CM4F/portmacro.h **** #ifndef PORTMACRO_H
  30:Middlewares/Third_Party/FreeRTOS/Source/portable/GCC/ARM_CM4F/portmacro.h **** #define PORTMACRO_H
  31:Middlewares/Third_Party/FreeRTOS/Source/portable/GCC/ARM_CM4F/portmacro.h **** 
  32:Middlewares/Third_Party/FreeRTOS/Source/portable/GCC/ARM_CM4F/portmacro.h **** #ifdef __cplusplus
  33:Middlewares/Third_Party/FreeRTOS/Source/portable/GCC/ARM_CM4F/portmacro.h **** extern "C" {
  34:Middlewares/Third_Party/FreeRTOS/Source/portable/GCC/ARM_CM4F/portmacro.h **** #endif
  35:Middlewares/Third_Party/FreeRTOS/Source/portable/GCC/ARM_CM4F/portmacro.h **** 
  36:Middlewares/Third_Party/FreeRTOS/Source/portable/GCC/ARM_CM4F/portmacro.h **** /*-----------------------------------------------------------
  37:Middlewares/Third_Party/FreeRTOS/Source/portable/GCC/ARM_CM4F/portmacro.h ****  * Port specific definitions.
  38:Middlewares/Third_Party/FreeRTOS/Source/portable/GCC/ARM_CM4F/portmacro.h ****  *
  39:Middlewares/Third_Party/FreeRTOS/Source/portable/GCC/ARM_CM4F/portmacro.h ****  * The settings in this file configure FreeRTOS correctly for the
  40:Middlewares/Third_Party/FreeRTOS/Source/portable/GCC/ARM_CM4F/portmacro.h ****  * given hardware and compiler.
  41:Middlewares/Third_Party/FreeRTOS/Source/portable/GCC/ARM_CM4F/portmacro.h ****  *
  42:Middlewares/Third_Party/FreeRTOS/Source/portable/GCC/ARM_CM4F/portmacro.h ****  * These settings should not be altered.
  43:Middlewares/Third_Party/FreeRTOS/Source/portable/GCC/ARM_CM4F/portmacro.h ****  *-----------------------------------------------------------
  44:Middlewares/Third_Party/FreeRTOS/Source/portable/GCC/ARM_CM4F/portmacro.h ****  */
  45:Middlewares/Third_Party/FreeRTOS/Source/portable/GCC/ARM_CM4F/portmacro.h **** 
  46:Middlewares/Third_Party/FreeRTOS/Source/portable/GCC/ARM_CM4F/portmacro.h **** /* Type definitions. */
  47:Middlewares/Third_Party/FreeRTOS/Source/portable/GCC/ARM_CM4F/portmacro.h **** #define portCHAR		char
  48:Middlewares/Third_Party/FreeRTOS/Source/portable/GCC/ARM_CM4F/portmacro.h **** #define portFLOAT		float
  49:Middlewares/Third_Party/FreeRTOS/Source/portable/GCC/ARM_CM4F/portmacro.h **** #define portDOUBLE		double
  50:Middlewares/Third_Party/FreeRTOS/Source/portable/GCC/ARM_CM4F/portmacro.h **** #define portLONG		long
  51:Middlewares/Third_Party/FreeRTOS/Source/portable/GCC/ARM_CM4F/portmacro.h **** #define portSHORT		short
  52:Middlewares/Third_Party/FreeRTOS/Source/portable/GCC/ARM_CM4F/portmacro.h **** #define portSTACK_TYPE	uint32_t
  53:Middlewares/Third_Party/FreeRTOS/Source/portable/GCC/ARM_CM4F/portmacro.h **** #define portBASE_TYPE	long
  54:Middlewares/Third_Party/FreeRTOS/Source/portable/GCC/ARM_CM4F/portmacro.h **** 
  55:Middlewares/Third_Party/FreeRTOS/Source/portable/GCC/ARM_CM4F/portmacro.h **** typedef portSTACK_TYPE StackType_t;
  56:Middlewares/Third_Party/FreeRTOS/Source/portable/GCC/ARM_CM4F/portmacro.h **** typedef long BaseType_t;
  57:Middlewares/Third_Party/FreeRTOS/Source/portable/GCC/ARM_CM4F/portmacro.h **** typedef unsigned long UBaseType_t;
  58:Middlewares/Third_Party/FreeRTOS/Source/portable/GCC/ARM_CM4F/portmacro.h **** 
  59:Middlewares/Third_Party/FreeRTOS/Source/portable/GCC/ARM_CM4F/portmacro.h **** #if( configUSE_16_BIT_TICKS == 1 )
  60:Middlewares/Third_Party/FreeRTOS/Source/portable/GCC/ARM_CM4F/portmacro.h **** 	typedef uint16_t TickType_t;
ARM GAS  /tmp/ccZCJYQx.s 			page 5


  61:Middlewares/Third_Party/FreeRTOS/Source/portable/GCC/ARM_CM4F/portmacro.h **** 	#define portMAX_DELAY ( TickType_t ) 0xffff
  62:Middlewares/Third_Party/FreeRTOS/Source/portable/GCC/ARM_CM4F/portmacro.h **** #else
  63:Middlewares/Third_Party/FreeRTOS/Source/portable/GCC/ARM_CM4F/portmacro.h **** 	typedef uint32_t TickType_t;
  64:Middlewares/Third_Party/FreeRTOS/Source/portable/GCC/ARM_CM4F/portmacro.h **** 	#define portMAX_DELAY ( TickType_t ) 0xffffffffUL
  65:Middlewares/Third_Party/FreeRTOS/Source/portable/GCC/ARM_CM4F/portmacro.h **** 
  66:Middlewares/Third_Party/FreeRTOS/Source/portable/GCC/ARM_CM4F/portmacro.h **** 	/* 32-bit tick type on a 32-bit architecture, so reads of the tick count do
  67:Middlewares/Third_Party/FreeRTOS/Source/portable/GCC/ARM_CM4F/portmacro.h **** 	not need to be guarded with a critical section. */
  68:Middlewares/Third_Party/FreeRTOS/Source/portable/GCC/ARM_CM4F/portmacro.h **** 	#define portTICK_TYPE_IS_ATOMIC 1
  69:Middlewares/Third_Party/FreeRTOS/Source/portable/GCC/ARM_CM4F/portmacro.h **** #endif
  70:Middlewares/Third_Party/FreeRTOS/Source/portable/GCC/ARM_CM4F/portmacro.h **** /*-----------------------------------------------------------*/
  71:Middlewares/Third_Party/FreeRTOS/Source/portable/GCC/ARM_CM4F/portmacro.h **** 
  72:Middlewares/Third_Party/FreeRTOS/Source/portable/GCC/ARM_CM4F/portmacro.h **** /* Architecture specifics. */
  73:Middlewares/Third_Party/FreeRTOS/Source/portable/GCC/ARM_CM4F/portmacro.h **** #define portSTACK_GROWTH			( -1 )
  74:Middlewares/Third_Party/FreeRTOS/Source/portable/GCC/ARM_CM4F/portmacro.h **** #define portTICK_PERIOD_MS			( ( TickType_t ) 1000 / configTICK_RATE_HZ )
  75:Middlewares/Third_Party/FreeRTOS/Source/portable/GCC/ARM_CM4F/portmacro.h **** #define portBYTE_ALIGNMENT			8
  76:Middlewares/Third_Party/FreeRTOS/Source/portable/GCC/ARM_CM4F/portmacro.h **** /*-----------------------------------------------------------*/
  77:Middlewares/Third_Party/FreeRTOS/Source/portable/GCC/ARM_CM4F/portmacro.h **** 
  78:Middlewares/Third_Party/FreeRTOS/Source/portable/GCC/ARM_CM4F/portmacro.h **** /* Scheduler utilities. */
  79:Middlewares/Third_Party/FreeRTOS/Source/portable/GCC/ARM_CM4F/portmacro.h **** #define portYIELD() 															\
  80:Middlewares/Third_Party/FreeRTOS/Source/portable/GCC/ARM_CM4F/portmacro.h **** {																				\
  81:Middlewares/Third_Party/FreeRTOS/Source/portable/GCC/ARM_CM4F/portmacro.h **** 	/* Set a PendSV to request a context switch. */								\
  82:Middlewares/Third_Party/FreeRTOS/Source/portable/GCC/ARM_CM4F/portmacro.h **** 	portNVIC_INT_CTRL_REG = portNVIC_PENDSVSET_BIT;								\
  83:Middlewares/Third_Party/FreeRTOS/Source/portable/GCC/ARM_CM4F/portmacro.h **** 																				\
  84:Middlewares/Third_Party/FreeRTOS/Source/portable/GCC/ARM_CM4F/portmacro.h **** 	/* Barriers are normally not required but do ensure the code is completely	\
  85:Middlewares/Third_Party/FreeRTOS/Source/portable/GCC/ARM_CM4F/portmacro.h **** 	within the specified behaviour for the architecture. */						\
  86:Middlewares/Third_Party/FreeRTOS/Source/portable/GCC/ARM_CM4F/portmacro.h **** 	__asm volatile( "dsb" ::: "memory" );										\
  87:Middlewares/Third_Party/FreeRTOS/Source/portable/GCC/ARM_CM4F/portmacro.h **** 	__asm volatile( "isb" );													\
  88:Middlewares/Third_Party/FreeRTOS/Source/portable/GCC/ARM_CM4F/portmacro.h **** }
  89:Middlewares/Third_Party/FreeRTOS/Source/portable/GCC/ARM_CM4F/portmacro.h **** 
  90:Middlewares/Third_Party/FreeRTOS/Source/portable/GCC/ARM_CM4F/portmacro.h **** #define portNVIC_INT_CTRL_REG		( * ( ( volatile uint32_t * ) 0xe000ed04 ) )
  91:Middlewares/Third_Party/FreeRTOS/Source/portable/GCC/ARM_CM4F/portmacro.h **** #define portNVIC_PENDSVSET_BIT		( 1UL << 28UL )
  92:Middlewares/Third_Party/FreeRTOS/Source/portable/GCC/ARM_CM4F/portmacro.h **** #define portEND_SWITCHING_ISR( xSwitchRequired ) if( xSwitchRequired != pdFALSE ) portYIELD()
  93:Middlewares/Third_Party/FreeRTOS/Source/portable/GCC/ARM_CM4F/portmacro.h **** #define portYIELD_FROM_ISR( x ) portEND_SWITCHING_ISR( x )
  94:Middlewares/Third_Party/FreeRTOS/Source/portable/GCC/ARM_CM4F/portmacro.h **** /*-----------------------------------------------------------*/
  95:Middlewares/Third_Party/FreeRTOS/Source/portable/GCC/ARM_CM4F/portmacro.h **** 
  96:Middlewares/Third_Party/FreeRTOS/Source/portable/GCC/ARM_CM4F/portmacro.h **** /* Critical section management. */
  97:Middlewares/Third_Party/FreeRTOS/Source/portable/GCC/ARM_CM4F/portmacro.h **** extern void vPortEnterCritical( void );
  98:Middlewares/Third_Party/FreeRTOS/Source/portable/GCC/ARM_CM4F/portmacro.h **** extern void vPortExitCritical( void );
  99:Middlewares/Third_Party/FreeRTOS/Source/portable/GCC/ARM_CM4F/portmacro.h **** #define portSET_INTERRUPT_MASK_FROM_ISR()		ulPortRaiseBASEPRI()
 100:Middlewares/Third_Party/FreeRTOS/Source/portable/GCC/ARM_CM4F/portmacro.h **** #define portCLEAR_INTERRUPT_MASK_FROM_ISR(x)	vPortSetBASEPRI(x)
 101:Middlewares/Third_Party/FreeRTOS/Source/portable/GCC/ARM_CM4F/portmacro.h **** #define portDISABLE_INTERRUPTS()				vPortRaiseBASEPRI()
 102:Middlewares/Third_Party/FreeRTOS/Source/portable/GCC/ARM_CM4F/portmacro.h **** #define portENABLE_INTERRUPTS()					vPortSetBASEPRI(0)
 103:Middlewares/Third_Party/FreeRTOS/Source/portable/GCC/ARM_CM4F/portmacro.h **** #define portENTER_CRITICAL()					vPortEnterCritical()
 104:Middlewares/Third_Party/FreeRTOS/Source/portable/GCC/ARM_CM4F/portmacro.h **** #define portEXIT_CRITICAL()						vPortExitCritical()
 105:Middlewares/Third_Party/FreeRTOS/Source/portable/GCC/ARM_CM4F/portmacro.h **** 
 106:Middlewares/Third_Party/FreeRTOS/Source/portable/GCC/ARM_CM4F/portmacro.h **** /*-----------------------------------------------------------*/
 107:Middlewares/Third_Party/FreeRTOS/Source/portable/GCC/ARM_CM4F/portmacro.h **** 
 108:Middlewares/Third_Party/FreeRTOS/Source/portable/GCC/ARM_CM4F/portmacro.h **** /* Task function macros as described on the FreeRTOS.org WEB site.  These are
 109:Middlewares/Third_Party/FreeRTOS/Source/portable/GCC/ARM_CM4F/portmacro.h **** not necessary for to use this port.  They are defined so the common demo files
 110:Middlewares/Third_Party/FreeRTOS/Source/portable/GCC/ARM_CM4F/portmacro.h **** (which build with all the ports) will build. */
 111:Middlewares/Third_Party/FreeRTOS/Source/portable/GCC/ARM_CM4F/portmacro.h **** #define portTASK_FUNCTION_PROTO( vFunction, pvParameters ) void vFunction( void *pvParameters )
 112:Middlewares/Third_Party/FreeRTOS/Source/portable/GCC/ARM_CM4F/portmacro.h **** #define portTASK_FUNCTION( vFunction, pvParameters ) void vFunction( void *pvParameters )
 113:Middlewares/Third_Party/FreeRTOS/Source/portable/GCC/ARM_CM4F/portmacro.h **** /*-----------------------------------------------------------*/
 114:Middlewares/Third_Party/FreeRTOS/Source/portable/GCC/ARM_CM4F/portmacro.h **** 
 115:Middlewares/Third_Party/FreeRTOS/Source/portable/GCC/ARM_CM4F/portmacro.h **** /* Tickless idle/low power functionality. */
 116:Middlewares/Third_Party/FreeRTOS/Source/portable/GCC/ARM_CM4F/portmacro.h **** #ifndef portSUPPRESS_TICKS_AND_SLEEP
 117:Middlewares/Third_Party/FreeRTOS/Source/portable/GCC/ARM_CM4F/portmacro.h **** 	extern void vPortSuppressTicksAndSleep( TickType_t xExpectedIdleTime );
ARM GAS  /tmp/ccZCJYQx.s 			page 6


 118:Middlewares/Third_Party/FreeRTOS/Source/portable/GCC/ARM_CM4F/portmacro.h **** 	#define portSUPPRESS_TICKS_AND_SLEEP( xExpectedIdleTime ) vPortSuppressTicksAndSleep( xExpectedIdl
 119:Middlewares/Third_Party/FreeRTOS/Source/portable/GCC/ARM_CM4F/portmacro.h **** #endif
 120:Middlewares/Third_Party/FreeRTOS/Source/portable/GCC/ARM_CM4F/portmacro.h **** /*-----------------------------------------------------------*/
 121:Middlewares/Third_Party/FreeRTOS/Source/portable/GCC/ARM_CM4F/portmacro.h **** 
 122:Middlewares/Third_Party/FreeRTOS/Source/portable/GCC/ARM_CM4F/portmacro.h **** /* Architecture specific optimisations. */
 123:Middlewares/Third_Party/FreeRTOS/Source/portable/GCC/ARM_CM4F/portmacro.h **** #ifndef configUSE_PORT_OPTIMISED_TASK_SELECTION
 124:Middlewares/Third_Party/FreeRTOS/Source/portable/GCC/ARM_CM4F/portmacro.h **** 	#define configUSE_PORT_OPTIMISED_TASK_SELECTION 1
 125:Middlewares/Third_Party/FreeRTOS/Source/portable/GCC/ARM_CM4F/portmacro.h **** #endif
 126:Middlewares/Third_Party/FreeRTOS/Source/portable/GCC/ARM_CM4F/portmacro.h **** 
 127:Middlewares/Third_Party/FreeRTOS/Source/portable/GCC/ARM_CM4F/portmacro.h **** #if configUSE_PORT_OPTIMISED_TASK_SELECTION == 1
 128:Middlewares/Third_Party/FreeRTOS/Source/portable/GCC/ARM_CM4F/portmacro.h **** 
 129:Middlewares/Third_Party/FreeRTOS/Source/portable/GCC/ARM_CM4F/portmacro.h **** 	/* Generic helper function. */
 130:Middlewares/Third_Party/FreeRTOS/Source/portable/GCC/ARM_CM4F/portmacro.h **** 	__attribute__( ( always_inline ) ) static inline uint8_t ucPortCountLeadingZeros( uint32_t ulBitma
 131:Middlewares/Third_Party/FreeRTOS/Source/portable/GCC/ARM_CM4F/portmacro.h **** 	{
 132:Middlewares/Third_Party/FreeRTOS/Source/portable/GCC/ARM_CM4F/portmacro.h **** 	uint8_t ucReturn;
 133:Middlewares/Third_Party/FreeRTOS/Source/portable/GCC/ARM_CM4F/portmacro.h **** 
 134:Middlewares/Third_Party/FreeRTOS/Source/portable/GCC/ARM_CM4F/portmacro.h **** 		__asm volatile ( "clz %0, %1" : "=r" ( ucReturn ) : "r" ( ulBitmap ) : "memory" );
 135:Middlewares/Third_Party/FreeRTOS/Source/portable/GCC/ARM_CM4F/portmacro.h **** 		return ucReturn;
 136:Middlewares/Third_Party/FreeRTOS/Source/portable/GCC/ARM_CM4F/portmacro.h **** 	}
 137:Middlewares/Third_Party/FreeRTOS/Source/portable/GCC/ARM_CM4F/portmacro.h **** 
 138:Middlewares/Third_Party/FreeRTOS/Source/portable/GCC/ARM_CM4F/portmacro.h **** 	/* Check the configuration. */
 139:Middlewares/Third_Party/FreeRTOS/Source/portable/GCC/ARM_CM4F/portmacro.h **** 	#if( configMAX_PRIORITIES > 32 )
 140:Middlewares/Third_Party/FreeRTOS/Source/portable/GCC/ARM_CM4F/portmacro.h **** 		#error configUSE_PORT_OPTIMISED_TASK_SELECTION can only be set to 1 when configMAX_PRIORITIES is 
 141:Middlewares/Third_Party/FreeRTOS/Source/portable/GCC/ARM_CM4F/portmacro.h **** 	#endif
 142:Middlewares/Third_Party/FreeRTOS/Source/portable/GCC/ARM_CM4F/portmacro.h **** 
 143:Middlewares/Third_Party/FreeRTOS/Source/portable/GCC/ARM_CM4F/portmacro.h **** 	/* Store/clear the ready priorities in a bit map. */
 144:Middlewares/Third_Party/FreeRTOS/Source/portable/GCC/ARM_CM4F/portmacro.h **** 	#define portRECORD_READY_PRIORITY( uxPriority, uxReadyPriorities ) ( uxReadyPriorities ) |= ( 1UL 
 145:Middlewares/Third_Party/FreeRTOS/Source/portable/GCC/ARM_CM4F/portmacro.h **** 	#define portRESET_READY_PRIORITY( uxPriority, uxReadyPriorities ) ( uxReadyPriorities ) &= ~( 1UL 
 146:Middlewares/Third_Party/FreeRTOS/Source/portable/GCC/ARM_CM4F/portmacro.h **** 
 147:Middlewares/Third_Party/FreeRTOS/Source/portable/GCC/ARM_CM4F/portmacro.h **** 	/*-----------------------------------------------------------*/
 148:Middlewares/Third_Party/FreeRTOS/Source/portable/GCC/ARM_CM4F/portmacro.h **** 
 149:Middlewares/Third_Party/FreeRTOS/Source/portable/GCC/ARM_CM4F/portmacro.h **** 	#define portGET_HIGHEST_PRIORITY( uxTopPriority, uxReadyPriorities ) uxTopPriority = ( 31UL - ( ui
 150:Middlewares/Third_Party/FreeRTOS/Source/portable/GCC/ARM_CM4F/portmacro.h **** 
 151:Middlewares/Third_Party/FreeRTOS/Source/portable/GCC/ARM_CM4F/portmacro.h **** #endif /* configUSE_PORT_OPTIMISED_TASK_SELECTION */
 152:Middlewares/Third_Party/FreeRTOS/Source/portable/GCC/ARM_CM4F/portmacro.h **** 
 153:Middlewares/Third_Party/FreeRTOS/Source/portable/GCC/ARM_CM4F/portmacro.h **** /*-----------------------------------------------------------*/
 154:Middlewares/Third_Party/FreeRTOS/Source/portable/GCC/ARM_CM4F/portmacro.h **** 
 155:Middlewares/Third_Party/FreeRTOS/Source/portable/GCC/ARM_CM4F/portmacro.h **** #ifdef configASSERT
 156:Middlewares/Third_Party/FreeRTOS/Source/portable/GCC/ARM_CM4F/portmacro.h **** 	void vPortValidateInterruptPriority( void );
 157:Middlewares/Third_Party/FreeRTOS/Source/portable/GCC/ARM_CM4F/portmacro.h **** 	#define portASSERT_IF_INTERRUPT_PRIORITY_INVALID() 	vPortValidateInterruptPriority()
 158:Middlewares/Third_Party/FreeRTOS/Source/portable/GCC/ARM_CM4F/portmacro.h **** #endif
 159:Middlewares/Third_Party/FreeRTOS/Source/portable/GCC/ARM_CM4F/portmacro.h **** 
 160:Middlewares/Third_Party/FreeRTOS/Source/portable/GCC/ARM_CM4F/portmacro.h **** /* portNOP() is not required by this port. */
 161:Middlewares/Third_Party/FreeRTOS/Source/portable/GCC/ARM_CM4F/portmacro.h **** #define portNOP()
 162:Middlewares/Third_Party/FreeRTOS/Source/portable/GCC/ARM_CM4F/portmacro.h **** 
 163:Middlewares/Third_Party/FreeRTOS/Source/portable/GCC/ARM_CM4F/portmacro.h **** #define portINLINE	__inline
 164:Middlewares/Third_Party/FreeRTOS/Source/portable/GCC/ARM_CM4F/portmacro.h **** 
 165:Middlewares/Third_Party/FreeRTOS/Source/portable/GCC/ARM_CM4F/portmacro.h **** #ifndef portFORCE_INLINE
 166:Middlewares/Third_Party/FreeRTOS/Source/portable/GCC/ARM_CM4F/portmacro.h **** 	#define portFORCE_INLINE inline __attribute__(( always_inline))
 167:Middlewares/Third_Party/FreeRTOS/Source/portable/GCC/ARM_CM4F/portmacro.h **** #endif
 168:Middlewares/Third_Party/FreeRTOS/Source/portable/GCC/ARM_CM4F/portmacro.h **** 
 169:Middlewares/Third_Party/FreeRTOS/Source/portable/GCC/ARM_CM4F/portmacro.h **** portFORCE_INLINE static BaseType_t xPortIsInsideInterrupt( void )
 170:Middlewares/Third_Party/FreeRTOS/Source/portable/GCC/ARM_CM4F/portmacro.h **** {
 171:Middlewares/Third_Party/FreeRTOS/Source/portable/GCC/ARM_CM4F/portmacro.h **** uint32_t ulCurrentInterrupt;
 172:Middlewares/Third_Party/FreeRTOS/Source/portable/GCC/ARM_CM4F/portmacro.h **** BaseType_t xReturn;
 173:Middlewares/Third_Party/FreeRTOS/Source/portable/GCC/ARM_CM4F/portmacro.h **** 
 174:Middlewares/Third_Party/FreeRTOS/Source/portable/GCC/ARM_CM4F/portmacro.h **** 	/* Obtain the number of the currently executing interrupt. */
ARM GAS  /tmp/ccZCJYQx.s 			page 7


 175:Middlewares/Third_Party/FreeRTOS/Source/portable/GCC/ARM_CM4F/portmacro.h **** 	__asm volatile( "mrs %0, ipsr" : "=r"( ulCurrentInterrupt ) :: "memory" );
 176:Middlewares/Third_Party/FreeRTOS/Source/portable/GCC/ARM_CM4F/portmacro.h **** 
 177:Middlewares/Third_Party/FreeRTOS/Source/portable/GCC/ARM_CM4F/portmacro.h **** 	if( ulCurrentInterrupt == 0 )
 178:Middlewares/Third_Party/FreeRTOS/Source/portable/GCC/ARM_CM4F/portmacro.h **** 	{
 179:Middlewares/Third_Party/FreeRTOS/Source/portable/GCC/ARM_CM4F/portmacro.h **** 		xReturn = pdFALSE;
 180:Middlewares/Third_Party/FreeRTOS/Source/portable/GCC/ARM_CM4F/portmacro.h **** 	}
 181:Middlewares/Third_Party/FreeRTOS/Source/portable/GCC/ARM_CM4F/portmacro.h **** 	else
 182:Middlewares/Third_Party/FreeRTOS/Source/portable/GCC/ARM_CM4F/portmacro.h **** 	{
 183:Middlewares/Third_Party/FreeRTOS/Source/portable/GCC/ARM_CM4F/portmacro.h **** 		xReturn = pdTRUE;
 184:Middlewares/Third_Party/FreeRTOS/Source/portable/GCC/ARM_CM4F/portmacro.h **** 	}
 185:Middlewares/Third_Party/FreeRTOS/Source/portable/GCC/ARM_CM4F/portmacro.h **** 
 186:Middlewares/Third_Party/FreeRTOS/Source/portable/GCC/ARM_CM4F/portmacro.h **** 	return xReturn;
 187:Middlewares/Third_Party/FreeRTOS/Source/portable/GCC/ARM_CM4F/portmacro.h **** }
 188:Middlewares/Third_Party/FreeRTOS/Source/portable/GCC/ARM_CM4F/portmacro.h **** 
 189:Middlewares/Third_Party/FreeRTOS/Source/portable/GCC/ARM_CM4F/portmacro.h **** /*-----------------------------------------------------------*/
 190:Middlewares/Third_Party/FreeRTOS/Source/portable/GCC/ARM_CM4F/portmacro.h **** 
 191:Middlewares/Third_Party/FreeRTOS/Source/portable/GCC/ARM_CM4F/portmacro.h **** portFORCE_INLINE static void vPortRaiseBASEPRI( void )
  63              		.loc 2 191 30 view .LVU9
  64              	.LBB59:
 192:Middlewares/Third_Party/FreeRTOS/Source/portable/GCC/ARM_CM4F/portmacro.h **** {
 193:Middlewares/Third_Party/FreeRTOS/Source/portable/GCC/ARM_CM4F/portmacro.h **** uint32_t ulNewBASEPRI;
  65              		.loc 2 193 1 view .LVU10
 194:Middlewares/Third_Party/FreeRTOS/Source/portable/GCC/ARM_CM4F/portmacro.h **** 
 195:Middlewares/Third_Party/FreeRTOS/Source/portable/GCC/ARM_CM4F/portmacro.h **** 	__asm volatile
  66              		.loc 2 195 2 view .LVU11
  67              		.syntax unified
  68              	@ 195 "Middlewares/Third_Party/FreeRTOS/Source/portable/GCC/ARM_CM4F/portmacro.h" 1
  69 0010 4FF05003 			mov r3, #80												
  70 0014 83F31188 		msr basepri, r3											
  71 0018 BFF36F8F 		isb														
  72 001c BFF34F8F 		dsb														
  73              	
  74              	@ 0 "" 2
  75              	.LVL1:
  76              		.thumb
  77              		.syntax unified
  78              	.L5:
  79              		.loc 2 195 2 is_stmt 0 view .LVU12
  80              	.LBE59:
  81              	.LBE58:
  82              		.loc 1 106 4 is_stmt 1 discriminator 2 view .LVU13
  83              		.loc 1 106 4 discriminator 2 view .LVU14
  84              		.loc 1 106 4 discriminator 2 view .LVU15
  85              		.loc 1 106 4 discriminator 2 view .LVU16
  86              		.loc 1 106 4 discriminator 2 view .LVU17
  87              		.loc 1 106 4 discriminator 2 view .LVU18
  88 0020 FEE7     		b	.L5
  89              	.L9:
  90              	.LCFI2:
  91              		.cfi_def_cfa_offset 0
  92              		.cfi_restore 4
  93              		.cfi_restore 14
  94              	.LBE60:
  98:Middlewares/Third_Party/FreeRTOS/Source/event_groups.c **** 
  95              		.loc 1 98 3 view .LVU19
  96              	.LBB61:
  97              	.LBI61:
ARM GAS  /tmp/ccZCJYQx.s 			page 8


 191:Middlewares/Third_Party/FreeRTOS/Source/portable/GCC/ARM_CM4F/portmacro.h **** {
  98              		.loc 2 191 30 view .LVU20
  99              	.LBB62:
 193:Middlewares/Third_Party/FreeRTOS/Source/portable/GCC/ARM_CM4F/portmacro.h **** 
 100              		.loc 2 193 1 view .LVU21
 101              		.loc 2 195 2 view .LVU22
 102              		.syntax unified
 103              	@ 195 "Middlewares/Third_Party/FreeRTOS/Source/portable/GCC/ARM_CM4F/portmacro.h" 1
 104 0022 4FF05003 			mov r3, #80												
 105 0026 83F31188 		msr basepri, r3											
 106 002a BFF36F8F 		isb														
 107 002e BFF34F8F 		dsb														
 108              	
 109              	@ 0 "" 2
 110              	.LVL2:
 111              		.thumb
 112              		.syntax unified
 113              	.L3:
 114              		.loc 2 195 2 is_stmt 0 view .LVU23
 115              	.LBE62:
 116              	.LBE61:
  98:Middlewares/Third_Party/FreeRTOS/Source/event_groups.c **** 
 117              		.loc 1 98 3 is_stmt 1 discriminator 1 view .LVU24
  98:Middlewares/Third_Party/FreeRTOS/Source/event_groups.c **** 
 118              		.loc 1 98 3 discriminator 1 view .LVU25
  98:Middlewares/Third_Party/FreeRTOS/Source/event_groups.c **** 
 119              		.loc 1 98 3 discriminator 1 view .LVU26
  98:Middlewares/Third_Party/FreeRTOS/Source/event_groups.c **** 
 120              		.loc 1 98 3 discriminator 1 view .LVU27
  98:Middlewares/Third_Party/FreeRTOS/Source/event_groups.c **** 
 121              		.loc 1 98 3 discriminator 1 view .LVU28
  98:Middlewares/Third_Party/FreeRTOS/Source/event_groups.c **** 
 122              		.loc 1 98 3 discriminator 1 view .LVU29
 123 0032 FEE7     		b	.L3
 124              	.L4:
 125              	.LCFI3:
 126              		.cfi_def_cfa_offset 16
 127              		.cfi_offset 4, -8
 128              		.cfi_offset 14, -4
 107:Middlewares/Third_Party/FreeRTOS/Source/event_groups.c **** 		} /*lint !e529 xSize is referenced if configASSERT() is defined. */
 108:Middlewares/Third_Party/FreeRTOS/Source/event_groups.c **** 		#endif /* configASSERT_DEFINED */
 109:Middlewares/Third_Party/FreeRTOS/Source/event_groups.c **** 
 110:Middlewares/Third_Party/FreeRTOS/Source/event_groups.c **** 		/* The user has provided a statically allocated event group - use it. */
 111:Middlewares/Third_Party/FreeRTOS/Source/event_groups.c **** 		pxEventBits = ( EventGroup_t * ) pxEventGroupBuffer; /*lint !e740 !e9087 EventGroup_t and StaticE
 112:Middlewares/Third_Party/FreeRTOS/Source/event_groups.c **** 
 113:Middlewares/Third_Party/FreeRTOS/Source/event_groups.c **** 		if( pxEventBits != NULL )
 114:Middlewares/Third_Party/FreeRTOS/Source/event_groups.c **** 		{
 115:Middlewares/Third_Party/FreeRTOS/Source/event_groups.c **** 			pxEventBits->uxEventBits = 0;
 129              		.loc 1 115 29 is_stmt 0 view .LVU30
 130 0034 0023     		movs	r3, #0
 131 0036 0446     		mov	r4, r0
 132              	.LBB63:
 106:Middlewares/Third_Party/FreeRTOS/Source/event_groups.c **** 		} /*lint !e529 xSize is referenced if configASSERT() is defined. */
 133              		.loc 1 106 51 is_stmt 1 view .LVU31
 134              	.LBE63:
 111:Middlewares/Third_Party/FreeRTOS/Source/event_groups.c **** 
 135              		.loc 1 111 3 view .LVU32
ARM GAS  /tmp/ccZCJYQx.s 			page 9


 136              	.LVL3:
 113:Middlewares/Third_Party/FreeRTOS/Source/event_groups.c **** 		{
 137              		.loc 1 113 3 view .LVU33
 138              		.loc 1 115 4 view .LVU34
 139              		.loc 1 115 29 is_stmt 0 view .LVU35
 140 0038 40F8043B 		str	r3, [r0], #4
 141              	.LVL4:
 116:Middlewares/Third_Party/FreeRTOS/Source/event_groups.c **** 			vListInitialise( &( pxEventBits->xTasksWaitingForBits ) );
 142              		.loc 1 116 4 is_stmt 1 view .LVU36
 143 003c FFF7FEFF 		bl	vListInitialise
 144              	.LVL5:
 117:Middlewares/Third_Party/FreeRTOS/Source/event_groups.c **** 
 118:Middlewares/Third_Party/FreeRTOS/Source/event_groups.c **** 			#if( configSUPPORT_DYNAMIC_ALLOCATION == 1 )
 119:Middlewares/Third_Party/FreeRTOS/Source/event_groups.c **** 			{
 120:Middlewares/Third_Party/FreeRTOS/Source/event_groups.c **** 				/* Both static and dynamic allocation can be used, so note that
 121:Middlewares/Third_Party/FreeRTOS/Source/event_groups.c **** 				this event group was created statically in case the event group
 122:Middlewares/Third_Party/FreeRTOS/Source/event_groups.c **** 				is later deleted. */
 123:Middlewares/Third_Party/FreeRTOS/Source/event_groups.c **** 				pxEventBits->ucStaticallyAllocated = pdTRUE;
 145              		.loc 1 123 5 view .LVU37
 146              		.loc 1 123 40 is_stmt 0 view .LVU38
 147 0040 0123     		movs	r3, #1
 124:Middlewares/Third_Party/FreeRTOS/Source/event_groups.c **** 			}
 125:Middlewares/Third_Party/FreeRTOS/Source/event_groups.c **** 			#endif /* configSUPPORT_DYNAMIC_ALLOCATION */
 126:Middlewares/Third_Party/FreeRTOS/Source/event_groups.c **** 
 127:Middlewares/Third_Party/FreeRTOS/Source/event_groups.c **** 			traceEVENT_GROUP_CREATE( pxEventBits );
 128:Middlewares/Third_Party/FreeRTOS/Source/event_groups.c **** 		}
 129:Middlewares/Third_Party/FreeRTOS/Source/event_groups.c **** 		else
 130:Middlewares/Third_Party/FreeRTOS/Source/event_groups.c **** 		{
 131:Middlewares/Third_Party/FreeRTOS/Source/event_groups.c **** 			/* xEventGroupCreateStatic should only ever be called with
 132:Middlewares/Third_Party/FreeRTOS/Source/event_groups.c **** 			pxEventGroupBuffer pointing to a pre-allocated (compile time
 133:Middlewares/Third_Party/FreeRTOS/Source/event_groups.c **** 			allocated) StaticEventGroup_t variable. */
 134:Middlewares/Third_Party/FreeRTOS/Source/event_groups.c **** 			traceEVENT_GROUP_CREATE_FAILED();
 135:Middlewares/Third_Party/FreeRTOS/Source/event_groups.c **** 		}
 136:Middlewares/Third_Party/FreeRTOS/Source/event_groups.c **** 
 137:Middlewares/Third_Party/FreeRTOS/Source/event_groups.c **** 		return pxEventBits;
 138:Middlewares/Third_Party/FreeRTOS/Source/event_groups.c **** 	}
 148              		.loc 1 138 2 view .LVU39
 149 0042 2046     		mov	r0, r4
 123:Middlewares/Third_Party/FreeRTOS/Source/event_groups.c **** 			}
 150              		.loc 1 123 40 view .LVU40
 151 0044 2377     		strb	r3, [r4, #28]
 127:Middlewares/Third_Party/FreeRTOS/Source/event_groups.c **** 		}
 152              		.loc 1 127 42 is_stmt 1 view .LVU41
 134:Middlewares/Third_Party/FreeRTOS/Source/event_groups.c **** 		}
 153              		.loc 1 134 36 view .LVU42
 137:Middlewares/Third_Party/FreeRTOS/Source/event_groups.c **** 	}
 154              		.loc 1 137 3 view .LVU43
 155              		.loc 1 138 2 is_stmt 0 view .LVU44
 156 0046 02B0     		add	sp, sp, #8
 157              	.LCFI4:
 158              		.cfi_def_cfa_offset 8
 159              		@ sp needed
 160 0048 10BD     		pop	{r4, pc}
 161              		.loc 1 138 2 view .LVU45
 162              		.cfi_endproc
 163              	.LFE4:
 165 004a 00BF     		.section	.text.xEventGroupCreate,"ax",%progbits
ARM GAS  /tmp/ccZCJYQx.s 			page 10


 166              		.align	1
 167              		.p2align 2,,3
 168              		.global	xEventGroupCreate
 169              		.syntax unified
 170              		.thumb
 171              		.thumb_func
 172              		.fpu fpv4-sp-d16
 174              	xEventGroupCreate:
 175              	.LFB5:
 139:Middlewares/Third_Party/FreeRTOS/Source/event_groups.c **** 
 140:Middlewares/Third_Party/FreeRTOS/Source/event_groups.c **** #endif /* configSUPPORT_STATIC_ALLOCATION */
 141:Middlewares/Third_Party/FreeRTOS/Source/event_groups.c **** /*-----------------------------------------------------------*/
 142:Middlewares/Third_Party/FreeRTOS/Source/event_groups.c **** 
 143:Middlewares/Third_Party/FreeRTOS/Source/event_groups.c **** #if( configSUPPORT_DYNAMIC_ALLOCATION == 1 )
 144:Middlewares/Third_Party/FreeRTOS/Source/event_groups.c **** 
 145:Middlewares/Third_Party/FreeRTOS/Source/event_groups.c **** 	EventGroupHandle_t xEventGroupCreate( void )
 146:Middlewares/Third_Party/FreeRTOS/Source/event_groups.c **** 	{
 176              		.loc 1 146 2 is_stmt 1 view -0
 177              		.cfi_startproc
 178              		@ args = 0, pretend = 0, frame = 0
 179              		@ frame_needed = 0, uses_anonymous_args = 0
 147:Middlewares/Third_Party/FreeRTOS/Source/event_groups.c **** 	EventGroup_t *pxEventBits;
 180              		.loc 1 147 2 view .LVU47
 148:Middlewares/Third_Party/FreeRTOS/Source/event_groups.c **** 
 149:Middlewares/Third_Party/FreeRTOS/Source/event_groups.c **** 		/* Allocate the event group.  Justification for MISRA deviation as
 150:Middlewares/Third_Party/FreeRTOS/Source/event_groups.c **** 		follows:  pvPortMalloc() always ensures returned memory blocks are
 151:Middlewares/Third_Party/FreeRTOS/Source/event_groups.c **** 		aligned per the requirements of the MCU stack.  In this case
 152:Middlewares/Third_Party/FreeRTOS/Source/event_groups.c **** 		pvPortMalloc() must return a pointer that is guaranteed to meet the
 153:Middlewares/Third_Party/FreeRTOS/Source/event_groups.c **** 		alignment requirements of the EventGroup_t structure - which (if you
 154:Middlewares/Third_Party/FreeRTOS/Source/event_groups.c **** 		follow it through) is the alignment requirements of the TickType_t type
 155:Middlewares/Third_Party/FreeRTOS/Source/event_groups.c **** 		(EventBits_t being of TickType_t itself).  Therefore, whenever the
 156:Middlewares/Third_Party/FreeRTOS/Source/event_groups.c **** 		stack alignment requirements are greater than or equal to the
 157:Middlewares/Third_Party/FreeRTOS/Source/event_groups.c **** 		TickType_t alignment requirements the cast is safe.  In other cases,
 158:Middlewares/Third_Party/FreeRTOS/Source/event_groups.c **** 		where the natural word size of the architecture is less than
 159:Middlewares/Third_Party/FreeRTOS/Source/event_groups.c **** 		sizeof( TickType_t ), the TickType_t variables will be accessed in two
 160:Middlewares/Third_Party/FreeRTOS/Source/event_groups.c **** 		or more reads operations, and the alignment requirements is only that
 161:Middlewares/Third_Party/FreeRTOS/Source/event_groups.c **** 		of each individual read. */
 162:Middlewares/Third_Party/FreeRTOS/Source/event_groups.c **** 		pxEventBits = ( EventGroup_t * ) pvPortMalloc( sizeof( EventGroup_t ) ); /*lint !e9087 !e9079 see
 181              		.loc 1 162 3 view .LVU48
 146:Middlewares/Third_Party/FreeRTOS/Source/event_groups.c **** 	EventGroup_t *pxEventBits;
 182              		.loc 1 146 2 is_stmt 0 view .LVU49
 183 0000 38B5     		push	{r3, r4, r5, lr}
 184              	.LCFI5:
 185              		.cfi_def_cfa_offset 16
 186              		.cfi_offset 3, -16
 187              		.cfi_offset 4, -12
 188              		.cfi_offset 5, -8
 189              		.cfi_offset 14, -4
 190              		.loc 1 162 36 view .LVU50
 191 0002 2020     		movs	r0, #32
 192 0004 FFF7FEFF 		bl	pvPortMalloc
 193              	.LVL6:
 163:Middlewares/Third_Party/FreeRTOS/Source/event_groups.c **** 
 164:Middlewares/Third_Party/FreeRTOS/Source/event_groups.c **** 		if( pxEventBits != NULL )
 194              		.loc 1 164 3 is_stmt 1 view .LVU51
 195              		.loc 1 164 5 is_stmt 0 view .LVU52
 196 0008 0446     		mov	r4, r0
ARM GAS  /tmp/ccZCJYQx.s 			page 11


 197 000a 28B1     		cbz	r0, .L10
 165:Middlewares/Third_Party/FreeRTOS/Source/event_groups.c **** 		{
 166:Middlewares/Third_Party/FreeRTOS/Source/event_groups.c **** 			pxEventBits->uxEventBits = 0;
 198              		.loc 1 166 4 is_stmt 1 view .LVU53
 199              		.loc 1 166 29 is_stmt 0 view .LVU54
 200 000c 0025     		movs	r5, #0
 201 000e 40F8045B 		str	r5, [r0], #4
 202              	.LVL7:
 167:Middlewares/Third_Party/FreeRTOS/Source/event_groups.c **** 			vListInitialise( &( pxEventBits->xTasksWaitingForBits ) );
 203              		.loc 1 167 4 is_stmt 1 view .LVU55
 204 0012 FFF7FEFF 		bl	vListInitialise
 205              	.LVL8:
 168:Middlewares/Third_Party/FreeRTOS/Source/event_groups.c **** 
 169:Middlewares/Third_Party/FreeRTOS/Source/event_groups.c **** 			#if( configSUPPORT_STATIC_ALLOCATION == 1 )
 170:Middlewares/Third_Party/FreeRTOS/Source/event_groups.c **** 			{
 171:Middlewares/Third_Party/FreeRTOS/Source/event_groups.c **** 				/* Both static and dynamic allocation can be used, so note this
 172:Middlewares/Third_Party/FreeRTOS/Source/event_groups.c **** 				event group was allocated statically in case the event group is
 173:Middlewares/Third_Party/FreeRTOS/Source/event_groups.c **** 				later deleted. */
 174:Middlewares/Third_Party/FreeRTOS/Source/event_groups.c **** 				pxEventBits->ucStaticallyAllocated = pdFALSE;
 206              		.loc 1 174 5 view .LVU56
 207              		.loc 1 174 40 is_stmt 0 view .LVU57
 208 0016 2577     		strb	r5, [r4, #28]
 175:Middlewares/Third_Party/FreeRTOS/Source/event_groups.c **** 			}
 176:Middlewares/Third_Party/FreeRTOS/Source/event_groups.c **** 			#endif /* configSUPPORT_STATIC_ALLOCATION */
 177:Middlewares/Third_Party/FreeRTOS/Source/event_groups.c **** 
 178:Middlewares/Third_Party/FreeRTOS/Source/event_groups.c **** 			traceEVENT_GROUP_CREATE( pxEventBits );
 209              		.loc 1 178 42 is_stmt 1 view .LVU58
 179:Middlewares/Third_Party/FreeRTOS/Source/event_groups.c **** 		}
 180:Middlewares/Third_Party/FreeRTOS/Source/event_groups.c **** 		else
 181:Middlewares/Third_Party/FreeRTOS/Source/event_groups.c **** 		{
 182:Middlewares/Third_Party/FreeRTOS/Source/event_groups.c **** 			traceEVENT_GROUP_CREATE_FAILED(); /*lint !e9063 Else branch only exists to allow tracing and doe
 210              		.loc 1 182 36 view .LVU59
 183:Middlewares/Third_Party/FreeRTOS/Source/event_groups.c **** 		}
 184:Middlewares/Third_Party/FreeRTOS/Source/event_groups.c **** 
 185:Middlewares/Third_Party/FreeRTOS/Source/event_groups.c **** 		return pxEventBits;
 211              		.loc 1 185 3 view .LVU60
 212              	.L10:
 186:Middlewares/Third_Party/FreeRTOS/Source/event_groups.c **** 	}
 213              		.loc 1 186 2 is_stmt 0 view .LVU61
 214 0018 2046     		mov	r0, r4
 215 001a 38BD     		pop	{r3, r4, r5, pc}
 216              		.loc 1 186 2 view .LVU62
 217              		.cfi_endproc
 218              	.LFE5:
 220              		.section	.text.xEventGroupWaitBits,"ax",%progbits
 221              		.align	1
 222              		.p2align 2,,3
 223              		.global	xEventGroupWaitBits
 224              		.syntax unified
 225              		.thumb
 226              		.thumb_func
 227              		.fpu fpv4-sp-d16
 229              	xEventGroupWaitBits:
 230              	.LVL9:
 231              	.LFB7:
 187:Middlewares/Third_Party/FreeRTOS/Source/event_groups.c **** 
 188:Middlewares/Third_Party/FreeRTOS/Source/event_groups.c **** #endif /* configSUPPORT_DYNAMIC_ALLOCATION */
ARM GAS  /tmp/ccZCJYQx.s 			page 12


 189:Middlewares/Third_Party/FreeRTOS/Source/event_groups.c **** /*-----------------------------------------------------------*/
 190:Middlewares/Third_Party/FreeRTOS/Source/event_groups.c **** 
 191:Middlewares/Third_Party/FreeRTOS/Source/event_groups.c **** EventBits_t xEventGroupSync( EventGroupHandle_t xEventGroup, const EventBits_t uxBitsToSet, const E
 192:Middlewares/Third_Party/FreeRTOS/Source/event_groups.c **** {
 193:Middlewares/Third_Party/FreeRTOS/Source/event_groups.c **** EventBits_t uxOriginalBitValue, uxReturn;
 194:Middlewares/Third_Party/FreeRTOS/Source/event_groups.c **** EventGroup_t *pxEventBits = xEventGroup;
 195:Middlewares/Third_Party/FreeRTOS/Source/event_groups.c **** BaseType_t xAlreadyYielded;
 196:Middlewares/Third_Party/FreeRTOS/Source/event_groups.c **** BaseType_t xTimeoutOccurred = pdFALSE;
 197:Middlewares/Third_Party/FreeRTOS/Source/event_groups.c **** 
 198:Middlewares/Third_Party/FreeRTOS/Source/event_groups.c **** 	configASSERT( ( uxBitsToWaitFor & eventEVENT_BITS_CONTROL_BYTES ) == 0 );
 199:Middlewares/Third_Party/FreeRTOS/Source/event_groups.c **** 	configASSERT( uxBitsToWaitFor != 0 );
 200:Middlewares/Third_Party/FreeRTOS/Source/event_groups.c **** 	#if ( ( INCLUDE_xTaskGetSchedulerState == 1 ) || ( configUSE_TIMERS == 1 ) )
 201:Middlewares/Third_Party/FreeRTOS/Source/event_groups.c **** 	{
 202:Middlewares/Third_Party/FreeRTOS/Source/event_groups.c **** 		configASSERT( !( ( xTaskGetSchedulerState() == taskSCHEDULER_SUSPENDED ) && ( xTicksToWait != 0 )
 203:Middlewares/Third_Party/FreeRTOS/Source/event_groups.c **** 	}
 204:Middlewares/Third_Party/FreeRTOS/Source/event_groups.c **** 	#endif
 205:Middlewares/Third_Party/FreeRTOS/Source/event_groups.c **** 
 206:Middlewares/Third_Party/FreeRTOS/Source/event_groups.c **** 	vTaskSuspendAll();
 207:Middlewares/Third_Party/FreeRTOS/Source/event_groups.c **** 	{
 208:Middlewares/Third_Party/FreeRTOS/Source/event_groups.c **** 		uxOriginalBitValue = pxEventBits->uxEventBits;
 209:Middlewares/Third_Party/FreeRTOS/Source/event_groups.c **** 
 210:Middlewares/Third_Party/FreeRTOS/Source/event_groups.c **** 		( void ) xEventGroupSetBits( xEventGroup, uxBitsToSet );
 211:Middlewares/Third_Party/FreeRTOS/Source/event_groups.c **** 
 212:Middlewares/Third_Party/FreeRTOS/Source/event_groups.c **** 		if( ( ( uxOriginalBitValue | uxBitsToSet ) & uxBitsToWaitFor ) == uxBitsToWaitFor )
 213:Middlewares/Third_Party/FreeRTOS/Source/event_groups.c **** 		{
 214:Middlewares/Third_Party/FreeRTOS/Source/event_groups.c **** 			/* All the rendezvous bits are now set - no need to block. */
 215:Middlewares/Third_Party/FreeRTOS/Source/event_groups.c **** 			uxReturn = ( uxOriginalBitValue | uxBitsToSet );
 216:Middlewares/Third_Party/FreeRTOS/Source/event_groups.c **** 
 217:Middlewares/Third_Party/FreeRTOS/Source/event_groups.c **** 			/* Rendezvous always clear the bits.  They will have been cleared
 218:Middlewares/Third_Party/FreeRTOS/Source/event_groups.c **** 			already unless this is the only task in the rendezvous. */
 219:Middlewares/Third_Party/FreeRTOS/Source/event_groups.c **** 			pxEventBits->uxEventBits &= ~uxBitsToWaitFor;
 220:Middlewares/Third_Party/FreeRTOS/Source/event_groups.c **** 
 221:Middlewares/Third_Party/FreeRTOS/Source/event_groups.c **** 			xTicksToWait = 0;
 222:Middlewares/Third_Party/FreeRTOS/Source/event_groups.c **** 		}
 223:Middlewares/Third_Party/FreeRTOS/Source/event_groups.c **** 		else
 224:Middlewares/Third_Party/FreeRTOS/Source/event_groups.c **** 		{
 225:Middlewares/Third_Party/FreeRTOS/Source/event_groups.c **** 			if( xTicksToWait != ( TickType_t ) 0 )
 226:Middlewares/Third_Party/FreeRTOS/Source/event_groups.c **** 			{
 227:Middlewares/Third_Party/FreeRTOS/Source/event_groups.c **** 				traceEVENT_GROUP_SYNC_BLOCK( xEventGroup, uxBitsToSet, uxBitsToWaitFor );
 228:Middlewares/Third_Party/FreeRTOS/Source/event_groups.c **** 
 229:Middlewares/Third_Party/FreeRTOS/Source/event_groups.c **** 				/* Store the bits that the calling task is waiting for in the
 230:Middlewares/Third_Party/FreeRTOS/Source/event_groups.c **** 				task's event list item so the kernel knows when a match is
 231:Middlewares/Third_Party/FreeRTOS/Source/event_groups.c **** 				found.  Then enter the blocked state. */
 232:Middlewares/Third_Party/FreeRTOS/Source/event_groups.c **** 				vTaskPlaceOnUnorderedEventList( &( pxEventBits->xTasksWaitingForBits ), ( uxBitsToWaitFor | eve
 233:Middlewares/Third_Party/FreeRTOS/Source/event_groups.c **** 
 234:Middlewares/Third_Party/FreeRTOS/Source/event_groups.c **** 				/* This assignment is obsolete as uxReturn will get set after
 235:Middlewares/Third_Party/FreeRTOS/Source/event_groups.c **** 				the task unblocks, but some compilers mistakenly generate a
 236:Middlewares/Third_Party/FreeRTOS/Source/event_groups.c **** 				warning about uxReturn being returned without being set if the
 237:Middlewares/Third_Party/FreeRTOS/Source/event_groups.c **** 				assignment is omitted. */
 238:Middlewares/Third_Party/FreeRTOS/Source/event_groups.c **** 				uxReturn = 0;
 239:Middlewares/Third_Party/FreeRTOS/Source/event_groups.c **** 			}
 240:Middlewares/Third_Party/FreeRTOS/Source/event_groups.c **** 			else
 241:Middlewares/Third_Party/FreeRTOS/Source/event_groups.c **** 			{
 242:Middlewares/Third_Party/FreeRTOS/Source/event_groups.c **** 				/* The rendezvous bits were not set, but no block time was
 243:Middlewares/Third_Party/FreeRTOS/Source/event_groups.c **** 				specified - just return the current event bit value. */
 244:Middlewares/Third_Party/FreeRTOS/Source/event_groups.c **** 				uxReturn = pxEventBits->uxEventBits;
 245:Middlewares/Third_Party/FreeRTOS/Source/event_groups.c **** 				xTimeoutOccurred = pdTRUE;
ARM GAS  /tmp/ccZCJYQx.s 			page 13


 246:Middlewares/Third_Party/FreeRTOS/Source/event_groups.c **** 			}
 247:Middlewares/Third_Party/FreeRTOS/Source/event_groups.c **** 		}
 248:Middlewares/Third_Party/FreeRTOS/Source/event_groups.c **** 	}
 249:Middlewares/Third_Party/FreeRTOS/Source/event_groups.c **** 	xAlreadyYielded = xTaskResumeAll();
 250:Middlewares/Third_Party/FreeRTOS/Source/event_groups.c **** 
 251:Middlewares/Third_Party/FreeRTOS/Source/event_groups.c **** 	if( xTicksToWait != ( TickType_t ) 0 )
 252:Middlewares/Third_Party/FreeRTOS/Source/event_groups.c **** 	{
 253:Middlewares/Third_Party/FreeRTOS/Source/event_groups.c **** 		if( xAlreadyYielded == pdFALSE )
 254:Middlewares/Third_Party/FreeRTOS/Source/event_groups.c **** 		{
 255:Middlewares/Third_Party/FreeRTOS/Source/event_groups.c **** 			portYIELD_WITHIN_API();
 256:Middlewares/Third_Party/FreeRTOS/Source/event_groups.c **** 		}
 257:Middlewares/Third_Party/FreeRTOS/Source/event_groups.c **** 		else
 258:Middlewares/Third_Party/FreeRTOS/Source/event_groups.c **** 		{
 259:Middlewares/Third_Party/FreeRTOS/Source/event_groups.c **** 			mtCOVERAGE_TEST_MARKER();
 260:Middlewares/Third_Party/FreeRTOS/Source/event_groups.c **** 		}
 261:Middlewares/Third_Party/FreeRTOS/Source/event_groups.c **** 
 262:Middlewares/Third_Party/FreeRTOS/Source/event_groups.c **** 		/* The task blocked to wait for its required bits to be set - at this
 263:Middlewares/Third_Party/FreeRTOS/Source/event_groups.c **** 		point either the required bits were set or the block time expired.  If
 264:Middlewares/Third_Party/FreeRTOS/Source/event_groups.c **** 		the required bits were set they will have been stored in the task's
 265:Middlewares/Third_Party/FreeRTOS/Source/event_groups.c **** 		event list item, and they should now be retrieved then cleared. */
 266:Middlewares/Third_Party/FreeRTOS/Source/event_groups.c **** 		uxReturn = uxTaskResetEventItemValue();
 267:Middlewares/Third_Party/FreeRTOS/Source/event_groups.c **** 
 268:Middlewares/Third_Party/FreeRTOS/Source/event_groups.c **** 		if( ( uxReturn & eventUNBLOCKED_DUE_TO_BIT_SET ) == ( EventBits_t ) 0 )
 269:Middlewares/Third_Party/FreeRTOS/Source/event_groups.c **** 		{
 270:Middlewares/Third_Party/FreeRTOS/Source/event_groups.c **** 			/* The task timed out, just return the current event bit value. */
 271:Middlewares/Third_Party/FreeRTOS/Source/event_groups.c **** 			taskENTER_CRITICAL();
 272:Middlewares/Third_Party/FreeRTOS/Source/event_groups.c **** 			{
 273:Middlewares/Third_Party/FreeRTOS/Source/event_groups.c **** 				uxReturn = pxEventBits->uxEventBits;
 274:Middlewares/Third_Party/FreeRTOS/Source/event_groups.c **** 
 275:Middlewares/Third_Party/FreeRTOS/Source/event_groups.c **** 				/* Although the task got here because it timed out before the
 276:Middlewares/Third_Party/FreeRTOS/Source/event_groups.c **** 				bits it was waiting for were set, it is possible that since it
 277:Middlewares/Third_Party/FreeRTOS/Source/event_groups.c **** 				unblocked another task has set the bits.  If this is the case
 278:Middlewares/Third_Party/FreeRTOS/Source/event_groups.c **** 				then it needs to clear the bits before exiting. */
 279:Middlewares/Third_Party/FreeRTOS/Source/event_groups.c **** 				if( ( uxReturn & uxBitsToWaitFor ) == uxBitsToWaitFor )
 280:Middlewares/Third_Party/FreeRTOS/Source/event_groups.c **** 				{
 281:Middlewares/Third_Party/FreeRTOS/Source/event_groups.c **** 					pxEventBits->uxEventBits &= ~uxBitsToWaitFor;
 282:Middlewares/Third_Party/FreeRTOS/Source/event_groups.c **** 				}
 283:Middlewares/Third_Party/FreeRTOS/Source/event_groups.c **** 				else
 284:Middlewares/Third_Party/FreeRTOS/Source/event_groups.c **** 				{
 285:Middlewares/Third_Party/FreeRTOS/Source/event_groups.c **** 					mtCOVERAGE_TEST_MARKER();
 286:Middlewares/Third_Party/FreeRTOS/Source/event_groups.c **** 				}
 287:Middlewares/Third_Party/FreeRTOS/Source/event_groups.c **** 			}
 288:Middlewares/Third_Party/FreeRTOS/Source/event_groups.c **** 			taskEXIT_CRITICAL();
 289:Middlewares/Third_Party/FreeRTOS/Source/event_groups.c **** 
 290:Middlewares/Third_Party/FreeRTOS/Source/event_groups.c **** 			xTimeoutOccurred = pdTRUE;
 291:Middlewares/Third_Party/FreeRTOS/Source/event_groups.c **** 		}
 292:Middlewares/Third_Party/FreeRTOS/Source/event_groups.c **** 		else
 293:Middlewares/Third_Party/FreeRTOS/Source/event_groups.c **** 		{
 294:Middlewares/Third_Party/FreeRTOS/Source/event_groups.c **** 			/* The task unblocked because the bits were set. */
 295:Middlewares/Third_Party/FreeRTOS/Source/event_groups.c **** 		}
 296:Middlewares/Third_Party/FreeRTOS/Source/event_groups.c **** 
 297:Middlewares/Third_Party/FreeRTOS/Source/event_groups.c **** 		/* Control bits might be set as the task had blocked should not be
 298:Middlewares/Third_Party/FreeRTOS/Source/event_groups.c **** 		returned. */
 299:Middlewares/Third_Party/FreeRTOS/Source/event_groups.c **** 		uxReturn &= ~eventEVENT_BITS_CONTROL_BYTES;
 300:Middlewares/Third_Party/FreeRTOS/Source/event_groups.c **** 	}
 301:Middlewares/Third_Party/FreeRTOS/Source/event_groups.c **** 
 302:Middlewares/Third_Party/FreeRTOS/Source/event_groups.c **** 	traceEVENT_GROUP_SYNC_END( xEventGroup, uxBitsToSet, uxBitsToWaitFor, xTimeoutOccurred );
ARM GAS  /tmp/ccZCJYQx.s 			page 14


 303:Middlewares/Third_Party/FreeRTOS/Source/event_groups.c **** 
 304:Middlewares/Third_Party/FreeRTOS/Source/event_groups.c **** 	/* Prevent compiler warnings when trace macros are not used. */
 305:Middlewares/Third_Party/FreeRTOS/Source/event_groups.c **** 	( void ) xTimeoutOccurred;
 306:Middlewares/Third_Party/FreeRTOS/Source/event_groups.c **** 
 307:Middlewares/Third_Party/FreeRTOS/Source/event_groups.c **** 	return uxReturn;
 308:Middlewares/Third_Party/FreeRTOS/Source/event_groups.c **** }
 309:Middlewares/Third_Party/FreeRTOS/Source/event_groups.c **** /*-----------------------------------------------------------*/
 310:Middlewares/Third_Party/FreeRTOS/Source/event_groups.c **** 
 311:Middlewares/Third_Party/FreeRTOS/Source/event_groups.c **** EventBits_t xEventGroupWaitBits( EventGroupHandle_t xEventGroup, const EventBits_t uxBitsToWaitFor,
 312:Middlewares/Third_Party/FreeRTOS/Source/event_groups.c **** {
 232              		.loc 1 312 1 is_stmt 1 view -0
 233              		.cfi_startproc
 234              		@ args = 4, pretend = 0, frame = 0
 235              		@ frame_needed = 0, uses_anonymous_args = 0
 236              		.loc 1 312 1 is_stmt 0 view .LVU64
 237 0000 2DE9F047 		push	{r4, r5, r6, r7, r8, r9, r10, lr}
 238              	.LCFI6:
 239              		.cfi_def_cfa_offset 32
 240              		.cfi_offset 4, -32
 241              		.cfi_offset 5, -28
 242              		.cfi_offset 6, -24
 243              		.cfi_offset 7, -20
 244              		.cfi_offset 8, -16
 245              		.cfi_offset 9, -12
 246              		.cfi_offset 10, -8
 247              		.cfi_offset 14, -4
 313:Middlewares/Third_Party/FreeRTOS/Source/event_groups.c **** EventGroup_t *pxEventBits = xEventGroup;
 248              		.loc 1 313 1 is_stmt 1 view .LVU65
 249              	.LVL10:
 314:Middlewares/Third_Party/FreeRTOS/Source/event_groups.c **** EventBits_t uxReturn, uxControlBits = 0;
 250              		.loc 1 314 1 view .LVU66
 315:Middlewares/Third_Party/FreeRTOS/Source/event_groups.c **** BaseType_t xWaitConditionMet, xAlreadyYielded;
 251              		.loc 1 315 1 view .LVU67
 316:Middlewares/Third_Party/FreeRTOS/Source/event_groups.c **** BaseType_t xTimeoutOccurred = pdFALSE;
 252              		.loc 1 316 1 view .LVU68
 317:Middlewares/Third_Party/FreeRTOS/Source/event_groups.c **** 
 318:Middlewares/Third_Party/FreeRTOS/Source/event_groups.c **** 	/* Check the user is not attempting to wait on the bits used by the kernel
 319:Middlewares/Third_Party/FreeRTOS/Source/event_groups.c **** 	itself, and that at least one bit is being requested. */
 320:Middlewares/Third_Party/FreeRTOS/Source/event_groups.c **** 	configASSERT( xEventGroup );
 253              		.loc 1 320 2 view .LVU69
 312:Middlewares/Third_Party/FreeRTOS/Source/event_groups.c **** EventGroup_t *pxEventBits = xEventGroup;
 254              		.loc 1 312 1 is_stmt 0 view .LVU70
 255 0004 DDF820A0 		ldr	r10, [sp, #32]
 256              		.loc 1 320 2 view .LVU71
 257 0008 B0B1     		cbz	r0, .L50
 258              		.loc 1 320 29 is_stmt 1 discriminator 2 view .LVU72
 321:Middlewares/Third_Party/FreeRTOS/Source/event_groups.c **** 	configASSERT( ( uxBitsToWaitFor & eventEVENT_BITS_CONTROL_BYTES ) == 0 );
 259              		.loc 1 321 2 discriminator 2 view .LVU73
 260 000a 11F07F49 		ands	r9, r1, #-16777216
 261 000e 0C46     		mov	r4, r1
 262 0010 09D1     		bne	.L51
 263              		.loc 1 321 74 discriminator 2 view .LVU74
 322:Middlewares/Third_Party/FreeRTOS/Source/event_groups.c **** 	configASSERT( uxBitsToWaitFor != 0 );
 264              		.loc 1 322 2 discriminator 2 view .LVU75
 265 0012 D1B9     		cbnz	r1, .L21
 266              		.loc 1 322 2 view .LVU76
 267              	.LBB64:
ARM GAS  /tmp/ccZCJYQx.s 			page 15


 268              	.LBI64:
 191:Middlewares/Third_Party/FreeRTOS/Source/portable/GCC/ARM_CM4F/portmacro.h **** {
 269              		.loc 2 191 30 view .LVU77
 270              	.LBB65:
 193:Middlewares/Third_Party/FreeRTOS/Source/portable/GCC/ARM_CM4F/portmacro.h **** 
 271              		.loc 2 193 1 view .LVU78
 272              		.loc 2 195 2 view .LVU79
 273              		.syntax unified
 274              	@ 195 "Middlewares/Third_Party/FreeRTOS/Source/portable/GCC/ARM_CM4F/portmacro.h" 1
 275 0014 4FF05003 			mov r3, #80												
 276 0018 83F31188 		msr basepri, r3											
 277 001c BFF36F8F 		isb														
 278 0020 BFF34F8F 		dsb														
 279              	
 280              	@ 0 "" 2
 281              	.LVL11:
 282              		.thumb
 283              		.syntax unified
 284              	.L22:
 285              		.loc 2 195 2 is_stmt 0 view .LVU80
 286              	.LBE65:
 287              	.LBE64:
 288              		.loc 1 322 2 is_stmt 1 discriminator 3 view .LVU81
 289              		.loc 1 322 2 discriminator 3 view .LVU82
 290              		.loc 1 322 2 discriminator 3 view .LVU83
 291              		.loc 1 322 2 discriminator 3 view .LVU84
 292              		.loc 1 322 2 discriminator 3 view .LVU85
 293              		.loc 1 322 2 discriminator 3 view .LVU86
 294 0024 FEE7     		b	.L22
 295              	.LVL12:
 296              	.L51:
 321:Middlewares/Third_Party/FreeRTOS/Source/event_groups.c **** 	configASSERT( uxBitsToWaitFor != 0 );
 297              		.loc 1 321 2 view .LVU87
 298              	.LBB66:
 299              	.LBI66:
 191:Middlewares/Third_Party/FreeRTOS/Source/portable/GCC/ARM_CM4F/portmacro.h **** {
 300              		.loc 2 191 30 view .LVU88
 301              	.LBB67:
 193:Middlewares/Third_Party/FreeRTOS/Source/portable/GCC/ARM_CM4F/portmacro.h **** 
 302              		.loc 2 193 1 view .LVU89
 303              		.loc 2 195 2 view .LVU90
 304              		.syntax unified
 305              	@ 195 "Middlewares/Third_Party/FreeRTOS/Source/portable/GCC/ARM_CM4F/portmacro.h" 1
 306 0026 4FF05003 			mov r3, #80												
 307 002a 83F31188 		msr basepri, r3											
 308 002e BFF36F8F 		isb														
 309 0032 BFF34F8F 		dsb														
 310              	
 311              	@ 0 "" 2
 312              	.LVL13:
 313              		.thumb
 314              		.syntax unified
 315              	.L20:
 316              		.loc 2 195 2 is_stmt 0 view .LVU91
 317              	.LBE67:
 318              	.LBE66:
 321:Middlewares/Third_Party/FreeRTOS/Source/event_groups.c **** 	configASSERT( uxBitsToWaitFor != 0 );
ARM GAS  /tmp/ccZCJYQx.s 			page 16


 319              		.loc 1 321 2 is_stmt 1 discriminator 2 view .LVU92
 321:Middlewares/Third_Party/FreeRTOS/Source/event_groups.c **** 	configASSERT( uxBitsToWaitFor != 0 );
 320              		.loc 1 321 2 discriminator 2 view .LVU93
 321:Middlewares/Third_Party/FreeRTOS/Source/event_groups.c **** 	configASSERT( uxBitsToWaitFor != 0 );
 321              		.loc 1 321 2 discriminator 2 view .LVU94
 321:Middlewares/Third_Party/FreeRTOS/Source/event_groups.c **** 	configASSERT( uxBitsToWaitFor != 0 );
 322              		.loc 1 321 2 discriminator 2 view .LVU95
 321:Middlewares/Third_Party/FreeRTOS/Source/event_groups.c **** 	configASSERT( uxBitsToWaitFor != 0 );
 323              		.loc 1 321 2 discriminator 2 view .LVU96
 321:Middlewares/Third_Party/FreeRTOS/Source/event_groups.c **** 	configASSERT( uxBitsToWaitFor != 0 );
 324              		.loc 1 321 2 discriminator 2 view .LVU97
 325 0036 FEE7     		b	.L20
 326              	.LVL14:
 327              	.L50:
 320:Middlewares/Third_Party/FreeRTOS/Source/event_groups.c **** 	configASSERT( ( uxBitsToWaitFor & eventEVENT_BITS_CONTROL_BYTES ) == 0 );
 328              		.loc 1 320 2 view .LVU98
 329              	.LBB68:
 330              	.LBI68:
 191:Middlewares/Third_Party/FreeRTOS/Source/portable/GCC/ARM_CM4F/portmacro.h **** {
 331              		.loc 2 191 30 view .LVU99
 332              	.LBB69:
 193:Middlewares/Third_Party/FreeRTOS/Source/portable/GCC/ARM_CM4F/portmacro.h **** 
 333              		.loc 2 193 1 view .LVU100
 334              		.loc 2 195 2 view .LVU101
 335              		.syntax unified
 336              	@ 195 "Middlewares/Third_Party/FreeRTOS/Source/portable/GCC/ARM_CM4F/portmacro.h" 1
 337 0038 4FF05003 			mov r3, #80												
 338 003c 83F31188 		msr basepri, r3											
 339 0040 BFF36F8F 		isb														
 340 0044 BFF34F8F 		dsb														
 341              	
 342              	@ 0 "" 2
 343              	.LVL15:
 344              		.thumb
 345              		.syntax unified
 346              	.L18:
 347              		.loc 2 195 2 is_stmt 0 view .LVU102
 348              	.LBE69:
 349              	.LBE68:
 320:Middlewares/Third_Party/FreeRTOS/Source/event_groups.c **** 	configASSERT( ( uxBitsToWaitFor & eventEVENT_BITS_CONTROL_BYTES ) == 0 );
 350              		.loc 1 320 2 is_stmt 1 discriminator 1 view .LVU103
 320:Middlewares/Third_Party/FreeRTOS/Source/event_groups.c **** 	configASSERT( ( uxBitsToWaitFor & eventEVENT_BITS_CONTROL_BYTES ) == 0 );
 351              		.loc 1 320 2 discriminator 1 view .LVU104
 320:Middlewares/Third_Party/FreeRTOS/Source/event_groups.c **** 	configASSERT( ( uxBitsToWaitFor & eventEVENT_BITS_CONTROL_BYTES ) == 0 );
 352              		.loc 1 320 2 discriminator 1 view .LVU105
 320:Middlewares/Third_Party/FreeRTOS/Source/event_groups.c **** 	configASSERT( ( uxBitsToWaitFor & eventEVENT_BITS_CONTROL_BYTES ) == 0 );
 353              		.loc 1 320 2 discriminator 1 view .LVU106
 320:Middlewares/Third_Party/FreeRTOS/Source/event_groups.c **** 	configASSERT( ( uxBitsToWaitFor & eventEVENT_BITS_CONTROL_BYTES ) == 0 );
 354              		.loc 1 320 2 discriminator 1 view .LVU107
 320:Middlewares/Third_Party/FreeRTOS/Source/event_groups.c **** 	configASSERT( ( uxBitsToWaitFor & eventEVENT_BITS_CONTROL_BYTES ) == 0 );
 355              		.loc 1 320 2 discriminator 1 view .LVU108
 356 0048 FEE7     		b	.L18
 357              	.LVL16:
 358              	.L21:
 359              		.loc 1 322 38 discriminator 2 view .LVU109
 323:Middlewares/Third_Party/FreeRTOS/Source/event_groups.c **** 	#if ( ( INCLUDE_xTaskGetSchedulerState == 1 ) || ( configUSE_TIMERS == 1 ) )
 324:Middlewares/Third_Party/FreeRTOS/Source/event_groups.c **** 	{
ARM GAS  /tmp/ccZCJYQx.s 			page 17


 325:Middlewares/Third_Party/FreeRTOS/Source/event_groups.c **** 		configASSERT( !( ( xTaskGetSchedulerState() == taskSCHEDULER_SUSPENDED ) && ( xTicksToWait != 0 )
 360              		.loc 1 325 3 discriminator 2 view .LVU110
 361 004a 1746     		mov	r7, r2
 362 004c 9846     		mov	r8, r3
 363 004e 0646     		mov	r6, r0
 364 0050 FFF7FEFF 		bl	xTaskGetSchedulerState
 365              	.LVL17:
 366              		.loc 1 325 3 is_stmt 0 discriminator 2 view .LVU111
 367 0054 10B9     		cbnz	r0, .L23
 368              		.loc 1 325 3 discriminator 2 view .LVU112
 369 0056 BAF1000F 		cmp	r10, #0
 370 005a 2ED1     		bne	.L52
 371              	.L23:
 372              		.loc 1 325 104 is_stmt 1 discriminator 8 view .LVU113
 326:Middlewares/Third_Party/FreeRTOS/Source/event_groups.c **** 	}
 327:Middlewares/Third_Party/FreeRTOS/Source/event_groups.c **** 	#endif
 328:Middlewares/Third_Party/FreeRTOS/Source/event_groups.c **** 
 329:Middlewares/Third_Party/FreeRTOS/Source/event_groups.c **** 	vTaskSuspendAll();
 373              		.loc 1 329 2 discriminator 8 view .LVU114
 374 005c FFF7FEFF 		bl	vTaskSuspendAll
 375              	.LVL18:
 376              	.LBB70:
 330:Middlewares/Third_Party/FreeRTOS/Source/event_groups.c **** 	{
 331:Middlewares/Third_Party/FreeRTOS/Source/event_groups.c **** 		const EventBits_t uxCurrentEventBits = pxEventBits->uxEventBits;
 377              		.loc 1 331 3 discriminator 8 view .LVU115
 378              		.loc 1 331 21 is_stmt 0 discriminator 8 view .LVU116
 379 0060 3568     		ldr	r5, [r6]
 380              	.LVL19:
 332:Middlewares/Third_Party/FreeRTOS/Source/event_groups.c **** 
 333:Middlewares/Third_Party/FreeRTOS/Source/event_groups.c **** 		/* Check to see if the wait condition is already met or not. */
 334:Middlewares/Third_Party/FreeRTOS/Source/event_groups.c **** 		xWaitConditionMet = prvTestWaitCondition( uxCurrentEventBits, uxBitsToWaitFor, xWaitForAllBits );
 381              		.loc 1 334 3 is_stmt 1 discriminator 8 view .LVU117
 382              	.LBB71:
 383              	.LBI71:
 335:Middlewares/Third_Party/FreeRTOS/Source/event_groups.c **** 
 336:Middlewares/Third_Party/FreeRTOS/Source/event_groups.c **** 		if( xWaitConditionMet != pdFALSE )
 337:Middlewares/Third_Party/FreeRTOS/Source/event_groups.c **** 		{
 338:Middlewares/Third_Party/FreeRTOS/Source/event_groups.c **** 			/* The wait condition has already been met so there is no need to
 339:Middlewares/Third_Party/FreeRTOS/Source/event_groups.c **** 			block. */
 340:Middlewares/Third_Party/FreeRTOS/Source/event_groups.c **** 			uxReturn = uxCurrentEventBits;
 341:Middlewares/Third_Party/FreeRTOS/Source/event_groups.c **** 			xTicksToWait = ( TickType_t ) 0;
 342:Middlewares/Third_Party/FreeRTOS/Source/event_groups.c **** 
 343:Middlewares/Third_Party/FreeRTOS/Source/event_groups.c **** 			/* Clear the wait bits if requested to do so. */
 344:Middlewares/Third_Party/FreeRTOS/Source/event_groups.c **** 			if( xClearOnExit != pdFALSE )
 345:Middlewares/Third_Party/FreeRTOS/Source/event_groups.c **** 			{
 346:Middlewares/Third_Party/FreeRTOS/Source/event_groups.c **** 				pxEventBits->uxEventBits &= ~uxBitsToWaitFor;
 347:Middlewares/Third_Party/FreeRTOS/Source/event_groups.c **** 			}
 348:Middlewares/Third_Party/FreeRTOS/Source/event_groups.c **** 			else
 349:Middlewares/Third_Party/FreeRTOS/Source/event_groups.c **** 			{
 350:Middlewares/Third_Party/FreeRTOS/Source/event_groups.c **** 				mtCOVERAGE_TEST_MARKER();
 351:Middlewares/Third_Party/FreeRTOS/Source/event_groups.c **** 			}
 352:Middlewares/Third_Party/FreeRTOS/Source/event_groups.c **** 		}
 353:Middlewares/Third_Party/FreeRTOS/Source/event_groups.c **** 		else if( xTicksToWait == ( TickType_t ) 0 )
 354:Middlewares/Third_Party/FreeRTOS/Source/event_groups.c **** 		{
 355:Middlewares/Third_Party/FreeRTOS/Source/event_groups.c **** 			/* The wait condition has not been met, but no block time was
 356:Middlewares/Third_Party/FreeRTOS/Source/event_groups.c **** 			specified, so just return the current value. */
 357:Middlewares/Third_Party/FreeRTOS/Source/event_groups.c **** 			uxReturn = uxCurrentEventBits;
ARM GAS  /tmp/ccZCJYQx.s 			page 18


 358:Middlewares/Third_Party/FreeRTOS/Source/event_groups.c **** 			xTimeoutOccurred = pdTRUE;
 359:Middlewares/Third_Party/FreeRTOS/Source/event_groups.c **** 		}
 360:Middlewares/Third_Party/FreeRTOS/Source/event_groups.c **** 		else
 361:Middlewares/Third_Party/FreeRTOS/Source/event_groups.c **** 		{
 362:Middlewares/Third_Party/FreeRTOS/Source/event_groups.c **** 			/* The task is going to block to wait for its required bits to be
 363:Middlewares/Third_Party/FreeRTOS/Source/event_groups.c **** 			set.  uxControlBits are used to remember the specified behaviour of
 364:Middlewares/Third_Party/FreeRTOS/Source/event_groups.c **** 			this call to xEventGroupWaitBits() - for use when the event bits
 365:Middlewares/Third_Party/FreeRTOS/Source/event_groups.c **** 			unblock the task. */
 366:Middlewares/Third_Party/FreeRTOS/Source/event_groups.c **** 			if( xClearOnExit != pdFALSE )
 367:Middlewares/Third_Party/FreeRTOS/Source/event_groups.c **** 			{
 368:Middlewares/Third_Party/FreeRTOS/Source/event_groups.c **** 				uxControlBits |= eventCLEAR_EVENTS_ON_EXIT_BIT;
 369:Middlewares/Third_Party/FreeRTOS/Source/event_groups.c **** 			}
 370:Middlewares/Third_Party/FreeRTOS/Source/event_groups.c **** 			else
 371:Middlewares/Third_Party/FreeRTOS/Source/event_groups.c **** 			{
 372:Middlewares/Third_Party/FreeRTOS/Source/event_groups.c **** 				mtCOVERAGE_TEST_MARKER();
 373:Middlewares/Third_Party/FreeRTOS/Source/event_groups.c **** 			}
 374:Middlewares/Third_Party/FreeRTOS/Source/event_groups.c **** 
 375:Middlewares/Third_Party/FreeRTOS/Source/event_groups.c **** 			if( xWaitForAllBits != pdFALSE )
 376:Middlewares/Third_Party/FreeRTOS/Source/event_groups.c **** 			{
 377:Middlewares/Third_Party/FreeRTOS/Source/event_groups.c **** 				uxControlBits |= eventWAIT_FOR_ALL_BITS;
 378:Middlewares/Third_Party/FreeRTOS/Source/event_groups.c **** 			}
 379:Middlewares/Third_Party/FreeRTOS/Source/event_groups.c **** 			else
 380:Middlewares/Third_Party/FreeRTOS/Source/event_groups.c **** 			{
 381:Middlewares/Third_Party/FreeRTOS/Source/event_groups.c **** 				mtCOVERAGE_TEST_MARKER();
 382:Middlewares/Third_Party/FreeRTOS/Source/event_groups.c **** 			}
 383:Middlewares/Third_Party/FreeRTOS/Source/event_groups.c **** 
 384:Middlewares/Third_Party/FreeRTOS/Source/event_groups.c **** 			/* Store the bits that the calling task is waiting for in the
 385:Middlewares/Third_Party/FreeRTOS/Source/event_groups.c **** 			task's event list item so the kernel knows when a match is
 386:Middlewares/Third_Party/FreeRTOS/Source/event_groups.c **** 			found.  Then enter the blocked state. */
 387:Middlewares/Third_Party/FreeRTOS/Source/event_groups.c **** 			vTaskPlaceOnUnorderedEventList( &( pxEventBits->xTasksWaitingForBits ), ( uxBitsToWaitFor | uxCo
 388:Middlewares/Third_Party/FreeRTOS/Source/event_groups.c **** 
 389:Middlewares/Third_Party/FreeRTOS/Source/event_groups.c **** 			/* This is obsolete as it will get set after the task unblocks, but
 390:Middlewares/Third_Party/FreeRTOS/Source/event_groups.c **** 			some compilers mistakenly generate a warning about the variable
 391:Middlewares/Third_Party/FreeRTOS/Source/event_groups.c **** 			being returned without being set if it is not done. */
 392:Middlewares/Third_Party/FreeRTOS/Source/event_groups.c **** 			uxReturn = 0;
 393:Middlewares/Third_Party/FreeRTOS/Source/event_groups.c **** 
 394:Middlewares/Third_Party/FreeRTOS/Source/event_groups.c **** 			traceEVENT_GROUP_WAIT_BITS_BLOCK( xEventGroup, uxBitsToWaitFor );
 395:Middlewares/Third_Party/FreeRTOS/Source/event_groups.c **** 		}
 396:Middlewares/Third_Party/FreeRTOS/Source/event_groups.c **** 	}
 397:Middlewares/Third_Party/FreeRTOS/Source/event_groups.c **** 	xAlreadyYielded = xTaskResumeAll();
 398:Middlewares/Third_Party/FreeRTOS/Source/event_groups.c **** 
 399:Middlewares/Third_Party/FreeRTOS/Source/event_groups.c **** 	if( xTicksToWait != ( TickType_t ) 0 )
 400:Middlewares/Third_Party/FreeRTOS/Source/event_groups.c **** 	{
 401:Middlewares/Third_Party/FreeRTOS/Source/event_groups.c **** 		if( xAlreadyYielded == pdFALSE )
 402:Middlewares/Third_Party/FreeRTOS/Source/event_groups.c **** 		{
 403:Middlewares/Third_Party/FreeRTOS/Source/event_groups.c **** 			portYIELD_WITHIN_API();
 404:Middlewares/Third_Party/FreeRTOS/Source/event_groups.c **** 		}
 405:Middlewares/Third_Party/FreeRTOS/Source/event_groups.c **** 		else
 406:Middlewares/Third_Party/FreeRTOS/Source/event_groups.c **** 		{
 407:Middlewares/Third_Party/FreeRTOS/Source/event_groups.c **** 			mtCOVERAGE_TEST_MARKER();
 408:Middlewares/Third_Party/FreeRTOS/Source/event_groups.c **** 		}
 409:Middlewares/Third_Party/FreeRTOS/Source/event_groups.c **** 
 410:Middlewares/Third_Party/FreeRTOS/Source/event_groups.c **** 		/* The task blocked to wait for its required bits to be set - at this
 411:Middlewares/Third_Party/FreeRTOS/Source/event_groups.c **** 		point either the required bits were set or the block time expired.  If
 412:Middlewares/Third_Party/FreeRTOS/Source/event_groups.c **** 		the required bits were set they will have been stored in the task's
 413:Middlewares/Third_Party/FreeRTOS/Source/event_groups.c **** 		event list item, and they should now be retrieved then cleared. */
 414:Middlewares/Third_Party/FreeRTOS/Source/event_groups.c **** 		uxReturn = uxTaskResetEventItemValue();
ARM GAS  /tmp/ccZCJYQx.s 			page 19


 415:Middlewares/Third_Party/FreeRTOS/Source/event_groups.c **** 
 416:Middlewares/Third_Party/FreeRTOS/Source/event_groups.c **** 		if( ( uxReturn & eventUNBLOCKED_DUE_TO_BIT_SET ) == ( EventBits_t ) 0 )
 417:Middlewares/Third_Party/FreeRTOS/Source/event_groups.c **** 		{
 418:Middlewares/Third_Party/FreeRTOS/Source/event_groups.c **** 			taskENTER_CRITICAL();
 419:Middlewares/Third_Party/FreeRTOS/Source/event_groups.c **** 			{
 420:Middlewares/Third_Party/FreeRTOS/Source/event_groups.c **** 				/* The task timed out, just return the current event bit value. */
 421:Middlewares/Third_Party/FreeRTOS/Source/event_groups.c **** 				uxReturn = pxEventBits->uxEventBits;
 422:Middlewares/Third_Party/FreeRTOS/Source/event_groups.c **** 
 423:Middlewares/Third_Party/FreeRTOS/Source/event_groups.c **** 				/* It is possible that the event bits were updated between this
 424:Middlewares/Third_Party/FreeRTOS/Source/event_groups.c **** 				task leaving the Blocked state and running again. */
 425:Middlewares/Third_Party/FreeRTOS/Source/event_groups.c **** 				if( prvTestWaitCondition( uxReturn, uxBitsToWaitFor, xWaitForAllBits ) != pdFALSE )
 426:Middlewares/Third_Party/FreeRTOS/Source/event_groups.c **** 				{
 427:Middlewares/Third_Party/FreeRTOS/Source/event_groups.c **** 					if( xClearOnExit != pdFALSE )
 428:Middlewares/Third_Party/FreeRTOS/Source/event_groups.c **** 					{
 429:Middlewares/Third_Party/FreeRTOS/Source/event_groups.c **** 						pxEventBits->uxEventBits &= ~uxBitsToWaitFor;
 430:Middlewares/Third_Party/FreeRTOS/Source/event_groups.c **** 					}
 431:Middlewares/Third_Party/FreeRTOS/Source/event_groups.c **** 					else
 432:Middlewares/Third_Party/FreeRTOS/Source/event_groups.c **** 					{
 433:Middlewares/Third_Party/FreeRTOS/Source/event_groups.c **** 						mtCOVERAGE_TEST_MARKER();
 434:Middlewares/Third_Party/FreeRTOS/Source/event_groups.c **** 					}
 435:Middlewares/Third_Party/FreeRTOS/Source/event_groups.c **** 				}
 436:Middlewares/Third_Party/FreeRTOS/Source/event_groups.c **** 				else
 437:Middlewares/Third_Party/FreeRTOS/Source/event_groups.c **** 				{
 438:Middlewares/Third_Party/FreeRTOS/Source/event_groups.c **** 					mtCOVERAGE_TEST_MARKER();
 439:Middlewares/Third_Party/FreeRTOS/Source/event_groups.c **** 				}
 440:Middlewares/Third_Party/FreeRTOS/Source/event_groups.c **** 				xTimeoutOccurred = pdTRUE;
 441:Middlewares/Third_Party/FreeRTOS/Source/event_groups.c **** 			}
 442:Middlewares/Third_Party/FreeRTOS/Source/event_groups.c **** 			taskEXIT_CRITICAL();
 443:Middlewares/Third_Party/FreeRTOS/Source/event_groups.c **** 		}
 444:Middlewares/Third_Party/FreeRTOS/Source/event_groups.c **** 		else
 445:Middlewares/Third_Party/FreeRTOS/Source/event_groups.c **** 		{
 446:Middlewares/Third_Party/FreeRTOS/Source/event_groups.c **** 			/* The task unblocked because the bits were set. */
 447:Middlewares/Third_Party/FreeRTOS/Source/event_groups.c **** 		}
 448:Middlewares/Third_Party/FreeRTOS/Source/event_groups.c **** 
 449:Middlewares/Third_Party/FreeRTOS/Source/event_groups.c **** 		/* The task blocked so control bits may have been set. */
 450:Middlewares/Third_Party/FreeRTOS/Source/event_groups.c **** 		uxReturn &= ~eventEVENT_BITS_CONTROL_BYTES;
 451:Middlewares/Third_Party/FreeRTOS/Source/event_groups.c **** 	}
 452:Middlewares/Third_Party/FreeRTOS/Source/event_groups.c **** 	traceEVENT_GROUP_WAIT_BITS_END( xEventGroup, uxBitsToWaitFor, xTimeoutOccurred );
 453:Middlewares/Third_Party/FreeRTOS/Source/event_groups.c **** 
 454:Middlewares/Third_Party/FreeRTOS/Source/event_groups.c **** 	/* Prevent compiler warnings when trace macros are not used. */
 455:Middlewares/Third_Party/FreeRTOS/Source/event_groups.c **** 	( void ) xTimeoutOccurred;
 456:Middlewares/Third_Party/FreeRTOS/Source/event_groups.c **** 
 457:Middlewares/Third_Party/FreeRTOS/Source/event_groups.c **** 	return uxReturn;
 458:Middlewares/Third_Party/FreeRTOS/Source/event_groups.c **** }
 459:Middlewares/Third_Party/FreeRTOS/Source/event_groups.c **** /*-----------------------------------------------------------*/
 460:Middlewares/Third_Party/FreeRTOS/Source/event_groups.c **** 
 461:Middlewares/Third_Party/FreeRTOS/Source/event_groups.c **** EventBits_t xEventGroupClearBits( EventGroupHandle_t xEventGroup, const EventBits_t uxBitsToClear )
 462:Middlewares/Third_Party/FreeRTOS/Source/event_groups.c **** {
 463:Middlewares/Third_Party/FreeRTOS/Source/event_groups.c **** EventGroup_t *pxEventBits = xEventGroup;
 464:Middlewares/Third_Party/FreeRTOS/Source/event_groups.c **** EventBits_t uxReturn;
 465:Middlewares/Third_Party/FreeRTOS/Source/event_groups.c **** 
 466:Middlewares/Third_Party/FreeRTOS/Source/event_groups.c **** 	/* Check the user is not attempting to clear the bits used by the kernel
 467:Middlewares/Third_Party/FreeRTOS/Source/event_groups.c **** 	itself. */
 468:Middlewares/Third_Party/FreeRTOS/Source/event_groups.c **** 	configASSERT( xEventGroup );
 469:Middlewares/Third_Party/FreeRTOS/Source/event_groups.c **** 	configASSERT( ( uxBitsToClear & eventEVENT_BITS_CONTROL_BYTES ) == 0 );
 470:Middlewares/Third_Party/FreeRTOS/Source/event_groups.c **** 
 471:Middlewares/Third_Party/FreeRTOS/Source/event_groups.c **** 	taskENTER_CRITICAL();
ARM GAS  /tmp/ccZCJYQx.s 			page 20


 472:Middlewares/Third_Party/FreeRTOS/Source/event_groups.c **** 	{
 473:Middlewares/Third_Party/FreeRTOS/Source/event_groups.c **** 		traceEVENT_GROUP_CLEAR_BITS( xEventGroup, uxBitsToClear );
 474:Middlewares/Third_Party/FreeRTOS/Source/event_groups.c **** 
 475:Middlewares/Third_Party/FreeRTOS/Source/event_groups.c **** 		/* The value returned is the event group value prior to the bits being
 476:Middlewares/Third_Party/FreeRTOS/Source/event_groups.c **** 		cleared. */
 477:Middlewares/Third_Party/FreeRTOS/Source/event_groups.c **** 		uxReturn = pxEventBits->uxEventBits;
 478:Middlewares/Third_Party/FreeRTOS/Source/event_groups.c **** 
 479:Middlewares/Third_Party/FreeRTOS/Source/event_groups.c **** 		/* Clear the bits. */
 480:Middlewares/Third_Party/FreeRTOS/Source/event_groups.c **** 		pxEventBits->uxEventBits &= ~uxBitsToClear;
 481:Middlewares/Third_Party/FreeRTOS/Source/event_groups.c **** 	}
 482:Middlewares/Third_Party/FreeRTOS/Source/event_groups.c **** 	taskEXIT_CRITICAL();
 483:Middlewares/Third_Party/FreeRTOS/Source/event_groups.c **** 
 484:Middlewares/Third_Party/FreeRTOS/Source/event_groups.c **** 	return uxReturn;
 485:Middlewares/Third_Party/FreeRTOS/Source/event_groups.c **** }
 486:Middlewares/Third_Party/FreeRTOS/Source/event_groups.c **** /*-----------------------------------------------------------*/
 487:Middlewares/Third_Party/FreeRTOS/Source/event_groups.c **** 
 488:Middlewares/Third_Party/FreeRTOS/Source/event_groups.c **** #if ( ( configUSE_TRACE_FACILITY == 1 ) && ( INCLUDE_xTimerPendFunctionCall == 1 ) && ( configUSE_T
 489:Middlewares/Third_Party/FreeRTOS/Source/event_groups.c **** 
 490:Middlewares/Third_Party/FreeRTOS/Source/event_groups.c **** 	BaseType_t xEventGroupClearBitsFromISR( EventGroupHandle_t xEventGroup, const EventBits_t uxBitsTo
 491:Middlewares/Third_Party/FreeRTOS/Source/event_groups.c **** 	{
 492:Middlewares/Third_Party/FreeRTOS/Source/event_groups.c **** 		BaseType_t xReturn;
 493:Middlewares/Third_Party/FreeRTOS/Source/event_groups.c **** 
 494:Middlewares/Third_Party/FreeRTOS/Source/event_groups.c **** 		traceEVENT_GROUP_CLEAR_BITS_FROM_ISR( xEventGroup, uxBitsToClear );
 495:Middlewares/Third_Party/FreeRTOS/Source/event_groups.c **** 		xReturn = xTimerPendFunctionCallFromISR( vEventGroupClearBitsCallback, ( void * ) xEventGroup, ( 
 496:Middlewares/Third_Party/FreeRTOS/Source/event_groups.c **** 
 497:Middlewares/Third_Party/FreeRTOS/Source/event_groups.c **** 		return xReturn;
 498:Middlewares/Third_Party/FreeRTOS/Source/event_groups.c **** 	}
 499:Middlewares/Third_Party/FreeRTOS/Source/event_groups.c **** 
 500:Middlewares/Third_Party/FreeRTOS/Source/event_groups.c **** #endif
 501:Middlewares/Third_Party/FreeRTOS/Source/event_groups.c **** /*-----------------------------------------------------------*/
 502:Middlewares/Third_Party/FreeRTOS/Source/event_groups.c **** 
 503:Middlewares/Third_Party/FreeRTOS/Source/event_groups.c **** EventBits_t xEventGroupGetBitsFromISR( EventGroupHandle_t xEventGroup )
 504:Middlewares/Third_Party/FreeRTOS/Source/event_groups.c **** {
 505:Middlewares/Third_Party/FreeRTOS/Source/event_groups.c **** UBaseType_t uxSavedInterruptStatus;
 506:Middlewares/Third_Party/FreeRTOS/Source/event_groups.c **** EventGroup_t const * const pxEventBits = xEventGroup;
 507:Middlewares/Third_Party/FreeRTOS/Source/event_groups.c **** EventBits_t uxReturn;
 508:Middlewares/Third_Party/FreeRTOS/Source/event_groups.c **** 
 509:Middlewares/Third_Party/FreeRTOS/Source/event_groups.c **** 	uxSavedInterruptStatus = portSET_INTERRUPT_MASK_FROM_ISR();
 510:Middlewares/Third_Party/FreeRTOS/Source/event_groups.c **** 	{
 511:Middlewares/Third_Party/FreeRTOS/Source/event_groups.c **** 		uxReturn = pxEventBits->uxEventBits;
 512:Middlewares/Third_Party/FreeRTOS/Source/event_groups.c **** 	}
 513:Middlewares/Third_Party/FreeRTOS/Source/event_groups.c **** 	portCLEAR_INTERRUPT_MASK_FROM_ISR( uxSavedInterruptStatus );
 514:Middlewares/Third_Party/FreeRTOS/Source/event_groups.c **** 
 515:Middlewares/Third_Party/FreeRTOS/Source/event_groups.c **** 	return uxReturn;
 516:Middlewares/Third_Party/FreeRTOS/Source/event_groups.c **** } /*lint !e818 EventGroupHandle_t is a typedef used in other functions to so can't be pointer to co
 517:Middlewares/Third_Party/FreeRTOS/Source/event_groups.c **** /*-----------------------------------------------------------*/
 518:Middlewares/Third_Party/FreeRTOS/Source/event_groups.c **** 
 519:Middlewares/Third_Party/FreeRTOS/Source/event_groups.c **** EventBits_t xEventGroupSetBits( EventGroupHandle_t xEventGroup, const EventBits_t uxBitsToSet )
 520:Middlewares/Third_Party/FreeRTOS/Source/event_groups.c **** {
 521:Middlewares/Third_Party/FreeRTOS/Source/event_groups.c **** ListItem_t *pxListItem, *pxNext;
 522:Middlewares/Third_Party/FreeRTOS/Source/event_groups.c **** ListItem_t const *pxListEnd;
 523:Middlewares/Third_Party/FreeRTOS/Source/event_groups.c **** List_t const * pxList;
 524:Middlewares/Third_Party/FreeRTOS/Source/event_groups.c **** EventBits_t uxBitsToClear = 0, uxBitsWaitedFor, uxControlBits;
 525:Middlewares/Third_Party/FreeRTOS/Source/event_groups.c **** EventGroup_t *pxEventBits = xEventGroup;
 526:Middlewares/Third_Party/FreeRTOS/Source/event_groups.c **** BaseType_t xMatchFound = pdFALSE;
 527:Middlewares/Third_Party/FreeRTOS/Source/event_groups.c **** 
 528:Middlewares/Third_Party/FreeRTOS/Source/event_groups.c **** 	/* Check the user is not attempting to set the bits used by the kernel
ARM GAS  /tmp/ccZCJYQx.s 			page 21


 529:Middlewares/Third_Party/FreeRTOS/Source/event_groups.c **** 	itself. */
 530:Middlewares/Third_Party/FreeRTOS/Source/event_groups.c **** 	configASSERT( xEventGroup );
 531:Middlewares/Third_Party/FreeRTOS/Source/event_groups.c **** 	configASSERT( ( uxBitsToSet & eventEVENT_BITS_CONTROL_BYTES ) == 0 );
 532:Middlewares/Third_Party/FreeRTOS/Source/event_groups.c **** 
 533:Middlewares/Third_Party/FreeRTOS/Source/event_groups.c **** 	pxList = &( pxEventBits->xTasksWaitingForBits );
 534:Middlewares/Third_Party/FreeRTOS/Source/event_groups.c **** 	pxListEnd = listGET_END_MARKER( pxList ); /*lint !e826 !e740 !e9087 The mini list structure is use
 535:Middlewares/Third_Party/FreeRTOS/Source/event_groups.c **** 	vTaskSuspendAll();
 536:Middlewares/Third_Party/FreeRTOS/Source/event_groups.c **** 	{
 537:Middlewares/Third_Party/FreeRTOS/Source/event_groups.c **** 		traceEVENT_GROUP_SET_BITS( xEventGroup, uxBitsToSet );
 538:Middlewares/Third_Party/FreeRTOS/Source/event_groups.c **** 
 539:Middlewares/Third_Party/FreeRTOS/Source/event_groups.c **** 		pxListItem = listGET_HEAD_ENTRY( pxList );
 540:Middlewares/Third_Party/FreeRTOS/Source/event_groups.c **** 
 541:Middlewares/Third_Party/FreeRTOS/Source/event_groups.c **** 		/* Set the bits. */
 542:Middlewares/Third_Party/FreeRTOS/Source/event_groups.c **** 		pxEventBits->uxEventBits |= uxBitsToSet;
 543:Middlewares/Third_Party/FreeRTOS/Source/event_groups.c **** 
 544:Middlewares/Third_Party/FreeRTOS/Source/event_groups.c **** 		/* See if the new bit value should unblock any tasks. */
 545:Middlewares/Third_Party/FreeRTOS/Source/event_groups.c **** 		while( pxListItem != pxListEnd )
 546:Middlewares/Third_Party/FreeRTOS/Source/event_groups.c **** 		{
 547:Middlewares/Third_Party/FreeRTOS/Source/event_groups.c **** 			pxNext = listGET_NEXT( pxListItem );
 548:Middlewares/Third_Party/FreeRTOS/Source/event_groups.c **** 			uxBitsWaitedFor = listGET_LIST_ITEM_VALUE( pxListItem );
 549:Middlewares/Third_Party/FreeRTOS/Source/event_groups.c **** 			xMatchFound = pdFALSE;
 550:Middlewares/Third_Party/FreeRTOS/Source/event_groups.c **** 
 551:Middlewares/Third_Party/FreeRTOS/Source/event_groups.c **** 			/* Split the bits waited for from the control bits. */
 552:Middlewares/Third_Party/FreeRTOS/Source/event_groups.c **** 			uxControlBits = uxBitsWaitedFor & eventEVENT_BITS_CONTROL_BYTES;
 553:Middlewares/Third_Party/FreeRTOS/Source/event_groups.c **** 			uxBitsWaitedFor &= ~eventEVENT_BITS_CONTROL_BYTES;
 554:Middlewares/Third_Party/FreeRTOS/Source/event_groups.c **** 
 555:Middlewares/Third_Party/FreeRTOS/Source/event_groups.c **** 			if( ( uxControlBits & eventWAIT_FOR_ALL_BITS ) == ( EventBits_t ) 0 )
 556:Middlewares/Third_Party/FreeRTOS/Source/event_groups.c **** 			{
 557:Middlewares/Third_Party/FreeRTOS/Source/event_groups.c **** 				/* Just looking for single bit being set. */
 558:Middlewares/Third_Party/FreeRTOS/Source/event_groups.c **** 				if( ( uxBitsWaitedFor & pxEventBits->uxEventBits ) != ( EventBits_t ) 0 )
 559:Middlewares/Third_Party/FreeRTOS/Source/event_groups.c **** 				{
 560:Middlewares/Third_Party/FreeRTOS/Source/event_groups.c **** 					xMatchFound = pdTRUE;
 561:Middlewares/Third_Party/FreeRTOS/Source/event_groups.c **** 				}
 562:Middlewares/Third_Party/FreeRTOS/Source/event_groups.c **** 				else
 563:Middlewares/Third_Party/FreeRTOS/Source/event_groups.c **** 				{
 564:Middlewares/Third_Party/FreeRTOS/Source/event_groups.c **** 					mtCOVERAGE_TEST_MARKER();
 565:Middlewares/Third_Party/FreeRTOS/Source/event_groups.c **** 				}
 566:Middlewares/Third_Party/FreeRTOS/Source/event_groups.c **** 			}
 567:Middlewares/Third_Party/FreeRTOS/Source/event_groups.c **** 			else if( ( uxBitsWaitedFor & pxEventBits->uxEventBits ) == uxBitsWaitedFor )
 568:Middlewares/Third_Party/FreeRTOS/Source/event_groups.c **** 			{
 569:Middlewares/Third_Party/FreeRTOS/Source/event_groups.c **** 				/* All bits are set. */
 570:Middlewares/Third_Party/FreeRTOS/Source/event_groups.c **** 				xMatchFound = pdTRUE;
 571:Middlewares/Third_Party/FreeRTOS/Source/event_groups.c **** 			}
 572:Middlewares/Third_Party/FreeRTOS/Source/event_groups.c **** 			else
 573:Middlewares/Third_Party/FreeRTOS/Source/event_groups.c **** 			{
 574:Middlewares/Third_Party/FreeRTOS/Source/event_groups.c **** 				/* Need all bits to be set, but not all the bits were set. */
 575:Middlewares/Third_Party/FreeRTOS/Source/event_groups.c **** 			}
 576:Middlewares/Third_Party/FreeRTOS/Source/event_groups.c **** 
 577:Middlewares/Third_Party/FreeRTOS/Source/event_groups.c **** 			if( xMatchFound != pdFALSE )
 578:Middlewares/Third_Party/FreeRTOS/Source/event_groups.c **** 			{
 579:Middlewares/Third_Party/FreeRTOS/Source/event_groups.c **** 				/* The bits match.  Should the bits be cleared on exit? */
 580:Middlewares/Third_Party/FreeRTOS/Source/event_groups.c **** 				if( ( uxControlBits & eventCLEAR_EVENTS_ON_EXIT_BIT ) != ( EventBits_t ) 0 )
 581:Middlewares/Third_Party/FreeRTOS/Source/event_groups.c **** 				{
 582:Middlewares/Third_Party/FreeRTOS/Source/event_groups.c **** 					uxBitsToClear |= uxBitsWaitedFor;
 583:Middlewares/Third_Party/FreeRTOS/Source/event_groups.c **** 				}
 584:Middlewares/Third_Party/FreeRTOS/Source/event_groups.c **** 				else
 585:Middlewares/Third_Party/FreeRTOS/Source/event_groups.c **** 				{
ARM GAS  /tmp/ccZCJYQx.s 			page 22


 586:Middlewares/Third_Party/FreeRTOS/Source/event_groups.c **** 					mtCOVERAGE_TEST_MARKER();
 587:Middlewares/Third_Party/FreeRTOS/Source/event_groups.c **** 				}
 588:Middlewares/Third_Party/FreeRTOS/Source/event_groups.c **** 
 589:Middlewares/Third_Party/FreeRTOS/Source/event_groups.c **** 				/* Store the actual event flag value in the task's event list
 590:Middlewares/Third_Party/FreeRTOS/Source/event_groups.c **** 				item before removing the task from the event list.  The
 591:Middlewares/Third_Party/FreeRTOS/Source/event_groups.c **** 				eventUNBLOCKED_DUE_TO_BIT_SET bit is set so the task knows
 592:Middlewares/Third_Party/FreeRTOS/Source/event_groups.c **** 				that is was unblocked due to its required bits matching, rather
 593:Middlewares/Third_Party/FreeRTOS/Source/event_groups.c **** 				than because it timed out. */
 594:Middlewares/Third_Party/FreeRTOS/Source/event_groups.c **** 				vTaskRemoveFromUnorderedEventList( pxListItem, pxEventBits->uxEventBits | eventUNBLOCKED_DUE_TO
 595:Middlewares/Third_Party/FreeRTOS/Source/event_groups.c **** 			}
 596:Middlewares/Third_Party/FreeRTOS/Source/event_groups.c **** 
 597:Middlewares/Third_Party/FreeRTOS/Source/event_groups.c **** 			/* Move onto the next list item.  Note pxListItem->pxNext is not
 598:Middlewares/Third_Party/FreeRTOS/Source/event_groups.c **** 			used here as the list item may have been removed from the event list
 599:Middlewares/Third_Party/FreeRTOS/Source/event_groups.c **** 			and inserted into the ready/pending reading list. */
 600:Middlewares/Third_Party/FreeRTOS/Source/event_groups.c **** 			pxListItem = pxNext;
 601:Middlewares/Third_Party/FreeRTOS/Source/event_groups.c **** 		}
 602:Middlewares/Third_Party/FreeRTOS/Source/event_groups.c **** 
 603:Middlewares/Third_Party/FreeRTOS/Source/event_groups.c **** 		/* Clear any bits that matched when the eventCLEAR_EVENTS_ON_EXIT_BIT
 604:Middlewares/Third_Party/FreeRTOS/Source/event_groups.c **** 		bit was set in the control word. */
 605:Middlewares/Third_Party/FreeRTOS/Source/event_groups.c **** 		pxEventBits->uxEventBits &= ~uxBitsToClear;
 606:Middlewares/Third_Party/FreeRTOS/Source/event_groups.c **** 	}
 607:Middlewares/Third_Party/FreeRTOS/Source/event_groups.c **** 	( void ) xTaskResumeAll();
 608:Middlewares/Third_Party/FreeRTOS/Source/event_groups.c **** 
 609:Middlewares/Third_Party/FreeRTOS/Source/event_groups.c **** 	return pxEventBits->uxEventBits;
 610:Middlewares/Third_Party/FreeRTOS/Source/event_groups.c **** }
 611:Middlewares/Third_Party/FreeRTOS/Source/event_groups.c **** /*-----------------------------------------------------------*/
 612:Middlewares/Third_Party/FreeRTOS/Source/event_groups.c **** 
 613:Middlewares/Third_Party/FreeRTOS/Source/event_groups.c **** void vEventGroupDelete( EventGroupHandle_t xEventGroup )
 614:Middlewares/Third_Party/FreeRTOS/Source/event_groups.c **** {
 615:Middlewares/Third_Party/FreeRTOS/Source/event_groups.c **** EventGroup_t *pxEventBits = xEventGroup;
 616:Middlewares/Third_Party/FreeRTOS/Source/event_groups.c **** const List_t *pxTasksWaitingForBits = &( pxEventBits->xTasksWaitingForBits );
 617:Middlewares/Third_Party/FreeRTOS/Source/event_groups.c **** 
 618:Middlewares/Third_Party/FreeRTOS/Source/event_groups.c **** 	vTaskSuspendAll();
 619:Middlewares/Third_Party/FreeRTOS/Source/event_groups.c **** 	{
 620:Middlewares/Third_Party/FreeRTOS/Source/event_groups.c **** 		traceEVENT_GROUP_DELETE( xEventGroup );
 621:Middlewares/Third_Party/FreeRTOS/Source/event_groups.c **** 
 622:Middlewares/Third_Party/FreeRTOS/Source/event_groups.c **** 		while( listCURRENT_LIST_LENGTH( pxTasksWaitingForBits ) > ( UBaseType_t ) 0 )
 623:Middlewares/Third_Party/FreeRTOS/Source/event_groups.c **** 		{
 624:Middlewares/Third_Party/FreeRTOS/Source/event_groups.c **** 			/* Unblock the task, returning 0 as the event list is being deleted
 625:Middlewares/Third_Party/FreeRTOS/Source/event_groups.c **** 			and cannot therefore have any bits set. */
 626:Middlewares/Third_Party/FreeRTOS/Source/event_groups.c **** 			configASSERT( pxTasksWaitingForBits->xListEnd.pxNext != ( const ListItem_t * ) &( pxTasksWaiting
 627:Middlewares/Third_Party/FreeRTOS/Source/event_groups.c **** 			vTaskRemoveFromUnorderedEventList( pxTasksWaitingForBits->xListEnd.pxNext, eventUNBLOCKED_DUE_TO
 628:Middlewares/Third_Party/FreeRTOS/Source/event_groups.c **** 		}
 629:Middlewares/Third_Party/FreeRTOS/Source/event_groups.c **** 
 630:Middlewares/Third_Party/FreeRTOS/Source/event_groups.c **** 		#if( ( configSUPPORT_DYNAMIC_ALLOCATION == 1 ) && ( configSUPPORT_STATIC_ALLOCATION == 0 ) )
 631:Middlewares/Third_Party/FreeRTOS/Source/event_groups.c **** 		{
 632:Middlewares/Third_Party/FreeRTOS/Source/event_groups.c **** 			/* The event group can only have been allocated dynamically - free
 633:Middlewares/Third_Party/FreeRTOS/Source/event_groups.c **** 			it again. */
 634:Middlewares/Third_Party/FreeRTOS/Source/event_groups.c **** 			vPortFree( pxEventBits );
 635:Middlewares/Third_Party/FreeRTOS/Source/event_groups.c **** 		}
 636:Middlewares/Third_Party/FreeRTOS/Source/event_groups.c **** 		#elif( ( configSUPPORT_DYNAMIC_ALLOCATION == 1 ) && ( configSUPPORT_STATIC_ALLOCATION == 1 ) )
 637:Middlewares/Third_Party/FreeRTOS/Source/event_groups.c **** 		{
 638:Middlewares/Third_Party/FreeRTOS/Source/event_groups.c **** 			/* The event group could have been allocated statically or
 639:Middlewares/Third_Party/FreeRTOS/Source/event_groups.c **** 			dynamically, so check before attempting to free the memory. */
 640:Middlewares/Third_Party/FreeRTOS/Source/event_groups.c **** 			if( pxEventBits->ucStaticallyAllocated == ( uint8_t ) pdFALSE )
 641:Middlewares/Third_Party/FreeRTOS/Source/event_groups.c **** 			{
 642:Middlewares/Third_Party/FreeRTOS/Source/event_groups.c **** 				vPortFree( pxEventBits );
ARM GAS  /tmp/ccZCJYQx.s 			page 23


 643:Middlewares/Third_Party/FreeRTOS/Source/event_groups.c **** 			}
 644:Middlewares/Third_Party/FreeRTOS/Source/event_groups.c **** 			else
 645:Middlewares/Third_Party/FreeRTOS/Source/event_groups.c **** 			{
 646:Middlewares/Third_Party/FreeRTOS/Source/event_groups.c **** 				mtCOVERAGE_TEST_MARKER();
 647:Middlewares/Third_Party/FreeRTOS/Source/event_groups.c **** 			}
 648:Middlewares/Third_Party/FreeRTOS/Source/event_groups.c **** 		}
 649:Middlewares/Third_Party/FreeRTOS/Source/event_groups.c **** 		#endif /* configSUPPORT_DYNAMIC_ALLOCATION */
 650:Middlewares/Third_Party/FreeRTOS/Source/event_groups.c **** 	}
 651:Middlewares/Third_Party/FreeRTOS/Source/event_groups.c **** 	( void ) xTaskResumeAll();
 652:Middlewares/Third_Party/FreeRTOS/Source/event_groups.c **** }
 653:Middlewares/Third_Party/FreeRTOS/Source/event_groups.c **** /*-----------------------------------------------------------*/
 654:Middlewares/Third_Party/FreeRTOS/Source/event_groups.c **** 
 655:Middlewares/Third_Party/FreeRTOS/Source/event_groups.c **** /* For internal use only - execute a 'set bits' command that was pended from
 656:Middlewares/Third_Party/FreeRTOS/Source/event_groups.c **** an interrupt. */
 657:Middlewares/Third_Party/FreeRTOS/Source/event_groups.c **** void vEventGroupSetBitsCallback( void *pvEventGroup, const uint32_t ulBitsToSet )
 658:Middlewares/Third_Party/FreeRTOS/Source/event_groups.c **** {
 659:Middlewares/Third_Party/FreeRTOS/Source/event_groups.c **** 	( void ) xEventGroupSetBits( pvEventGroup, ( EventBits_t ) ulBitsToSet ); /*lint !e9079 Can't avoi
 660:Middlewares/Third_Party/FreeRTOS/Source/event_groups.c **** }
 661:Middlewares/Third_Party/FreeRTOS/Source/event_groups.c **** /*-----------------------------------------------------------*/
 662:Middlewares/Third_Party/FreeRTOS/Source/event_groups.c **** 
 663:Middlewares/Third_Party/FreeRTOS/Source/event_groups.c **** /* For internal use only - execute a 'clear bits' command that was pended from
 664:Middlewares/Third_Party/FreeRTOS/Source/event_groups.c **** an interrupt. */
 665:Middlewares/Third_Party/FreeRTOS/Source/event_groups.c **** void vEventGroupClearBitsCallback( void *pvEventGroup, const uint32_t ulBitsToClear )
 666:Middlewares/Third_Party/FreeRTOS/Source/event_groups.c **** {
 667:Middlewares/Third_Party/FreeRTOS/Source/event_groups.c **** 	( void ) xEventGroupClearBits( pvEventGroup, ( EventBits_t ) ulBitsToClear ); /*lint !e9079 Can't 
 668:Middlewares/Third_Party/FreeRTOS/Source/event_groups.c **** }
 669:Middlewares/Third_Party/FreeRTOS/Source/event_groups.c **** /*-----------------------------------------------------------*/
 670:Middlewares/Third_Party/FreeRTOS/Source/event_groups.c **** 
 671:Middlewares/Third_Party/FreeRTOS/Source/event_groups.c **** static BaseType_t prvTestWaitCondition( const EventBits_t uxCurrentEventBits, const EventBits_t uxB
 384              		.loc 1 671 19 discriminator 8 view .LVU118
 385              	.LBB72:
 672:Middlewares/Third_Party/FreeRTOS/Source/event_groups.c **** {
 673:Middlewares/Third_Party/FreeRTOS/Source/event_groups.c **** BaseType_t xWaitConditionMet = pdFALSE;
 386              		.loc 1 673 1 discriminator 8 view .LVU119
 674:Middlewares/Third_Party/FreeRTOS/Source/event_groups.c **** 
 675:Middlewares/Third_Party/FreeRTOS/Source/event_groups.c **** 	if( xWaitForAllBits == pdFALSE )
 387              		.loc 1 675 2 discriminator 8 view .LVU120
 388              		.loc 1 675 4 is_stmt 0 discriminator 8 view .LVU121
 389 0062 B8F1000F 		cmp	r8, #0
 390 0066 31D1     		bne	.L25
 676:Middlewares/Third_Party/FreeRTOS/Source/event_groups.c **** 	{
 677:Middlewares/Third_Party/FreeRTOS/Source/event_groups.c **** 		/* Task only has to wait for one bit within uxBitsToWaitFor to be
 678:Middlewares/Third_Party/FreeRTOS/Source/event_groups.c **** 		set.  Is one already set? */
 679:Middlewares/Third_Party/FreeRTOS/Source/event_groups.c **** 		if( ( uxCurrentEventBits & uxBitsToWaitFor ) != ( EventBits_t ) 0 )
 391              		.loc 1 679 3 is_stmt 1 view .LVU122
 392              		.loc 1 679 5 is_stmt 0 view .LVU123
 393 0068 2C42     		tst	r4, r5
 394 006a 32D1     		bne	.L26
 395              	.L27:
 396              	.LVL20:
 397              		.loc 1 679 5 view .LVU124
 398              	.LBE72:
 399              	.LBE71:
 353:Middlewares/Third_Party/FreeRTOS/Source/event_groups.c **** 		{
 400              		.loc 1 353 8 is_stmt 1 view .LVU125
 353:Middlewares/Third_Party/FreeRTOS/Source/event_groups.c **** 		{
 401              		.loc 1 353 10 is_stmt 0 view .LVU126
ARM GAS  /tmp/ccZCJYQx.s 			page 24


 402 006c BAF1000F 		cmp	r10, #0
 403 0070 36D0     		beq	.L30
 366:Middlewares/Third_Party/FreeRTOS/Source/event_groups.c **** 			{
 404              		.loc 1 366 4 is_stmt 1 view .LVU127
 368:Middlewares/Third_Party/FreeRTOS/Source/event_groups.c **** 			}
 405              		.loc 1 368 19 is_stmt 0 view .LVU128
 406 0072 002F     		cmp	r7, #0
 407 0074 18BF     		it	ne
 408 0076 4FF08079 		movne	r9, #16777216
 409              	.LVL21:
 372:Middlewares/Third_Party/FreeRTOS/Source/event_groups.c **** 			}
 410              		.loc 1 372 29 is_stmt 1 view .LVU129
 375:Middlewares/Third_Party/FreeRTOS/Source/event_groups.c **** 			{
 411              		.loc 1 375 4 view .LVU130
 375:Middlewares/Third_Party/FreeRTOS/Source/event_groups.c **** 			{
 412              		.loc 1 375 6 is_stmt 0 view .LVU131
 413 007a B8F1000F 		cmp	r8, #0
 414 007e 01D0     		beq	.L32
 377:Middlewares/Third_Party/FreeRTOS/Source/event_groups.c **** 			}
 415              		.loc 1 377 5 is_stmt 1 view .LVU132
 377:Middlewares/Third_Party/FreeRTOS/Source/event_groups.c **** 			}
 416              		.loc 1 377 19 is_stmt 0 view .LVU133
 417 0080 49F08069 		orr	r9, r9, #67108864
 418              	.LVL22:
 419              	.L32:
 381:Middlewares/Third_Party/FreeRTOS/Source/event_groups.c **** 			}
 420              		.loc 1 381 29 is_stmt 1 view .LVU134
 387:Middlewares/Third_Party/FreeRTOS/Source/event_groups.c **** 
 421              		.loc 1 387 4 view .LVU135
 422 0084 5246     		mov	r2, r10
 423 0086 49EA0401 		orr	r1, r9, r4
 424 008a 301D     		adds	r0, r6, #4
 425 008c FFF7FEFF 		bl	vTaskPlaceOnUnorderedEventList
 426              	.LVL23:
 392:Middlewares/Third_Party/FreeRTOS/Source/event_groups.c **** 
 427              		.loc 1 392 4 view .LVU136
 394:Middlewares/Third_Party/FreeRTOS/Source/event_groups.c **** 		}
 428              		.loc 1 394 68 view .LVU137
 429              	.LBE70:
 397:Middlewares/Third_Party/FreeRTOS/Source/event_groups.c **** 
 430              		.loc 1 397 2 view .LVU138
 397:Middlewares/Third_Party/FreeRTOS/Source/event_groups.c **** 
 431              		.loc 1 397 20 is_stmt 0 view .LVU139
 432 0090 FFF7FEFF 		bl	xTaskResumeAll
 433              	.LVL24:
 399:Middlewares/Third_Party/FreeRTOS/Source/event_groups.c **** 	{
 434              		.loc 1 399 2 is_stmt 1 view .LVU140
 401:Middlewares/Third_Party/FreeRTOS/Source/event_groups.c **** 		{
 435              		.loc 1 401 3 view .LVU141
 401:Middlewares/Third_Party/FreeRTOS/Source/event_groups.c **** 		{
 436              		.loc 1 401 5 is_stmt 0 view .LVU142
 437 0094 38B9     		cbnz	r0, .L33
 403:Middlewares/Third_Party/FreeRTOS/Source/event_groups.c **** 		}
 438              		.loc 1 403 4 is_stmt 1 view .LVU143
 439 0096 1D4B     		ldr	r3, .L54
 440 0098 4FF08052 		mov	r2, #268435456
 441 009c 1A60     		str	r2, [r3]
ARM GAS  /tmp/ccZCJYQx.s 			page 25


 403:Middlewares/Third_Party/FreeRTOS/Source/event_groups.c **** 		}
 442              		.loc 1 403 4 view .LVU144
 443              		.syntax unified
 444              	@ 403 "Middlewares/Third_Party/FreeRTOS/Source/event_groups.c" 1
 445 009e BFF34F8F 		dsb
 446              	@ 0 "" 2
 403:Middlewares/Third_Party/FreeRTOS/Source/event_groups.c **** 		}
 447              		.loc 1 403 4 view .LVU145
 448              	@ 403 "Middlewares/Third_Party/FreeRTOS/Source/event_groups.c" 1
 449 00a2 BFF36F8F 		isb
 450              	@ 0 "" 2
 403:Middlewares/Third_Party/FreeRTOS/Source/event_groups.c **** 		}
 451              		.loc 1 403 26 view .LVU146
 452              		.thumb
 453              		.syntax unified
 454              	.L33:
 407:Middlewares/Third_Party/FreeRTOS/Source/event_groups.c **** 		}
 455              		.loc 1 407 28 view .LVU147
 414:Middlewares/Third_Party/FreeRTOS/Source/event_groups.c **** 
 456              		.loc 1 414 3 view .LVU148
 414:Middlewares/Third_Party/FreeRTOS/Source/event_groups.c **** 
 457              		.loc 1 414 14 is_stmt 0 view .LVU149
 458 00a6 FFF7FEFF 		bl	uxTaskResetEventItemValue
 459              	.LVL25:
 416:Middlewares/Third_Party/FreeRTOS/Source/event_groups.c **** 		{
 460              		.loc 1 416 5 view .LVU150
 461 00aa 8301     		lsls	r3, r0, #6
 414:Middlewares/Third_Party/FreeRTOS/Source/event_groups.c **** 
 462              		.loc 1 414 14 view .LVU151
 463 00ac 0546     		mov	r5, r0
 464              	.LVL26:
 416:Middlewares/Third_Party/FreeRTOS/Source/event_groups.c **** 		{
 465              		.loc 1 416 3 is_stmt 1 view .LVU152
 416:Middlewares/Third_Party/FreeRTOS/Source/event_groups.c **** 		{
 466              		.loc 1 416 5 is_stmt 0 view .LVU153
 467 00ae 1AD5     		bpl	.L53
 468              	.LVL27:
 469              	.L34:
 447:Middlewares/Third_Party/FreeRTOS/Source/event_groups.c **** 
 470              		.loc 1 447 3 is_stmt 1 view .LVU154
 450:Middlewares/Third_Party/FreeRTOS/Source/event_groups.c **** 	}
 471              		.loc 1 450 3 view .LVU155
 450:Middlewares/Third_Party/FreeRTOS/Source/event_groups.c **** 	}
 472              		.loc 1 450 12 is_stmt 0 view .LVU156
 473 00b0 25F07F45 		bic	r5, r5, #-16777216
 474              	.LVL28:
 452:Middlewares/Third_Party/FreeRTOS/Source/event_groups.c **** 
 475              		.loc 1 452 2 is_stmt 1 view .LVU157
 455:Middlewares/Third_Party/FreeRTOS/Source/event_groups.c **** 
 476              		.loc 1 455 2 view .LVU158
 457:Middlewares/Third_Party/FreeRTOS/Source/event_groups.c **** }
 477              		.loc 1 457 2 view .LVU159
 478              	.L16:
 458:Middlewares/Third_Party/FreeRTOS/Source/event_groups.c **** /*-----------------------------------------------------------*/
 479              		.loc 1 458 1 is_stmt 0 view .LVU160
 480 00b4 2846     		mov	r0, r5
 481 00b6 BDE8F087 		pop	{r4, r5, r6, r7, r8, r9, r10, pc}
ARM GAS  /tmp/ccZCJYQx.s 			page 26


 482              	.LVL29:
 483              	.L52:
 325:Middlewares/Third_Party/FreeRTOS/Source/event_groups.c **** 	}
 484              		.loc 1 325 3 is_stmt 1 view .LVU161
 485              	.LBB75:
 486              	.LBI75:
 191:Middlewares/Third_Party/FreeRTOS/Source/portable/GCC/ARM_CM4F/portmacro.h **** {
 487              		.loc 2 191 30 view .LVU162
 488              	.LBB76:
 193:Middlewares/Third_Party/FreeRTOS/Source/portable/GCC/ARM_CM4F/portmacro.h **** 
 489              		.loc 2 193 1 view .LVU163
 490              		.loc 2 195 2 view .LVU164
 491              		.syntax unified
 492              	@ 195 "Middlewares/Third_Party/FreeRTOS/Source/portable/GCC/ARM_CM4F/portmacro.h" 1
 493 00ba 4FF05003 			mov r3, #80												
 494 00be 83F31188 		msr basepri, r3											
 495 00c2 BFF36F8F 		isb														
 496 00c6 BFF34F8F 		dsb														
 497              	
 498              	@ 0 "" 2
 499              	.LVL30:
 500              		.thumb
 501              		.syntax unified
 502              	.L24:
 503              		.loc 2 195 2 is_stmt 0 view .LVU165
 504              	.LBE76:
 505              	.LBE75:
 325:Middlewares/Third_Party/FreeRTOS/Source/event_groups.c **** 	}
 506              		.loc 1 325 3 is_stmt 1 discriminator 4 view .LVU166
 325:Middlewares/Third_Party/FreeRTOS/Source/event_groups.c **** 	}
 507              		.loc 1 325 3 discriminator 4 view .LVU167
 325:Middlewares/Third_Party/FreeRTOS/Source/event_groups.c **** 	}
 508              		.loc 1 325 3 discriminator 4 view .LVU168
 325:Middlewares/Third_Party/FreeRTOS/Source/event_groups.c **** 	}
 509              		.loc 1 325 3 discriminator 4 view .LVU169
 325:Middlewares/Third_Party/FreeRTOS/Source/event_groups.c **** 	}
 510              		.loc 1 325 3 discriminator 4 view .LVU170
 325:Middlewares/Third_Party/FreeRTOS/Source/event_groups.c **** 	}
 511              		.loc 1 325 3 discriminator 4 view .LVU171
 512 00ca FEE7     		b	.L24
 513              	.LVL31:
 514              	.L25:
 515              	.LBB77:
 516              	.LBB74:
 517              	.LBB73:
 680:Middlewares/Third_Party/FreeRTOS/Source/event_groups.c **** 		{
 681:Middlewares/Third_Party/FreeRTOS/Source/event_groups.c **** 			xWaitConditionMet = pdTRUE;
 682:Middlewares/Third_Party/FreeRTOS/Source/event_groups.c **** 		}
 683:Middlewares/Third_Party/FreeRTOS/Source/event_groups.c **** 		else
 684:Middlewares/Third_Party/FreeRTOS/Source/event_groups.c **** 		{
 685:Middlewares/Third_Party/FreeRTOS/Source/event_groups.c **** 			mtCOVERAGE_TEST_MARKER();
 686:Middlewares/Third_Party/FreeRTOS/Source/event_groups.c **** 		}
 687:Middlewares/Third_Party/FreeRTOS/Source/event_groups.c **** 	}
 688:Middlewares/Third_Party/FreeRTOS/Source/event_groups.c **** 	else
 689:Middlewares/Third_Party/FreeRTOS/Source/event_groups.c **** 	{
 690:Middlewares/Third_Party/FreeRTOS/Source/event_groups.c **** 		/* Task has to wait for all the bits in uxBitsToWaitFor to be set.
 691:Middlewares/Third_Party/FreeRTOS/Source/event_groups.c **** 		Are they set already? */
ARM GAS  /tmp/ccZCJYQx.s 			page 27


 692:Middlewares/Third_Party/FreeRTOS/Source/event_groups.c **** 		if( ( uxCurrentEventBits & uxBitsToWaitFor ) == uxBitsToWaitFor )
 518              		.loc 1 692 3 view .LVU172
 519              		.loc 1 692 5 is_stmt 0 view .LVU173
 520 00cc 34EA0503 		bics	r3, r4, r5
 521 00d0 CCD1     		bne	.L27
 522              	.L26:
 523              	.LVL32:
 524              		.loc 1 692 5 view .LVU174
 525              	.LBE73:
 526              	.LBE74:
 340:Middlewares/Third_Party/FreeRTOS/Source/event_groups.c **** 			xTicksToWait = ( TickType_t ) 0;
 527              		.loc 1 340 4 is_stmt 1 view .LVU175
 341:Middlewares/Third_Party/FreeRTOS/Source/event_groups.c **** 
 528              		.loc 1 341 4 view .LVU176
 344:Middlewares/Third_Party/FreeRTOS/Source/event_groups.c **** 			{
 529              		.loc 1 344 4 view .LVU177
 344:Middlewares/Third_Party/FreeRTOS/Source/event_groups.c **** 			{
 530              		.loc 1 344 6 is_stmt 0 view .LVU178
 531 00d2 2FB1     		cbz	r7, .L30
 346:Middlewares/Third_Party/FreeRTOS/Source/event_groups.c **** 			}
 532              		.loc 1 346 5 is_stmt 1 view .LVU179
 346:Middlewares/Third_Party/FreeRTOS/Source/event_groups.c **** 			}
 533              		.loc 1 346 30 is_stmt 0 view .LVU180
 534 00d4 25EA0404 		bic	r4, r5, r4
 535              	.LVL33:
 346:Middlewares/Third_Party/FreeRTOS/Source/event_groups.c **** 			}
 536              		.loc 1 346 30 view .LVU181
 537 00d8 3460     		str	r4, [r6]
 538              	.LVL34:
 394:Middlewares/Third_Party/FreeRTOS/Source/event_groups.c **** 		}
 539              		.loc 1 394 68 is_stmt 1 view .LVU182
 540              	.LBE77:
 397:Middlewares/Third_Party/FreeRTOS/Source/event_groups.c **** 
 541              		.loc 1 397 2 view .LVU183
 397:Middlewares/Third_Party/FreeRTOS/Source/event_groups.c **** 
 542              		.loc 1 397 20 is_stmt 0 view .LVU184
 543 00da FFF7FEFF 		bl	xTaskResumeAll
 544              	.LVL35:
 399:Middlewares/Third_Party/FreeRTOS/Source/event_groups.c **** 	{
 545              		.loc 1 399 2 is_stmt 1 view .LVU185
 546 00de E9E7     		b	.L16
 547              	.LVL36:
 548              	.L30:
 549              	.LBB78:
 394:Middlewares/Third_Party/FreeRTOS/Source/event_groups.c **** 		}
 550              		.loc 1 394 68 view .LVU186
 551              	.LBE78:
 397:Middlewares/Third_Party/FreeRTOS/Source/event_groups.c **** 
 552              		.loc 1 397 2 view .LVU187
 397:Middlewares/Third_Party/FreeRTOS/Source/event_groups.c **** 
 553              		.loc 1 397 20 is_stmt 0 view .LVU188
 554 00e0 FFF7FEFF 		bl	xTaskResumeAll
 555              	.LVL37:
 399:Middlewares/Third_Party/FreeRTOS/Source/event_groups.c **** 	{
 556              		.loc 1 399 2 is_stmt 1 view .LVU189
 557 00e4 E6E7     		b	.L16
 558              	.LVL38:
ARM GAS  /tmp/ccZCJYQx.s 			page 28


 559              	.L53:
 418:Middlewares/Third_Party/FreeRTOS/Source/event_groups.c **** 			{
 560              		.loc 1 418 4 view .LVU190
 561 00e6 FFF7FEFF 		bl	vPortEnterCritical
 562              	.LVL39:
 421:Middlewares/Third_Party/FreeRTOS/Source/event_groups.c **** 
 563              		.loc 1 421 5 view .LVU191
 421:Middlewares/Third_Party/FreeRTOS/Source/event_groups.c **** 
 564              		.loc 1 421 14 is_stmt 0 view .LVU192
 565 00ea 3568     		ldr	r5, [r6]
 566              	.LVL40:
 425:Middlewares/Third_Party/FreeRTOS/Source/event_groups.c **** 				{
 567              		.loc 1 425 5 is_stmt 1 view .LVU193
 568              	.LBB79:
 569              	.LBI79:
 671:Middlewares/Third_Party/FreeRTOS/Source/event_groups.c **** {
 570              		.loc 1 671 19 view .LVU194
 571              	.LBB80:
 673:Middlewares/Third_Party/FreeRTOS/Source/event_groups.c **** 
 572              		.loc 1 673 1 view .LVU195
 675:Middlewares/Third_Party/FreeRTOS/Source/event_groups.c **** 	{
 573              		.loc 1 675 2 view .LVU196
 675:Middlewares/Third_Party/FreeRTOS/Source/event_groups.c **** 	{
 574              		.loc 1 675 4 is_stmt 0 view .LVU197
 575 00ec B8F1000F 		cmp	r8, #0
 576 00f0 06D1     		bne	.L35
 679:Middlewares/Third_Party/FreeRTOS/Source/event_groups.c **** 		{
 577              		.loc 1 679 3 is_stmt 1 view .LVU198
 679:Middlewares/Third_Party/FreeRTOS/Source/event_groups.c **** 		{
 578              		.loc 1 679 5 is_stmt 0 view .LVU199
 579 00f2 2C42     		tst	r4, r5
 580 00f4 07D0     		beq	.L37
 581              	.L36:
 582              	.LVL41:
 679:Middlewares/Third_Party/FreeRTOS/Source/event_groups.c **** 		{
 583              		.loc 1 679 5 view .LVU200
 584              	.LBE80:
 585              	.LBE79:
 427:Middlewares/Third_Party/FreeRTOS/Source/event_groups.c **** 					{
 586              		.loc 1 427 6 is_stmt 1 view .LVU201
 427:Middlewares/Third_Party/FreeRTOS/Source/event_groups.c **** 					{
 587              		.loc 1 427 8 is_stmt 0 view .LVU202
 588 00f6 37B1     		cbz	r7, .L37
 429:Middlewares/Third_Party/FreeRTOS/Source/event_groups.c **** 					}
 589              		.loc 1 429 7 is_stmt 1 view .LVU203
 429:Middlewares/Third_Party/FreeRTOS/Source/event_groups.c **** 					}
 590              		.loc 1 429 32 is_stmt 0 view .LVU204
 591 00f8 25EA0404 		bic	r4, r5, r4
 592              	.LVL42:
 429:Middlewares/Third_Party/FreeRTOS/Source/event_groups.c **** 					}
 593              		.loc 1 429 32 view .LVU205
 594 00fc 3460     		str	r4, [r6]
 595 00fe 02E0     		b	.L37
 596              	.LVL43:
 597              	.L35:
 598              	.LBB82:
 599              	.LBB81:
ARM GAS  /tmp/ccZCJYQx.s 			page 29


 600              		.loc 1 692 3 is_stmt 1 view .LVU206
 601              		.loc 1 692 5 is_stmt 0 view .LVU207
 602 0100 34EA0503 		bics	r3, r4, r5
 603 0104 F7D0     		beq	.L36
 604              	.LVL44:
 605              	.L37:
 606              		.loc 1 692 5 view .LVU208
 607              	.LBE81:
 608              	.LBE82:
 438:Middlewares/Third_Party/FreeRTOS/Source/event_groups.c **** 				}
 609              		.loc 1 438 30 is_stmt 1 view .LVU209
 440:Middlewares/Third_Party/FreeRTOS/Source/event_groups.c **** 			}
 610              		.loc 1 440 5 view .LVU210
 442:Middlewares/Third_Party/FreeRTOS/Source/event_groups.c **** 		}
 611              		.loc 1 442 4 view .LVU211
 612 0106 FFF7FEFF 		bl	vPortExitCritical
 613              	.LVL45:
 614 010a D1E7     		b	.L34
 615              	.L55:
 616              		.align	2
 617              	.L54:
 618 010c 04ED00E0 		.word	-536810236
 619              		.cfi_endproc
 620              	.LFE7:
 622              		.section	.text.xEventGroupClearBits,"ax",%progbits
 623              		.align	1
 624              		.p2align 2,,3
 625              		.global	xEventGroupClearBits
 626              		.syntax unified
 627              		.thumb
 628              		.thumb_func
 629              		.fpu fpv4-sp-d16
 631              	xEventGroupClearBits:
 632              	.LVL46:
 633              	.LFB8:
 462:Middlewares/Third_Party/FreeRTOS/Source/event_groups.c **** EventGroup_t *pxEventBits = xEventGroup;
 634              		.loc 1 462 1 view -0
 635              		.cfi_startproc
 636              		@ args = 0, pretend = 0, frame = 0
 637              		@ frame_needed = 0, uses_anonymous_args = 0
 463:Middlewares/Third_Party/FreeRTOS/Source/event_groups.c **** EventBits_t uxReturn;
 638              		.loc 1 463 1 view .LVU213
 464:Middlewares/Third_Party/FreeRTOS/Source/event_groups.c **** 
 639              		.loc 1 464 1 view .LVU214
 468:Middlewares/Third_Party/FreeRTOS/Source/event_groups.c **** 	configASSERT( ( uxBitsToClear & eventEVENT_BITS_CONTROL_BYTES ) == 0 );
 640              		.loc 1 468 2 view .LVU215
 641 0000 68B1     		cbz	r0, .L63
 468:Middlewares/Third_Party/FreeRTOS/Source/event_groups.c **** 	configASSERT( ( uxBitsToClear & eventEVENT_BITS_CONTROL_BYTES ) == 0 );
 642              		.loc 1 468 29 discriminator 2 view .LVU216
 469:Middlewares/Third_Party/FreeRTOS/Source/event_groups.c **** 
 643              		.loc 1 469 2 discriminator 2 view .LVU217
 644 0002 11F07F4F 		tst	r1, #-16777216
 462:Middlewares/Third_Party/FreeRTOS/Source/event_groups.c **** EventGroup_t *pxEventBits = xEventGroup;
 645              		.loc 1 462 1 is_stmt 0 discriminator 2 view .LVU218
 646 0006 70B5     		push	{r4, r5, r6, lr}
 647              	.LCFI7:
 648              		.cfi_def_cfa_offset 16
ARM GAS  /tmp/ccZCJYQx.s 			page 30


 649              		.cfi_offset 4, -16
 650              		.cfi_offset 5, -12
 651              		.cfi_offset 6, -8
 652              		.cfi_offset 14, -4
 653 0008 0C46     		mov	r4, r1
 469:Middlewares/Third_Party/FreeRTOS/Source/event_groups.c **** 
 654              		.loc 1 469 2 discriminator 2 view .LVU219
 655 000a 11D0     		beq	.L59
 469:Middlewares/Third_Party/FreeRTOS/Source/event_groups.c **** 
 656              		.loc 1 469 2 is_stmt 1 view .LVU220
 657              	.LBB93:
 658              	.LBI93:
 191:Middlewares/Third_Party/FreeRTOS/Source/portable/GCC/ARM_CM4F/portmacro.h **** {
 659              		.loc 2 191 30 view .LVU221
 660              	.LBB94:
 193:Middlewares/Third_Party/FreeRTOS/Source/portable/GCC/ARM_CM4F/portmacro.h **** 
 661              		.loc 2 193 1 view .LVU222
 662              		.loc 2 195 2 view .LVU223
 663              		.syntax unified
 664              	@ 195 "Middlewares/Third_Party/FreeRTOS/Source/portable/GCC/ARM_CM4F/portmacro.h" 1
 665 000c 4FF05003 			mov r3, #80												
 666 0010 83F31188 		msr basepri, r3											
 667 0014 BFF36F8F 		isb														
 668 0018 BFF34F8F 		dsb														
 669              	
 670              	@ 0 "" 2
 671              	.LVL47:
 672              		.thumb
 673              		.syntax unified
 674              	.L60:
 675              		.loc 2 195 2 is_stmt 0 view .LVU224
 676              	.LBE94:
 677              	.LBE93:
 469:Middlewares/Third_Party/FreeRTOS/Source/event_groups.c **** 
 678              		.loc 1 469 2 is_stmt 1 discriminator 2 view .LVU225
 469:Middlewares/Third_Party/FreeRTOS/Source/event_groups.c **** 
 679              		.loc 1 469 2 discriminator 2 view .LVU226
 469:Middlewares/Third_Party/FreeRTOS/Source/event_groups.c **** 
 680              		.loc 1 469 2 discriminator 2 view .LVU227
 469:Middlewares/Third_Party/FreeRTOS/Source/event_groups.c **** 
 681              		.loc 1 469 2 discriminator 2 view .LVU228
 469:Middlewares/Third_Party/FreeRTOS/Source/event_groups.c **** 
 682              		.loc 1 469 2 discriminator 2 view .LVU229
 469:Middlewares/Third_Party/FreeRTOS/Source/event_groups.c **** 
 683              		.loc 1 469 2 discriminator 2 view .LVU230
 684 001c FEE7     		b	.L60
 685              	.L63:
 686              	.LCFI8:
 687              		.cfi_def_cfa_offset 0
 688              		.cfi_restore 4
 689              		.cfi_restore 5
 690              		.cfi_restore 6
 691              		.cfi_restore 14
 468:Middlewares/Third_Party/FreeRTOS/Source/event_groups.c **** 	configASSERT( ( uxBitsToClear & eventEVENT_BITS_CONTROL_BYTES ) == 0 );
 692              		.loc 1 468 2 view .LVU231
 693              	.LBB95:
 694              	.LBI95:
ARM GAS  /tmp/ccZCJYQx.s 			page 31


 191:Middlewares/Third_Party/FreeRTOS/Source/portable/GCC/ARM_CM4F/portmacro.h **** {
 695              		.loc 2 191 30 view .LVU232
 696              	.LBB96:
 193:Middlewares/Third_Party/FreeRTOS/Source/portable/GCC/ARM_CM4F/portmacro.h **** 
 697              		.loc 2 193 1 view .LVU233
 698              		.loc 2 195 2 view .LVU234
 699              		.syntax unified
 700              	@ 195 "Middlewares/Third_Party/FreeRTOS/Source/portable/GCC/ARM_CM4F/portmacro.h" 1
 701 001e 4FF05003 			mov r3, #80												
 702 0022 83F31188 		msr basepri, r3											
 703 0026 BFF36F8F 		isb														
 704 002a BFF34F8F 		dsb														
 705              	
 706              	@ 0 "" 2
 707              	.LVL48:
 708              		.thumb
 709              		.syntax unified
 710              	.L58:
 711              		.loc 2 195 2 is_stmt 0 view .LVU235
 712              	.LBE96:
 713              	.LBE95:
 468:Middlewares/Third_Party/FreeRTOS/Source/event_groups.c **** 	configASSERT( ( uxBitsToClear & eventEVENT_BITS_CONTROL_BYTES ) == 0 );
 714              		.loc 1 468 2 is_stmt 1 discriminator 1 view .LVU236
 468:Middlewares/Third_Party/FreeRTOS/Source/event_groups.c **** 	configASSERT( ( uxBitsToClear & eventEVENT_BITS_CONTROL_BYTES ) == 0 );
 715              		.loc 1 468 2 discriminator 1 view .LVU237
 468:Middlewares/Third_Party/FreeRTOS/Source/event_groups.c **** 	configASSERT( ( uxBitsToClear & eventEVENT_BITS_CONTROL_BYTES ) == 0 );
 716              		.loc 1 468 2 discriminator 1 view .LVU238
 468:Middlewares/Third_Party/FreeRTOS/Source/event_groups.c **** 	configASSERT( ( uxBitsToClear & eventEVENT_BITS_CONTROL_BYTES ) == 0 );
 717              		.loc 1 468 2 discriminator 1 view .LVU239
 468:Middlewares/Third_Party/FreeRTOS/Source/event_groups.c **** 	configASSERT( ( uxBitsToClear & eventEVENT_BITS_CONTROL_BYTES ) == 0 );
 718              		.loc 1 468 2 discriminator 1 view .LVU240
 468:Middlewares/Third_Party/FreeRTOS/Source/event_groups.c **** 	configASSERT( ( uxBitsToClear & eventEVENT_BITS_CONTROL_BYTES ) == 0 );
 719              		.loc 1 468 2 discriminator 1 view .LVU241
 720 002e FEE7     		b	.L58
 721              	.L59:
 722              	.LCFI9:
 723              		.cfi_def_cfa_offset 16
 724              		.cfi_offset 4, -16
 725              		.cfi_offset 5, -12
 726              		.cfi_offset 6, -8
 727              		.cfi_offset 14, -4
 468:Middlewares/Third_Party/FreeRTOS/Source/event_groups.c **** 	configASSERT( ( uxBitsToClear & eventEVENT_BITS_CONTROL_BYTES ) == 0 );
 728              		.loc 1 468 2 is_stmt 0 discriminator 1 view .LVU242
 729 0030 0546     		mov	r5, r0
 730              	.LVL49:
 731              	.LBB97:
 732              	.LBI97:
 461:Middlewares/Third_Party/FreeRTOS/Source/event_groups.c **** {
 733              		.loc 1 461 13 is_stmt 1 view .LVU243
 734              	.LBB98:
 469:Middlewares/Third_Party/FreeRTOS/Source/event_groups.c **** 
 735              		.loc 1 469 72 view .LVU244
 471:Middlewares/Third_Party/FreeRTOS/Source/event_groups.c **** 	{
 736              		.loc 1 471 2 view .LVU245
 737 0032 FFF7FEFF 		bl	vPortEnterCritical
 738              	.LVL50:
 473:Middlewares/Third_Party/FreeRTOS/Source/event_groups.c **** 
ARM GAS  /tmp/ccZCJYQx.s 			page 32


 739              		.loc 1 473 60 view .LVU246
 477:Middlewares/Third_Party/FreeRTOS/Source/event_groups.c **** 
 740              		.loc 1 477 3 view .LVU247
 477:Middlewares/Third_Party/FreeRTOS/Source/event_groups.c **** 
 741              		.loc 1 477 12 is_stmt 0 view .LVU248
 742 0036 2E68     		ldr	r6, [r5]
 743              	.LVL51:
 480:Middlewares/Third_Party/FreeRTOS/Source/event_groups.c **** 	}
 744              		.loc 1 480 3 is_stmt 1 view .LVU249
 480:Middlewares/Third_Party/FreeRTOS/Source/event_groups.c **** 	}
 745              		.loc 1 480 28 is_stmt 0 view .LVU250
 746 0038 26EA0404 		bic	r4, r6, r4
 747              	.LVL52:
 480:Middlewares/Third_Party/FreeRTOS/Source/event_groups.c **** 	}
 748              		.loc 1 480 28 view .LVU251
 749 003c 2C60     		str	r4, [r5]
 482:Middlewares/Third_Party/FreeRTOS/Source/event_groups.c **** 
 750              		.loc 1 482 2 is_stmt 1 view .LVU252
 751 003e FFF7FEFF 		bl	vPortExitCritical
 752              	.LVL53:
 484:Middlewares/Third_Party/FreeRTOS/Source/event_groups.c **** }
 753              		.loc 1 484 2 view .LVU253
 484:Middlewares/Third_Party/FreeRTOS/Source/event_groups.c **** }
 754              		.loc 1 484 2 is_stmt 0 view .LVU254
 755              	.LBE98:
 756              	.LBE97:
 485:Middlewares/Third_Party/FreeRTOS/Source/event_groups.c **** /*-----------------------------------------------------------*/
 757              		.loc 1 485 1 view .LVU255
 758 0042 3046     		mov	r0, r6
 759 0044 70BD     		pop	{r4, r5, r6, pc}
 485:Middlewares/Third_Party/FreeRTOS/Source/event_groups.c **** /*-----------------------------------------------------------*/
 760              		.loc 1 485 1 view .LVU256
 761              		.cfi_endproc
 762              	.LFE8:
 764 0046 00BF     		.section	.text.vEventGroupClearBitsCallback,"ax",%progbits
 765              		.align	1
 766              		.p2align 2,,3
 767              		.global	vEventGroupClearBitsCallback
 768              		.syntax unified
 769              		.thumb
 770              		.thumb_func
 771              		.fpu fpv4-sp-d16
 773              	vEventGroupClearBitsCallback:
 774              	.LVL54:
 775              	.LFB14:
 666:Middlewares/Third_Party/FreeRTOS/Source/event_groups.c **** 	( void ) xEventGroupClearBits( pvEventGroup, ( EventBits_t ) ulBitsToClear ); /*lint !e9079 Can't 
 776              		.loc 1 666 1 is_stmt 1 view -0
 777              		.cfi_startproc
 778              		@ args = 0, pretend = 0, frame = 0
 779              		@ frame_needed = 0, uses_anonymous_args = 0
 780              		@ link register save eliminated.
 667:Middlewares/Third_Party/FreeRTOS/Source/event_groups.c **** }
 781              		.loc 1 667 2 view .LVU258
 667:Middlewares/Third_Party/FreeRTOS/Source/event_groups.c **** }
 782              		.loc 1 667 11 is_stmt 0 view .LVU259
 783 0000 FFF7FEBF 		b	xEventGroupClearBits
 784              	.LVL55:
ARM GAS  /tmp/ccZCJYQx.s 			page 33


 667:Middlewares/Third_Party/FreeRTOS/Source/event_groups.c **** }
 785              		.loc 1 667 11 view .LVU260
 786              		.cfi_endproc
 787              	.LFE14:
 789              		.section	.text.xEventGroupClearBitsFromISR,"ax",%progbits
 790              		.align	1
 791              		.p2align 2,,3
 792              		.global	xEventGroupClearBitsFromISR
 793              		.syntax unified
 794              		.thumb
 795              		.thumb_func
 796              		.fpu fpv4-sp-d16
 798              	xEventGroupClearBitsFromISR:
 799              	.LVL56:
 800              	.LFB9:
 491:Middlewares/Third_Party/FreeRTOS/Source/event_groups.c **** 		BaseType_t xReturn;
 801              		.loc 1 491 2 is_stmt 1 view -0
 802              		.cfi_startproc
 803              		@ args = 0, pretend = 0, frame = 0
 804              		@ frame_needed = 0, uses_anonymous_args = 0
 805              		@ link register save eliminated.
 492:Middlewares/Third_Party/FreeRTOS/Source/event_groups.c **** 
 806              		.loc 1 492 3 view .LVU262
 494:Middlewares/Third_Party/FreeRTOS/Source/event_groups.c **** 		xReturn = xTimerPendFunctionCallFromISR( vEventGroupClearBitsCallback, ( void * ) xEventGroup, ( 
 807              		.loc 1 494 69 view .LVU263
 495:Middlewares/Third_Party/FreeRTOS/Source/event_groups.c **** 
 808              		.loc 1 495 3 view .LVU264
 491:Middlewares/Third_Party/FreeRTOS/Source/event_groups.c **** 		BaseType_t xReturn;
 809              		.loc 1 491 2 is_stmt 0 view .LVU265
 810 0000 0A46     		mov	r2, r1
 495:Middlewares/Third_Party/FreeRTOS/Source/event_groups.c **** 
 811              		.loc 1 495 13 view .LVU266
 812 0002 0023     		movs	r3, #0
 813 0004 0146     		mov	r1, r0
 814              	.LVL57:
 495:Middlewares/Third_Party/FreeRTOS/Source/event_groups.c **** 
 815              		.loc 1 495 13 view .LVU267
 816 0006 0148     		ldr	r0, .L66
 817              	.LVL58:
 495:Middlewares/Third_Party/FreeRTOS/Source/event_groups.c **** 
 818              		.loc 1 495 13 view .LVU268
 819 0008 FFF7FEBF 		b	xTimerPendFunctionCallFromISR
 820              	.LVL59:
 821              	.L67:
 495:Middlewares/Third_Party/FreeRTOS/Source/event_groups.c **** 
 822              		.loc 1 495 13 view .LVU269
 823              		.align	2
 824              	.L66:
 825 000c 00000000 		.word	vEventGroupClearBitsCallback
 826              		.cfi_endproc
 827              	.LFE9:
 829              		.section	.text.xEventGroupGetBitsFromISR,"ax",%progbits
 830              		.align	1
 831              		.p2align 2,,3
 832              		.global	xEventGroupGetBitsFromISR
 833              		.syntax unified
 834              		.thumb
ARM GAS  /tmp/ccZCJYQx.s 			page 34


 835              		.thumb_func
 836              		.fpu fpv4-sp-d16
 838              	xEventGroupGetBitsFromISR:
 839              	.LVL60:
 840              	.LFB10:
 504:Middlewares/Third_Party/FreeRTOS/Source/event_groups.c **** UBaseType_t uxSavedInterruptStatus;
 841              		.loc 1 504 1 is_stmt 1 view -0
 842              		.cfi_startproc
 843              		@ args = 0, pretend = 0, frame = 0
 844              		@ frame_needed = 0, uses_anonymous_args = 0
 845              		@ link register save eliminated.
 505:Middlewares/Third_Party/FreeRTOS/Source/event_groups.c **** EventGroup_t const * const pxEventBits = xEventGroup;
 846              		.loc 1 505 1 view .LVU271
 506:Middlewares/Third_Party/FreeRTOS/Source/event_groups.c **** EventBits_t uxReturn;
 847              		.loc 1 506 1 view .LVU272
 507:Middlewares/Third_Party/FreeRTOS/Source/event_groups.c **** 
 848              		.loc 1 507 1 view .LVU273
 509:Middlewares/Third_Party/FreeRTOS/Source/event_groups.c **** 	{
 849              		.loc 1 509 2 view .LVU274
 850              	.LBB99:
 851              	.LBI99:
 196:Middlewares/Third_Party/FreeRTOS/Source/portable/GCC/ARM_CM4F/portmacro.h **** 	(
 197:Middlewares/Third_Party/FreeRTOS/Source/portable/GCC/ARM_CM4F/portmacro.h **** 		"	mov %0, %1												\n"	\
 198:Middlewares/Third_Party/FreeRTOS/Source/portable/GCC/ARM_CM4F/portmacro.h **** 		"	msr basepri, %0											\n" \
 199:Middlewares/Third_Party/FreeRTOS/Source/portable/GCC/ARM_CM4F/portmacro.h **** 		"	isb														\n" \
 200:Middlewares/Third_Party/FreeRTOS/Source/portable/GCC/ARM_CM4F/portmacro.h **** 		"	dsb														\n" \
 201:Middlewares/Third_Party/FreeRTOS/Source/portable/GCC/ARM_CM4F/portmacro.h **** 		:"=r" (ulNewBASEPRI) : "i" ( configMAX_SYSCALL_INTERRUPT_PRIORITY ) : "memory"
 202:Middlewares/Third_Party/FreeRTOS/Source/portable/GCC/ARM_CM4F/portmacro.h **** 	);
 203:Middlewares/Third_Party/FreeRTOS/Source/portable/GCC/ARM_CM4F/portmacro.h **** }
 204:Middlewares/Third_Party/FreeRTOS/Source/portable/GCC/ARM_CM4F/portmacro.h **** 
 205:Middlewares/Third_Party/FreeRTOS/Source/portable/GCC/ARM_CM4F/portmacro.h **** /*-----------------------------------------------------------*/
 206:Middlewares/Third_Party/FreeRTOS/Source/portable/GCC/ARM_CM4F/portmacro.h **** 
 207:Middlewares/Third_Party/FreeRTOS/Source/portable/GCC/ARM_CM4F/portmacro.h **** portFORCE_INLINE static uint32_t ulPortRaiseBASEPRI( void )
 852              		.loc 2 207 34 view .LVU275
 853              	.LBB100:
 208:Middlewares/Third_Party/FreeRTOS/Source/portable/GCC/ARM_CM4F/portmacro.h **** {
 209:Middlewares/Third_Party/FreeRTOS/Source/portable/GCC/ARM_CM4F/portmacro.h **** uint32_t ulOriginalBASEPRI, ulNewBASEPRI;
 854              		.loc 2 209 1 view .LVU276
 210:Middlewares/Third_Party/FreeRTOS/Source/portable/GCC/ARM_CM4F/portmacro.h **** 
 211:Middlewares/Third_Party/FreeRTOS/Source/portable/GCC/ARM_CM4F/portmacro.h **** 	__asm volatile
 855              		.loc 2 211 2 view .LVU277
 856              		.syntax unified
 857              	@ 211 "Middlewares/Third_Party/FreeRTOS/Source/portable/GCC/ARM_CM4F/portmacro.h" 1
 858 0000 EFF31183 			mrs r3, basepri											
 859 0004 4FF05002 		mov r2, #80												
 860 0008 82F31188 		msr basepri, r2											
 861 000c BFF36F8F 		isb														
 862 0010 BFF34F8F 		dsb														
 863              	
 864              	@ 0 "" 2
 865              	.LVL61:
 212:Middlewares/Third_Party/FreeRTOS/Source/portable/GCC/ARM_CM4F/portmacro.h **** 	(
 213:Middlewares/Third_Party/FreeRTOS/Source/portable/GCC/ARM_CM4F/portmacro.h **** 		"	mrs %0, basepri											\n" \
 214:Middlewares/Third_Party/FreeRTOS/Source/portable/GCC/ARM_CM4F/portmacro.h **** 		"	mov %1, %2												\n"	\
 215:Middlewares/Third_Party/FreeRTOS/Source/portable/GCC/ARM_CM4F/portmacro.h **** 		"	msr basepri, %1											\n" \
 216:Middlewares/Third_Party/FreeRTOS/Source/portable/GCC/ARM_CM4F/portmacro.h **** 		"	isb														\n" \
 217:Middlewares/Third_Party/FreeRTOS/Source/portable/GCC/ARM_CM4F/portmacro.h **** 		"	dsb														\n" \
ARM GAS  /tmp/ccZCJYQx.s 			page 35


 218:Middlewares/Third_Party/FreeRTOS/Source/portable/GCC/ARM_CM4F/portmacro.h **** 		:"=r" (ulOriginalBASEPRI), "=r" (ulNewBASEPRI) : "i" ( configMAX_SYSCALL_INTERRUPT_PRIORITY ) : "
 219:Middlewares/Third_Party/FreeRTOS/Source/portable/GCC/ARM_CM4F/portmacro.h **** 	);
 220:Middlewares/Third_Party/FreeRTOS/Source/portable/GCC/ARM_CM4F/portmacro.h **** 
 221:Middlewares/Third_Party/FreeRTOS/Source/portable/GCC/ARM_CM4F/portmacro.h **** 	/* This return will not be reached but is necessary to prevent compiler
 222:Middlewares/Third_Party/FreeRTOS/Source/portable/GCC/ARM_CM4F/portmacro.h **** 	warnings. */
 223:Middlewares/Third_Party/FreeRTOS/Source/portable/GCC/ARM_CM4F/portmacro.h **** 	return ulOriginalBASEPRI;
 866              		.loc 2 223 2 view .LVU278
 867              		.loc 2 223 2 is_stmt 0 view .LVU279
 868              		.thumb
 869              		.syntax unified
 870              	.LBE100:
 871              	.LBE99:
 511:Middlewares/Third_Party/FreeRTOS/Source/event_groups.c **** 	}
 872              		.loc 1 511 3 is_stmt 1 view .LVU280
 511:Middlewares/Third_Party/FreeRTOS/Source/event_groups.c **** 	}
 873              		.loc 1 511 12 is_stmt 0 view .LVU281
 874 0014 0068     		ldr	r0, [r0]
 875              	.LVL62:
 513:Middlewares/Third_Party/FreeRTOS/Source/event_groups.c **** 
 876              		.loc 1 513 2 is_stmt 1 view .LVU282
 877              	.LBB101:
 878              	.LBI101:
 224:Middlewares/Third_Party/FreeRTOS/Source/portable/GCC/ARM_CM4F/portmacro.h **** }
 225:Middlewares/Third_Party/FreeRTOS/Source/portable/GCC/ARM_CM4F/portmacro.h **** /*-----------------------------------------------------------*/
 226:Middlewares/Third_Party/FreeRTOS/Source/portable/GCC/ARM_CM4F/portmacro.h **** 
 227:Middlewares/Third_Party/FreeRTOS/Source/portable/GCC/ARM_CM4F/portmacro.h **** portFORCE_INLINE static void vPortSetBASEPRI( uint32_t ulNewMaskValue )
 879              		.loc 2 227 30 view .LVU283
 880              	.LBB102:
 228:Middlewares/Third_Party/FreeRTOS/Source/portable/GCC/ARM_CM4F/portmacro.h **** {
 229:Middlewares/Third_Party/FreeRTOS/Source/portable/GCC/ARM_CM4F/portmacro.h **** 	__asm volatile
 881              		.loc 2 229 2 view .LVU284
 882              		.syntax unified
 883              	@ 229 "Middlewares/Third_Party/FreeRTOS/Source/portable/GCC/ARM_CM4F/portmacro.h" 1
 884 0016 83F31188 			msr basepri, r3	
 885              	@ 0 "" 2
 886              	.LVL63:
 887              		.loc 2 229 2 is_stmt 0 view .LVU285
 888              		.thumb
 889              		.syntax unified
 890              	.LBE102:
 891              	.LBE101:
 515:Middlewares/Third_Party/FreeRTOS/Source/event_groups.c **** } /*lint !e818 EventGroupHandle_t is a typedef used in other functions to so can't be pointer to co
 892              		.loc 1 515 2 is_stmt 1 view .LVU286
 516:Middlewares/Third_Party/FreeRTOS/Source/event_groups.c **** /*-----------------------------------------------------------*/
 893              		.loc 1 516 1 is_stmt 0 view .LVU287
 894 001a 7047     		bx	lr
 895              		.cfi_endproc
 896              	.LFE10:
 898              		.section	.text.xEventGroupSetBits,"ax",%progbits
 899              		.align	1
 900              		.p2align 2,,3
 901              		.global	xEventGroupSetBits
 902              		.syntax unified
 903              		.thumb
 904              		.thumb_func
 905              		.fpu fpv4-sp-d16
 907              	xEventGroupSetBits:
ARM GAS  /tmp/ccZCJYQx.s 			page 36


 908              	.LVL64:
 909              	.LFB11:
 520:Middlewares/Third_Party/FreeRTOS/Source/event_groups.c **** ListItem_t *pxListItem, *pxNext;
 910              		.loc 1 520 1 is_stmt 1 view -0
 911              		.cfi_startproc
 912              		@ args = 0, pretend = 0, frame = 0
 913              		@ frame_needed = 0, uses_anonymous_args = 0
 521:Middlewares/Third_Party/FreeRTOS/Source/event_groups.c **** ListItem_t const *pxListEnd;
 914              		.loc 1 521 1 view .LVU289
 522:Middlewares/Third_Party/FreeRTOS/Source/event_groups.c **** List_t const * pxList;
 915              		.loc 1 522 1 view .LVU290
 523:Middlewares/Third_Party/FreeRTOS/Source/event_groups.c **** EventBits_t uxBitsToClear = 0, uxBitsWaitedFor, uxControlBits;
 916              		.loc 1 523 1 view .LVU291
 524:Middlewares/Third_Party/FreeRTOS/Source/event_groups.c **** EventGroup_t *pxEventBits = xEventGroup;
 917              		.loc 1 524 1 view .LVU292
 525:Middlewares/Third_Party/FreeRTOS/Source/event_groups.c **** BaseType_t xMatchFound = pdFALSE;
 918              		.loc 1 525 1 view .LVU293
 526:Middlewares/Third_Party/FreeRTOS/Source/event_groups.c **** 
 919              		.loc 1 526 1 view .LVU294
 530:Middlewares/Third_Party/FreeRTOS/Source/event_groups.c **** 	configASSERT( ( uxBitsToSet & eventEVENT_BITS_CONTROL_BYTES ) == 0 );
 920              		.loc 1 530 2 view .LVU295
 520:Middlewares/Third_Party/FreeRTOS/Source/event_groups.c **** ListItem_t *pxListItem, *pxNext;
 921              		.loc 1 520 1 is_stmt 0 view .LVU296
 922 0000 F8B5     		push	{r3, r4, r5, r6, r7, lr}
 923              	.LCFI10:
 924              		.cfi_def_cfa_offset 24
 925              		.cfi_offset 3, -24
 926              		.cfi_offset 4, -20
 927              		.cfi_offset 5, -16
 928              		.cfi_offset 6, -12
 929              		.cfi_offset 7, -8
 930              		.cfi_offset 14, -4
 530:Middlewares/Third_Party/FreeRTOS/Source/event_groups.c **** 	configASSERT( ( uxBitsToSet & eventEVENT_BITS_CONTROL_BYTES ) == 0 );
 931              		.loc 1 530 2 view .LVU297
 932 0002 60B1     		cbz	r0, .L86
 530:Middlewares/Third_Party/FreeRTOS/Source/event_groups.c **** 	configASSERT( ( uxBitsToSet & eventEVENT_BITS_CONTROL_BYTES ) == 0 );
 933              		.loc 1 530 29 is_stmt 1 discriminator 2 view .LVU298
 531:Middlewares/Third_Party/FreeRTOS/Source/event_groups.c **** 
 934              		.loc 1 531 2 discriminator 2 view .LVU299
 935 0004 11F07F47 		ands	r7, r1, #-16777216
 936 0008 0C46     		mov	r4, r1
 937 000a 11D0     		beq	.L72
 531:Middlewares/Third_Party/FreeRTOS/Source/event_groups.c **** 
 938              		.loc 1 531 2 view .LVU300
 939              	.LBB113:
 940              	.LBI113:
 191:Middlewares/Third_Party/FreeRTOS/Source/portable/GCC/ARM_CM4F/portmacro.h **** {
 941              		.loc 2 191 30 view .LVU301
 942              	.LBB114:
 193:Middlewares/Third_Party/FreeRTOS/Source/portable/GCC/ARM_CM4F/portmacro.h **** 
 943              		.loc 2 193 1 view .LVU302
 195:Middlewares/Third_Party/FreeRTOS/Source/portable/GCC/ARM_CM4F/portmacro.h **** 	(
 944              		.loc 2 195 2 view .LVU303
 945              		.syntax unified
 946              	@ 195 "Middlewares/Third_Party/FreeRTOS/Source/portable/GCC/ARM_CM4F/portmacro.h" 1
 947 000c 4FF05003 			mov r3, #80												
 948 0010 83F31188 		msr basepri, r3											
ARM GAS  /tmp/ccZCJYQx.s 			page 37


 949 0014 BFF36F8F 		isb														
 950 0018 BFF34F8F 		dsb														
 951              	
 952              	@ 0 "" 2
 953              	.LVL65:
 954              		.thumb
 955              		.syntax unified
 956              	.L73:
 195:Middlewares/Third_Party/FreeRTOS/Source/portable/GCC/ARM_CM4F/portmacro.h **** 	(
 957              		.loc 2 195 2 is_stmt 0 view .LVU304
 958              	.LBE114:
 959              	.LBE113:
 531:Middlewares/Third_Party/FreeRTOS/Source/event_groups.c **** 
 960              		.loc 1 531 2 is_stmt 1 discriminator 2 view .LVU305
 531:Middlewares/Third_Party/FreeRTOS/Source/event_groups.c **** 
 961              		.loc 1 531 2 discriminator 2 view .LVU306
 531:Middlewares/Third_Party/FreeRTOS/Source/event_groups.c **** 
 962              		.loc 1 531 2 discriminator 2 view .LVU307
 531:Middlewares/Third_Party/FreeRTOS/Source/event_groups.c **** 
 963              		.loc 1 531 2 discriminator 2 view .LVU308
 531:Middlewares/Third_Party/FreeRTOS/Source/event_groups.c **** 
 964              		.loc 1 531 2 discriminator 2 view .LVU309
 531:Middlewares/Third_Party/FreeRTOS/Source/event_groups.c **** 
 965              		.loc 1 531 2 discriminator 2 view .LVU310
 966 001c FEE7     		b	.L73
 967              	.L86:
 530:Middlewares/Third_Party/FreeRTOS/Source/event_groups.c **** 	configASSERT( ( uxBitsToSet & eventEVENT_BITS_CONTROL_BYTES ) == 0 );
 968              		.loc 1 530 2 view .LVU311
 969              	.LBB115:
 970              	.LBI115:
 191:Middlewares/Third_Party/FreeRTOS/Source/portable/GCC/ARM_CM4F/portmacro.h **** {
 971              		.loc 2 191 30 view .LVU312
 972              	.LBB116:
 193:Middlewares/Third_Party/FreeRTOS/Source/portable/GCC/ARM_CM4F/portmacro.h **** 
 973              		.loc 2 193 1 view .LVU313
 195:Middlewares/Third_Party/FreeRTOS/Source/portable/GCC/ARM_CM4F/portmacro.h **** 	(
 974              		.loc 2 195 2 view .LVU314
 975              		.syntax unified
 976              	@ 195 "Middlewares/Third_Party/FreeRTOS/Source/portable/GCC/ARM_CM4F/portmacro.h" 1
 977 001e 4FF05003 			mov r3, #80												
 978 0022 83F31188 		msr basepri, r3											
 979 0026 BFF36F8F 		isb														
 980 002a BFF34F8F 		dsb														
 981              	
 982              	@ 0 "" 2
 983              	.LVL66:
 984              		.thumb
 985              		.syntax unified
 986              	.L71:
 195:Middlewares/Third_Party/FreeRTOS/Source/portable/GCC/ARM_CM4F/portmacro.h **** 	(
 987              		.loc 2 195 2 is_stmt 0 view .LVU315
 988              	.LBE116:
 989              	.LBE115:
 530:Middlewares/Third_Party/FreeRTOS/Source/event_groups.c **** 	configASSERT( ( uxBitsToSet & eventEVENT_BITS_CONTROL_BYTES ) == 0 );
 990              		.loc 1 530 2 is_stmt 1 discriminator 1 view .LVU316
 530:Middlewares/Third_Party/FreeRTOS/Source/event_groups.c **** 	configASSERT( ( uxBitsToSet & eventEVENT_BITS_CONTROL_BYTES ) == 0 );
 991              		.loc 1 530 2 discriminator 1 view .LVU317
ARM GAS  /tmp/ccZCJYQx.s 			page 38


 530:Middlewares/Third_Party/FreeRTOS/Source/event_groups.c **** 	configASSERT( ( uxBitsToSet & eventEVENT_BITS_CONTROL_BYTES ) == 0 );
 992              		.loc 1 530 2 discriminator 1 view .LVU318
 530:Middlewares/Third_Party/FreeRTOS/Source/event_groups.c **** 	configASSERT( ( uxBitsToSet & eventEVENT_BITS_CONTROL_BYTES ) == 0 );
 993              		.loc 1 530 2 discriminator 1 view .LVU319
 530:Middlewares/Third_Party/FreeRTOS/Source/event_groups.c **** 	configASSERT( ( uxBitsToSet & eventEVENT_BITS_CONTROL_BYTES ) == 0 );
 994              		.loc 1 530 2 discriminator 1 view .LVU320
 530:Middlewares/Third_Party/FreeRTOS/Source/event_groups.c **** 	configASSERT( ( uxBitsToSet & eventEVENT_BITS_CONTROL_BYTES ) == 0 );
 995              		.loc 1 530 2 discriminator 1 view .LVU321
 996 002e FEE7     		b	.L71
 997              	.L72:
 530:Middlewares/Third_Party/FreeRTOS/Source/event_groups.c **** 	configASSERT( ( uxBitsToSet & eventEVENT_BITS_CONTROL_BYTES ) == 0 );
 998              		.loc 1 530 2 is_stmt 0 discriminator 1 view .LVU322
 999 0030 0546     		mov	r5, r0
 1000              	.LVL67:
 1001              	.LBB117:
 1002              	.LBI117:
 519:Middlewares/Third_Party/FreeRTOS/Source/event_groups.c **** {
 1003              		.loc 1 519 13 is_stmt 1 view .LVU323
 1004              	.LBB118:
 531:Middlewares/Third_Party/FreeRTOS/Source/event_groups.c **** 
 1005              		.loc 1 531 70 view .LVU324
 533:Middlewares/Third_Party/FreeRTOS/Source/event_groups.c **** 	pxListEnd = listGET_END_MARKER( pxList ); /*lint !e826 !e740 !e9087 The mini list structure is use
 1006              		.loc 1 533 2 view .LVU325
 534:Middlewares/Third_Party/FreeRTOS/Source/event_groups.c **** 	vTaskSuspendAll();
 1007              		.loc 1 534 2 view .LVU326
 535:Middlewares/Third_Party/FreeRTOS/Source/event_groups.c **** 	{
 1008              		.loc 1 535 2 is_stmt 0 view .LVU327
 1009 0032 FFF7FEFF 		bl	vTaskSuspendAll
 1010              	.LVL68:
 542:Middlewares/Third_Party/FreeRTOS/Source/event_groups.c **** 
 1011              		.loc 1 542 28 view .LVU328
 1012 0036 2968     		ldr	r1, [r5]
 539:Middlewares/Third_Party/FreeRTOS/Source/event_groups.c **** 
 1013              		.loc 1 539 14 view .LVU329
 1014 0038 2E69     		ldr	r6, [r5, #16]
 542:Middlewares/Third_Party/FreeRTOS/Source/event_groups.c **** 
 1015              		.loc 1 542 28 view .LVU330
 1016 003a 2143     		orrs	r1, r1, r4
 534:Middlewares/Third_Party/FreeRTOS/Source/event_groups.c **** 	vTaskSuspendAll();
 1017              		.loc 1 534 12 view .LVU331
 1018 003c 05F10C04 		add	r4, r5, #12
 1019              	.LVL69:
 535:Middlewares/Third_Party/FreeRTOS/Source/event_groups.c **** 	{
 1020              		.loc 1 535 2 is_stmt 1 view .LVU332
 537:Middlewares/Third_Party/FreeRTOS/Source/event_groups.c **** 
 1021              		.loc 1 537 56 view .LVU333
 539:Middlewares/Third_Party/FreeRTOS/Source/event_groups.c **** 
 1022              		.loc 1 539 3 view .LVU334
 542:Middlewares/Third_Party/FreeRTOS/Source/event_groups.c **** 
 1023              		.loc 1 542 3 view .LVU335
 545:Middlewares/Third_Party/FreeRTOS/Source/event_groups.c **** 		{
 1024              		.loc 1 545 8 is_stmt 0 view .LVU336
 1025 0040 B442     		cmp	r4, r6
 542:Middlewares/Third_Party/FreeRTOS/Source/event_groups.c **** 
 1026              		.loc 1 542 28 view .LVU337
 1027 0042 2960     		str	r1, [r5]
 545:Middlewares/Third_Party/FreeRTOS/Source/event_groups.c **** 		{
ARM GAS  /tmp/ccZCJYQx.s 			page 39


 1028              		.loc 1 545 3 is_stmt 1 view .LVU338
 1029              	.LVL70:
 545:Middlewares/Third_Party/FreeRTOS/Source/event_groups.c **** 		{
 1030              		.loc 1 545 8 view .LVU339
 1031 0044 0CD1     		bne	.L79
 545:Middlewares/Third_Party/FreeRTOS/Source/event_groups.c **** 		{
 1032              		.loc 1 545 8 is_stmt 0 view .LVU340
 1033 0046 1AE0     		b	.L74
 1034              	.LVL71:
 1035              	.L88:
 558:Middlewares/Third_Party/FreeRTOS/Source/event_groups.c **** 				{
 1036              		.loc 1 558 7 view .LVU341
 1037 0048 1942     		tst	r1, r3
 1038 004a 07D0     		beq	.L77
 1039              	.L76:
 582:Middlewares/Third_Party/FreeRTOS/Source/event_groups.c **** 				}
 1040              		.loc 1 582 6 is_stmt 1 view .LVU342
 580:Middlewares/Third_Party/FreeRTOS/Source/event_groups.c **** 				{
 1041              		.loc 1 580 7 is_stmt 0 view .LVU343
 1042 004c D201     		lsls	r2, r2, #7
 1043              	.LVL72:
 594:Middlewares/Third_Party/FreeRTOS/Source/event_groups.c **** 			}
 1044              		.loc 1 594 5 view .LVU344
 1045 004e 41F00071 		orr	r1, r1, #33554432
 582:Middlewares/Third_Party/FreeRTOS/Source/event_groups.c **** 				}
 1046              		.loc 1 582 20 view .LVU345
 1047 0052 48BF     		it	mi
 1048 0054 1F43     		orrmi	r7, r7, r3
 1049              	.LVL73:
 586:Middlewares/Third_Party/FreeRTOS/Source/event_groups.c **** 				}
 1050              		.loc 1 586 30 is_stmt 1 view .LVU346
 594:Middlewares/Third_Party/FreeRTOS/Source/event_groups.c **** 			}
 1051              		.loc 1 594 5 view .LVU347
 1052 0056 FFF7FEFF 		bl	vTaskRemoveFromUnorderedEventList
 1053              	.LVL74:
 594:Middlewares/Third_Party/FreeRTOS/Source/event_groups.c **** 			}
 1054              		.loc 1 594 5 is_stmt 0 view .LVU348
 1055 005a 2968     		ldr	r1, [r5]
 1056              	.L77:
 1057              	.LVL75:
 545:Middlewares/Third_Party/FreeRTOS/Source/event_groups.c **** 		{
 1058              		.loc 1 545 8 is_stmt 1 view .LVU349
 1059 005c B442     		cmp	r4, r6
 1060 005e 0CD0     		beq	.L87
 1061              	.LVL76:
 1062              	.L79:
 547:Middlewares/Third_Party/FreeRTOS/Source/event_groups.c **** 			uxBitsWaitedFor = listGET_LIST_ITEM_VALUE( pxListItem );
 1063              		.loc 1 547 4 view .LVU350
 558:Middlewares/Third_Party/FreeRTOS/Source/event_groups.c **** 				{
 1064              		.loc 1 558 5 view .LVU351
 567:Middlewares/Third_Party/FreeRTOS/Source/event_groups.c **** 			{
 1065              		.loc 1 567 9 view .LVU352
 580:Middlewares/Third_Party/FreeRTOS/Source/event_groups.c **** 				{
 1066              		.loc 1 580 5 view .LVU353
 1067 0060 3046     		mov	r0, r6
 547:Middlewares/Third_Party/FreeRTOS/Source/event_groups.c **** 			uxBitsWaitedFor = listGET_LIST_ITEM_VALUE( pxListItem );
 1068              		.loc 1 547 11 is_stmt 0 view .LVU354
ARM GAS  /tmp/ccZCJYQx.s 			page 40


 1069 0062 7668     		ldr	r6, [r6, #4]
 1070              	.LVL77:
 548:Middlewares/Third_Party/FreeRTOS/Source/event_groups.c **** 			xMatchFound = pdFALSE;
 1071              		.loc 1 548 4 is_stmt 1 view .LVU355
 548:Middlewares/Third_Party/FreeRTOS/Source/event_groups.c **** 			xMatchFound = pdFALSE;
 1072              		.loc 1 548 20 is_stmt 0 view .LVU356
 1073 0064 0268     		ldr	r2, [r0]
 1074              	.LVL78:
 549:Middlewares/Third_Party/FreeRTOS/Source/event_groups.c **** 
 1075              		.loc 1 549 4 is_stmt 1 view .LVU357
 552:Middlewares/Third_Party/FreeRTOS/Source/event_groups.c **** 			uxBitsWaitedFor &= ~eventEVENT_BITS_CONTROL_BYTES;
 1076              		.loc 1 552 4 view .LVU358
 553:Middlewares/Third_Party/FreeRTOS/Source/event_groups.c **** 
 1077              		.loc 1 553 4 view .LVU359
 555:Middlewares/Third_Party/FreeRTOS/Source/event_groups.c **** 			{
 1078              		.loc 1 555 6 is_stmt 0 view .LVU360
 1079 0066 12F0806F 		tst	r2, #67108864
 553:Middlewares/Third_Party/FreeRTOS/Source/event_groups.c **** 
 1080              		.loc 1 553 20 view .LVU361
 1081 006a 22F07F43 		bic	r3, r2, #-16777216
 1082              	.LVL79:
 555:Middlewares/Third_Party/FreeRTOS/Source/event_groups.c **** 			{
 1083              		.loc 1 555 4 is_stmt 1 view .LVU362
 555:Middlewares/Third_Party/FreeRTOS/Source/event_groups.c **** 			{
 1084              		.loc 1 555 6 is_stmt 0 view .LVU363
 1085 006e EBD0     		beq	.L88
 567:Middlewares/Third_Party/FreeRTOS/Source/event_groups.c **** 			{
 1086              		.loc 1 567 11 view .LVU364
 1087 0070 33EA010C 		bics	ip, r3, r1
 1088 0074 EAD0     		beq	.L76
 1089              	.LVL80:
 545:Middlewares/Third_Party/FreeRTOS/Source/event_groups.c **** 		{
 1090              		.loc 1 545 8 is_stmt 1 view .LVU365
 1091 0076 B442     		cmp	r4, r6
 1092 0078 F2D1     		bne	.L79
 1093              	.LVL81:
 1094              	.L87:
 545:Middlewares/Third_Party/FreeRTOS/Source/event_groups.c **** 		{
 1095              		.loc 1 545 8 is_stmt 0 view .LVU366
 1096 007a 21EA0701 		bic	r1, r1, r7
 1097              	.LVL82:
 1098              	.L74:
 605:Middlewares/Third_Party/FreeRTOS/Source/event_groups.c **** 	}
 1099              		.loc 1 605 3 is_stmt 1 view .LVU367
 605:Middlewares/Third_Party/FreeRTOS/Source/event_groups.c **** 	}
 1100              		.loc 1 605 28 is_stmt 0 view .LVU368
 1101 007e 2960     		str	r1, [r5]
 607:Middlewares/Third_Party/FreeRTOS/Source/event_groups.c **** 
 1102              		.loc 1 607 2 is_stmt 1 view .LVU369
 607:Middlewares/Third_Party/FreeRTOS/Source/event_groups.c **** 
 1103              		.loc 1 607 11 is_stmt 0 view .LVU370
 1104 0080 FFF7FEFF 		bl	xTaskResumeAll
 1105              	.LVL83:
 609:Middlewares/Third_Party/FreeRTOS/Source/event_groups.c **** }
 1106              		.loc 1 609 2 is_stmt 1 view .LVU371
 609:Middlewares/Third_Party/FreeRTOS/Source/event_groups.c **** }
 1107              		.loc 1 609 2 is_stmt 0 view .LVU372
ARM GAS  /tmp/ccZCJYQx.s 			page 41


 1108              	.LBE118:
 1109              	.LBE117:
 610:Middlewares/Third_Party/FreeRTOS/Source/event_groups.c **** /*-----------------------------------------------------------*/
 1110              		.loc 1 610 1 view .LVU373
 1111 0084 2868     		ldr	r0, [r5]
 1112 0086 F8BD     		pop	{r3, r4, r5, r6, r7, pc}
 610:Middlewares/Third_Party/FreeRTOS/Source/event_groups.c **** /*-----------------------------------------------------------*/
 1113              		.loc 1 610 1 view .LVU374
 1114              		.cfi_endproc
 1115              	.LFE11:
 1117              		.section	.text.xEventGroupSync,"ax",%progbits
 1118              		.align	1
 1119              		.p2align 2,,3
 1120              		.global	xEventGroupSync
 1121              		.syntax unified
 1122              		.thumb
 1123              		.thumb_func
 1124              		.fpu fpv4-sp-d16
 1126              	xEventGroupSync:
 1127              	.LVL84:
 1128              	.LFB6:
 192:Middlewares/Third_Party/FreeRTOS/Source/event_groups.c **** EventBits_t uxOriginalBitValue, uxReturn;
 1129              		.loc 1 192 1 is_stmt 1 view -0
 1130              		.cfi_startproc
 1131              		@ args = 0, pretend = 0, frame = 8
 1132              		@ frame_needed = 0, uses_anonymous_args = 0
 193:Middlewares/Third_Party/FreeRTOS/Source/event_groups.c **** EventGroup_t *pxEventBits = xEventGroup;
 1133              		.loc 1 193 1 view .LVU376
 194:Middlewares/Third_Party/FreeRTOS/Source/event_groups.c **** BaseType_t xAlreadyYielded;
 1134              		.loc 1 194 1 view .LVU377
 195:Middlewares/Third_Party/FreeRTOS/Source/event_groups.c **** BaseType_t xTimeoutOccurred = pdFALSE;
 1135              		.loc 1 195 1 view .LVU378
 196:Middlewares/Third_Party/FreeRTOS/Source/event_groups.c **** 
 1136              		.loc 1 196 1 view .LVU379
 198:Middlewares/Third_Party/FreeRTOS/Source/event_groups.c **** 	configASSERT( uxBitsToWaitFor != 0 );
 1137              		.loc 1 198 2 view .LVU380
 1138 0000 12F07F4F 		tst	r2, #-16777216
 1139 0004 08D0     		beq	.L90
 198:Middlewares/Third_Party/FreeRTOS/Source/event_groups.c **** 	configASSERT( uxBitsToWaitFor != 0 );
 1140              		.loc 1 198 2 view .LVU381
 1141              	.LBB119:
 1142              	.LBI119:
 191:Middlewares/Third_Party/FreeRTOS/Source/portable/GCC/ARM_CM4F/portmacro.h **** {
 1143              		.loc 2 191 30 view .LVU382
 1144              	.LBB120:
 193:Middlewares/Third_Party/FreeRTOS/Source/portable/GCC/ARM_CM4F/portmacro.h **** 
 1145              		.loc 2 193 1 view .LVU383
 195:Middlewares/Third_Party/FreeRTOS/Source/portable/GCC/ARM_CM4F/portmacro.h **** 	(
 1146              		.loc 2 195 2 view .LVU384
 1147              		.syntax unified
 1148              	@ 195 "Middlewares/Third_Party/FreeRTOS/Source/portable/GCC/ARM_CM4F/portmacro.h" 1
 1149 0006 4FF05003 			mov r3, #80												
 1150 000a 83F31188 		msr basepri, r3											
 1151 000e BFF36F8F 		isb														
 1152 0012 BFF34F8F 		dsb														
 1153              	
 1154              	@ 0 "" 2
ARM GAS  /tmp/ccZCJYQx.s 			page 42


 1155              	.LVL85:
 1156              		.thumb
 1157              		.syntax unified
 1158              	.L91:
 195:Middlewares/Third_Party/FreeRTOS/Source/portable/GCC/ARM_CM4F/portmacro.h **** 	(
 1159              		.loc 2 195 2 is_stmt 0 view .LVU385
 1160              	.LBE120:
 1161              	.LBE119:
 198:Middlewares/Third_Party/FreeRTOS/Source/event_groups.c **** 	configASSERT( uxBitsToWaitFor != 0 );
 1162              		.loc 1 198 2 is_stmt 1 discriminator 1 view .LVU386
 198:Middlewares/Third_Party/FreeRTOS/Source/event_groups.c **** 	configASSERT( uxBitsToWaitFor != 0 );
 1163              		.loc 1 198 2 discriminator 1 view .LVU387
 198:Middlewares/Third_Party/FreeRTOS/Source/event_groups.c **** 	configASSERT( uxBitsToWaitFor != 0 );
 1164              		.loc 1 198 2 discriminator 1 view .LVU388
 198:Middlewares/Third_Party/FreeRTOS/Source/event_groups.c **** 	configASSERT( uxBitsToWaitFor != 0 );
 1165              		.loc 1 198 2 discriminator 1 view .LVU389
 198:Middlewares/Third_Party/FreeRTOS/Source/event_groups.c **** 	configASSERT( uxBitsToWaitFor != 0 );
 1166              		.loc 1 198 2 discriminator 1 view .LVU390
 198:Middlewares/Third_Party/FreeRTOS/Source/event_groups.c **** 	configASSERT( uxBitsToWaitFor != 0 );
 1167              		.loc 1 198 2 discriminator 1 view .LVU391
 1168 0016 FEE7     		b	.L91
 1169              	.LVL86:
 1170              	.L90:
 198:Middlewares/Third_Party/FreeRTOS/Source/event_groups.c **** 	configASSERT( uxBitsToWaitFor != 0 );
 1171              		.loc 1 198 74 discriminator 2 view .LVU392
 199:Middlewares/Third_Party/FreeRTOS/Source/event_groups.c **** 	#if ( ( INCLUDE_xTaskGetSchedulerState == 1 ) || ( configUSE_TIMERS == 1 ) )
 1172              		.loc 1 199 2 discriminator 2 view .LVU393
 192:Middlewares/Third_Party/FreeRTOS/Source/event_groups.c **** EventBits_t uxOriginalBitValue, uxReturn;
 1173              		.loc 1 192 1 is_stmt 0 discriminator 2 view .LVU394
 1174 0018 F0B5     		push	{r4, r5, r6, r7, lr}
 1175              	.LCFI11:
 1176              		.cfi_def_cfa_offset 20
 1177              		.cfi_offset 4, -20
 1178              		.cfi_offset 5, -16
 1179              		.cfi_offset 6, -12
 1180              		.cfi_offset 7, -8
 1181              		.cfi_offset 14, -4
 1182 001a 1646     		mov	r6, r2
 1183 001c 83B0     		sub	sp, sp, #12
 1184              	.LCFI12:
 1185              		.cfi_def_cfa_offset 32
 199:Middlewares/Third_Party/FreeRTOS/Source/event_groups.c **** 	#if ( ( INCLUDE_xTaskGetSchedulerState == 1 ) || ( configUSE_TIMERS == 1 ) )
 1186              		.loc 1 199 2 discriminator 2 view .LVU395
 1187 001e 42B9     		cbnz	r2, .L92
 199:Middlewares/Third_Party/FreeRTOS/Source/event_groups.c **** 	#if ( ( INCLUDE_xTaskGetSchedulerState == 1 ) || ( configUSE_TIMERS == 1 ) )
 1188              		.loc 1 199 2 is_stmt 1 view .LVU396
 1189              	.LBB121:
 1190              	.LBI121:
 191:Middlewares/Third_Party/FreeRTOS/Source/portable/GCC/ARM_CM4F/portmacro.h **** {
 1191              		.loc 2 191 30 view .LVU397
 1192              	.LBB122:
 193:Middlewares/Third_Party/FreeRTOS/Source/portable/GCC/ARM_CM4F/portmacro.h **** 
 1193              		.loc 2 193 1 view .LVU398
 195:Middlewares/Third_Party/FreeRTOS/Source/portable/GCC/ARM_CM4F/portmacro.h **** 	(
 1194              		.loc 2 195 2 view .LVU399
 1195              		.syntax unified
 1196              	@ 195 "Middlewares/Third_Party/FreeRTOS/Source/portable/GCC/ARM_CM4F/portmacro.h" 1
ARM GAS  /tmp/ccZCJYQx.s 			page 43


 1197 0020 4FF05003 			mov r3, #80												
 1198 0024 83F31188 		msr basepri, r3											
 1199 0028 BFF36F8F 		isb														
 1200 002c BFF34F8F 		dsb														
 1201              	
 1202              	@ 0 "" 2
 1203              	.LVL87:
 1204              		.thumb
 1205              		.syntax unified
 1206              	.L93:
 195:Middlewares/Third_Party/FreeRTOS/Source/portable/GCC/ARM_CM4F/portmacro.h **** 	(
 1207              		.loc 2 195 2 is_stmt 0 view .LVU400
 1208              	.LBE122:
 1209              	.LBE121:
 199:Middlewares/Third_Party/FreeRTOS/Source/event_groups.c **** 	#if ( ( INCLUDE_xTaskGetSchedulerState == 1 ) || ( configUSE_TIMERS == 1 ) )
 1210              		.loc 1 199 2 is_stmt 1 discriminator 2 view .LVU401
 199:Middlewares/Third_Party/FreeRTOS/Source/event_groups.c **** 	#if ( ( INCLUDE_xTaskGetSchedulerState == 1 ) || ( configUSE_TIMERS == 1 ) )
 1211              		.loc 1 199 2 discriminator 2 view .LVU402
 199:Middlewares/Third_Party/FreeRTOS/Source/event_groups.c **** 	#if ( ( INCLUDE_xTaskGetSchedulerState == 1 ) || ( configUSE_TIMERS == 1 ) )
 1212              		.loc 1 199 2 discriminator 2 view .LVU403
 199:Middlewares/Third_Party/FreeRTOS/Source/event_groups.c **** 	#if ( ( INCLUDE_xTaskGetSchedulerState == 1 ) || ( configUSE_TIMERS == 1 ) )
 1213              		.loc 1 199 2 discriminator 2 view .LVU404
 199:Middlewares/Third_Party/FreeRTOS/Source/event_groups.c **** 	#if ( ( INCLUDE_xTaskGetSchedulerState == 1 ) || ( configUSE_TIMERS == 1 ) )
 1214              		.loc 1 199 2 discriminator 2 view .LVU405
 199:Middlewares/Third_Party/FreeRTOS/Source/event_groups.c **** 	#if ( ( INCLUDE_xTaskGetSchedulerState == 1 ) || ( configUSE_TIMERS == 1 ) )
 1215              		.loc 1 199 2 discriminator 2 view .LVU406
 1216 0030 FEE7     		b	.L93
 1217              	.LVL88:
 1218              	.L92:
 199:Middlewares/Third_Party/FreeRTOS/Source/event_groups.c **** 	#if ( ( INCLUDE_xTaskGetSchedulerState == 1 ) || ( configUSE_TIMERS == 1 ) )
 1219              		.loc 1 199 38 discriminator 2 view .LVU407
 202:Middlewares/Third_Party/FreeRTOS/Source/event_groups.c **** 	}
 1220              		.loc 1 202 3 discriminator 2 view .LVU408
 1221 0032 0191     		str	r1, [sp, #4]
 1222 0034 0546     		mov	r5, r0
 1223 0036 1F46     		mov	r7, r3
 1224 0038 FFF7FEFF 		bl	xTaskGetSchedulerState
 1225              	.LVL89:
 202:Middlewares/Third_Party/FreeRTOS/Source/event_groups.c **** 	}
 1226              		.loc 1 202 3 is_stmt 0 discriminator 2 view .LVU409
 1227 003c 0199     		ldr	r1, [sp, #4]
 1228 003e C8B9     		cbnz	r0, .L94
 202:Middlewares/Third_Party/FreeRTOS/Source/event_groups.c **** 	}
 1229              		.loc 1 202 3 discriminator 2 view .LVU410
 1230 0040 47B1     		cbz	r7, .L95
 202:Middlewares/Third_Party/FreeRTOS/Source/event_groups.c **** 	}
 1231              		.loc 1 202 3 is_stmt 1 view .LVU411
 1232              	.LBB123:
 1233              	.LBI123:
 191:Middlewares/Third_Party/FreeRTOS/Source/portable/GCC/ARM_CM4F/portmacro.h **** {
 1234              		.loc 2 191 30 view .LVU412
 1235              	.LBB124:
 193:Middlewares/Third_Party/FreeRTOS/Source/portable/GCC/ARM_CM4F/portmacro.h **** 
 1236              		.loc 2 193 1 view .LVU413
 195:Middlewares/Third_Party/FreeRTOS/Source/portable/GCC/ARM_CM4F/portmacro.h **** 	(
 1237              		.loc 2 195 2 view .LVU414
 1238              		.syntax unified
ARM GAS  /tmp/ccZCJYQx.s 			page 44


 1239              	@ 195 "Middlewares/Third_Party/FreeRTOS/Source/portable/GCC/ARM_CM4F/portmacro.h" 1
 1240 0042 4FF05003 			mov r3, #80												
 1241 0046 83F31188 		msr basepri, r3											
 1242 004a BFF36F8F 		isb														
 1243 004e BFF34F8F 		dsb														
 1244              	
 1245              	@ 0 "" 2
 1246              	.LVL90:
 1247              		.thumb
 1248              		.syntax unified
 1249              	.L96:
 195:Middlewares/Third_Party/FreeRTOS/Source/portable/GCC/ARM_CM4F/portmacro.h **** 	(
 1250              		.loc 2 195 2 is_stmt 0 view .LVU415
 1251              	.LBE124:
 1252              	.LBE123:
 202:Middlewares/Third_Party/FreeRTOS/Source/event_groups.c **** 	}
 1253              		.loc 1 202 3 is_stmt 1 discriminator 3 view .LVU416
 202:Middlewares/Third_Party/FreeRTOS/Source/event_groups.c **** 	}
 1254              		.loc 1 202 3 discriminator 3 view .LVU417
 202:Middlewares/Third_Party/FreeRTOS/Source/event_groups.c **** 	}
 1255              		.loc 1 202 3 discriminator 3 view .LVU418
 202:Middlewares/Third_Party/FreeRTOS/Source/event_groups.c **** 	}
 1256              		.loc 1 202 3 discriminator 3 view .LVU419
 202:Middlewares/Third_Party/FreeRTOS/Source/event_groups.c **** 	}
 1257              		.loc 1 202 3 discriminator 3 view .LVU420
 202:Middlewares/Third_Party/FreeRTOS/Source/event_groups.c **** 	}
 1258              		.loc 1 202 3 discriminator 3 view .LVU421
 1259 0052 FEE7     		b	.L96
 1260              	.L95:
 202:Middlewares/Third_Party/FreeRTOS/Source/event_groups.c **** 	}
 1261              		.loc 1 202 104 view .LVU422
 206:Middlewares/Third_Party/FreeRTOS/Source/event_groups.c **** 	{
 1262              		.loc 1 206 2 view .LVU423
 1263 0054 0191     		str	r1, [sp, #4]
 1264              	.LVL91:
 206:Middlewares/Third_Party/FreeRTOS/Source/event_groups.c **** 	{
 1265              		.loc 1 206 2 is_stmt 0 view .LVU424
 1266 0056 FFF7FEFF 		bl	vTaskSuspendAll
 1267              	.LVL92:
 208:Middlewares/Third_Party/FreeRTOS/Source/event_groups.c **** 
 1268              		.loc 1 208 3 is_stmt 1 view .LVU425
 208:Middlewares/Third_Party/FreeRTOS/Source/event_groups.c **** 
 1269              		.loc 1 208 22 is_stmt 0 view .LVU426
 1270 005a 2C68     		ldr	r4, [r5]
 1271              	.LVL93:
 210:Middlewares/Third_Party/FreeRTOS/Source/event_groups.c **** 
 1272              		.loc 1 210 3 is_stmt 1 view .LVU427
 210:Middlewares/Third_Party/FreeRTOS/Source/event_groups.c **** 
 1273              		.loc 1 210 12 is_stmt 0 view .LVU428
 1274 005c 0199     		ldr	r1, [sp, #4]
 1275 005e 2846     		mov	r0, r5
 212:Middlewares/Third_Party/FreeRTOS/Source/event_groups.c **** 		{
 1276              		.loc 1 212 30 view .LVU429
 1277 0060 0C43     		orrs	r4, r4, r1
 1278              	.LVL94:
 210:Middlewares/Third_Party/FreeRTOS/Source/event_groups.c **** 
 1279              		.loc 1 210 12 view .LVU430
ARM GAS  /tmp/ccZCJYQx.s 			page 45


 1280 0062 FFF7FEFF 		bl	xEventGroupSetBits
 1281              	.LVL95:
 212:Middlewares/Third_Party/FreeRTOS/Source/event_groups.c **** 		{
 1282              		.loc 1 212 3 is_stmt 1 view .LVU431
 212:Middlewares/Third_Party/FreeRTOS/Source/event_groups.c **** 		{
 1283              		.loc 1 212 5 is_stmt 0 view .LVU432
 1284 0066 36EA0403 		bics	r3, r6, r4
 1285 006a 2AD0     		beq	.L104
 1286              	.L99:
 244:Middlewares/Third_Party/FreeRTOS/Source/event_groups.c **** 				xTimeoutOccurred = pdTRUE;
 1287              		.loc 1 244 5 is_stmt 1 view .LVU433
 244:Middlewares/Third_Party/FreeRTOS/Source/event_groups.c **** 				xTimeoutOccurred = pdTRUE;
 1288              		.loc 1 244 14 is_stmt 0 view .LVU434
 1289 006c 2C68     		ldr	r4, [r5]
 1290              	.LVL96:
 245:Middlewares/Third_Party/FreeRTOS/Source/event_groups.c **** 			}
 1291              		.loc 1 245 5 is_stmt 1 view .LVU435
 249:Middlewares/Third_Party/FreeRTOS/Source/event_groups.c **** 
 1292              		.loc 1 249 2 view .LVU436
 249:Middlewares/Third_Party/FreeRTOS/Source/event_groups.c **** 
 1293              		.loc 1 249 20 is_stmt 0 view .LVU437
 1294 006e FFF7FEFF 		bl	xTaskResumeAll
 1295              	.LVL97:
 251:Middlewares/Third_Party/FreeRTOS/Source/event_groups.c **** 	{
 1296              		.loc 1 251 2 is_stmt 1 view .LVU438
 1297 0072 2CE0     		b	.L89
 1298              	.LVL98:
 1299              	.L94:
 202:Middlewares/Third_Party/FreeRTOS/Source/event_groups.c **** 	}
 1300              		.loc 1 202 104 discriminator 8 view .LVU439
 206:Middlewares/Third_Party/FreeRTOS/Source/event_groups.c **** 	{
 1301              		.loc 1 206 2 discriminator 8 view .LVU440
 1302 0074 0191     		str	r1, [sp, #4]
 1303              	.LVL99:
 206:Middlewares/Third_Party/FreeRTOS/Source/event_groups.c **** 	{
 1304              		.loc 1 206 2 is_stmt 0 discriminator 8 view .LVU441
 1305 0076 FFF7FEFF 		bl	vTaskSuspendAll
 1306              	.LVL100:
 208:Middlewares/Third_Party/FreeRTOS/Source/event_groups.c **** 
 1307              		.loc 1 208 3 is_stmt 1 discriminator 8 view .LVU442
 208:Middlewares/Third_Party/FreeRTOS/Source/event_groups.c **** 
 1308              		.loc 1 208 22 is_stmt 0 discriminator 8 view .LVU443
 1309 007a 2C68     		ldr	r4, [r5]
 1310              	.LVL101:
 210:Middlewares/Third_Party/FreeRTOS/Source/event_groups.c **** 
 1311              		.loc 1 210 3 is_stmt 1 discriminator 8 view .LVU444
 210:Middlewares/Third_Party/FreeRTOS/Source/event_groups.c **** 
 1312              		.loc 1 210 12 is_stmt 0 discriminator 8 view .LVU445
 1313 007c 0199     		ldr	r1, [sp, #4]
 1314 007e 2846     		mov	r0, r5
 212:Middlewares/Third_Party/FreeRTOS/Source/event_groups.c **** 		{
 1315              		.loc 1 212 30 discriminator 8 view .LVU446
 1316 0080 0C43     		orrs	r4, r4, r1
 1317              	.LVL102:
 210:Middlewares/Third_Party/FreeRTOS/Source/event_groups.c **** 
 1318              		.loc 1 210 12 discriminator 8 view .LVU447
 1319 0082 FFF7FEFF 		bl	xEventGroupSetBits
ARM GAS  /tmp/ccZCJYQx.s 			page 46


 1320              	.LVL103:
 212:Middlewares/Third_Party/FreeRTOS/Source/event_groups.c **** 		{
 1321              		.loc 1 212 3 is_stmt 1 discriminator 8 view .LVU448
 212:Middlewares/Third_Party/FreeRTOS/Source/event_groups.c **** 		{
 1322              		.loc 1 212 5 is_stmt 0 discriminator 8 view .LVU449
 1323 0086 36EA0403 		bics	r3, r6, r4
 1324 008a 1AD0     		beq	.L104
 225:Middlewares/Third_Party/FreeRTOS/Source/event_groups.c **** 			{
 1325              		.loc 1 225 4 is_stmt 1 view .LVU450
 225:Middlewares/Third_Party/FreeRTOS/Source/event_groups.c **** 			{
 1326              		.loc 1 225 6 is_stmt 0 view .LVU451
 1327 008c 002F     		cmp	r7, #0
 1328 008e EDD0     		beq	.L99
 227:Middlewares/Third_Party/FreeRTOS/Source/event_groups.c **** 
 1329              		.loc 1 227 77 is_stmt 1 view .LVU452
 232:Middlewares/Third_Party/FreeRTOS/Source/event_groups.c **** 
 1330              		.loc 1 232 5 view .LVU453
 1331 0090 3A46     		mov	r2, r7
 1332 0092 46F0A061 		orr	r1, r6, #83886080
 1333 0096 281D     		adds	r0, r5, #4
 1334 0098 FFF7FEFF 		bl	vTaskPlaceOnUnorderedEventList
 1335              	.LVL104:
 238:Middlewares/Third_Party/FreeRTOS/Source/event_groups.c **** 			}
 1336              		.loc 1 238 5 view .LVU454
 249:Middlewares/Third_Party/FreeRTOS/Source/event_groups.c **** 
 1337              		.loc 1 249 2 view .LVU455
 249:Middlewares/Third_Party/FreeRTOS/Source/event_groups.c **** 
 1338              		.loc 1 249 20 is_stmt 0 view .LVU456
 1339 009c FFF7FEFF 		bl	xTaskResumeAll
 1340              	.LVL105:
 251:Middlewares/Third_Party/FreeRTOS/Source/event_groups.c **** 	{
 1341              		.loc 1 251 2 is_stmt 1 view .LVU457
 253:Middlewares/Third_Party/FreeRTOS/Source/event_groups.c **** 		{
 1342              		.loc 1 253 3 view .LVU458
 253:Middlewares/Third_Party/FreeRTOS/Source/event_groups.c **** 		{
 1343              		.loc 1 253 5 is_stmt 0 view .LVU459
 1344 00a0 38B9     		cbnz	r0, .L101
 255:Middlewares/Third_Party/FreeRTOS/Source/event_groups.c **** 		}
 1345              		.loc 1 255 4 is_stmt 1 view .LVU460
 1346 00a2 124B     		ldr	r3, .L111
 1347 00a4 4FF08052 		mov	r2, #268435456
 1348 00a8 1A60     		str	r2, [r3]
 255:Middlewares/Third_Party/FreeRTOS/Source/event_groups.c **** 		}
 1349              		.loc 1 255 4 view .LVU461
 1350              		.syntax unified
 1351              	@ 255 "Middlewares/Third_Party/FreeRTOS/Source/event_groups.c" 1
 1352 00aa BFF34F8F 		dsb
 1353              	@ 0 "" 2
 255:Middlewares/Third_Party/FreeRTOS/Source/event_groups.c **** 		}
 1354              		.loc 1 255 4 view .LVU462
 1355              	@ 255 "Middlewares/Third_Party/FreeRTOS/Source/event_groups.c" 1
 1356 00ae BFF36F8F 		isb
 1357              	@ 0 "" 2
 255:Middlewares/Third_Party/FreeRTOS/Source/event_groups.c **** 		}
 1358              		.loc 1 255 26 view .LVU463
 1359              		.thumb
 1360              		.syntax unified
ARM GAS  /tmp/ccZCJYQx.s 			page 47


 1361              	.L101:
 259:Middlewares/Third_Party/FreeRTOS/Source/event_groups.c **** 		}
 1362              		.loc 1 259 28 view .LVU464
 266:Middlewares/Third_Party/FreeRTOS/Source/event_groups.c **** 
 1363              		.loc 1 266 3 view .LVU465
 266:Middlewares/Third_Party/FreeRTOS/Source/event_groups.c **** 
 1364              		.loc 1 266 14 is_stmt 0 view .LVU466
 1365 00b2 FFF7FEFF 		bl	uxTaskResetEventItemValue
 1366              	.LVL106:
 268:Middlewares/Third_Party/FreeRTOS/Source/event_groups.c **** 		{
 1367              		.loc 1 268 5 view .LVU467
 1368 00b6 8301     		lsls	r3, r0, #6
 266:Middlewares/Third_Party/FreeRTOS/Source/event_groups.c **** 
 1369              		.loc 1 266 14 view .LVU468
 1370 00b8 0446     		mov	r4, r0
 1371              	.LVL107:
 268:Middlewares/Third_Party/FreeRTOS/Source/event_groups.c **** 		{
 1372              		.loc 1 268 3 is_stmt 1 view .LVU469
 268:Middlewares/Third_Party/FreeRTOS/Source/event_groups.c **** 		{
 1373              		.loc 1 268 5 is_stmt 0 view .LVU470
 1374 00ba 0BD5     		bpl	.L110
 1375              	.LVL108:
 1376              	.L102:
 295:Middlewares/Third_Party/FreeRTOS/Source/event_groups.c **** 
 1377              		.loc 1 295 3 is_stmt 1 view .LVU471
 299:Middlewares/Third_Party/FreeRTOS/Source/event_groups.c **** 	}
 1378              		.loc 1 299 3 view .LVU472
 299:Middlewares/Third_Party/FreeRTOS/Source/event_groups.c **** 	}
 1379              		.loc 1 299 12 is_stmt 0 view .LVU473
 1380 00bc 24F07F44 		bic	r4, r4, #-16777216
 1381              	.LVL109:
 302:Middlewares/Third_Party/FreeRTOS/Source/event_groups.c **** 
 1382              		.loc 1 302 2 is_stmt 1 view .LVU474
 305:Middlewares/Third_Party/FreeRTOS/Source/event_groups.c **** 
 1383              		.loc 1 305 2 view .LVU475
 307:Middlewares/Third_Party/FreeRTOS/Source/event_groups.c **** }
 1384              		.loc 1 307 2 view .LVU476
 307:Middlewares/Third_Party/FreeRTOS/Source/event_groups.c **** }
 1385              		.loc 1 307 9 is_stmt 0 view .LVU477
 1386 00c0 05E0     		b	.L89
 1387              	.LVL110:
 1388              	.L104:
 215:Middlewares/Third_Party/FreeRTOS/Source/event_groups.c **** 
 1389              		.loc 1 215 4 is_stmt 1 view .LVU478
 219:Middlewares/Third_Party/FreeRTOS/Source/event_groups.c **** 
 1390              		.loc 1 219 4 view .LVU479
 219:Middlewares/Third_Party/FreeRTOS/Source/event_groups.c **** 
 1391              		.loc 1 219 29 is_stmt 0 view .LVU480
 1392 00c2 2B68     		ldr	r3, [r5]
 1393 00c4 23EA0603 		bic	r3, r3, r6
 1394 00c8 2B60     		str	r3, [r5]
 221:Middlewares/Third_Party/FreeRTOS/Source/event_groups.c **** 		}
 1395              		.loc 1 221 4 is_stmt 1 view .LVU481
 1396              	.LVL111:
 249:Middlewares/Third_Party/FreeRTOS/Source/event_groups.c **** 
 1397              		.loc 1 249 2 view .LVU482
 249:Middlewares/Third_Party/FreeRTOS/Source/event_groups.c **** 
ARM GAS  /tmp/ccZCJYQx.s 			page 48


 1398              		.loc 1 249 20 is_stmt 0 view .LVU483
 1399 00ca FFF7FEFF 		bl	xTaskResumeAll
 1400              	.LVL112:
 251:Middlewares/Third_Party/FreeRTOS/Source/event_groups.c **** 	{
 1401              		.loc 1 251 2 is_stmt 1 view .LVU484
 1402              	.L89:
 308:Middlewares/Third_Party/FreeRTOS/Source/event_groups.c **** /*-----------------------------------------------------------*/
 1403              		.loc 1 308 1 is_stmt 0 view .LVU485
 1404 00ce 2046     		mov	r0, r4
 1405 00d0 03B0     		add	sp, sp, #12
 1406              	.LCFI13:
 1407              		.cfi_remember_state
 1408              		.cfi_def_cfa_offset 20
 1409              		@ sp needed
 1410 00d2 F0BD     		pop	{r4, r5, r6, r7, pc}
 1411              	.LVL113:
 1412              	.L110:
 1413              	.LCFI14:
 1414              		.cfi_restore_state
 271:Middlewares/Third_Party/FreeRTOS/Source/event_groups.c **** 			{
 1415              		.loc 1 271 4 is_stmt 1 view .LVU486
 1416 00d4 FFF7FEFF 		bl	vPortEnterCritical
 1417              	.LVL114:
 273:Middlewares/Third_Party/FreeRTOS/Source/event_groups.c **** 
 1418              		.loc 1 273 5 view .LVU487
 273:Middlewares/Third_Party/FreeRTOS/Source/event_groups.c **** 
 1419              		.loc 1 273 14 is_stmt 0 view .LVU488
 1420 00d8 2C68     		ldr	r4, [r5]
 1421              	.LVL115:
 279:Middlewares/Third_Party/FreeRTOS/Source/event_groups.c **** 				{
 1422              		.loc 1 279 5 is_stmt 1 view .LVU489
 281:Middlewares/Third_Party/FreeRTOS/Source/event_groups.c **** 				}
 1423              		.loc 1 281 6 view .LVU490
 279:Middlewares/Third_Party/FreeRTOS/Source/event_groups.c **** 				{
 1424              		.loc 1 279 7 is_stmt 0 view .LVU491
 1425 00da 36EA0403 		bics	r3, r6, r4
 281:Middlewares/Third_Party/FreeRTOS/Source/event_groups.c **** 				}
 1426              		.loc 1 281 31 view .LVU492
 1427 00de 04BF     		itt	eq
 1428 00e0 24EA0606 		biceq	r6, r4, r6
 1429              	.LVL116:
 281:Middlewares/Third_Party/FreeRTOS/Source/event_groups.c **** 				}
 1430              		.loc 1 281 31 view .LVU493
 1431 00e4 2E60     		streq	r6, [r5]
 285:Middlewares/Third_Party/FreeRTOS/Source/event_groups.c **** 				}
 1432              		.loc 1 285 30 is_stmt 1 view .LVU494
 288:Middlewares/Third_Party/FreeRTOS/Source/event_groups.c **** 
 1433              		.loc 1 288 4 view .LVU495
 1434 00e6 FFF7FEFF 		bl	vPortExitCritical
 1435              	.LVL117:
 290:Middlewares/Third_Party/FreeRTOS/Source/event_groups.c **** 		}
 1436              		.loc 1 290 4 view .LVU496
 290:Middlewares/Third_Party/FreeRTOS/Source/event_groups.c **** 		}
 1437              		.loc 1 290 4 is_stmt 0 view .LVU497
 1438 00ea E7E7     		b	.L102
 1439              	.L112:
 1440              		.align	2
ARM GAS  /tmp/ccZCJYQx.s 			page 49


 1441              	.L111:
 1442 00ec 04ED00E0 		.word	-536810236
 1443              		.cfi_endproc
 1444              	.LFE6:
 1446              		.section	.text.vEventGroupSetBitsCallback,"ax",%progbits
 1447              		.align	1
 1448              		.p2align 2,,3
 1449              		.global	vEventGroupSetBitsCallback
 1450              		.syntax unified
 1451              		.thumb
 1452              		.thumb_func
 1453              		.fpu fpv4-sp-d16
 1455              	vEventGroupSetBitsCallback:
 1456              	.LVL118:
 1457              	.LFB13:
 658:Middlewares/Third_Party/FreeRTOS/Source/event_groups.c **** 	( void ) xEventGroupSetBits( pvEventGroup, ( EventBits_t ) ulBitsToSet ); /*lint !e9079 Can't avoi
 1458              		.loc 1 658 1 is_stmt 1 view -0
 1459              		.cfi_startproc
 1460              		@ args = 0, pretend = 0, frame = 0
 1461              		@ frame_needed = 0, uses_anonymous_args = 0
 1462              		@ link register save eliminated.
 659:Middlewares/Third_Party/FreeRTOS/Source/event_groups.c **** }
 1463              		.loc 1 659 2 view .LVU499
 659:Middlewares/Third_Party/FreeRTOS/Source/event_groups.c **** }
 1464              		.loc 1 659 11 is_stmt 0 view .LVU500
 1465 0000 FFF7FEBF 		b	xEventGroupSetBits
 1466              	.LVL119:
 659:Middlewares/Third_Party/FreeRTOS/Source/event_groups.c **** }
 1467              		.loc 1 659 11 view .LVU501
 1468              		.cfi_endproc
 1469              	.LFE13:
 1471              		.section	.text.vEventGroupDelete,"ax",%progbits
 1472              		.align	1
 1473              		.p2align 2,,3
 1474              		.global	vEventGroupDelete
 1475              		.syntax unified
 1476              		.thumb
 1477              		.thumb_func
 1478              		.fpu fpv4-sp-d16
 1480              	vEventGroupDelete:
 1481              	.LVL120:
 1482              	.LFB12:
 614:Middlewares/Third_Party/FreeRTOS/Source/event_groups.c **** EventGroup_t *pxEventBits = xEventGroup;
 1483              		.loc 1 614 1 is_stmt 1 view -0
 1484              		.cfi_startproc
 1485              		@ args = 0, pretend = 0, frame = 0
 1486              		@ frame_needed = 0, uses_anonymous_args = 0
 615:Middlewares/Third_Party/FreeRTOS/Source/event_groups.c **** const List_t *pxTasksWaitingForBits = &( pxEventBits->xTasksWaitingForBits );
 1487              		.loc 1 615 1 view .LVU503
 614:Middlewares/Third_Party/FreeRTOS/Source/event_groups.c **** EventGroup_t *pxEventBits = xEventGroup;
 1488              		.loc 1 614 1 is_stmt 0 view .LVU504
 1489 0000 38B5     		push	{r3, r4, r5, lr}
 1490              	.LCFI15:
 1491              		.cfi_def_cfa_offset 16
 1492              		.cfi_offset 3, -16
 1493              		.cfi_offset 4, -12
 1494              		.cfi_offset 5, -8
ARM GAS  /tmp/ccZCJYQx.s 			page 50


 1495              		.cfi_offset 14, -4
 614:Middlewares/Third_Party/FreeRTOS/Source/event_groups.c **** EventGroup_t *pxEventBits = xEventGroup;
 1496              		.loc 1 614 1 view .LVU505
 1497 0002 0446     		mov	r4, r0
 1498              	.LVL121:
 616:Middlewares/Third_Party/FreeRTOS/Source/event_groups.c **** 
 1499              		.loc 1 616 1 is_stmt 1 view .LVU506
 618:Middlewares/Third_Party/FreeRTOS/Source/event_groups.c **** 	{
 1500              		.loc 1 618 2 view .LVU507
 1501 0004 FFF7FEFF 		bl	vTaskSuspendAll
 1502              	.LVL122:
 620:Middlewares/Third_Party/FreeRTOS/Source/event_groups.c **** 
 1503              		.loc 1 620 41 view .LVU508
 622:Middlewares/Third_Party/FreeRTOS/Source/event_groups.c **** 		{
 1504              		.loc 1 622 3 view .LVU509
 622:Middlewares/Third_Party/FreeRTOS/Source/event_groups.c **** 		{
 1505              		.loc 1 622 8 view .LVU510
 622:Middlewares/Third_Party/FreeRTOS/Source/event_groups.c **** 		{
 1506              		.loc 1 622 10 is_stmt 0 view .LVU511
 1507 0008 6368     		ldr	r3, [r4, #4]
 1508 000a 04F10C05 		add	r5, r4, #12
 622:Middlewares/Third_Party/FreeRTOS/Source/event_groups.c **** 		{
 1509              		.loc 1 622 8 view .LVU512
 1510 000e 23B9     		cbnz	r3, .L120
 1511 0010 11E0     		b	.L121
 1512              	.L118:
 627:Middlewares/Third_Party/FreeRTOS/Source/event_groups.c **** 		}
 1513              		.loc 1 627 4 discriminator 2 view .LVU513
 1514 0012 FFF7FEFF 		bl	vTaskRemoveFromUnorderedEventList
 1515              	.LVL123:
 622:Middlewares/Third_Party/FreeRTOS/Source/event_groups.c **** 		{
 1516              		.loc 1 622 8 is_stmt 1 discriminator 2 view .LVU514
 622:Middlewares/Third_Party/FreeRTOS/Source/event_groups.c **** 		{
 1517              		.loc 1 622 10 is_stmt 0 discriminator 2 view .LVU515
 1518 0016 6368     		ldr	r3, [r4, #4]
 622:Middlewares/Third_Party/FreeRTOS/Source/event_groups.c **** 		{
 1519              		.loc 1 622 8 discriminator 2 view .LVU516
 1520 0018 6BB1     		cbz	r3, .L121
 1521              	.L120:
 626:Middlewares/Third_Party/FreeRTOS/Source/event_groups.c **** 			vTaskRemoveFromUnorderedEventList( pxTasksWaitingForBits->xListEnd.pxNext, eventUNBLOCKED_DUE_TO
 1522              		.loc 1 626 4 is_stmt 1 view .LVU517
 626:Middlewares/Third_Party/FreeRTOS/Source/event_groups.c **** 			vTaskRemoveFromUnorderedEventList( pxTasksWaitingForBits->xListEnd.pxNext, eventUNBLOCKED_DUE_TO
 1523              		.loc 1 626 121 view .LVU518
 627:Middlewares/Third_Party/FreeRTOS/Source/event_groups.c **** 		}
 1524              		.loc 1 627 4 view .LVU519
 626:Middlewares/Third_Party/FreeRTOS/Source/event_groups.c **** 			vTaskRemoveFromUnorderedEventList( pxTasksWaitingForBits->xListEnd.pxNext, eventUNBLOCKED_DUE_TO
 1525              		.loc 1 626 4 is_stmt 0 view .LVU520
 1526 001a 2069     		ldr	r0, [r4, #16]
 1527 001c A842     		cmp	r0, r5
 627:Middlewares/Third_Party/FreeRTOS/Source/event_groups.c **** 		}
 1528              		.loc 1 627 4 view .LVU521
 1529 001e 4FF00071 		mov	r1, #33554432
 626:Middlewares/Third_Party/FreeRTOS/Source/event_groups.c **** 			vTaskRemoveFromUnorderedEventList( pxTasksWaitingForBits->xListEnd.pxNext, eventUNBLOCKED_DUE_TO
 1530              		.loc 1 626 4 view .LVU522
 1531 0022 F6D1     		bne	.L118
 626:Middlewares/Third_Party/FreeRTOS/Source/event_groups.c **** 			vTaskRemoveFromUnorderedEventList( pxTasksWaitingForBits->xListEnd.pxNext, eventUNBLOCKED_DUE_TO
 1532              		.loc 1 626 4 is_stmt 1 view .LVU523
ARM GAS  /tmp/ccZCJYQx.s 			page 51


 1533              	.LBB125:
 1534              	.LBI125:
 191:Middlewares/Third_Party/FreeRTOS/Source/portable/GCC/ARM_CM4F/portmacro.h **** {
 1535              		.loc 2 191 30 view .LVU524
 1536              	.LBB126:
 193:Middlewares/Third_Party/FreeRTOS/Source/portable/GCC/ARM_CM4F/portmacro.h **** 
 1537              		.loc 2 193 1 view .LVU525
 195:Middlewares/Third_Party/FreeRTOS/Source/portable/GCC/ARM_CM4F/portmacro.h **** 	(
 1538              		.loc 2 195 2 view .LVU526
 1539              		.syntax unified
 1540              	@ 195 "Middlewares/Third_Party/FreeRTOS/Source/portable/GCC/ARM_CM4F/portmacro.h" 1
 1541 0024 4FF05003 			mov r3, #80												
 1542 0028 83F31188 		msr basepri, r3											
 1543 002c BFF36F8F 		isb														
 1544 0030 BFF34F8F 		dsb														
 1545              	
 1546              	@ 0 "" 2
 1547              	.LVL124:
 1548              		.thumb
 1549              		.syntax unified
 1550              	.L119:
 195:Middlewares/Third_Party/FreeRTOS/Source/portable/GCC/ARM_CM4F/portmacro.h **** 	(
 1551              		.loc 2 195 2 is_stmt 0 view .LVU527
 1552              	.LBE126:
 1553              	.LBE125:
 626:Middlewares/Third_Party/FreeRTOS/Source/event_groups.c **** 			vTaskRemoveFromUnorderedEventList( pxTasksWaitingForBits->xListEnd.pxNext, eventUNBLOCKED_DUE_TO
 1554              		.loc 1 626 4 is_stmt 1 discriminator 1 view .LVU528
 626:Middlewares/Third_Party/FreeRTOS/Source/event_groups.c **** 			vTaskRemoveFromUnorderedEventList( pxTasksWaitingForBits->xListEnd.pxNext, eventUNBLOCKED_DUE_TO
 1555              		.loc 1 626 4 discriminator 1 view .LVU529
 626:Middlewares/Third_Party/FreeRTOS/Source/event_groups.c **** 			vTaskRemoveFromUnorderedEventList( pxTasksWaitingForBits->xListEnd.pxNext, eventUNBLOCKED_DUE_TO
 1556              		.loc 1 626 4 discriminator 1 view .LVU530
 626:Middlewares/Third_Party/FreeRTOS/Source/event_groups.c **** 			vTaskRemoveFromUnorderedEventList( pxTasksWaitingForBits->xListEnd.pxNext, eventUNBLOCKED_DUE_TO
 1557              		.loc 1 626 4 discriminator 1 view .LVU531
 626:Middlewares/Third_Party/FreeRTOS/Source/event_groups.c **** 			vTaskRemoveFromUnorderedEventList( pxTasksWaitingForBits->xListEnd.pxNext, eventUNBLOCKED_DUE_TO
 1558              		.loc 1 626 4 discriminator 1 view .LVU532
 626:Middlewares/Third_Party/FreeRTOS/Source/event_groups.c **** 			vTaskRemoveFromUnorderedEventList( pxTasksWaitingForBits->xListEnd.pxNext, eventUNBLOCKED_DUE_TO
 1559              		.loc 1 626 4 discriminator 1 view .LVU533
 1560 0034 FEE7     		b	.L119
 1561              	.L121:
 640:Middlewares/Third_Party/FreeRTOS/Source/event_groups.c **** 			{
 1562              		.loc 1 640 4 view .LVU534
 640:Middlewares/Third_Party/FreeRTOS/Source/event_groups.c **** 			{
 1563              		.loc 1 640 6 is_stmt 0 view .LVU535
 1564 0036 237F     		ldrb	r3, [r4, #28]	@ zero_extendqisi2
 1565 0038 1BB1     		cbz	r3, .L124
 646:Middlewares/Third_Party/FreeRTOS/Source/event_groups.c **** 			}
 1566              		.loc 1 646 29 is_stmt 1 view .LVU536
 651:Middlewares/Third_Party/FreeRTOS/Source/event_groups.c **** }
 1567              		.loc 1 651 2 view .LVU537
 652:Middlewares/Third_Party/FreeRTOS/Source/event_groups.c **** /*-----------------------------------------------------------*/
 1568              		.loc 1 652 1 is_stmt 0 view .LVU538
 1569 003a BDE83840 		pop	{r3, r4, r5, lr}
 1570              	.LCFI16:
 1571              		.cfi_remember_state
 1572              		.cfi_restore 14
 1573              		.cfi_restore 5
 1574              		.cfi_restore 4
ARM GAS  /tmp/ccZCJYQx.s 			page 52


 1575              		.cfi_restore 3
 1576              		.cfi_def_cfa_offset 0
 1577              	.LVL125:
 651:Middlewares/Third_Party/FreeRTOS/Source/event_groups.c **** }
 1578              		.loc 1 651 11 view .LVU539
 1579 003e FFF7FEBF 		b	xTaskResumeAll
 1580              	.LVL126:
 1581              	.L124:
 1582              	.LCFI17:
 1583              		.cfi_restore_state
 642:Middlewares/Third_Party/FreeRTOS/Source/event_groups.c **** 			}
 1584              		.loc 1 642 5 is_stmt 1 view .LVU540
 1585 0042 2046     		mov	r0, r4
 1586 0044 FFF7FEFF 		bl	vPortFree
 1587              	.LVL127:
 646:Middlewares/Third_Party/FreeRTOS/Source/event_groups.c **** 			}
 1588              		.loc 1 646 29 view .LVU541
 651:Middlewares/Third_Party/FreeRTOS/Source/event_groups.c **** }
 1589              		.loc 1 651 2 view .LVU542
 652:Middlewares/Third_Party/FreeRTOS/Source/event_groups.c **** /*-----------------------------------------------------------*/
 1590              		.loc 1 652 1 is_stmt 0 view .LVU543
 1591 0048 BDE83840 		pop	{r3, r4, r5, lr}
 1592              	.LCFI18:
 1593              		.cfi_restore 14
 1594              		.cfi_restore 5
 1595              		.cfi_restore 4
 1596              		.cfi_restore 3
 1597              		.cfi_def_cfa_offset 0
 1598              	.LVL128:
 651:Middlewares/Third_Party/FreeRTOS/Source/event_groups.c **** }
 1599              		.loc 1 651 11 view .LVU544
 1600 004c FFF7FEBF 		b	xTaskResumeAll
 1601              	.LVL129:
 1602              		.cfi_endproc
 1603              	.LFE12:
 1605              		.section	.text.xEventGroupSetBitsFromISR,"ax",%progbits
 1606              		.align	1
 1607              		.p2align 2,,3
 1608              		.global	xEventGroupSetBitsFromISR
 1609              		.syntax unified
 1610              		.thumb
 1611              		.thumb_func
 1612              		.fpu fpv4-sp-d16
 1614              	xEventGroupSetBitsFromISR:
 1615              	.LVL130:
 1616              	.LFB16:
 693:Middlewares/Third_Party/FreeRTOS/Source/event_groups.c **** 		{
 694:Middlewares/Third_Party/FreeRTOS/Source/event_groups.c **** 			xWaitConditionMet = pdTRUE;
 695:Middlewares/Third_Party/FreeRTOS/Source/event_groups.c **** 		}
 696:Middlewares/Third_Party/FreeRTOS/Source/event_groups.c **** 		else
 697:Middlewares/Third_Party/FreeRTOS/Source/event_groups.c **** 		{
 698:Middlewares/Third_Party/FreeRTOS/Source/event_groups.c **** 			mtCOVERAGE_TEST_MARKER();
 699:Middlewares/Third_Party/FreeRTOS/Source/event_groups.c **** 		}
 700:Middlewares/Third_Party/FreeRTOS/Source/event_groups.c **** 	}
 701:Middlewares/Third_Party/FreeRTOS/Source/event_groups.c **** 
 702:Middlewares/Third_Party/FreeRTOS/Source/event_groups.c **** 	return xWaitConditionMet;
 703:Middlewares/Third_Party/FreeRTOS/Source/event_groups.c **** }
ARM GAS  /tmp/ccZCJYQx.s 			page 53


 704:Middlewares/Third_Party/FreeRTOS/Source/event_groups.c **** /*-----------------------------------------------------------*/
 705:Middlewares/Third_Party/FreeRTOS/Source/event_groups.c **** 
 706:Middlewares/Third_Party/FreeRTOS/Source/event_groups.c **** #if ( ( configUSE_TRACE_FACILITY == 1 ) && ( INCLUDE_xTimerPendFunctionCall == 1 ) && ( configUSE_T
 707:Middlewares/Third_Party/FreeRTOS/Source/event_groups.c **** 
 708:Middlewares/Third_Party/FreeRTOS/Source/event_groups.c **** 	BaseType_t xEventGroupSetBitsFromISR( EventGroupHandle_t xEventGroup, const EventBits_t uxBitsToSe
 709:Middlewares/Third_Party/FreeRTOS/Source/event_groups.c **** 	{
 1617              		.loc 1 709 2 is_stmt 1 view -0
 1618              		.cfi_startproc
 1619              		@ args = 0, pretend = 0, frame = 0
 1620              		@ frame_needed = 0, uses_anonymous_args = 0
 1621              		@ link register save eliminated.
 710:Middlewares/Third_Party/FreeRTOS/Source/event_groups.c **** 	BaseType_t xReturn;
 1622              		.loc 1 710 2 view .LVU546
 711:Middlewares/Third_Party/FreeRTOS/Source/event_groups.c **** 
 712:Middlewares/Third_Party/FreeRTOS/Source/event_groups.c **** 		traceEVENT_GROUP_SET_BITS_FROM_ISR( xEventGroup, uxBitsToSet );
 1623              		.loc 1 712 65 view .LVU547
 713:Middlewares/Third_Party/FreeRTOS/Source/event_groups.c **** 		xReturn = xTimerPendFunctionCallFromISR( vEventGroupSetBitsCallback, ( void * ) xEventGroup, ( ui
 1624              		.loc 1 713 3 view .LVU548
 709:Middlewares/Third_Party/FreeRTOS/Source/event_groups.c **** 	BaseType_t xReturn;
 1625              		.loc 1 709 2 is_stmt 0 view .LVU549
 1626 0000 10B4     		push	{r4}
 1627              	.LCFI19:
 1628              		.cfi_def_cfa_offset 4
 1629              		.cfi_offset 4, -4
 709:Middlewares/Third_Party/FreeRTOS/Source/event_groups.c **** 	BaseType_t xReturn;
 1630              		.loc 1 709 2 view .LVU550
 1631 0002 0C46     		mov	r4, r1
 1632 0004 1346     		mov	r3, r2
 1633              		.loc 1 713 13 view .LVU551
 1634 0006 0146     		mov	r1, r0
 1635              	.LVL131:
 1636              		.loc 1 713 13 view .LVU552
 1637 0008 2246     		mov	r2, r4
 1638              	.LVL132:
 1639              		.loc 1 713 13 view .LVU553
 1640 000a 0248     		ldr	r0, .L127
 1641              	.LVL133:
 714:Middlewares/Third_Party/FreeRTOS/Source/event_groups.c **** 
 715:Middlewares/Third_Party/FreeRTOS/Source/event_groups.c **** 		return xReturn;
 716:Middlewares/Third_Party/FreeRTOS/Source/event_groups.c **** 	}
 1642              		.loc 1 716 2 view .LVU554
 1643 000c 5DF8044B 		ldr	r4, [sp], #4
 1644              	.LCFI20:
 1645              		.cfi_restore 4
 1646              		.cfi_def_cfa_offset 0
 1647              	.LVL134:
 713:Middlewares/Third_Party/FreeRTOS/Source/event_groups.c **** 
 1648              		.loc 1 713 13 view .LVU555
 1649 0010 FFF7FEBF 		b	xTimerPendFunctionCallFromISR
 1650              	.LVL135:
 1651              	.L128:
 713:Middlewares/Third_Party/FreeRTOS/Source/event_groups.c **** 
 1652              		.loc 1 713 13 view .LVU556
 1653              		.align	2
 1654              	.L127:
 1655 0014 00000000 		.word	vEventGroupSetBitsCallback
 1656              		.cfi_endproc
ARM GAS  /tmp/ccZCJYQx.s 			page 54


 1657              	.LFE16:
 1659              		.section	.text.uxEventGroupGetNumber,"ax",%progbits
 1660              		.align	1
 1661              		.p2align 2,,3
 1662              		.global	uxEventGroupGetNumber
 1663              		.syntax unified
 1664              		.thumb
 1665              		.thumb_func
 1666              		.fpu fpv4-sp-d16
 1668              	uxEventGroupGetNumber:
 1669              	.LVL136:
 1670              	.LFB17:
 717:Middlewares/Third_Party/FreeRTOS/Source/event_groups.c **** 
 718:Middlewares/Third_Party/FreeRTOS/Source/event_groups.c **** #endif
 719:Middlewares/Third_Party/FreeRTOS/Source/event_groups.c **** /*-----------------------------------------------------------*/
 720:Middlewares/Third_Party/FreeRTOS/Source/event_groups.c **** 
 721:Middlewares/Third_Party/FreeRTOS/Source/event_groups.c **** #if (configUSE_TRACE_FACILITY == 1)
 722:Middlewares/Third_Party/FreeRTOS/Source/event_groups.c **** 
 723:Middlewares/Third_Party/FreeRTOS/Source/event_groups.c **** 	UBaseType_t uxEventGroupGetNumber( void* xEventGroup )
 724:Middlewares/Third_Party/FreeRTOS/Source/event_groups.c **** 	{
 1671              		.loc 1 724 2 is_stmt 1 view -0
 1672              		.cfi_startproc
 1673              		@ args = 0, pretend = 0, frame = 0
 1674              		@ frame_needed = 0, uses_anonymous_args = 0
 1675              		@ link register save eliminated.
 725:Middlewares/Third_Party/FreeRTOS/Source/event_groups.c **** 	UBaseType_t xReturn;
 1676              		.loc 1 725 2 view .LVU558
 726:Middlewares/Third_Party/FreeRTOS/Source/event_groups.c **** 	EventGroup_t const *pxEventBits = ( EventGroup_t * ) xEventGroup; /*lint !e9087 !e9079 EventGroupH
 1677              		.loc 1 726 2 view .LVU559
 727:Middlewares/Third_Party/FreeRTOS/Source/event_groups.c **** 
 728:Middlewares/Third_Party/FreeRTOS/Source/event_groups.c **** 		if( xEventGroup == NULL )
 1678              		.loc 1 728 3 view .LVU560
 1679              		.loc 1 728 5 is_stmt 0 view .LVU561
 1680 0000 00B1     		cbz	r0, .L129
 729:Middlewares/Third_Party/FreeRTOS/Source/event_groups.c **** 		{
 730:Middlewares/Third_Party/FreeRTOS/Source/event_groups.c **** 			xReturn = 0;
 731:Middlewares/Third_Party/FreeRTOS/Source/event_groups.c **** 		}
 732:Middlewares/Third_Party/FreeRTOS/Source/event_groups.c **** 		else
 733:Middlewares/Third_Party/FreeRTOS/Source/event_groups.c **** 		{
 734:Middlewares/Third_Party/FreeRTOS/Source/event_groups.c **** 			xReturn = pxEventBits->uxEventGroupNumber;
 1681              		.loc 1 734 4 is_stmt 1 view .LVU562
 1682              		.loc 1 734 12 is_stmt 0 view .LVU563
 1683 0002 8069     		ldr	r0, [r0, #24]
 1684              	.LVL137:
 1685              	.L129:
 735:Middlewares/Third_Party/FreeRTOS/Source/event_groups.c **** 		}
 736:Middlewares/Third_Party/FreeRTOS/Source/event_groups.c **** 
 737:Middlewares/Third_Party/FreeRTOS/Source/event_groups.c **** 		return xReturn;
 738:Middlewares/Third_Party/FreeRTOS/Source/event_groups.c **** 	}
 1686              		.loc 1 738 2 view .LVU564
 1687 0004 7047     		bx	lr
 1688              		.cfi_endproc
 1689              	.LFE17:
 1691 0006 00BF     		.section	.text.vEventGroupSetNumber,"ax",%progbits
 1692              		.align	1
 1693              		.p2align 2,,3
 1694              		.global	vEventGroupSetNumber
ARM GAS  /tmp/ccZCJYQx.s 			page 55


 1695              		.syntax unified
 1696              		.thumb
 1697              		.thumb_func
 1698              		.fpu fpv4-sp-d16
 1700              	vEventGroupSetNumber:
 1701              	.LVL138:
 1702              	.LFB18:
 739:Middlewares/Third_Party/FreeRTOS/Source/event_groups.c **** 
 740:Middlewares/Third_Party/FreeRTOS/Source/event_groups.c **** #endif /* configUSE_TRACE_FACILITY */
 741:Middlewares/Third_Party/FreeRTOS/Source/event_groups.c **** /*-----------------------------------------------------------*/
 742:Middlewares/Third_Party/FreeRTOS/Source/event_groups.c **** 
 743:Middlewares/Third_Party/FreeRTOS/Source/event_groups.c **** #if ( configUSE_TRACE_FACILITY == 1 )
 744:Middlewares/Third_Party/FreeRTOS/Source/event_groups.c **** 
 745:Middlewares/Third_Party/FreeRTOS/Source/event_groups.c **** 	void vEventGroupSetNumber( void * xEventGroup, UBaseType_t uxEventGroupNumber )
 746:Middlewares/Third_Party/FreeRTOS/Source/event_groups.c **** 	{
 1703              		.loc 1 746 2 is_stmt 1 view -0
 1704              		.cfi_startproc
 1705              		@ args = 0, pretend = 0, frame = 0
 1706              		@ frame_needed = 0, uses_anonymous_args = 0
 1707              		@ link register save eliminated.
 747:Middlewares/Third_Party/FreeRTOS/Source/event_groups.c **** 		( ( EventGroup_t * ) xEventGroup )->uxEventGroupNumber = uxEventGroupNumber; /*lint !e9087 !e9079
 1708              		.loc 1 747 3 view .LVU566
 1709              		.loc 1 747 58 is_stmt 0 view .LVU567
 1710 0000 8161     		str	r1, [r0, #24]
 748:Middlewares/Third_Party/FreeRTOS/Source/event_groups.c **** 	}
 1711              		.loc 1 748 2 view .LVU568
 1712 0002 7047     		bx	lr
 1713              		.cfi_endproc
 1714              	.LFE18:
 1716              		.text
 1717              	.Letext0:
 1718              		.file 3 "/usr/lib/gcc/arm-none-eabi/9.2.1/include/stddef.h"
 1719              		.file 4 "/usr/include/newlib/sys/_types.h"
 1720              		.file 5 "/usr/include/newlib/sys/reent.h"
 1721              		.file 6 "/usr/include/newlib/sys/lock.h"
 1722              		.file 7 "/usr/include/newlib/stdlib.h"
 1723              		.file 8 "/usr/lib/gcc/arm-none-eabi/9.2.1/include/stdint.h"
 1724              		.file 9 "Core/Inc/FreeRTOSConfig.h"
 1725              		.file 10 "Middlewares/Third_Party/FreeRTOS/Source/include/FreeRTOS.h"
 1726              		.file 11 "Middlewares/Third_Party/FreeRTOS/Source/include/list.h"
 1727              		.file 12 "Middlewares/Third_Party/FreeRTOS/Source/include/event_groups.h"
 1728              		.file 13 "Middlewares/Third_Party/FreeRTOS/Source/include/timers.h"
 1729              		.file 14 "Middlewares/Third_Party/FreeRTOS/Source/include/task.h"
 1730              		.file 15 "Middlewares/Third_Party/FreeRTOS/Source/include/portable.h"
ARM GAS  /tmp/ccZCJYQx.s 			page 56

