ARM GAS  /tmp/ccXhhYW8.s 			page 1


   1              		.cpu cortex-m4
   2              		.eabi_attribute 27, 1
   3              		.eabi_attribute 28, 1
   4              		.eabi_attribute 20, 1
   5              		.eabi_attribute 21, 1
   6              		.eabi_attribute 23, 3
   7              		.eabi_attribute 24, 1
   8              		.eabi_attribute 25, 1
   9              		.eabi_attribute 26, 1
  10              		.eabi_attribute 30, 2
  11              		.eabi_attribute 34, 1
  12              		.eabi_attribute 18, 4
  13              		.file	"gpio.c"
  14              		.text
  15              	.Ltext0:
  16              		.cfi_sections	.debug_frame
  17              		.section	.text.MX_GPIO_Init,"ax",%progbits
  18              		.align	1
  19              		.p2align 2,,3
  20              		.global	MX_GPIO_Init
  21              		.arch armv7e-m
  22              		.syntax unified
  23              		.thumb
  24              		.thumb_func
  25              		.fpu fpv4-sp-d16
  27              	MX_GPIO_Init:
  28              	.LFB1311:
  29              		.file 1 "Core/Src/gpio.c"
   1:Core/Src/gpio.c **** /**
   2:Core/Src/gpio.c ****   ******************************************************************************
   3:Core/Src/gpio.c ****   * File Name          : gpio.c
   4:Core/Src/gpio.c ****   * Description        : This file provides code for the configuration
   5:Core/Src/gpio.c ****   *                      of all used GPIO pins.
   6:Core/Src/gpio.c ****   ******************************************************************************
   7:Core/Src/gpio.c ****   * @attention
   8:Core/Src/gpio.c ****   *
   9:Core/Src/gpio.c ****   * <h2><center>&copy; Copyright (c) 2020 STMicroelectronics.
  10:Core/Src/gpio.c ****   * All rights reserved.</center></h2>
  11:Core/Src/gpio.c ****   *
  12:Core/Src/gpio.c ****   * This software component is licensed by ST under Ultimate Liberty license
  13:Core/Src/gpio.c ****   * SLA0044, the "License"; You may not use this file except in compliance with
  14:Core/Src/gpio.c ****   * the License. You may obtain a copy of the License at:
  15:Core/Src/gpio.c ****   *                             www.st.com/SLA0044
  16:Core/Src/gpio.c ****   *
  17:Core/Src/gpio.c ****   ******************************************************************************
  18:Core/Src/gpio.c ****   */
  19:Core/Src/gpio.c **** 
  20:Core/Src/gpio.c **** /* Includes ------------------------------------------------------------------*/
  21:Core/Src/gpio.c **** #include "gpio.h"
  22:Core/Src/gpio.c **** /* USER CODE BEGIN 0 */
  23:Core/Src/gpio.c **** 
  24:Core/Src/gpio.c **** /* USER CODE END 0 */
  25:Core/Src/gpio.c **** 
  26:Core/Src/gpio.c **** /*----------------------------------------------------------------------------*/
  27:Core/Src/gpio.c **** /* Configure GPIO                                                             */
  28:Core/Src/gpio.c **** /*----------------------------------------------------------------------------*/
  29:Core/Src/gpio.c **** /* USER CODE BEGIN 1 */
ARM GAS  /tmp/ccXhhYW8.s 			page 2


  30:Core/Src/gpio.c **** 
  31:Core/Src/gpio.c **** /* USER CODE END 1 */
  32:Core/Src/gpio.c **** 
  33:Core/Src/gpio.c **** /** Configure pins as
  34:Core/Src/gpio.c ****         * Analog
  35:Core/Src/gpio.c ****         * Input
  36:Core/Src/gpio.c ****         * Output
  37:Core/Src/gpio.c ****         * EVENT_OUT
  38:Core/Src/gpio.c ****         * EXTI
  39:Core/Src/gpio.c **** */
  40:Core/Src/gpio.c **** void MX_GPIO_Init(void)
  41:Core/Src/gpio.c **** {
  30              		.loc 1 41 1 view -0
  31              		.cfi_startproc
  32              		@ args = 0, pretend = 0, frame = 40
  33              		@ frame_needed = 0, uses_anonymous_args = 0
  42:Core/Src/gpio.c **** 
  43:Core/Src/gpio.c ****   LL_GPIO_InitTypeDef GPIO_InitStruct = {0};
  34              		.loc 1 43 3 view .LVU1
  41:Core/Src/gpio.c **** 
  35              		.loc 1 41 1 is_stmt 0 view .LVU2
  36 0000 2DE9F043 		push	{r4, r5, r6, r7, r8, r9, lr}
  37              	.LCFI0:
  38              		.cfi_def_cfa_offset 28
  39              		.cfi_offset 4, -28
  40              		.cfi_offset 5, -24
  41              		.cfi_offset 6, -20
  42              		.cfi_offset 7, -16
  43              		.cfi_offset 8, -12
  44              		.cfi_offset 9, -8
  45              		.cfi_offset 14, -4
  46 0004 8BB0     		sub	sp, sp, #44
  47              	.LCFI1:
  48              		.cfi_def_cfa_offset 72
  49              	.LBB16:
  50              	.LBB17:
  51              		.file 2 "Drivers/STM32G4xx_HAL_Driver/Inc/stm32g4xx_ll_bus.h"
   1:Drivers/STM32G4xx_HAL_Driver/Inc/stm32g4xx_ll_bus.h **** /**
   2:Drivers/STM32G4xx_HAL_Driver/Inc/stm32g4xx_ll_bus.h ****   ******************************************************************************
   3:Drivers/STM32G4xx_HAL_Driver/Inc/stm32g4xx_ll_bus.h ****   * @file    stm32g4xx_ll_bus.h
   4:Drivers/STM32G4xx_HAL_Driver/Inc/stm32g4xx_ll_bus.h ****   * @author  MCD Application Team
   5:Drivers/STM32G4xx_HAL_Driver/Inc/stm32g4xx_ll_bus.h ****   * @brief   Header file of BUS LL module.
   6:Drivers/STM32G4xx_HAL_Driver/Inc/stm32g4xx_ll_bus.h **** 
   7:Drivers/STM32G4xx_HAL_Driver/Inc/stm32g4xx_ll_bus.h ****   @verbatim
   8:Drivers/STM32G4xx_HAL_Driver/Inc/stm32g4xx_ll_bus.h ****                       ##### RCC Limitations #####
   9:Drivers/STM32G4xx_HAL_Driver/Inc/stm32g4xx_ll_bus.h ****   ==============================================================================
  10:Drivers/STM32G4xx_HAL_Driver/Inc/stm32g4xx_ll_bus.h ****     [..]
  11:Drivers/STM32G4xx_HAL_Driver/Inc/stm32g4xx_ll_bus.h ****       A delay between an RCC peripheral clock enable and the effective peripheral
  12:Drivers/STM32G4xx_HAL_Driver/Inc/stm32g4xx_ll_bus.h ****       enabling should be taken into account in order to manage the peripheral read/write
  13:Drivers/STM32G4xx_HAL_Driver/Inc/stm32g4xx_ll_bus.h ****       from/to registers.
  14:Drivers/STM32G4xx_HAL_Driver/Inc/stm32g4xx_ll_bus.h ****       (+) This delay depends on the peripheral mapping.
  15:Drivers/STM32G4xx_HAL_Driver/Inc/stm32g4xx_ll_bus.h ****         (++) AHB & APB peripherals, 1 dummy read is necessary
  16:Drivers/STM32G4xx_HAL_Driver/Inc/stm32g4xx_ll_bus.h **** 
  17:Drivers/STM32G4xx_HAL_Driver/Inc/stm32g4xx_ll_bus.h ****     [..]
  18:Drivers/STM32G4xx_HAL_Driver/Inc/stm32g4xx_ll_bus.h ****       Workarounds:
  19:Drivers/STM32G4xx_HAL_Driver/Inc/stm32g4xx_ll_bus.h ****       (#) For AHB & APB peripherals, a dummy read to the peripheral register has been
  20:Drivers/STM32G4xx_HAL_Driver/Inc/stm32g4xx_ll_bus.h ****           inserted in each LL_{BUS}_GRP{x}_EnableClock() function.
ARM GAS  /tmp/ccXhhYW8.s 			page 3


  21:Drivers/STM32G4xx_HAL_Driver/Inc/stm32g4xx_ll_bus.h **** 
  22:Drivers/STM32G4xx_HAL_Driver/Inc/stm32g4xx_ll_bus.h ****   @endverbatim
  23:Drivers/STM32G4xx_HAL_Driver/Inc/stm32g4xx_ll_bus.h ****   ******************************************************************************
  24:Drivers/STM32G4xx_HAL_Driver/Inc/stm32g4xx_ll_bus.h ****   * @attention
  25:Drivers/STM32G4xx_HAL_Driver/Inc/stm32g4xx_ll_bus.h ****   *
  26:Drivers/STM32G4xx_HAL_Driver/Inc/stm32g4xx_ll_bus.h ****   * <h2><center>&copy; Copyright (c) 2019 STMicroelectronics.
  27:Drivers/STM32G4xx_HAL_Driver/Inc/stm32g4xx_ll_bus.h ****   * All rights reserved.</center></h2>
  28:Drivers/STM32G4xx_HAL_Driver/Inc/stm32g4xx_ll_bus.h ****   *
  29:Drivers/STM32G4xx_HAL_Driver/Inc/stm32g4xx_ll_bus.h ****   * This software component is licensed by ST under BSD 3-Clause license,
  30:Drivers/STM32G4xx_HAL_Driver/Inc/stm32g4xx_ll_bus.h ****   * the "License"; You may not use this file except in compliance with the
  31:Drivers/STM32G4xx_HAL_Driver/Inc/stm32g4xx_ll_bus.h ****   * License. You may obtain a copy of the License at:
  32:Drivers/STM32G4xx_HAL_Driver/Inc/stm32g4xx_ll_bus.h ****   *                        opensource.org/licenses/BSD-3-Clause
  33:Drivers/STM32G4xx_HAL_Driver/Inc/stm32g4xx_ll_bus.h ****   *
  34:Drivers/STM32G4xx_HAL_Driver/Inc/stm32g4xx_ll_bus.h ****   ******************************************************************************
  35:Drivers/STM32G4xx_HAL_Driver/Inc/stm32g4xx_ll_bus.h ****   */
  36:Drivers/STM32G4xx_HAL_Driver/Inc/stm32g4xx_ll_bus.h **** 
  37:Drivers/STM32G4xx_HAL_Driver/Inc/stm32g4xx_ll_bus.h **** /* Define to prevent recursive inclusion -------------------------------------*/
  38:Drivers/STM32G4xx_HAL_Driver/Inc/stm32g4xx_ll_bus.h **** #ifndef STM32G4xx_LL_BUS_H
  39:Drivers/STM32G4xx_HAL_Driver/Inc/stm32g4xx_ll_bus.h **** #define STM32G4xx_LL_BUS_H
  40:Drivers/STM32G4xx_HAL_Driver/Inc/stm32g4xx_ll_bus.h **** 
  41:Drivers/STM32G4xx_HAL_Driver/Inc/stm32g4xx_ll_bus.h **** #ifdef __cplusplus
  42:Drivers/STM32G4xx_HAL_Driver/Inc/stm32g4xx_ll_bus.h **** extern "C" {
  43:Drivers/STM32G4xx_HAL_Driver/Inc/stm32g4xx_ll_bus.h **** #endif
  44:Drivers/STM32G4xx_HAL_Driver/Inc/stm32g4xx_ll_bus.h **** 
  45:Drivers/STM32G4xx_HAL_Driver/Inc/stm32g4xx_ll_bus.h **** /* Includes ------------------------------------------------------------------*/
  46:Drivers/STM32G4xx_HAL_Driver/Inc/stm32g4xx_ll_bus.h **** #include "stm32g4xx.h"
  47:Drivers/STM32G4xx_HAL_Driver/Inc/stm32g4xx_ll_bus.h **** 
  48:Drivers/STM32G4xx_HAL_Driver/Inc/stm32g4xx_ll_bus.h **** /** @addtogroup STM32G4xx_LL_Driver
  49:Drivers/STM32G4xx_HAL_Driver/Inc/stm32g4xx_ll_bus.h ****   * @{
  50:Drivers/STM32G4xx_HAL_Driver/Inc/stm32g4xx_ll_bus.h ****   */
  51:Drivers/STM32G4xx_HAL_Driver/Inc/stm32g4xx_ll_bus.h **** 
  52:Drivers/STM32G4xx_HAL_Driver/Inc/stm32g4xx_ll_bus.h **** #if defined(RCC)
  53:Drivers/STM32G4xx_HAL_Driver/Inc/stm32g4xx_ll_bus.h **** 
  54:Drivers/STM32G4xx_HAL_Driver/Inc/stm32g4xx_ll_bus.h **** /** @defgroup BUS_LL BUS
  55:Drivers/STM32G4xx_HAL_Driver/Inc/stm32g4xx_ll_bus.h ****   * @{
  56:Drivers/STM32G4xx_HAL_Driver/Inc/stm32g4xx_ll_bus.h ****   */
  57:Drivers/STM32G4xx_HAL_Driver/Inc/stm32g4xx_ll_bus.h **** 
  58:Drivers/STM32G4xx_HAL_Driver/Inc/stm32g4xx_ll_bus.h **** /* Private types -------------------------------------------------------------*/
  59:Drivers/STM32G4xx_HAL_Driver/Inc/stm32g4xx_ll_bus.h **** /* Private variables ---------------------------------------------------------*/
  60:Drivers/STM32G4xx_HAL_Driver/Inc/stm32g4xx_ll_bus.h **** 
  61:Drivers/STM32G4xx_HAL_Driver/Inc/stm32g4xx_ll_bus.h **** /* Private constants ---------------------------------------------------------*/
  62:Drivers/STM32G4xx_HAL_Driver/Inc/stm32g4xx_ll_bus.h **** 
  63:Drivers/STM32G4xx_HAL_Driver/Inc/stm32g4xx_ll_bus.h **** /* Private macros ------------------------------------------------------------*/
  64:Drivers/STM32G4xx_HAL_Driver/Inc/stm32g4xx_ll_bus.h **** 
  65:Drivers/STM32G4xx_HAL_Driver/Inc/stm32g4xx_ll_bus.h **** /* Exported types ------------------------------------------------------------*/
  66:Drivers/STM32G4xx_HAL_Driver/Inc/stm32g4xx_ll_bus.h **** /* Exported constants --------------------------------------------------------*/
  67:Drivers/STM32G4xx_HAL_Driver/Inc/stm32g4xx_ll_bus.h **** /** @defgroup BUS_LL_Exported_Constants BUS Exported Constants
  68:Drivers/STM32G4xx_HAL_Driver/Inc/stm32g4xx_ll_bus.h ****   * @{
  69:Drivers/STM32G4xx_HAL_Driver/Inc/stm32g4xx_ll_bus.h ****   */
  70:Drivers/STM32G4xx_HAL_Driver/Inc/stm32g4xx_ll_bus.h **** 
  71:Drivers/STM32G4xx_HAL_Driver/Inc/stm32g4xx_ll_bus.h **** /** @defgroup BUS_LL_EC_AHB1_GRP1_PERIPH  AHB1 GRP1 PERIPH
  72:Drivers/STM32G4xx_HAL_Driver/Inc/stm32g4xx_ll_bus.h ****   * @{
  73:Drivers/STM32G4xx_HAL_Driver/Inc/stm32g4xx_ll_bus.h ****   */
  74:Drivers/STM32G4xx_HAL_Driver/Inc/stm32g4xx_ll_bus.h **** #define LL_AHB1_GRP1_PERIPH_ALL            0xFFFFFFFFU
  75:Drivers/STM32G4xx_HAL_Driver/Inc/stm32g4xx_ll_bus.h **** #define LL_AHB1_GRP1_PERIPH_DMA1           RCC_AHB1ENR_DMA1EN
  76:Drivers/STM32G4xx_HAL_Driver/Inc/stm32g4xx_ll_bus.h **** #define LL_AHB1_GRP1_PERIPH_DMA2           RCC_AHB1ENR_DMA2EN
  77:Drivers/STM32G4xx_HAL_Driver/Inc/stm32g4xx_ll_bus.h **** #define LL_AHB1_GRP1_PERIPH_DMAMUX1        RCC_AHB1ENR_DMAMUX1EN
ARM GAS  /tmp/ccXhhYW8.s 			page 4


  78:Drivers/STM32G4xx_HAL_Driver/Inc/stm32g4xx_ll_bus.h **** #define LL_AHB1_GRP1_PERIPH_CORDIC         RCC_AHB1ENR_CORDICEN
  79:Drivers/STM32G4xx_HAL_Driver/Inc/stm32g4xx_ll_bus.h **** #define LL_AHB1_GRP1_PERIPH_FMAC           RCC_AHB1ENR_FMACEN
  80:Drivers/STM32G4xx_HAL_Driver/Inc/stm32g4xx_ll_bus.h **** #define LL_AHB1_GRP1_PERIPH_FLASH          RCC_AHB1ENR_FLASHEN
  81:Drivers/STM32G4xx_HAL_Driver/Inc/stm32g4xx_ll_bus.h **** #define LL_AHB1_GRP1_PERIPH_SRAM1          RCC_AHB1SMENR_SRAM1SMEN
  82:Drivers/STM32G4xx_HAL_Driver/Inc/stm32g4xx_ll_bus.h **** #define LL_AHB1_GRP1_PERIPH_CRC            RCC_AHB1ENR_CRCEN
  83:Drivers/STM32G4xx_HAL_Driver/Inc/stm32g4xx_ll_bus.h **** /**
  84:Drivers/STM32G4xx_HAL_Driver/Inc/stm32g4xx_ll_bus.h ****   * @}
  85:Drivers/STM32G4xx_HAL_Driver/Inc/stm32g4xx_ll_bus.h ****   */
  86:Drivers/STM32G4xx_HAL_Driver/Inc/stm32g4xx_ll_bus.h **** 
  87:Drivers/STM32G4xx_HAL_Driver/Inc/stm32g4xx_ll_bus.h **** /** @defgroup BUS_LL_EC_AHB2_GRP1_PERIPH  AHB2 GRP1 PERIPH
  88:Drivers/STM32G4xx_HAL_Driver/Inc/stm32g4xx_ll_bus.h ****   * @{
  89:Drivers/STM32G4xx_HAL_Driver/Inc/stm32g4xx_ll_bus.h ****   */
  90:Drivers/STM32G4xx_HAL_Driver/Inc/stm32g4xx_ll_bus.h **** #define LL_AHB2_GRP1_PERIPH_ALL            0xFFFFFFFFU
  91:Drivers/STM32G4xx_HAL_Driver/Inc/stm32g4xx_ll_bus.h **** #define LL_AHB2_GRP1_PERIPH_GPIOA          RCC_AHB2ENR_GPIOAEN
  92:Drivers/STM32G4xx_HAL_Driver/Inc/stm32g4xx_ll_bus.h **** #define LL_AHB2_GRP1_PERIPH_GPIOB          RCC_AHB2ENR_GPIOBEN
  93:Drivers/STM32G4xx_HAL_Driver/Inc/stm32g4xx_ll_bus.h **** #define LL_AHB2_GRP1_PERIPH_GPIOC          RCC_AHB2ENR_GPIOCEN
  94:Drivers/STM32G4xx_HAL_Driver/Inc/stm32g4xx_ll_bus.h **** #define LL_AHB2_GRP1_PERIPH_GPIOD          RCC_AHB2ENR_GPIODEN
  95:Drivers/STM32G4xx_HAL_Driver/Inc/stm32g4xx_ll_bus.h **** #define LL_AHB2_GRP1_PERIPH_GPIOE          RCC_AHB2ENR_GPIOEEN
  96:Drivers/STM32G4xx_HAL_Driver/Inc/stm32g4xx_ll_bus.h **** #define LL_AHB2_GRP1_PERIPH_GPIOF          RCC_AHB2ENR_GPIOFEN
  97:Drivers/STM32G4xx_HAL_Driver/Inc/stm32g4xx_ll_bus.h **** #define LL_AHB2_GRP1_PERIPH_GPIOG          RCC_AHB2ENR_GPIOGEN
  98:Drivers/STM32G4xx_HAL_Driver/Inc/stm32g4xx_ll_bus.h **** #define LL_AHB2_GRP1_PERIPH_CCM            RCC_AHB2SMENR_CCMSMEN
  99:Drivers/STM32G4xx_HAL_Driver/Inc/stm32g4xx_ll_bus.h **** #define LL_AHB2_GRP1_PERIPH_SRAM2          RCC_AHB2SMENR_SRAM2SMEN
 100:Drivers/STM32G4xx_HAL_Driver/Inc/stm32g4xx_ll_bus.h **** #define LL_AHB2_GRP1_PERIPH_ADC12          RCC_AHB2ENR_ADC12EN
 101:Drivers/STM32G4xx_HAL_Driver/Inc/stm32g4xx_ll_bus.h **** #if defined(ADC345_COMMON)
 102:Drivers/STM32G4xx_HAL_Driver/Inc/stm32g4xx_ll_bus.h **** #define LL_AHB2_GRP1_PERIPH_ADC345         RCC_AHB2ENR_ADC345EN
 103:Drivers/STM32G4xx_HAL_Driver/Inc/stm32g4xx_ll_bus.h **** #endif /* ADC345_COMMON */
 104:Drivers/STM32G4xx_HAL_Driver/Inc/stm32g4xx_ll_bus.h **** #define LL_AHB2_GRP1_PERIPH_DAC1           RCC_AHB2ENR_DAC1EN
 105:Drivers/STM32G4xx_HAL_Driver/Inc/stm32g4xx_ll_bus.h **** #if defined(DAC2)
 106:Drivers/STM32G4xx_HAL_Driver/Inc/stm32g4xx_ll_bus.h **** #define LL_AHB2_GRP1_PERIPH_DAC2           RCC_AHB2ENR_DAC2EN
 107:Drivers/STM32G4xx_HAL_Driver/Inc/stm32g4xx_ll_bus.h **** #endif /* DAC2 */
 108:Drivers/STM32G4xx_HAL_Driver/Inc/stm32g4xx_ll_bus.h **** #define LL_AHB2_GRP1_PERIPH_DAC3           RCC_AHB2ENR_DAC3EN
 109:Drivers/STM32G4xx_HAL_Driver/Inc/stm32g4xx_ll_bus.h **** #if defined(DAC4)
 110:Drivers/STM32G4xx_HAL_Driver/Inc/stm32g4xx_ll_bus.h **** #define LL_AHB2_GRP1_PERIPH_DAC4           RCC_AHB2ENR_DAC4EN
 111:Drivers/STM32G4xx_HAL_Driver/Inc/stm32g4xx_ll_bus.h **** #endif /* DAC4 */
 112:Drivers/STM32G4xx_HAL_Driver/Inc/stm32g4xx_ll_bus.h **** #if defined(AES)
 113:Drivers/STM32G4xx_HAL_Driver/Inc/stm32g4xx_ll_bus.h **** #define LL_AHB2_GRP1_PERIPH_AES            RCC_AHB2ENR_AESEN
 114:Drivers/STM32G4xx_HAL_Driver/Inc/stm32g4xx_ll_bus.h **** #endif /* AES */
 115:Drivers/STM32G4xx_HAL_Driver/Inc/stm32g4xx_ll_bus.h **** #define LL_AHB2_GRP1_PERIPH_RNG            RCC_AHB2ENR_RNGEN
 116:Drivers/STM32G4xx_HAL_Driver/Inc/stm32g4xx_ll_bus.h **** /**
 117:Drivers/STM32G4xx_HAL_Driver/Inc/stm32g4xx_ll_bus.h ****   * @}
 118:Drivers/STM32G4xx_HAL_Driver/Inc/stm32g4xx_ll_bus.h ****   */
 119:Drivers/STM32G4xx_HAL_Driver/Inc/stm32g4xx_ll_bus.h **** 
 120:Drivers/STM32G4xx_HAL_Driver/Inc/stm32g4xx_ll_bus.h **** /** @defgroup BUS_LL_EC_AHB3_GRP1_PERIPH  AHB3 GRP1 PERIPH
 121:Drivers/STM32G4xx_HAL_Driver/Inc/stm32g4xx_ll_bus.h ****   * @{
 122:Drivers/STM32G4xx_HAL_Driver/Inc/stm32g4xx_ll_bus.h ****   */
 123:Drivers/STM32G4xx_HAL_Driver/Inc/stm32g4xx_ll_bus.h **** #define LL_AHB3_GRP1_PERIPH_ALL            0xFFFFFFFFU
 124:Drivers/STM32G4xx_HAL_Driver/Inc/stm32g4xx_ll_bus.h **** #if defined(FMC_Bank1_R)
 125:Drivers/STM32G4xx_HAL_Driver/Inc/stm32g4xx_ll_bus.h **** #define LL_AHB3_GRP1_PERIPH_FMC            RCC_AHB3ENR_FMCEN
 126:Drivers/STM32G4xx_HAL_Driver/Inc/stm32g4xx_ll_bus.h **** #endif /* FMC_Bank1_R */
 127:Drivers/STM32G4xx_HAL_Driver/Inc/stm32g4xx_ll_bus.h **** #if defined(QUADSPI)
 128:Drivers/STM32G4xx_HAL_Driver/Inc/stm32g4xx_ll_bus.h **** #define LL_AHB3_GRP1_PERIPH_QSPI           RCC_AHB3ENR_QSPIEN
 129:Drivers/STM32G4xx_HAL_Driver/Inc/stm32g4xx_ll_bus.h **** #endif /* QUADSPI */
 130:Drivers/STM32G4xx_HAL_Driver/Inc/stm32g4xx_ll_bus.h **** /**
 131:Drivers/STM32G4xx_HAL_Driver/Inc/stm32g4xx_ll_bus.h ****   * @}
 132:Drivers/STM32G4xx_HAL_Driver/Inc/stm32g4xx_ll_bus.h ****   */
 133:Drivers/STM32G4xx_HAL_Driver/Inc/stm32g4xx_ll_bus.h **** 
 134:Drivers/STM32G4xx_HAL_Driver/Inc/stm32g4xx_ll_bus.h **** /** @defgroup BUS_LL_EC_APB1_GRP1_PERIPH  APB1 GRP1 PERIPH
ARM GAS  /tmp/ccXhhYW8.s 			page 5


 135:Drivers/STM32G4xx_HAL_Driver/Inc/stm32g4xx_ll_bus.h ****   * @{
 136:Drivers/STM32G4xx_HAL_Driver/Inc/stm32g4xx_ll_bus.h ****   */
 137:Drivers/STM32G4xx_HAL_Driver/Inc/stm32g4xx_ll_bus.h **** #define LL_APB1_GRP1_PERIPH_ALL            0xFFFFFFFFU
 138:Drivers/STM32G4xx_HAL_Driver/Inc/stm32g4xx_ll_bus.h **** #define LL_APB1_GRP1_PERIPH_TIM2           RCC_APB1ENR1_TIM2EN
 139:Drivers/STM32G4xx_HAL_Driver/Inc/stm32g4xx_ll_bus.h **** #define LL_APB1_GRP1_PERIPH_TIM3           RCC_APB1ENR1_TIM3EN
 140:Drivers/STM32G4xx_HAL_Driver/Inc/stm32g4xx_ll_bus.h **** #define LL_APB1_GRP1_PERIPH_TIM4           RCC_APB1ENR1_TIM4EN
 141:Drivers/STM32G4xx_HAL_Driver/Inc/stm32g4xx_ll_bus.h **** #if defined(TIM5)
 142:Drivers/STM32G4xx_HAL_Driver/Inc/stm32g4xx_ll_bus.h **** #define LL_APB1_GRP1_PERIPH_TIM5           RCC_APB1ENR1_TIM5EN
 143:Drivers/STM32G4xx_HAL_Driver/Inc/stm32g4xx_ll_bus.h **** #endif /* TIM5 */
 144:Drivers/STM32G4xx_HAL_Driver/Inc/stm32g4xx_ll_bus.h **** #define LL_APB1_GRP1_PERIPH_TIM6           RCC_APB1ENR1_TIM6EN
 145:Drivers/STM32G4xx_HAL_Driver/Inc/stm32g4xx_ll_bus.h **** #define LL_APB1_GRP1_PERIPH_TIM7           RCC_APB1ENR1_TIM7EN
 146:Drivers/STM32G4xx_HAL_Driver/Inc/stm32g4xx_ll_bus.h **** #define LL_APB1_GRP1_PERIPH_CRS            RCC_APB1ENR1_CRSEN
 147:Drivers/STM32G4xx_HAL_Driver/Inc/stm32g4xx_ll_bus.h **** #define LL_APB1_GRP1_PERIPH_RTCAPB         RCC_APB1ENR1_RTCAPBEN
 148:Drivers/STM32G4xx_HAL_Driver/Inc/stm32g4xx_ll_bus.h **** #define LL_APB1_GRP1_PERIPH_WWDG           RCC_APB1ENR1_WWDGEN
 149:Drivers/STM32G4xx_HAL_Driver/Inc/stm32g4xx_ll_bus.h **** #define LL_APB1_GRP1_PERIPH_SPI2           RCC_APB1ENR1_SPI2EN
 150:Drivers/STM32G4xx_HAL_Driver/Inc/stm32g4xx_ll_bus.h **** #define LL_APB1_GRP1_PERIPH_SPI3           RCC_APB1ENR1_SPI3EN
 151:Drivers/STM32G4xx_HAL_Driver/Inc/stm32g4xx_ll_bus.h **** #define LL_APB1_GRP1_PERIPH_USART2         RCC_APB1ENR1_USART2EN
 152:Drivers/STM32G4xx_HAL_Driver/Inc/stm32g4xx_ll_bus.h **** #define LL_APB1_GRP1_PERIPH_USART3         RCC_APB1ENR1_USART3EN
 153:Drivers/STM32G4xx_HAL_Driver/Inc/stm32g4xx_ll_bus.h **** #if defined(UART4)
 154:Drivers/STM32G4xx_HAL_Driver/Inc/stm32g4xx_ll_bus.h **** #define LL_APB1_GRP1_PERIPH_UART4          RCC_APB1ENR1_UART4EN
 155:Drivers/STM32G4xx_HAL_Driver/Inc/stm32g4xx_ll_bus.h **** #endif /* UART4 */
 156:Drivers/STM32G4xx_HAL_Driver/Inc/stm32g4xx_ll_bus.h **** #if defined(UART5)
 157:Drivers/STM32G4xx_HAL_Driver/Inc/stm32g4xx_ll_bus.h **** #define LL_APB1_GRP1_PERIPH_UART5          RCC_APB1ENR1_UART5EN
 158:Drivers/STM32G4xx_HAL_Driver/Inc/stm32g4xx_ll_bus.h **** #endif /* UART5 */
 159:Drivers/STM32G4xx_HAL_Driver/Inc/stm32g4xx_ll_bus.h **** #define LL_APB1_GRP1_PERIPH_I2C1           RCC_APB1ENR1_I2C1EN
 160:Drivers/STM32G4xx_HAL_Driver/Inc/stm32g4xx_ll_bus.h **** #define LL_APB1_GRP1_PERIPH_I2C2           RCC_APB1ENR1_I2C2EN
 161:Drivers/STM32G4xx_HAL_Driver/Inc/stm32g4xx_ll_bus.h **** #define LL_APB1_GRP1_PERIPH_USB            RCC_APB1ENR1_USBEN
 162:Drivers/STM32G4xx_HAL_Driver/Inc/stm32g4xx_ll_bus.h **** #if defined(FDCAN1)
 163:Drivers/STM32G4xx_HAL_Driver/Inc/stm32g4xx_ll_bus.h **** #define LL_APB1_GRP1_PERIPH_FDCAN          RCC_APB1ENR1_FDCANEN
 164:Drivers/STM32G4xx_HAL_Driver/Inc/stm32g4xx_ll_bus.h **** #endif /* FDCAN1 */
 165:Drivers/STM32G4xx_HAL_Driver/Inc/stm32g4xx_ll_bus.h **** #define LL_APB1_GRP1_PERIPH_PWR            RCC_APB1ENR1_PWREN
 166:Drivers/STM32G4xx_HAL_Driver/Inc/stm32g4xx_ll_bus.h **** #define LL_APB1_GRP1_PERIPH_I2C3           RCC_APB1ENR1_I2C3EN
 167:Drivers/STM32G4xx_HAL_Driver/Inc/stm32g4xx_ll_bus.h **** #define LL_APB1_GRP1_PERIPH_LPTIM1         RCC_APB1ENR1_LPTIM1EN
 168:Drivers/STM32G4xx_HAL_Driver/Inc/stm32g4xx_ll_bus.h **** /**
 169:Drivers/STM32G4xx_HAL_Driver/Inc/stm32g4xx_ll_bus.h ****   * @}
 170:Drivers/STM32G4xx_HAL_Driver/Inc/stm32g4xx_ll_bus.h ****   */
 171:Drivers/STM32G4xx_HAL_Driver/Inc/stm32g4xx_ll_bus.h **** 
 172:Drivers/STM32G4xx_HAL_Driver/Inc/stm32g4xx_ll_bus.h **** 
 173:Drivers/STM32G4xx_HAL_Driver/Inc/stm32g4xx_ll_bus.h **** /** @defgroup BUS_LL_EC_APB1_GRP2_PERIPH  APB1 GRP2 PERIPH
 174:Drivers/STM32G4xx_HAL_Driver/Inc/stm32g4xx_ll_bus.h ****   * @{
 175:Drivers/STM32G4xx_HAL_Driver/Inc/stm32g4xx_ll_bus.h ****   */
 176:Drivers/STM32G4xx_HAL_Driver/Inc/stm32g4xx_ll_bus.h **** #define LL_APB1_GRP2_PERIPH_ALL            0xFFFFFFFFU
 177:Drivers/STM32G4xx_HAL_Driver/Inc/stm32g4xx_ll_bus.h **** #define LL_APB1_GRP2_PERIPH_LPUART1        RCC_APB1ENR2_LPUART1EN
 178:Drivers/STM32G4xx_HAL_Driver/Inc/stm32g4xx_ll_bus.h **** #if defined(I2C4)
 179:Drivers/STM32G4xx_HAL_Driver/Inc/stm32g4xx_ll_bus.h **** #define LL_APB1_GRP2_PERIPH_I2C4           RCC_APB1ENR2_I2C4EN
 180:Drivers/STM32G4xx_HAL_Driver/Inc/stm32g4xx_ll_bus.h **** #endif /* I2C4 */
 181:Drivers/STM32G4xx_HAL_Driver/Inc/stm32g4xx_ll_bus.h **** #define LL_APB1_GRP2_PERIPH_UCPD1         RCC_APB1ENR2_UCPD1EN
 182:Drivers/STM32G4xx_HAL_Driver/Inc/stm32g4xx_ll_bus.h **** /**
 183:Drivers/STM32G4xx_HAL_Driver/Inc/stm32g4xx_ll_bus.h ****   * @}
 184:Drivers/STM32G4xx_HAL_Driver/Inc/stm32g4xx_ll_bus.h ****   */
 185:Drivers/STM32G4xx_HAL_Driver/Inc/stm32g4xx_ll_bus.h **** 
 186:Drivers/STM32G4xx_HAL_Driver/Inc/stm32g4xx_ll_bus.h **** /** @defgroup BUS_LL_EC_APB2_GRP1_PERIPH  APB2 GRP1 PERIPH
 187:Drivers/STM32G4xx_HAL_Driver/Inc/stm32g4xx_ll_bus.h ****   * @{
 188:Drivers/STM32G4xx_HAL_Driver/Inc/stm32g4xx_ll_bus.h ****   */
 189:Drivers/STM32G4xx_HAL_Driver/Inc/stm32g4xx_ll_bus.h **** #define LL_APB2_GRP1_PERIPH_ALL            0xFFFFFFFFU
 190:Drivers/STM32G4xx_HAL_Driver/Inc/stm32g4xx_ll_bus.h **** #define LL_APB2_GRP1_PERIPH_SYSCFG         RCC_APB2ENR_SYSCFGEN
 191:Drivers/STM32G4xx_HAL_Driver/Inc/stm32g4xx_ll_bus.h **** #define LL_APB2_GRP1_PERIPH_TIM1           RCC_APB2ENR_TIM1EN
ARM GAS  /tmp/ccXhhYW8.s 			page 6


 192:Drivers/STM32G4xx_HAL_Driver/Inc/stm32g4xx_ll_bus.h **** #define LL_APB2_GRP1_PERIPH_SPI1           RCC_APB2ENR_SPI1EN
 193:Drivers/STM32G4xx_HAL_Driver/Inc/stm32g4xx_ll_bus.h **** #define LL_APB2_GRP1_PERIPH_TIM8           RCC_APB2ENR_TIM8EN
 194:Drivers/STM32G4xx_HAL_Driver/Inc/stm32g4xx_ll_bus.h **** #define LL_APB2_GRP1_PERIPH_USART1         RCC_APB2ENR_USART1EN
 195:Drivers/STM32G4xx_HAL_Driver/Inc/stm32g4xx_ll_bus.h **** #if defined(SPI4)
 196:Drivers/STM32G4xx_HAL_Driver/Inc/stm32g4xx_ll_bus.h **** #define LL_APB2_GRP1_PERIPH_SPI4           RCC_APB2ENR_SPI4EN
 197:Drivers/STM32G4xx_HAL_Driver/Inc/stm32g4xx_ll_bus.h **** #endif /* SPI4 */
 198:Drivers/STM32G4xx_HAL_Driver/Inc/stm32g4xx_ll_bus.h **** #define LL_APB2_GRP1_PERIPH_TIM15          RCC_APB2ENR_TIM15EN
 199:Drivers/STM32G4xx_HAL_Driver/Inc/stm32g4xx_ll_bus.h **** #define LL_APB2_GRP1_PERIPH_TIM16          RCC_APB2ENR_TIM16EN
 200:Drivers/STM32G4xx_HAL_Driver/Inc/stm32g4xx_ll_bus.h **** #define LL_APB2_GRP1_PERIPH_TIM17          RCC_APB2ENR_TIM17EN
 201:Drivers/STM32G4xx_HAL_Driver/Inc/stm32g4xx_ll_bus.h **** #if defined(TIM20)
 202:Drivers/STM32G4xx_HAL_Driver/Inc/stm32g4xx_ll_bus.h **** #define LL_APB2_GRP1_PERIPH_TIM20          RCC_APB2ENR_TIM20EN
 203:Drivers/STM32G4xx_HAL_Driver/Inc/stm32g4xx_ll_bus.h **** #endif /* TIM20 */
 204:Drivers/STM32G4xx_HAL_Driver/Inc/stm32g4xx_ll_bus.h **** #define LL_APB2_GRP1_PERIPH_SAI1           RCC_APB2ENR_SAI1EN
 205:Drivers/STM32G4xx_HAL_Driver/Inc/stm32g4xx_ll_bus.h **** #if defined(HRTIM1)
 206:Drivers/STM32G4xx_HAL_Driver/Inc/stm32g4xx_ll_bus.h **** #define LL_APB2_GRP1_PERIPH_HRTIM1         RCC_APB2ENR_HRTIM1EN
 207:Drivers/STM32G4xx_HAL_Driver/Inc/stm32g4xx_ll_bus.h **** #endif /* HRTIM1 */
 208:Drivers/STM32G4xx_HAL_Driver/Inc/stm32g4xx_ll_bus.h **** /**
 209:Drivers/STM32G4xx_HAL_Driver/Inc/stm32g4xx_ll_bus.h ****   * @}
 210:Drivers/STM32G4xx_HAL_Driver/Inc/stm32g4xx_ll_bus.h ****   */
 211:Drivers/STM32G4xx_HAL_Driver/Inc/stm32g4xx_ll_bus.h **** 
 212:Drivers/STM32G4xx_HAL_Driver/Inc/stm32g4xx_ll_bus.h **** /**
 213:Drivers/STM32G4xx_HAL_Driver/Inc/stm32g4xx_ll_bus.h ****   * @}
 214:Drivers/STM32G4xx_HAL_Driver/Inc/stm32g4xx_ll_bus.h ****   */
 215:Drivers/STM32G4xx_HAL_Driver/Inc/stm32g4xx_ll_bus.h **** 
 216:Drivers/STM32G4xx_HAL_Driver/Inc/stm32g4xx_ll_bus.h **** /* Exported macro ------------------------------------------------------------*/
 217:Drivers/STM32G4xx_HAL_Driver/Inc/stm32g4xx_ll_bus.h **** /* Exported functions --------------------------------------------------------*/
 218:Drivers/STM32G4xx_HAL_Driver/Inc/stm32g4xx_ll_bus.h **** /** @defgroup BUS_LL_Exported_Functions BUS Exported Functions
 219:Drivers/STM32G4xx_HAL_Driver/Inc/stm32g4xx_ll_bus.h ****   * @{
 220:Drivers/STM32G4xx_HAL_Driver/Inc/stm32g4xx_ll_bus.h ****   */
 221:Drivers/STM32G4xx_HAL_Driver/Inc/stm32g4xx_ll_bus.h **** 
 222:Drivers/STM32G4xx_HAL_Driver/Inc/stm32g4xx_ll_bus.h **** /** @defgroup BUS_LL_EF_AHB1 AHB1
 223:Drivers/STM32G4xx_HAL_Driver/Inc/stm32g4xx_ll_bus.h ****   * @{
 224:Drivers/STM32G4xx_HAL_Driver/Inc/stm32g4xx_ll_bus.h ****   */
 225:Drivers/STM32G4xx_HAL_Driver/Inc/stm32g4xx_ll_bus.h **** 
 226:Drivers/STM32G4xx_HAL_Driver/Inc/stm32g4xx_ll_bus.h **** /**
 227:Drivers/STM32G4xx_HAL_Driver/Inc/stm32g4xx_ll_bus.h ****   * @brief  Enable AHB1 peripherals clock.
 228:Drivers/STM32G4xx_HAL_Driver/Inc/stm32g4xx_ll_bus.h ****   * @rmtoll AHB1ENR      DMA1EN        LL_AHB1_GRP1_EnableClock\n
 229:Drivers/STM32G4xx_HAL_Driver/Inc/stm32g4xx_ll_bus.h ****   *         AHB1ENR      DMA2EN        LL_AHB1_GRP1_EnableClock\n
 230:Drivers/STM32G4xx_HAL_Driver/Inc/stm32g4xx_ll_bus.h ****   *         AHB1ENR      DMAMMUXEN     LL_AHB1_GRP1_EnableClock\n
 231:Drivers/STM32G4xx_HAL_Driver/Inc/stm32g4xx_ll_bus.h ****   *         AHB1ENR      CORDICEN      LL_AHB1_GRP1_EnableClock\n
 232:Drivers/STM32G4xx_HAL_Driver/Inc/stm32g4xx_ll_bus.h ****   *         AHB1ENR      FMACEN        LL_AHB1_GRP1_EnableClock\n
 233:Drivers/STM32G4xx_HAL_Driver/Inc/stm32g4xx_ll_bus.h ****   *         AHB1ENR      FLASHEN       LL_AHB1_GRP1_EnableClock\n
 234:Drivers/STM32G4xx_HAL_Driver/Inc/stm32g4xx_ll_bus.h ****   *         AHB1ENR      CRCEN         LL_AHB1_GRP1_EnableClock
 235:Drivers/STM32G4xx_HAL_Driver/Inc/stm32g4xx_ll_bus.h ****   * @param  Periphs This parameter can be a combination of the following values:
 236:Drivers/STM32G4xx_HAL_Driver/Inc/stm32g4xx_ll_bus.h ****   *         @arg @ref LL_AHB1_GRP1_PERIPH_DMA1
 237:Drivers/STM32G4xx_HAL_Driver/Inc/stm32g4xx_ll_bus.h ****   *         @arg @ref LL_AHB1_GRP1_PERIPH_DMA2
 238:Drivers/STM32G4xx_HAL_Driver/Inc/stm32g4xx_ll_bus.h ****   *         @arg @ref LL_AHB1_GRP1_PERIPH_DMAMUX1
 239:Drivers/STM32G4xx_HAL_Driver/Inc/stm32g4xx_ll_bus.h ****   *         @arg @ref LL_AHB1_GRP1_PERIPH_CORDIC
 240:Drivers/STM32G4xx_HAL_Driver/Inc/stm32g4xx_ll_bus.h ****   *         @arg @ref LL_AHB1_GRP1_PERIPH_FMAC
 241:Drivers/STM32G4xx_HAL_Driver/Inc/stm32g4xx_ll_bus.h ****   *         @arg @ref LL_AHB1_GRP1_PERIPH_FLASH
 242:Drivers/STM32G4xx_HAL_Driver/Inc/stm32g4xx_ll_bus.h ****   *         @arg @ref LL_AHB1_GRP1_PERIPH_CRC
 243:Drivers/STM32G4xx_HAL_Driver/Inc/stm32g4xx_ll_bus.h ****   * @retval None
 244:Drivers/STM32G4xx_HAL_Driver/Inc/stm32g4xx_ll_bus.h ****   */
 245:Drivers/STM32G4xx_HAL_Driver/Inc/stm32g4xx_ll_bus.h **** __STATIC_INLINE void LL_AHB1_GRP1_EnableClock(uint32_t Periphs)
 246:Drivers/STM32G4xx_HAL_Driver/Inc/stm32g4xx_ll_bus.h **** {
 247:Drivers/STM32G4xx_HAL_Driver/Inc/stm32g4xx_ll_bus.h ****   __IO uint32_t tmpreg;
 248:Drivers/STM32G4xx_HAL_Driver/Inc/stm32g4xx_ll_bus.h ****   SET_BIT(RCC->AHB1ENR, Periphs);
ARM GAS  /tmp/ccXhhYW8.s 			page 7


 249:Drivers/STM32G4xx_HAL_Driver/Inc/stm32g4xx_ll_bus.h ****   /* Delay after an RCC peripheral clock enabling */
 250:Drivers/STM32G4xx_HAL_Driver/Inc/stm32g4xx_ll_bus.h ****   tmpreg = READ_BIT(RCC->AHB1ENR, Periphs);
 251:Drivers/STM32G4xx_HAL_Driver/Inc/stm32g4xx_ll_bus.h ****   (void)tmpreg;
 252:Drivers/STM32G4xx_HAL_Driver/Inc/stm32g4xx_ll_bus.h **** }
 253:Drivers/STM32G4xx_HAL_Driver/Inc/stm32g4xx_ll_bus.h **** 
 254:Drivers/STM32G4xx_HAL_Driver/Inc/stm32g4xx_ll_bus.h **** /**
 255:Drivers/STM32G4xx_HAL_Driver/Inc/stm32g4xx_ll_bus.h ****   * @brief  Check if AHB1 peripheral clock is enabled or not
 256:Drivers/STM32G4xx_HAL_Driver/Inc/stm32g4xx_ll_bus.h ****   * @rmtoll AHB1ENR      DMA1EN        LL_AHB1_GRP1_IsEnabledClock\n
 257:Drivers/STM32G4xx_HAL_Driver/Inc/stm32g4xx_ll_bus.h ****   *         AHB1ENR      DMA2EN        LL_AHB1_GRP1_IsEnabledClock\n
 258:Drivers/STM32G4xx_HAL_Driver/Inc/stm32g4xx_ll_bus.h ****   *         AHB1ENR      DMAMUXEN      LL_AHB1_GRP1_IsEnabledClock\n
 259:Drivers/STM32G4xx_HAL_Driver/Inc/stm32g4xx_ll_bus.h ****   *         AHB1ENR      CORDICEN      LL_AHB1_GRP1_IsEnabledClock\n
 260:Drivers/STM32G4xx_HAL_Driver/Inc/stm32g4xx_ll_bus.h ****   *         AHB1ENR      FMACEN        LL_AHB1_GRP1_IsEnabledClock\n
 261:Drivers/STM32G4xx_HAL_Driver/Inc/stm32g4xx_ll_bus.h ****   *         AHB1ENR      FLASHEN       LL_AHB1_GRP1_IsEnabledClock\n
 262:Drivers/STM32G4xx_HAL_Driver/Inc/stm32g4xx_ll_bus.h ****   *         AHB1ENR      CRCEN         LL_AHB1_GRP1_IsEnabledClock
 263:Drivers/STM32G4xx_HAL_Driver/Inc/stm32g4xx_ll_bus.h ****   * @param  Periphs This parameter can be a combination of the following values:
 264:Drivers/STM32G4xx_HAL_Driver/Inc/stm32g4xx_ll_bus.h ****   *         @arg @ref LL_AHB1_GRP1_PERIPH_DMA1
 265:Drivers/STM32G4xx_HAL_Driver/Inc/stm32g4xx_ll_bus.h ****   *         @arg @ref LL_AHB1_GRP1_PERIPH_DMA2
 266:Drivers/STM32G4xx_HAL_Driver/Inc/stm32g4xx_ll_bus.h ****   *         @arg @ref LL_AHB1_GRP1_PERIPH_DMAMUX1
 267:Drivers/STM32G4xx_HAL_Driver/Inc/stm32g4xx_ll_bus.h ****   *         @arg @ref LL_AHB1_GRP1_PERIPH_CORDIC
 268:Drivers/STM32G4xx_HAL_Driver/Inc/stm32g4xx_ll_bus.h ****   *         @arg @ref LL_AHB1_GRP1_PERIPH_FMAC
 269:Drivers/STM32G4xx_HAL_Driver/Inc/stm32g4xx_ll_bus.h ****   *         @arg @ref LL_AHB1_GRP1_PERIPH_FLASH
 270:Drivers/STM32G4xx_HAL_Driver/Inc/stm32g4xx_ll_bus.h ****   *         @arg @ref LL_AHB1_GRP1_PERIPH_CRC
 271:Drivers/STM32G4xx_HAL_Driver/Inc/stm32g4xx_ll_bus.h ****   * @retval State of Periphs (1 or 0).
 272:Drivers/STM32G4xx_HAL_Driver/Inc/stm32g4xx_ll_bus.h ****   */
 273:Drivers/STM32G4xx_HAL_Driver/Inc/stm32g4xx_ll_bus.h **** __STATIC_INLINE uint32_t LL_AHB1_GRP1_IsEnabledClock(uint32_t Periphs)
 274:Drivers/STM32G4xx_HAL_Driver/Inc/stm32g4xx_ll_bus.h **** {
 275:Drivers/STM32G4xx_HAL_Driver/Inc/stm32g4xx_ll_bus.h ****   return ((READ_BIT(RCC->AHB1ENR, Periphs) == Periphs) ? 1UL : 0UL);
 276:Drivers/STM32G4xx_HAL_Driver/Inc/stm32g4xx_ll_bus.h **** }
 277:Drivers/STM32G4xx_HAL_Driver/Inc/stm32g4xx_ll_bus.h **** 
 278:Drivers/STM32G4xx_HAL_Driver/Inc/stm32g4xx_ll_bus.h **** /**
 279:Drivers/STM32G4xx_HAL_Driver/Inc/stm32g4xx_ll_bus.h ****   * @brief  Disable AHB1 peripherals clock.
 280:Drivers/STM32G4xx_HAL_Driver/Inc/stm32g4xx_ll_bus.h ****   * @rmtoll AHB1ENR      DMA1EN        LL_AHB1_GRP1_DisableClock\n
 281:Drivers/STM32G4xx_HAL_Driver/Inc/stm32g4xx_ll_bus.h ****   *         AHB1ENR      DMA2EN        LL_AHB1_GRP1_DisableClock\n
 282:Drivers/STM32G4xx_HAL_Driver/Inc/stm32g4xx_ll_bus.h ****   *         AHB1ENR      DMAMUXEN      LL_AHB1_GRP1_DisableClock\n
 283:Drivers/STM32G4xx_HAL_Driver/Inc/stm32g4xx_ll_bus.h ****   *         AHB1ENR      CORDICEN      LL_AHB1_GRP1_DisableClock\n
 284:Drivers/STM32G4xx_HAL_Driver/Inc/stm32g4xx_ll_bus.h ****   *         AHB1ENR      FMACEN        LL_AHB1_GRP1_DisableClock\n
 285:Drivers/STM32G4xx_HAL_Driver/Inc/stm32g4xx_ll_bus.h ****   *         AHB1ENR      FLASHEN       LL_AHB1_GRP1_DisableClock\n
 286:Drivers/STM32G4xx_HAL_Driver/Inc/stm32g4xx_ll_bus.h ****   *         AHB1ENR      CRCEN         LL_AHB1_GRP1_DisableClock
 287:Drivers/STM32G4xx_HAL_Driver/Inc/stm32g4xx_ll_bus.h ****   * @param  Periphs This parameter can be a combination of the following values:
 288:Drivers/STM32G4xx_HAL_Driver/Inc/stm32g4xx_ll_bus.h ****   *         @arg @ref LL_AHB1_GRP1_PERIPH_DMA1
 289:Drivers/STM32G4xx_HAL_Driver/Inc/stm32g4xx_ll_bus.h ****   *         @arg @ref LL_AHB1_GRP1_PERIPH_DMA2
 290:Drivers/STM32G4xx_HAL_Driver/Inc/stm32g4xx_ll_bus.h ****   *         @arg @ref LL_AHB1_GRP1_PERIPH_DMAMUX1
 291:Drivers/STM32G4xx_HAL_Driver/Inc/stm32g4xx_ll_bus.h ****   *         @arg @ref LL_AHB1_GRP1_PERIPH_CORDIC
 292:Drivers/STM32G4xx_HAL_Driver/Inc/stm32g4xx_ll_bus.h ****   *         @arg @ref LL_AHB1_GRP1_PERIPH_FMAC
 293:Drivers/STM32G4xx_HAL_Driver/Inc/stm32g4xx_ll_bus.h ****   *         @arg @ref LL_AHB1_GRP1_PERIPH_FLASH
 294:Drivers/STM32G4xx_HAL_Driver/Inc/stm32g4xx_ll_bus.h ****   *         @arg @ref LL_AHB1_GRP1_PERIPH_CRC
 295:Drivers/STM32G4xx_HAL_Driver/Inc/stm32g4xx_ll_bus.h ****   * @retval None
 296:Drivers/STM32G4xx_HAL_Driver/Inc/stm32g4xx_ll_bus.h ****   */
 297:Drivers/STM32G4xx_HAL_Driver/Inc/stm32g4xx_ll_bus.h **** __STATIC_INLINE void LL_AHB1_GRP1_DisableClock(uint32_t Periphs)
 298:Drivers/STM32G4xx_HAL_Driver/Inc/stm32g4xx_ll_bus.h **** {
 299:Drivers/STM32G4xx_HAL_Driver/Inc/stm32g4xx_ll_bus.h ****   CLEAR_BIT(RCC->AHB1ENR, Periphs);
 300:Drivers/STM32G4xx_HAL_Driver/Inc/stm32g4xx_ll_bus.h **** }
 301:Drivers/STM32G4xx_HAL_Driver/Inc/stm32g4xx_ll_bus.h **** 
 302:Drivers/STM32G4xx_HAL_Driver/Inc/stm32g4xx_ll_bus.h **** /**
 303:Drivers/STM32G4xx_HAL_Driver/Inc/stm32g4xx_ll_bus.h ****   * @brief  Force AHB1 peripherals reset.
 304:Drivers/STM32G4xx_HAL_Driver/Inc/stm32g4xx_ll_bus.h ****   * @rmtoll AHB1RSTR     DMA1RST       LL_AHB1_GRP1_ForceReset\n
 305:Drivers/STM32G4xx_HAL_Driver/Inc/stm32g4xx_ll_bus.h ****   *         AHB1RSTR     DMA2RST       LL_AHB1_GRP1_ForceReset\n
ARM GAS  /tmp/ccXhhYW8.s 			page 8


 306:Drivers/STM32G4xx_HAL_Driver/Inc/stm32g4xx_ll_bus.h ****   *         AHB1RSTR     DMAMUXRST     LL_AHB1_GRP1_ForceReset\n
 307:Drivers/STM32G4xx_HAL_Driver/Inc/stm32g4xx_ll_bus.h ****   *         AHB1RSTR     CORDICRST     LL_AHB1_GRP1_ForceReset\n
 308:Drivers/STM32G4xx_HAL_Driver/Inc/stm32g4xx_ll_bus.h ****   *         AHB1RSTR     FMACRST       LL_AHB1_GRP1_ForceReset\n
 309:Drivers/STM32G4xx_HAL_Driver/Inc/stm32g4xx_ll_bus.h ****   *         AHB1RSTR     FLASHRST      LL_AHB1_GRP1_ForceReset\n
 310:Drivers/STM32G4xx_HAL_Driver/Inc/stm32g4xx_ll_bus.h ****   *         AHB1RSTR     CRCRST        LL_AHB1_GRP1_ForceReset
 311:Drivers/STM32G4xx_HAL_Driver/Inc/stm32g4xx_ll_bus.h ****   * @param  Periphs This parameter can be a combination of the following values:
 312:Drivers/STM32G4xx_HAL_Driver/Inc/stm32g4xx_ll_bus.h ****   *         @arg @ref LL_AHB1_GRP1_PERIPH_ALL
 313:Drivers/STM32G4xx_HAL_Driver/Inc/stm32g4xx_ll_bus.h ****   *         @arg @ref LL_AHB1_GRP1_PERIPH_DMA1
 314:Drivers/STM32G4xx_HAL_Driver/Inc/stm32g4xx_ll_bus.h ****   *         @arg @ref LL_AHB1_GRP1_PERIPH_DMA2
 315:Drivers/STM32G4xx_HAL_Driver/Inc/stm32g4xx_ll_bus.h ****   *         @arg @ref LL_AHB1_GRP1_PERIPH_DMAMUX1
 316:Drivers/STM32G4xx_HAL_Driver/Inc/stm32g4xx_ll_bus.h ****   *         @arg @ref LL_AHB1_GRP1_PERIPH_CORDIC
 317:Drivers/STM32G4xx_HAL_Driver/Inc/stm32g4xx_ll_bus.h ****   *         @arg @ref LL_AHB1_GRP1_PERIPH_FMAC
 318:Drivers/STM32G4xx_HAL_Driver/Inc/stm32g4xx_ll_bus.h ****   *         @arg @ref LL_AHB1_GRP1_PERIPH_FLASH
 319:Drivers/STM32G4xx_HAL_Driver/Inc/stm32g4xx_ll_bus.h ****   *         @arg @ref LL_AHB1_GRP1_PERIPH_CRC
 320:Drivers/STM32G4xx_HAL_Driver/Inc/stm32g4xx_ll_bus.h ****   * @retval None
 321:Drivers/STM32G4xx_HAL_Driver/Inc/stm32g4xx_ll_bus.h ****   */
 322:Drivers/STM32G4xx_HAL_Driver/Inc/stm32g4xx_ll_bus.h **** __STATIC_INLINE void LL_AHB1_GRP1_ForceReset(uint32_t Periphs)
 323:Drivers/STM32G4xx_HAL_Driver/Inc/stm32g4xx_ll_bus.h **** {
 324:Drivers/STM32G4xx_HAL_Driver/Inc/stm32g4xx_ll_bus.h ****   SET_BIT(RCC->AHB1RSTR, Periphs);
 325:Drivers/STM32G4xx_HAL_Driver/Inc/stm32g4xx_ll_bus.h **** }
 326:Drivers/STM32G4xx_HAL_Driver/Inc/stm32g4xx_ll_bus.h **** 
 327:Drivers/STM32G4xx_HAL_Driver/Inc/stm32g4xx_ll_bus.h **** /**
 328:Drivers/STM32G4xx_HAL_Driver/Inc/stm32g4xx_ll_bus.h ****   * @brief  Release AHB1 peripherals reset.
 329:Drivers/STM32G4xx_HAL_Driver/Inc/stm32g4xx_ll_bus.h ****   * @rmtoll AHB1RSTR     DMA1RST       LL_AHB1_GRP1_ReleaseReset\n
 330:Drivers/STM32G4xx_HAL_Driver/Inc/stm32g4xx_ll_bus.h ****   *         AHB1RSTR     DMA2RST       LL_AHB1_GRP1_ReleaseReset\n
 331:Drivers/STM32G4xx_HAL_Driver/Inc/stm32g4xx_ll_bus.h ****   *         AHB1RSTR     DMAMUXRST     LL_AHB1_GRP1_ReleaseReset\n
 332:Drivers/STM32G4xx_HAL_Driver/Inc/stm32g4xx_ll_bus.h ****   *         AHB1RSTR     CORDICRST     LL_AHB1_GRP1_ReleaseReset\n
 333:Drivers/STM32G4xx_HAL_Driver/Inc/stm32g4xx_ll_bus.h ****   *         AHB1RSTR     FMACRST       LL_AHB1_GRP1_ReleaseReset\n
 334:Drivers/STM32G4xx_HAL_Driver/Inc/stm32g4xx_ll_bus.h ****   *         AHB1RSTR     FLASHRST      LL_AHB1_GRP1_ReleaseReset\n
 335:Drivers/STM32G4xx_HAL_Driver/Inc/stm32g4xx_ll_bus.h ****   *         AHB1RSTR     CRCRST        LL_AHB1_GRP1_ReleaseReset
 336:Drivers/STM32G4xx_HAL_Driver/Inc/stm32g4xx_ll_bus.h ****   * @param  Periphs This parameter can be a combination of the following values:
 337:Drivers/STM32G4xx_HAL_Driver/Inc/stm32g4xx_ll_bus.h ****   *         @arg @ref LL_AHB1_GRP1_PERIPH_ALL
 338:Drivers/STM32G4xx_HAL_Driver/Inc/stm32g4xx_ll_bus.h ****   *         @arg @ref LL_AHB1_GRP1_PERIPH_DMA1
 339:Drivers/STM32G4xx_HAL_Driver/Inc/stm32g4xx_ll_bus.h ****   *         @arg @ref LL_AHB1_GRP1_PERIPH_DMA2
 340:Drivers/STM32G4xx_HAL_Driver/Inc/stm32g4xx_ll_bus.h ****   *         @arg @ref LL_AHB1_GRP1_PERIPH_DMAMUX1
 341:Drivers/STM32G4xx_HAL_Driver/Inc/stm32g4xx_ll_bus.h ****   *         @arg @ref LL_AHB1_GRP1_PERIPH_CORDIC
 342:Drivers/STM32G4xx_HAL_Driver/Inc/stm32g4xx_ll_bus.h ****   *         @arg @ref LL_AHB1_GRP1_PERIPH_FMAC
 343:Drivers/STM32G4xx_HAL_Driver/Inc/stm32g4xx_ll_bus.h ****   *         @arg @ref LL_AHB1_GRP1_PERIPH_FLASH
 344:Drivers/STM32G4xx_HAL_Driver/Inc/stm32g4xx_ll_bus.h ****   *         @arg @ref LL_AHB1_GRP1_PERIPH_CRC
 345:Drivers/STM32G4xx_HAL_Driver/Inc/stm32g4xx_ll_bus.h ****   * @retval None
 346:Drivers/STM32G4xx_HAL_Driver/Inc/stm32g4xx_ll_bus.h ****   */
 347:Drivers/STM32G4xx_HAL_Driver/Inc/stm32g4xx_ll_bus.h **** __STATIC_INLINE void LL_AHB1_GRP1_ReleaseReset(uint32_t Periphs)
 348:Drivers/STM32G4xx_HAL_Driver/Inc/stm32g4xx_ll_bus.h **** {
 349:Drivers/STM32G4xx_HAL_Driver/Inc/stm32g4xx_ll_bus.h ****   CLEAR_BIT(RCC->AHB1RSTR, Periphs);
 350:Drivers/STM32G4xx_HAL_Driver/Inc/stm32g4xx_ll_bus.h **** }
 351:Drivers/STM32G4xx_HAL_Driver/Inc/stm32g4xx_ll_bus.h **** 
 352:Drivers/STM32G4xx_HAL_Driver/Inc/stm32g4xx_ll_bus.h **** /**
 353:Drivers/STM32G4xx_HAL_Driver/Inc/stm32g4xx_ll_bus.h ****   * @brief  Enable AHB1 peripheral clocks in Sleep and Stop modes
 354:Drivers/STM32G4xx_HAL_Driver/Inc/stm32g4xx_ll_bus.h ****   * @rmtoll AHB1SMENR    DMA1SMEN      LL_AHB1_GRP1_EnableClockStopSleep\n
 355:Drivers/STM32G4xx_HAL_Driver/Inc/stm32g4xx_ll_bus.h ****   *         AHB1SMENR    DMA2SMEN      LL_AHB1_GRP1_EnableClockStopSleep\n
 356:Drivers/STM32G4xx_HAL_Driver/Inc/stm32g4xx_ll_bus.h ****   *         AHB1SMENR    DMAMUXSMEN    LL_AHB1_GRP1_EnableClockStopSleep\n
 357:Drivers/STM32G4xx_HAL_Driver/Inc/stm32g4xx_ll_bus.h ****   *         AHB1SMENR    CORDICSMEN    LL_AHB1_GRP1_EnableClockStopSleep\n
 358:Drivers/STM32G4xx_HAL_Driver/Inc/stm32g4xx_ll_bus.h ****   *         AHB1SMENR    FMACSMEN      LL_AHB1_GRP1_EnableClockStopSleep\n
 359:Drivers/STM32G4xx_HAL_Driver/Inc/stm32g4xx_ll_bus.h ****   *         AHB1SMENR    FLASHSMEN     LL_AHB1_GRP1_EnableClockStopSleep\n
 360:Drivers/STM32G4xx_HAL_Driver/Inc/stm32g4xx_ll_bus.h ****   *         AHB1SMENR    SRAM1SMEN     LL_AHB1_GRP1_DisableClockStopSleep\n
 361:Drivers/STM32G4xx_HAL_Driver/Inc/stm32g4xx_ll_bus.h ****   *         AHB1SMENR    CRCSMEN       LL_AHB1_GRP1_EnableClockStopSleep
 362:Drivers/STM32G4xx_HAL_Driver/Inc/stm32g4xx_ll_bus.h ****   * @param  Periphs This parameter can be a combination of the following values:
ARM GAS  /tmp/ccXhhYW8.s 			page 9


 363:Drivers/STM32G4xx_HAL_Driver/Inc/stm32g4xx_ll_bus.h ****   *         @arg @ref LL_AHB1_GRP1_PERIPH_DMA1
 364:Drivers/STM32G4xx_HAL_Driver/Inc/stm32g4xx_ll_bus.h ****   *         @arg @ref LL_AHB1_GRP1_PERIPH_DMA2
 365:Drivers/STM32G4xx_HAL_Driver/Inc/stm32g4xx_ll_bus.h ****   *         @arg @ref LL_AHB1_GRP1_PERIPH_DMAMUX1
 366:Drivers/STM32G4xx_HAL_Driver/Inc/stm32g4xx_ll_bus.h ****   *         @arg @ref LL_AHB1_GRP1_PERIPH_CORDIC
 367:Drivers/STM32G4xx_HAL_Driver/Inc/stm32g4xx_ll_bus.h ****   *         @arg @ref LL_AHB1_GRP1_PERIPH_FMAC
 368:Drivers/STM32G4xx_HAL_Driver/Inc/stm32g4xx_ll_bus.h ****   *         @arg @ref LL_AHB1_GRP1_PERIPH_FLASH
 369:Drivers/STM32G4xx_HAL_Driver/Inc/stm32g4xx_ll_bus.h ****   *         @arg @ref LL_AHB1_GRP1_PERIPH_SRAM1
 370:Drivers/STM32G4xx_HAL_Driver/Inc/stm32g4xx_ll_bus.h ****   *         @arg @ref LL_AHB1_GRP1_PERIPH_CRC
 371:Drivers/STM32G4xx_HAL_Driver/Inc/stm32g4xx_ll_bus.h ****   * @retval None
 372:Drivers/STM32G4xx_HAL_Driver/Inc/stm32g4xx_ll_bus.h ****   */
 373:Drivers/STM32G4xx_HAL_Driver/Inc/stm32g4xx_ll_bus.h **** __STATIC_INLINE void LL_AHB1_GRP1_EnableClockStopSleep(uint32_t Periphs)
 374:Drivers/STM32G4xx_HAL_Driver/Inc/stm32g4xx_ll_bus.h **** {
 375:Drivers/STM32G4xx_HAL_Driver/Inc/stm32g4xx_ll_bus.h ****   __IO uint32_t tmpreg;
 376:Drivers/STM32G4xx_HAL_Driver/Inc/stm32g4xx_ll_bus.h ****   SET_BIT(RCC->AHB1SMENR, Periphs);
 377:Drivers/STM32G4xx_HAL_Driver/Inc/stm32g4xx_ll_bus.h ****   /* Delay after an RCC peripheral clock enabling */
 378:Drivers/STM32G4xx_HAL_Driver/Inc/stm32g4xx_ll_bus.h ****   tmpreg = READ_BIT(RCC->AHB1SMENR, Periphs);
 379:Drivers/STM32G4xx_HAL_Driver/Inc/stm32g4xx_ll_bus.h ****   (void)tmpreg;
 380:Drivers/STM32G4xx_HAL_Driver/Inc/stm32g4xx_ll_bus.h **** }
 381:Drivers/STM32G4xx_HAL_Driver/Inc/stm32g4xx_ll_bus.h **** 
 382:Drivers/STM32G4xx_HAL_Driver/Inc/stm32g4xx_ll_bus.h **** /**
 383:Drivers/STM32G4xx_HAL_Driver/Inc/stm32g4xx_ll_bus.h ****   * @brief  Disable AHB1 peripheral clocks in Sleep and Stop modes
 384:Drivers/STM32G4xx_HAL_Driver/Inc/stm32g4xx_ll_bus.h ****   * @rmtoll AHB1SMENR    DMA1SMEN      LL_AHB1_GRP1_DisableClockStopSleep\n
 385:Drivers/STM32G4xx_HAL_Driver/Inc/stm32g4xx_ll_bus.h ****   *         AHB1SMENR    DMA2SMEN      LL_AHB1_GRP1_DisableClockStopSleep\n
 386:Drivers/STM32G4xx_HAL_Driver/Inc/stm32g4xx_ll_bus.h ****   *         AHB1SMENR    DMAMUXSMEN    LL_AHB1_GRP1_DisableClockStopSleep\n
 387:Drivers/STM32G4xx_HAL_Driver/Inc/stm32g4xx_ll_bus.h ****   *         AHB1SMENR    CORDICSMEN    LL_AHB1_GRP1_DisableClockStopSleep\n
 388:Drivers/STM32G4xx_HAL_Driver/Inc/stm32g4xx_ll_bus.h ****   *         AHB1SMENR    FMACSMEN      LL_AHB1_GRP1_DisableClockStopSleep\n
 389:Drivers/STM32G4xx_HAL_Driver/Inc/stm32g4xx_ll_bus.h ****   *         AHB1SMENR    FLASHSMEN     LL_AHB1_GRP1_DisableClockStopSleep\n
 390:Drivers/STM32G4xx_HAL_Driver/Inc/stm32g4xx_ll_bus.h ****   *         AHB1SMENR    SRAM1SMEN     LL_AHB1_GRP1_DisableClockStopSleep\n
 391:Drivers/STM32G4xx_HAL_Driver/Inc/stm32g4xx_ll_bus.h ****   *         AHB1SMENR    CRCSMEN       LL_AHB1_GRP1_DisableClockStopSleep
 392:Drivers/STM32G4xx_HAL_Driver/Inc/stm32g4xx_ll_bus.h ****   * @param  Periphs This parameter can be a combination of the following values:
 393:Drivers/STM32G4xx_HAL_Driver/Inc/stm32g4xx_ll_bus.h ****   *         @arg @ref LL_AHB1_GRP1_PERIPH_DMA1
 394:Drivers/STM32G4xx_HAL_Driver/Inc/stm32g4xx_ll_bus.h ****   *         @arg @ref LL_AHB1_GRP1_PERIPH_DMA2
 395:Drivers/STM32G4xx_HAL_Driver/Inc/stm32g4xx_ll_bus.h ****   *         @arg @ref LL_AHB1_GRP1_PERIPH_DMAMUX1
 396:Drivers/STM32G4xx_HAL_Driver/Inc/stm32g4xx_ll_bus.h ****   *         @arg @ref LL_AHB1_GRP1_PERIPH_CORDIC
 397:Drivers/STM32G4xx_HAL_Driver/Inc/stm32g4xx_ll_bus.h ****   *         @arg @ref LL_AHB1_GRP1_PERIPH_FMAC
 398:Drivers/STM32G4xx_HAL_Driver/Inc/stm32g4xx_ll_bus.h ****   *         @arg @ref LL_AHB1_GRP1_PERIPH_FLASH
 399:Drivers/STM32G4xx_HAL_Driver/Inc/stm32g4xx_ll_bus.h ****   *         @arg @ref LL_AHB1_GRP1_PERIPH_SRAM1
 400:Drivers/STM32G4xx_HAL_Driver/Inc/stm32g4xx_ll_bus.h ****   *         @arg @ref LL_AHB1_GRP1_PERIPH_CRC
 401:Drivers/STM32G4xx_HAL_Driver/Inc/stm32g4xx_ll_bus.h ****   * @retval None
 402:Drivers/STM32G4xx_HAL_Driver/Inc/stm32g4xx_ll_bus.h ****   */
 403:Drivers/STM32G4xx_HAL_Driver/Inc/stm32g4xx_ll_bus.h **** __STATIC_INLINE void LL_AHB1_GRP1_DisableClockStopSleep(uint32_t Periphs)
 404:Drivers/STM32G4xx_HAL_Driver/Inc/stm32g4xx_ll_bus.h **** {
 405:Drivers/STM32G4xx_HAL_Driver/Inc/stm32g4xx_ll_bus.h ****   CLEAR_BIT(RCC->AHB1SMENR, Periphs);
 406:Drivers/STM32G4xx_HAL_Driver/Inc/stm32g4xx_ll_bus.h **** }
 407:Drivers/STM32G4xx_HAL_Driver/Inc/stm32g4xx_ll_bus.h **** 
 408:Drivers/STM32G4xx_HAL_Driver/Inc/stm32g4xx_ll_bus.h **** /**
 409:Drivers/STM32G4xx_HAL_Driver/Inc/stm32g4xx_ll_bus.h ****   * @}
 410:Drivers/STM32G4xx_HAL_Driver/Inc/stm32g4xx_ll_bus.h ****   */
 411:Drivers/STM32G4xx_HAL_Driver/Inc/stm32g4xx_ll_bus.h **** 
 412:Drivers/STM32G4xx_HAL_Driver/Inc/stm32g4xx_ll_bus.h **** /** @defgroup BUS_LL_EF_AHB2 AHB2
 413:Drivers/STM32G4xx_HAL_Driver/Inc/stm32g4xx_ll_bus.h ****   * @{
 414:Drivers/STM32G4xx_HAL_Driver/Inc/stm32g4xx_ll_bus.h ****   */
 415:Drivers/STM32G4xx_HAL_Driver/Inc/stm32g4xx_ll_bus.h **** 
 416:Drivers/STM32G4xx_HAL_Driver/Inc/stm32g4xx_ll_bus.h **** /**
 417:Drivers/STM32G4xx_HAL_Driver/Inc/stm32g4xx_ll_bus.h ****   * @brief  Enable AHB2 peripherals clock.
 418:Drivers/STM32G4xx_HAL_Driver/Inc/stm32g4xx_ll_bus.h ****   * @rmtoll AHB2ENR      GPIOAEN       LL_AHB2_GRP1_EnableClock\n
 419:Drivers/STM32G4xx_HAL_Driver/Inc/stm32g4xx_ll_bus.h ****   *         AHB2ENR      GPIOBEN       LL_AHB2_GRP1_EnableClock\n
ARM GAS  /tmp/ccXhhYW8.s 			page 10


 420:Drivers/STM32G4xx_HAL_Driver/Inc/stm32g4xx_ll_bus.h ****   *         AHB2ENR      GPIOCEN       LL_AHB2_GRP1_EnableClock\n
 421:Drivers/STM32G4xx_HAL_Driver/Inc/stm32g4xx_ll_bus.h ****   *         AHB2ENR      GPIODEN       LL_AHB2_GRP1_EnableClock\n
 422:Drivers/STM32G4xx_HAL_Driver/Inc/stm32g4xx_ll_bus.h ****   *         AHB2ENR      GPIOEEN       LL_AHB2_GRP1_EnableClock\n
 423:Drivers/STM32G4xx_HAL_Driver/Inc/stm32g4xx_ll_bus.h ****   *         AHB2ENR      GPIOFEN       LL_AHB2_GRP1_EnableClock\n
 424:Drivers/STM32G4xx_HAL_Driver/Inc/stm32g4xx_ll_bus.h ****   *         AHB2ENR      GPIOGEN       LL_AHB2_GRP1_EnableClock\n
 425:Drivers/STM32G4xx_HAL_Driver/Inc/stm32g4xx_ll_bus.h ****   *         AHB2ENR      ADC12EN       LL_AHB2_GRP1_EnableClock\n
 426:Drivers/STM32G4xx_HAL_Driver/Inc/stm32g4xx_ll_bus.h ****   *         AHB2ENR      ADC345EN      LL_AHB2_GRP1_EnableClock\n
 427:Drivers/STM32G4xx_HAL_Driver/Inc/stm32g4xx_ll_bus.h ****   *         AHB2ENR      DAC1EN        LL_AHB2_GRP1_EnableClock\n
 428:Drivers/STM32G4xx_HAL_Driver/Inc/stm32g4xx_ll_bus.h ****   *         AHB2ENR      DAC2EN        LL_AHB2_GRP1_EnableClock\n
 429:Drivers/STM32G4xx_HAL_Driver/Inc/stm32g4xx_ll_bus.h ****   *         AHB2ENR      DAC3EN        LL_AHB2_GRP1_EnableClock\n
 430:Drivers/STM32G4xx_HAL_Driver/Inc/stm32g4xx_ll_bus.h ****   *         AHB2ENR      DAC4EN        LL_AHB2_GRP1_EnableClock\n
 431:Drivers/STM32G4xx_HAL_Driver/Inc/stm32g4xx_ll_bus.h ****   *         AHB2ENR      AESEN         LL_AHB2_GRP1_EnableClock\n
 432:Drivers/STM32G4xx_HAL_Driver/Inc/stm32g4xx_ll_bus.h ****   *         AHB2ENR      RNGEN         LL_AHB2_GRP1_EnableClock
 433:Drivers/STM32G4xx_HAL_Driver/Inc/stm32g4xx_ll_bus.h ****   * @param  Periphs This parameter can be a combination of the following values:
 434:Drivers/STM32G4xx_HAL_Driver/Inc/stm32g4xx_ll_bus.h ****   *         @arg @ref LL_AHB2_GRP1_PERIPH_GPIOA
 435:Drivers/STM32G4xx_HAL_Driver/Inc/stm32g4xx_ll_bus.h ****   *         @arg @ref LL_AHB2_GRP1_PERIPH_GPIOB
 436:Drivers/STM32G4xx_HAL_Driver/Inc/stm32g4xx_ll_bus.h ****   *         @arg @ref LL_AHB2_GRP1_PERIPH_GPIOC
 437:Drivers/STM32G4xx_HAL_Driver/Inc/stm32g4xx_ll_bus.h ****   *         @arg @ref LL_AHB2_GRP1_PERIPH_GPIOD
 438:Drivers/STM32G4xx_HAL_Driver/Inc/stm32g4xx_ll_bus.h ****   *         @arg @ref LL_AHB2_GRP1_PERIPH_GPIOE
 439:Drivers/STM32G4xx_HAL_Driver/Inc/stm32g4xx_ll_bus.h ****   *         @arg @ref LL_AHB2_GRP1_PERIPH_GPIOF
 440:Drivers/STM32G4xx_HAL_Driver/Inc/stm32g4xx_ll_bus.h ****   *         @arg @ref LL_AHB2_GRP1_PERIPH_GPIOG
 441:Drivers/STM32G4xx_HAL_Driver/Inc/stm32g4xx_ll_bus.h ****   *         @arg @ref LL_AHB2_GRP1_PERIPH_ADC12
 442:Drivers/STM32G4xx_HAL_Driver/Inc/stm32g4xx_ll_bus.h ****   *         @arg @ref LL_AHB2_GRP1_PERIPH_ADC345 (*)
 443:Drivers/STM32G4xx_HAL_Driver/Inc/stm32g4xx_ll_bus.h ****   *         @arg @ref LL_AHB2_GRP1_PERIPH_DAC1
 444:Drivers/STM32G4xx_HAL_Driver/Inc/stm32g4xx_ll_bus.h ****   *         @arg @ref LL_AHB2_GRP1_PERIPH_DAC2 (*)
 445:Drivers/STM32G4xx_HAL_Driver/Inc/stm32g4xx_ll_bus.h ****   *         @arg @ref LL_AHB2_GRP1_PERIPH_DAC3
 446:Drivers/STM32G4xx_HAL_Driver/Inc/stm32g4xx_ll_bus.h ****   *         @arg @ref LL_AHB2_GRP1_PERIPH_DAC4 (*)
 447:Drivers/STM32G4xx_HAL_Driver/Inc/stm32g4xx_ll_bus.h ****   *         @arg @ref LL_AHB2_GRP1_PERIPH_AES (*)
 448:Drivers/STM32G4xx_HAL_Driver/Inc/stm32g4xx_ll_bus.h ****   *         @arg @ref LL_AHB2_GRP1_PERIPH_RNG
 449:Drivers/STM32G4xx_HAL_Driver/Inc/stm32g4xx_ll_bus.h ****   *
 450:Drivers/STM32G4xx_HAL_Driver/Inc/stm32g4xx_ll_bus.h ****   *         (*) value not defined in all devices.
 451:Drivers/STM32G4xx_HAL_Driver/Inc/stm32g4xx_ll_bus.h ****   * @retval None
 452:Drivers/STM32G4xx_HAL_Driver/Inc/stm32g4xx_ll_bus.h ****   */
 453:Drivers/STM32G4xx_HAL_Driver/Inc/stm32g4xx_ll_bus.h **** __STATIC_INLINE void LL_AHB2_GRP1_EnableClock(uint32_t Periphs)
 454:Drivers/STM32G4xx_HAL_Driver/Inc/stm32g4xx_ll_bus.h **** {
 455:Drivers/STM32G4xx_HAL_Driver/Inc/stm32g4xx_ll_bus.h ****   __IO uint32_t tmpreg;
 456:Drivers/STM32G4xx_HAL_Driver/Inc/stm32g4xx_ll_bus.h ****   SET_BIT(RCC->AHB2ENR, Periphs);
  52              		.loc 2 456 3 view .LVU3
  53 0006 2E4B     		ldr	r3, .L4
  54              	.LBE17:
  55              	.LBE16:
  56              	.LBB19:
  57              	.LBB20:
  58              		.file 3 "Drivers/STM32G4xx_HAL_Driver/Inc/stm32g4xx_ll_gpio.h"
   1:Drivers/STM32G4xx_HAL_Driver/Inc/stm32g4xx_ll_gpio.h **** /**
   2:Drivers/STM32G4xx_HAL_Driver/Inc/stm32g4xx_ll_gpio.h ****   ******************************************************************************
   3:Drivers/STM32G4xx_HAL_Driver/Inc/stm32g4xx_ll_gpio.h ****   * @file    stm32g4xx_ll_gpio.h
   4:Drivers/STM32G4xx_HAL_Driver/Inc/stm32g4xx_ll_gpio.h ****   * @author  MCD Application Team
   5:Drivers/STM32G4xx_HAL_Driver/Inc/stm32g4xx_ll_gpio.h ****   * @brief   Header file of GPIO LL module.
   6:Drivers/STM32G4xx_HAL_Driver/Inc/stm32g4xx_ll_gpio.h ****   ******************************************************************************
   7:Drivers/STM32G4xx_HAL_Driver/Inc/stm32g4xx_ll_gpio.h ****   * @attention
   8:Drivers/STM32G4xx_HAL_Driver/Inc/stm32g4xx_ll_gpio.h ****   *
   9:Drivers/STM32G4xx_HAL_Driver/Inc/stm32g4xx_ll_gpio.h ****   * <h2><center>&copy; Copyright (c) 2019 STMicroelectronics.
  10:Drivers/STM32G4xx_HAL_Driver/Inc/stm32g4xx_ll_gpio.h ****   * All rights reserved.</center></h2>
  11:Drivers/STM32G4xx_HAL_Driver/Inc/stm32g4xx_ll_gpio.h ****   *
  12:Drivers/STM32G4xx_HAL_Driver/Inc/stm32g4xx_ll_gpio.h ****   * This software component is licensed by ST under BSD 3-Clause license,
  13:Drivers/STM32G4xx_HAL_Driver/Inc/stm32g4xx_ll_gpio.h ****   * the "License"; You may not use this file except in compliance with the
ARM GAS  /tmp/ccXhhYW8.s 			page 11


  14:Drivers/STM32G4xx_HAL_Driver/Inc/stm32g4xx_ll_gpio.h ****   * License. You may obtain a copy of the License at:
  15:Drivers/STM32G4xx_HAL_Driver/Inc/stm32g4xx_ll_gpio.h ****   *                        opensource.org/licenses/BSD-3-Clause
  16:Drivers/STM32G4xx_HAL_Driver/Inc/stm32g4xx_ll_gpio.h ****   *
  17:Drivers/STM32G4xx_HAL_Driver/Inc/stm32g4xx_ll_gpio.h ****   ******************************************************************************
  18:Drivers/STM32G4xx_HAL_Driver/Inc/stm32g4xx_ll_gpio.h ****   */
  19:Drivers/STM32G4xx_HAL_Driver/Inc/stm32g4xx_ll_gpio.h **** 
  20:Drivers/STM32G4xx_HAL_Driver/Inc/stm32g4xx_ll_gpio.h **** /* Define to prevent recursive inclusion -------------------------------------*/
  21:Drivers/STM32G4xx_HAL_Driver/Inc/stm32g4xx_ll_gpio.h **** #ifndef STM32G4xx_LL_GPIO_H
  22:Drivers/STM32G4xx_HAL_Driver/Inc/stm32g4xx_ll_gpio.h **** #define STM32G4xx_LL_GPIO_H
  23:Drivers/STM32G4xx_HAL_Driver/Inc/stm32g4xx_ll_gpio.h **** 
  24:Drivers/STM32G4xx_HAL_Driver/Inc/stm32g4xx_ll_gpio.h **** #ifdef __cplusplus
  25:Drivers/STM32G4xx_HAL_Driver/Inc/stm32g4xx_ll_gpio.h **** extern "C" {
  26:Drivers/STM32G4xx_HAL_Driver/Inc/stm32g4xx_ll_gpio.h **** #endif
  27:Drivers/STM32G4xx_HAL_Driver/Inc/stm32g4xx_ll_gpio.h **** 
  28:Drivers/STM32G4xx_HAL_Driver/Inc/stm32g4xx_ll_gpio.h **** /* Includes ------------------------------------------------------------------*/
  29:Drivers/STM32G4xx_HAL_Driver/Inc/stm32g4xx_ll_gpio.h **** #include "stm32g4xx.h"
  30:Drivers/STM32G4xx_HAL_Driver/Inc/stm32g4xx_ll_gpio.h **** 
  31:Drivers/STM32G4xx_HAL_Driver/Inc/stm32g4xx_ll_gpio.h **** /** @addtogroup STM32G4xx_LL_Driver
  32:Drivers/STM32G4xx_HAL_Driver/Inc/stm32g4xx_ll_gpio.h ****   * @{
  33:Drivers/STM32G4xx_HAL_Driver/Inc/stm32g4xx_ll_gpio.h ****   */
  34:Drivers/STM32G4xx_HAL_Driver/Inc/stm32g4xx_ll_gpio.h **** 
  35:Drivers/STM32G4xx_HAL_Driver/Inc/stm32g4xx_ll_gpio.h **** #if defined (GPIOA) || defined (GPIOB) || defined (GPIOC) || defined (GPIOD) || defined (GPIOE) || 
  36:Drivers/STM32G4xx_HAL_Driver/Inc/stm32g4xx_ll_gpio.h **** 
  37:Drivers/STM32G4xx_HAL_Driver/Inc/stm32g4xx_ll_gpio.h **** /** @defgroup GPIO_LL GPIO
  38:Drivers/STM32G4xx_HAL_Driver/Inc/stm32g4xx_ll_gpio.h ****   * @{
  39:Drivers/STM32G4xx_HAL_Driver/Inc/stm32g4xx_ll_gpio.h ****   */
  40:Drivers/STM32G4xx_HAL_Driver/Inc/stm32g4xx_ll_gpio.h **** /** MISRA C:2012 deviation rule has been granted for following rules:
  41:Drivers/STM32G4xx_HAL_Driver/Inc/stm32g4xx_ll_gpio.h ****   * Rule-18.1_d - Medium: Array pointer `GPIOx' is accessed with index [..,..]
  42:Drivers/STM32G4xx_HAL_Driver/Inc/stm32g4xx_ll_gpio.h ****   * which may be out of array bounds [..,UNKNOWN] in following APIs:
  43:Drivers/STM32G4xx_HAL_Driver/Inc/stm32g4xx_ll_gpio.h ****   * LL_GPIO_GetAFPin_0_7
  44:Drivers/STM32G4xx_HAL_Driver/Inc/stm32g4xx_ll_gpio.h ****   * LL_GPIO_SetAFPin_0_7
  45:Drivers/STM32G4xx_HAL_Driver/Inc/stm32g4xx_ll_gpio.h ****   * LL_GPIO_SetAFPin_8_15
  46:Drivers/STM32G4xx_HAL_Driver/Inc/stm32g4xx_ll_gpio.h ****   * LL_GPIO_GetAFPin_8_15
  47:Drivers/STM32G4xx_HAL_Driver/Inc/stm32g4xx_ll_gpio.h ****   */
  48:Drivers/STM32G4xx_HAL_Driver/Inc/stm32g4xx_ll_gpio.h **** 
  49:Drivers/STM32G4xx_HAL_Driver/Inc/stm32g4xx_ll_gpio.h **** /* Private types -------------------------------------------------------------*/
  50:Drivers/STM32G4xx_HAL_Driver/Inc/stm32g4xx_ll_gpio.h **** /* Private variables ---------------------------------------------------------*/
  51:Drivers/STM32G4xx_HAL_Driver/Inc/stm32g4xx_ll_gpio.h **** /* Private constants ---------------------------------------------------------*/
  52:Drivers/STM32G4xx_HAL_Driver/Inc/stm32g4xx_ll_gpio.h **** /* Private macros ------------------------------------------------------------*/
  53:Drivers/STM32G4xx_HAL_Driver/Inc/stm32g4xx_ll_gpio.h **** #if defined(USE_FULL_LL_DRIVER)
  54:Drivers/STM32G4xx_HAL_Driver/Inc/stm32g4xx_ll_gpio.h **** /** @defgroup GPIO_LL_Private_Macros GPIO Private Macros
  55:Drivers/STM32G4xx_HAL_Driver/Inc/stm32g4xx_ll_gpio.h ****   * @{
  56:Drivers/STM32G4xx_HAL_Driver/Inc/stm32g4xx_ll_gpio.h ****   */
  57:Drivers/STM32G4xx_HAL_Driver/Inc/stm32g4xx_ll_gpio.h **** 
  58:Drivers/STM32G4xx_HAL_Driver/Inc/stm32g4xx_ll_gpio.h **** /**
  59:Drivers/STM32G4xx_HAL_Driver/Inc/stm32g4xx_ll_gpio.h ****   * @}
  60:Drivers/STM32G4xx_HAL_Driver/Inc/stm32g4xx_ll_gpio.h ****   */
  61:Drivers/STM32G4xx_HAL_Driver/Inc/stm32g4xx_ll_gpio.h **** #endif /*USE_FULL_LL_DRIVER*/
  62:Drivers/STM32G4xx_HAL_Driver/Inc/stm32g4xx_ll_gpio.h **** 
  63:Drivers/STM32G4xx_HAL_Driver/Inc/stm32g4xx_ll_gpio.h **** /* Exported types ------------------------------------------------------------*/
  64:Drivers/STM32G4xx_HAL_Driver/Inc/stm32g4xx_ll_gpio.h **** #if defined(USE_FULL_LL_DRIVER)
  65:Drivers/STM32G4xx_HAL_Driver/Inc/stm32g4xx_ll_gpio.h **** /** @defgroup GPIO_LL_ES_INIT GPIO Exported Init structures
  66:Drivers/STM32G4xx_HAL_Driver/Inc/stm32g4xx_ll_gpio.h ****   * @{
  67:Drivers/STM32G4xx_HAL_Driver/Inc/stm32g4xx_ll_gpio.h ****   */
  68:Drivers/STM32G4xx_HAL_Driver/Inc/stm32g4xx_ll_gpio.h **** 
  69:Drivers/STM32G4xx_HAL_Driver/Inc/stm32g4xx_ll_gpio.h **** /**
  70:Drivers/STM32G4xx_HAL_Driver/Inc/stm32g4xx_ll_gpio.h ****   * @brief LL GPIO Init Structure definition
ARM GAS  /tmp/ccXhhYW8.s 			page 12


  71:Drivers/STM32G4xx_HAL_Driver/Inc/stm32g4xx_ll_gpio.h ****   */
  72:Drivers/STM32G4xx_HAL_Driver/Inc/stm32g4xx_ll_gpio.h **** typedef struct
  73:Drivers/STM32G4xx_HAL_Driver/Inc/stm32g4xx_ll_gpio.h **** {
  74:Drivers/STM32G4xx_HAL_Driver/Inc/stm32g4xx_ll_gpio.h ****   uint32_t Pin;          /*!< Specifies the GPIO pins to be configured.
  75:Drivers/STM32G4xx_HAL_Driver/Inc/stm32g4xx_ll_gpio.h ****                               This parameter can be any value of @ref GPIO_LL_EC_PIN */
  76:Drivers/STM32G4xx_HAL_Driver/Inc/stm32g4xx_ll_gpio.h **** 
  77:Drivers/STM32G4xx_HAL_Driver/Inc/stm32g4xx_ll_gpio.h ****   uint32_t Mode;         /*!< Specifies the operating mode for the selected pins.
  78:Drivers/STM32G4xx_HAL_Driver/Inc/stm32g4xx_ll_gpio.h ****                               This parameter can be a value of @ref GPIO_LL_EC_MODE.
  79:Drivers/STM32G4xx_HAL_Driver/Inc/stm32g4xx_ll_gpio.h **** 
  80:Drivers/STM32G4xx_HAL_Driver/Inc/stm32g4xx_ll_gpio.h ****                               GPIO HW configuration can be modified afterwards using unitary functi
  81:Drivers/STM32G4xx_HAL_Driver/Inc/stm32g4xx_ll_gpio.h **** 
  82:Drivers/STM32G4xx_HAL_Driver/Inc/stm32g4xx_ll_gpio.h ****   uint32_t Speed;        /*!< Specifies the speed for the selected pins.
  83:Drivers/STM32G4xx_HAL_Driver/Inc/stm32g4xx_ll_gpio.h ****                               This parameter can be a value of @ref GPIO_LL_EC_SPEED.
  84:Drivers/STM32G4xx_HAL_Driver/Inc/stm32g4xx_ll_gpio.h **** 
  85:Drivers/STM32G4xx_HAL_Driver/Inc/stm32g4xx_ll_gpio.h ****                               GPIO HW configuration can be modified afterwards using unitary functi
  86:Drivers/STM32G4xx_HAL_Driver/Inc/stm32g4xx_ll_gpio.h **** 
  87:Drivers/STM32G4xx_HAL_Driver/Inc/stm32g4xx_ll_gpio.h ****   uint32_t OutputType;   /*!< Specifies the operating output type for the selected pins.
  88:Drivers/STM32G4xx_HAL_Driver/Inc/stm32g4xx_ll_gpio.h ****                               This parameter can be a value of @ref GPIO_LL_EC_OUTPUT.
  89:Drivers/STM32G4xx_HAL_Driver/Inc/stm32g4xx_ll_gpio.h **** 
  90:Drivers/STM32G4xx_HAL_Driver/Inc/stm32g4xx_ll_gpio.h ****                               GPIO HW configuration can be modified afterwards using unitary functi
  91:Drivers/STM32G4xx_HAL_Driver/Inc/stm32g4xx_ll_gpio.h **** 
  92:Drivers/STM32G4xx_HAL_Driver/Inc/stm32g4xx_ll_gpio.h ****   uint32_t Pull;         /*!< Specifies the operating Pull-up/Pull down for the selected pins.
  93:Drivers/STM32G4xx_HAL_Driver/Inc/stm32g4xx_ll_gpio.h ****                               This parameter can be a value of @ref GPIO_LL_EC_PULL.
  94:Drivers/STM32G4xx_HAL_Driver/Inc/stm32g4xx_ll_gpio.h **** 
  95:Drivers/STM32G4xx_HAL_Driver/Inc/stm32g4xx_ll_gpio.h ****                               GPIO HW configuration can be modified afterwards using unitary functi
  96:Drivers/STM32G4xx_HAL_Driver/Inc/stm32g4xx_ll_gpio.h **** 
  97:Drivers/STM32G4xx_HAL_Driver/Inc/stm32g4xx_ll_gpio.h ****   uint32_t Alternate;    /*!< Specifies the Peripheral to be connected to the selected pins.
  98:Drivers/STM32G4xx_HAL_Driver/Inc/stm32g4xx_ll_gpio.h ****                               This parameter can be a value of @ref GPIO_LL_EC_AF.
  99:Drivers/STM32G4xx_HAL_Driver/Inc/stm32g4xx_ll_gpio.h **** 
 100:Drivers/STM32G4xx_HAL_Driver/Inc/stm32g4xx_ll_gpio.h ****                               GPIO HW configuration can be modified afterwards using unitary functi
 101:Drivers/STM32G4xx_HAL_Driver/Inc/stm32g4xx_ll_gpio.h **** } LL_GPIO_InitTypeDef;
 102:Drivers/STM32G4xx_HAL_Driver/Inc/stm32g4xx_ll_gpio.h **** 
 103:Drivers/STM32G4xx_HAL_Driver/Inc/stm32g4xx_ll_gpio.h **** /**
 104:Drivers/STM32G4xx_HAL_Driver/Inc/stm32g4xx_ll_gpio.h ****   * @}
 105:Drivers/STM32G4xx_HAL_Driver/Inc/stm32g4xx_ll_gpio.h ****   */
 106:Drivers/STM32G4xx_HAL_Driver/Inc/stm32g4xx_ll_gpio.h **** #endif /* USE_FULL_LL_DRIVER */
 107:Drivers/STM32G4xx_HAL_Driver/Inc/stm32g4xx_ll_gpio.h **** 
 108:Drivers/STM32G4xx_HAL_Driver/Inc/stm32g4xx_ll_gpio.h **** /* Exported constants --------------------------------------------------------*/
 109:Drivers/STM32G4xx_HAL_Driver/Inc/stm32g4xx_ll_gpio.h **** /** @defgroup GPIO_LL_Exported_Constants GPIO Exported Constants
 110:Drivers/STM32G4xx_HAL_Driver/Inc/stm32g4xx_ll_gpio.h ****   * @{
 111:Drivers/STM32G4xx_HAL_Driver/Inc/stm32g4xx_ll_gpio.h ****   */
 112:Drivers/STM32G4xx_HAL_Driver/Inc/stm32g4xx_ll_gpio.h **** 
 113:Drivers/STM32G4xx_HAL_Driver/Inc/stm32g4xx_ll_gpio.h **** /** @defgroup GPIO_LL_EC_PIN PIN
 114:Drivers/STM32G4xx_HAL_Driver/Inc/stm32g4xx_ll_gpio.h ****   * @{
 115:Drivers/STM32G4xx_HAL_Driver/Inc/stm32g4xx_ll_gpio.h ****   */
 116:Drivers/STM32G4xx_HAL_Driver/Inc/stm32g4xx_ll_gpio.h **** #define LL_GPIO_PIN_0                      GPIO_BSRR_BS0 /*!< Select pin 0 */
 117:Drivers/STM32G4xx_HAL_Driver/Inc/stm32g4xx_ll_gpio.h **** #define LL_GPIO_PIN_1                      GPIO_BSRR_BS1 /*!< Select pin 1 */
 118:Drivers/STM32G4xx_HAL_Driver/Inc/stm32g4xx_ll_gpio.h **** #define LL_GPIO_PIN_2                      GPIO_BSRR_BS2 /*!< Select pin 2 */
 119:Drivers/STM32G4xx_HAL_Driver/Inc/stm32g4xx_ll_gpio.h **** #define LL_GPIO_PIN_3                      GPIO_BSRR_BS3 /*!< Select pin 3 */
 120:Drivers/STM32G4xx_HAL_Driver/Inc/stm32g4xx_ll_gpio.h **** #define LL_GPIO_PIN_4                      GPIO_BSRR_BS4 /*!< Select pin 4 */
 121:Drivers/STM32G4xx_HAL_Driver/Inc/stm32g4xx_ll_gpio.h **** #define LL_GPIO_PIN_5                      GPIO_BSRR_BS5 /*!< Select pin 5 */
 122:Drivers/STM32G4xx_HAL_Driver/Inc/stm32g4xx_ll_gpio.h **** #define LL_GPIO_PIN_6                      GPIO_BSRR_BS6 /*!< Select pin 6 */
 123:Drivers/STM32G4xx_HAL_Driver/Inc/stm32g4xx_ll_gpio.h **** #define LL_GPIO_PIN_7                      GPIO_BSRR_BS7 /*!< Select pin 7 */
 124:Drivers/STM32G4xx_HAL_Driver/Inc/stm32g4xx_ll_gpio.h **** #define LL_GPIO_PIN_8                      GPIO_BSRR_BS8 /*!< Select pin 8 */
 125:Drivers/STM32G4xx_HAL_Driver/Inc/stm32g4xx_ll_gpio.h **** #define LL_GPIO_PIN_9                      GPIO_BSRR_BS9 /*!< Select pin 9 */
 126:Drivers/STM32G4xx_HAL_Driver/Inc/stm32g4xx_ll_gpio.h **** #define LL_GPIO_PIN_10                     GPIO_BSRR_BS10 /*!< Select pin 10 */
 127:Drivers/STM32G4xx_HAL_Driver/Inc/stm32g4xx_ll_gpio.h **** #define LL_GPIO_PIN_11                     GPIO_BSRR_BS11 /*!< Select pin 11 */
ARM GAS  /tmp/ccXhhYW8.s 			page 13


 128:Drivers/STM32G4xx_HAL_Driver/Inc/stm32g4xx_ll_gpio.h **** #define LL_GPIO_PIN_12                     GPIO_BSRR_BS12 /*!< Select pin 12 */
 129:Drivers/STM32G4xx_HAL_Driver/Inc/stm32g4xx_ll_gpio.h **** #define LL_GPIO_PIN_13                     GPIO_BSRR_BS13 /*!< Select pin 13 */
 130:Drivers/STM32G4xx_HAL_Driver/Inc/stm32g4xx_ll_gpio.h **** #define LL_GPIO_PIN_14                     GPIO_BSRR_BS14 /*!< Select pin 14 */
 131:Drivers/STM32G4xx_HAL_Driver/Inc/stm32g4xx_ll_gpio.h **** #define LL_GPIO_PIN_15                     GPIO_BSRR_BS15 /*!< Select pin 15 */
 132:Drivers/STM32G4xx_HAL_Driver/Inc/stm32g4xx_ll_gpio.h **** #define LL_GPIO_PIN_ALL                    (GPIO_BSRR_BS0 | GPIO_BSRR_BS1  | GPIO_BSRR_BS2  | \
 133:Drivers/STM32G4xx_HAL_Driver/Inc/stm32g4xx_ll_gpio.h ****                                            GPIO_BSRR_BS3  | GPIO_BSRR_BS4  | GPIO_BSRR_BS5  | \
 134:Drivers/STM32G4xx_HAL_Driver/Inc/stm32g4xx_ll_gpio.h ****                                            GPIO_BSRR_BS6  | GPIO_BSRR_BS7  | GPIO_BSRR_BS8  | \
 135:Drivers/STM32G4xx_HAL_Driver/Inc/stm32g4xx_ll_gpio.h ****                                            GPIO_BSRR_BS9  | GPIO_BSRR_BS10 | GPIO_BSRR_BS11 | \
 136:Drivers/STM32G4xx_HAL_Driver/Inc/stm32g4xx_ll_gpio.h ****                                            GPIO_BSRR_BS12 | GPIO_BSRR_BS13 | GPIO_BSRR_BS14 | \
 137:Drivers/STM32G4xx_HAL_Driver/Inc/stm32g4xx_ll_gpio.h ****                                            GPIO_BSRR_BS15) /*!< Select all pins */
 138:Drivers/STM32G4xx_HAL_Driver/Inc/stm32g4xx_ll_gpio.h **** /**
 139:Drivers/STM32G4xx_HAL_Driver/Inc/stm32g4xx_ll_gpio.h ****   * @}
 140:Drivers/STM32G4xx_HAL_Driver/Inc/stm32g4xx_ll_gpio.h ****   */
 141:Drivers/STM32G4xx_HAL_Driver/Inc/stm32g4xx_ll_gpio.h **** 
 142:Drivers/STM32G4xx_HAL_Driver/Inc/stm32g4xx_ll_gpio.h **** /** @defgroup GPIO_LL_EC_MODE Mode
 143:Drivers/STM32G4xx_HAL_Driver/Inc/stm32g4xx_ll_gpio.h ****   * @{
 144:Drivers/STM32G4xx_HAL_Driver/Inc/stm32g4xx_ll_gpio.h ****   */
 145:Drivers/STM32G4xx_HAL_Driver/Inc/stm32g4xx_ll_gpio.h **** #define LL_GPIO_MODE_INPUT                 (0x00000000U) /*!< Select input mode */
 146:Drivers/STM32G4xx_HAL_Driver/Inc/stm32g4xx_ll_gpio.h **** #define LL_GPIO_MODE_OUTPUT                GPIO_MODER_MODE0_0  /*!< Select output mode */
 147:Drivers/STM32G4xx_HAL_Driver/Inc/stm32g4xx_ll_gpio.h **** #define LL_GPIO_MODE_ALTERNATE             GPIO_MODER_MODE0_1  /*!< Select alternate function mode 
 148:Drivers/STM32G4xx_HAL_Driver/Inc/stm32g4xx_ll_gpio.h **** #define LL_GPIO_MODE_ANALOG                GPIO_MODER_MODE0    /*!< Select analog mode */
 149:Drivers/STM32G4xx_HAL_Driver/Inc/stm32g4xx_ll_gpio.h **** /**
 150:Drivers/STM32G4xx_HAL_Driver/Inc/stm32g4xx_ll_gpio.h ****   * @}
 151:Drivers/STM32G4xx_HAL_Driver/Inc/stm32g4xx_ll_gpio.h ****   */
 152:Drivers/STM32G4xx_HAL_Driver/Inc/stm32g4xx_ll_gpio.h **** 
 153:Drivers/STM32G4xx_HAL_Driver/Inc/stm32g4xx_ll_gpio.h **** /** @defgroup GPIO_LL_EC_OUTPUT Output Type
 154:Drivers/STM32G4xx_HAL_Driver/Inc/stm32g4xx_ll_gpio.h ****   * @{
 155:Drivers/STM32G4xx_HAL_Driver/Inc/stm32g4xx_ll_gpio.h ****   */
 156:Drivers/STM32G4xx_HAL_Driver/Inc/stm32g4xx_ll_gpio.h **** #define LL_GPIO_OUTPUT_PUSHPULL            (0x00000000U) /*!< Select push-pull as output type */
 157:Drivers/STM32G4xx_HAL_Driver/Inc/stm32g4xx_ll_gpio.h **** #define LL_GPIO_OUTPUT_OPENDRAIN           GPIO_OTYPER_OT0 /*!< Select open-drain as output type */
 158:Drivers/STM32G4xx_HAL_Driver/Inc/stm32g4xx_ll_gpio.h **** /**
 159:Drivers/STM32G4xx_HAL_Driver/Inc/stm32g4xx_ll_gpio.h ****   * @}
 160:Drivers/STM32G4xx_HAL_Driver/Inc/stm32g4xx_ll_gpio.h ****   */
 161:Drivers/STM32G4xx_HAL_Driver/Inc/stm32g4xx_ll_gpio.h **** 
 162:Drivers/STM32G4xx_HAL_Driver/Inc/stm32g4xx_ll_gpio.h **** /** @defgroup GPIO_LL_EC_SPEED Output Speed
 163:Drivers/STM32G4xx_HAL_Driver/Inc/stm32g4xx_ll_gpio.h ****   * @{
 164:Drivers/STM32G4xx_HAL_Driver/Inc/stm32g4xx_ll_gpio.h ****   */
 165:Drivers/STM32G4xx_HAL_Driver/Inc/stm32g4xx_ll_gpio.h **** #define LL_GPIO_SPEED_FREQ_LOW             (0x00000000U) /*!< Select I/O low output speed    */
 166:Drivers/STM32G4xx_HAL_Driver/Inc/stm32g4xx_ll_gpio.h **** #define LL_GPIO_SPEED_FREQ_MEDIUM          GPIO_OSPEEDR_OSPEED0_0 /*!< Select I/O medium output spe
 167:Drivers/STM32G4xx_HAL_Driver/Inc/stm32g4xx_ll_gpio.h **** #define LL_GPIO_SPEED_FREQ_HIGH            GPIO_OSPEEDR_OSPEED0_1 /*!< Select I/O fast output speed
 168:Drivers/STM32G4xx_HAL_Driver/Inc/stm32g4xx_ll_gpio.h **** #define LL_GPIO_SPEED_FREQ_VERY_HIGH       GPIO_OSPEEDR_OSPEED0   /*!< Select I/O high output speed
 169:Drivers/STM32G4xx_HAL_Driver/Inc/stm32g4xx_ll_gpio.h **** /**
 170:Drivers/STM32G4xx_HAL_Driver/Inc/stm32g4xx_ll_gpio.h ****   * @}
 171:Drivers/STM32G4xx_HAL_Driver/Inc/stm32g4xx_ll_gpio.h ****   */
 172:Drivers/STM32G4xx_HAL_Driver/Inc/stm32g4xx_ll_gpio.h **** #define LL_GPIO_SPEED_LOW                  LL_GPIO_SPEED_FREQ_LOW
 173:Drivers/STM32G4xx_HAL_Driver/Inc/stm32g4xx_ll_gpio.h **** #define LL_GPIO_SPEED_MEDIUM               LL_GPIO_SPEED_FREQ_MEDIUM
 174:Drivers/STM32G4xx_HAL_Driver/Inc/stm32g4xx_ll_gpio.h **** #define LL_GPIO_SPEED_FAST                 LL_GPIO_SPEED_FREQ_HIGH
 175:Drivers/STM32G4xx_HAL_Driver/Inc/stm32g4xx_ll_gpio.h **** #define LL_GPIO_SPEED_HIGH                 LL_GPIO_SPEED_FREQ_VERY_HIGH
 176:Drivers/STM32G4xx_HAL_Driver/Inc/stm32g4xx_ll_gpio.h **** 
 177:Drivers/STM32G4xx_HAL_Driver/Inc/stm32g4xx_ll_gpio.h **** /** @defgroup GPIO_LL_EC_PULL Pull Up Pull Down
 178:Drivers/STM32G4xx_HAL_Driver/Inc/stm32g4xx_ll_gpio.h ****   * @{
 179:Drivers/STM32G4xx_HAL_Driver/Inc/stm32g4xx_ll_gpio.h ****   */
 180:Drivers/STM32G4xx_HAL_Driver/Inc/stm32g4xx_ll_gpio.h **** #define LL_GPIO_PULL_NO                    (0x00000000U) /*!< Select I/O no pull */
 181:Drivers/STM32G4xx_HAL_Driver/Inc/stm32g4xx_ll_gpio.h **** #define LL_GPIO_PULL_UP                    GPIO_PUPDR_PUPD0_0 /*!< Select I/O pull up */
 182:Drivers/STM32G4xx_HAL_Driver/Inc/stm32g4xx_ll_gpio.h **** #define LL_GPIO_PULL_DOWN                  GPIO_PUPDR_PUPD0_1 /*!< Select I/O pull down */
 183:Drivers/STM32G4xx_HAL_Driver/Inc/stm32g4xx_ll_gpio.h **** /**
 184:Drivers/STM32G4xx_HAL_Driver/Inc/stm32g4xx_ll_gpio.h ****   * @}
ARM GAS  /tmp/ccXhhYW8.s 			page 14


 185:Drivers/STM32G4xx_HAL_Driver/Inc/stm32g4xx_ll_gpio.h ****   */
 186:Drivers/STM32G4xx_HAL_Driver/Inc/stm32g4xx_ll_gpio.h **** 
 187:Drivers/STM32G4xx_HAL_Driver/Inc/stm32g4xx_ll_gpio.h **** /** @defgroup GPIO_LL_EC_AF Alternate Function
 188:Drivers/STM32G4xx_HAL_Driver/Inc/stm32g4xx_ll_gpio.h ****   * @{
 189:Drivers/STM32G4xx_HAL_Driver/Inc/stm32g4xx_ll_gpio.h ****   */
 190:Drivers/STM32G4xx_HAL_Driver/Inc/stm32g4xx_ll_gpio.h **** #define LL_GPIO_AF_0                       (0x0000000U) /*!< Select alternate function 0 */
 191:Drivers/STM32G4xx_HAL_Driver/Inc/stm32g4xx_ll_gpio.h **** #define LL_GPIO_AF_1                       (0x0000001U) /*!< Select alternate function 1 */
 192:Drivers/STM32G4xx_HAL_Driver/Inc/stm32g4xx_ll_gpio.h **** #define LL_GPIO_AF_2                       (0x0000002U) /*!< Select alternate function 2 */
 193:Drivers/STM32G4xx_HAL_Driver/Inc/stm32g4xx_ll_gpio.h **** #define LL_GPIO_AF_3                       (0x0000003U) /*!< Select alternate function 3 */
 194:Drivers/STM32G4xx_HAL_Driver/Inc/stm32g4xx_ll_gpio.h **** #define LL_GPIO_AF_4                       (0x0000004U) /*!< Select alternate function 4 */
 195:Drivers/STM32G4xx_HAL_Driver/Inc/stm32g4xx_ll_gpio.h **** #define LL_GPIO_AF_5                       (0x0000005U) /*!< Select alternate function 5 */
 196:Drivers/STM32G4xx_HAL_Driver/Inc/stm32g4xx_ll_gpio.h **** #define LL_GPIO_AF_6                       (0x0000006U) /*!< Select alternate function 6 */
 197:Drivers/STM32G4xx_HAL_Driver/Inc/stm32g4xx_ll_gpio.h **** #define LL_GPIO_AF_7                       (0x0000007U) /*!< Select alternate function 7 */
 198:Drivers/STM32G4xx_HAL_Driver/Inc/stm32g4xx_ll_gpio.h **** #define LL_GPIO_AF_8                       (0x0000008U) /*!< Select alternate function 8 */
 199:Drivers/STM32G4xx_HAL_Driver/Inc/stm32g4xx_ll_gpio.h **** #define LL_GPIO_AF_9                       (0x0000009U) /*!< Select alternate function 9 */
 200:Drivers/STM32G4xx_HAL_Driver/Inc/stm32g4xx_ll_gpio.h **** #define LL_GPIO_AF_10                      (0x000000AU) /*!< Select alternate function 10 */
 201:Drivers/STM32G4xx_HAL_Driver/Inc/stm32g4xx_ll_gpio.h **** #define LL_GPIO_AF_11                      (0x000000BU) /*!< Select alternate function 11 */
 202:Drivers/STM32G4xx_HAL_Driver/Inc/stm32g4xx_ll_gpio.h **** #define LL_GPIO_AF_12                      (0x000000CU) /*!< Select alternate function 12 */
 203:Drivers/STM32G4xx_HAL_Driver/Inc/stm32g4xx_ll_gpio.h **** #define LL_GPIO_AF_13                      (0x000000DU) /*!< Select alternate function 13 */
 204:Drivers/STM32G4xx_HAL_Driver/Inc/stm32g4xx_ll_gpio.h **** #define LL_GPIO_AF_14                      (0x000000EU) /*!< Select alternate function 14 */
 205:Drivers/STM32G4xx_HAL_Driver/Inc/stm32g4xx_ll_gpio.h **** #define LL_GPIO_AF_15                      (0x000000FU) /*!< Select alternate function 15 */
 206:Drivers/STM32G4xx_HAL_Driver/Inc/stm32g4xx_ll_gpio.h **** /**
 207:Drivers/STM32G4xx_HAL_Driver/Inc/stm32g4xx_ll_gpio.h ****   * @}
 208:Drivers/STM32G4xx_HAL_Driver/Inc/stm32g4xx_ll_gpio.h ****   */
 209:Drivers/STM32G4xx_HAL_Driver/Inc/stm32g4xx_ll_gpio.h **** 
 210:Drivers/STM32G4xx_HAL_Driver/Inc/stm32g4xx_ll_gpio.h **** /**
 211:Drivers/STM32G4xx_HAL_Driver/Inc/stm32g4xx_ll_gpio.h ****   * @}
 212:Drivers/STM32G4xx_HAL_Driver/Inc/stm32g4xx_ll_gpio.h ****   */
 213:Drivers/STM32G4xx_HAL_Driver/Inc/stm32g4xx_ll_gpio.h **** 
 214:Drivers/STM32G4xx_HAL_Driver/Inc/stm32g4xx_ll_gpio.h **** /* Exported macro ------------------------------------------------------------*/
 215:Drivers/STM32G4xx_HAL_Driver/Inc/stm32g4xx_ll_gpio.h **** /** @defgroup GPIO_LL_Exported_Macros GPIO Exported Macros
 216:Drivers/STM32G4xx_HAL_Driver/Inc/stm32g4xx_ll_gpio.h ****   * @{
 217:Drivers/STM32G4xx_HAL_Driver/Inc/stm32g4xx_ll_gpio.h ****   */
 218:Drivers/STM32G4xx_HAL_Driver/Inc/stm32g4xx_ll_gpio.h **** 
 219:Drivers/STM32G4xx_HAL_Driver/Inc/stm32g4xx_ll_gpio.h **** /** @defgroup GPIO_LL_EM_WRITE_READ Common Write and read registers Macros
 220:Drivers/STM32G4xx_HAL_Driver/Inc/stm32g4xx_ll_gpio.h ****   * @{
 221:Drivers/STM32G4xx_HAL_Driver/Inc/stm32g4xx_ll_gpio.h ****   */
 222:Drivers/STM32G4xx_HAL_Driver/Inc/stm32g4xx_ll_gpio.h **** 
 223:Drivers/STM32G4xx_HAL_Driver/Inc/stm32g4xx_ll_gpio.h **** /**
 224:Drivers/STM32G4xx_HAL_Driver/Inc/stm32g4xx_ll_gpio.h ****   * @brief  Write a value in GPIO register
 225:Drivers/STM32G4xx_HAL_Driver/Inc/stm32g4xx_ll_gpio.h ****   * @param  __INSTANCE__ GPIO Instance
 226:Drivers/STM32G4xx_HAL_Driver/Inc/stm32g4xx_ll_gpio.h ****   * @param  __REG__ Register to be written
 227:Drivers/STM32G4xx_HAL_Driver/Inc/stm32g4xx_ll_gpio.h ****   * @param  __VALUE__ Value to be written in the register
 228:Drivers/STM32G4xx_HAL_Driver/Inc/stm32g4xx_ll_gpio.h ****   * @retval None
 229:Drivers/STM32G4xx_HAL_Driver/Inc/stm32g4xx_ll_gpio.h ****   */
 230:Drivers/STM32G4xx_HAL_Driver/Inc/stm32g4xx_ll_gpio.h **** #define LL_GPIO_WriteReg(__INSTANCE__, __REG__, __VALUE__) WRITE_REG(__INSTANCE__->__REG__, (__VALU
 231:Drivers/STM32G4xx_HAL_Driver/Inc/stm32g4xx_ll_gpio.h **** 
 232:Drivers/STM32G4xx_HAL_Driver/Inc/stm32g4xx_ll_gpio.h **** /**
 233:Drivers/STM32G4xx_HAL_Driver/Inc/stm32g4xx_ll_gpio.h ****   * @brief  Read a value in GPIO register
 234:Drivers/STM32G4xx_HAL_Driver/Inc/stm32g4xx_ll_gpio.h ****   * @param  __INSTANCE__ GPIO Instance
 235:Drivers/STM32G4xx_HAL_Driver/Inc/stm32g4xx_ll_gpio.h ****   * @param  __REG__ Register to be read
 236:Drivers/STM32G4xx_HAL_Driver/Inc/stm32g4xx_ll_gpio.h ****   * @retval Register value
 237:Drivers/STM32G4xx_HAL_Driver/Inc/stm32g4xx_ll_gpio.h ****   */
 238:Drivers/STM32G4xx_HAL_Driver/Inc/stm32g4xx_ll_gpio.h **** #define LL_GPIO_ReadReg(__INSTANCE__, __REG__) READ_REG(__INSTANCE__->__REG__)
 239:Drivers/STM32G4xx_HAL_Driver/Inc/stm32g4xx_ll_gpio.h **** /**
 240:Drivers/STM32G4xx_HAL_Driver/Inc/stm32g4xx_ll_gpio.h ****   * @}
 241:Drivers/STM32G4xx_HAL_Driver/Inc/stm32g4xx_ll_gpio.h ****   */
ARM GAS  /tmp/ccXhhYW8.s 			page 15


 242:Drivers/STM32G4xx_HAL_Driver/Inc/stm32g4xx_ll_gpio.h **** 
 243:Drivers/STM32G4xx_HAL_Driver/Inc/stm32g4xx_ll_gpio.h **** /**
 244:Drivers/STM32G4xx_HAL_Driver/Inc/stm32g4xx_ll_gpio.h ****   * @}
 245:Drivers/STM32G4xx_HAL_Driver/Inc/stm32g4xx_ll_gpio.h ****   */
 246:Drivers/STM32G4xx_HAL_Driver/Inc/stm32g4xx_ll_gpio.h **** 
 247:Drivers/STM32G4xx_HAL_Driver/Inc/stm32g4xx_ll_gpio.h **** /* Exported functions --------------------------------------------------------*/
 248:Drivers/STM32G4xx_HAL_Driver/Inc/stm32g4xx_ll_gpio.h **** /** @defgroup GPIO_LL_Exported_Functions GPIO Exported Functions
 249:Drivers/STM32G4xx_HAL_Driver/Inc/stm32g4xx_ll_gpio.h ****   * @{
 250:Drivers/STM32G4xx_HAL_Driver/Inc/stm32g4xx_ll_gpio.h ****   */
 251:Drivers/STM32G4xx_HAL_Driver/Inc/stm32g4xx_ll_gpio.h **** 
 252:Drivers/STM32G4xx_HAL_Driver/Inc/stm32g4xx_ll_gpio.h **** /** @defgroup GPIO_LL_EF_Port_Configuration Port Configuration
 253:Drivers/STM32G4xx_HAL_Driver/Inc/stm32g4xx_ll_gpio.h ****   * @{
 254:Drivers/STM32G4xx_HAL_Driver/Inc/stm32g4xx_ll_gpio.h ****   */
 255:Drivers/STM32G4xx_HAL_Driver/Inc/stm32g4xx_ll_gpio.h **** 
 256:Drivers/STM32G4xx_HAL_Driver/Inc/stm32g4xx_ll_gpio.h **** /**
 257:Drivers/STM32G4xx_HAL_Driver/Inc/stm32g4xx_ll_gpio.h ****   * @brief  Configure gpio mode for a dedicated pin on dedicated port.
 258:Drivers/STM32G4xx_HAL_Driver/Inc/stm32g4xx_ll_gpio.h ****   * @note   I/O mode can be Input mode, General purpose output, Alternate function mode or Analog.
 259:Drivers/STM32G4xx_HAL_Driver/Inc/stm32g4xx_ll_gpio.h ****   * @note   Warning: only one pin can be passed as parameter.
 260:Drivers/STM32G4xx_HAL_Driver/Inc/stm32g4xx_ll_gpio.h ****   * @rmtoll MODER        MODEy         LL_GPIO_SetPinMode
 261:Drivers/STM32G4xx_HAL_Driver/Inc/stm32g4xx_ll_gpio.h ****   * @param  GPIOx GPIO Port
 262:Drivers/STM32G4xx_HAL_Driver/Inc/stm32g4xx_ll_gpio.h ****   * @param  Pin This parameter can be one of the following values:
 263:Drivers/STM32G4xx_HAL_Driver/Inc/stm32g4xx_ll_gpio.h ****   *         @arg @ref LL_GPIO_PIN_0
 264:Drivers/STM32G4xx_HAL_Driver/Inc/stm32g4xx_ll_gpio.h ****   *         @arg @ref LL_GPIO_PIN_1
 265:Drivers/STM32G4xx_HAL_Driver/Inc/stm32g4xx_ll_gpio.h ****   *         @arg @ref LL_GPIO_PIN_2
 266:Drivers/STM32G4xx_HAL_Driver/Inc/stm32g4xx_ll_gpio.h ****   *         @arg @ref LL_GPIO_PIN_3
 267:Drivers/STM32G4xx_HAL_Driver/Inc/stm32g4xx_ll_gpio.h ****   *         @arg @ref LL_GPIO_PIN_4
 268:Drivers/STM32G4xx_HAL_Driver/Inc/stm32g4xx_ll_gpio.h ****   *         @arg @ref LL_GPIO_PIN_5
 269:Drivers/STM32G4xx_HAL_Driver/Inc/stm32g4xx_ll_gpio.h ****   *         @arg @ref LL_GPIO_PIN_6
 270:Drivers/STM32G4xx_HAL_Driver/Inc/stm32g4xx_ll_gpio.h ****   *         @arg @ref LL_GPIO_PIN_7
 271:Drivers/STM32G4xx_HAL_Driver/Inc/stm32g4xx_ll_gpio.h ****   *         @arg @ref LL_GPIO_PIN_8
 272:Drivers/STM32G4xx_HAL_Driver/Inc/stm32g4xx_ll_gpio.h ****   *         @arg @ref LL_GPIO_PIN_9
 273:Drivers/STM32G4xx_HAL_Driver/Inc/stm32g4xx_ll_gpio.h ****   *         @arg @ref LL_GPIO_PIN_10
 274:Drivers/STM32G4xx_HAL_Driver/Inc/stm32g4xx_ll_gpio.h ****   *         @arg @ref LL_GPIO_PIN_11
 275:Drivers/STM32G4xx_HAL_Driver/Inc/stm32g4xx_ll_gpio.h ****   *         @arg @ref LL_GPIO_PIN_12
 276:Drivers/STM32G4xx_HAL_Driver/Inc/stm32g4xx_ll_gpio.h ****   *         @arg @ref LL_GPIO_PIN_13
 277:Drivers/STM32G4xx_HAL_Driver/Inc/stm32g4xx_ll_gpio.h ****   *         @arg @ref LL_GPIO_PIN_14
 278:Drivers/STM32G4xx_HAL_Driver/Inc/stm32g4xx_ll_gpio.h ****   *         @arg @ref LL_GPIO_PIN_15
 279:Drivers/STM32G4xx_HAL_Driver/Inc/stm32g4xx_ll_gpio.h ****   * @param  Mode This parameter can be one of the following values:
 280:Drivers/STM32G4xx_HAL_Driver/Inc/stm32g4xx_ll_gpio.h ****   *         @arg @ref LL_GPIO_MODE_INPUT
 281:Drivers/STM32G4xx_HAL_Driver/Inc/stm32g4xx_ll_gpio.h ****   *         @arg @ref LL_GPIO_MODE_OUTPUT
 282:Drivers/STM32G4xx_HAL_Driver/Inc/stm32g4xx_ll_gpio.h ****   *         @arg @ref LL_GPIO_MODE_ALTERNATE
 283:Drivers/STM32G4xx_HAL_Driver/Inc/stm32g4xx_ll_gpio.h ****   *         @arg @ref LL_GPIO_MODE_ANALOG
 284:Drivers/STM32G4xx_HAL_Driver/Inc/stm32g4xx_ll_gpio.h ****   * @retval None
 285:Drivers/STM32G4xx_HAL_Driver/Inc/stm32g4xx_ll_gpio.h ****   */
 286:Drivers/STM32G4xx_HAL_Driver/Inc/stm32g4xx_ll_gpio.h **** __STATIC_INLINE void LL_GPIO_SetPinMode(GPIO_TypeDef *GPIOx, uint32_t Pin, uint32_t Mode)
 287:Drivers/STM32G4xx_HAL_Driver/Inc/stm32g4xx_ll_gpio.h **** {
 288:Drivers/STM32G4xx_HAL_Driver/Inc/stm32g4xx_ll_gpio.h ****   MODIFY_REG(GPIOx->MODER, (GPIO_MODER_MODE0 << (POSITION_VAL(Pin) * 2U)), (Mode << (POSITION_VAL(P
 289:Drivers/STM32G4xx_HAL_Driver/Inc/stm32g4xx_ll_gpio.h **** }
 290:Drivers/STM32G4xx_HAL_Driver/Inc/stm32g4xx_ll_gpio.h **** 
 291:Drivers/STM32G4xx_HAL_Driver/Inc/stm32g4xx_ll_gpio.h **** /**
 292:Drivers/STM32G4xx_HAL_Driver/Inc/stm32g4xx_ll_gpio.h ****   * @brief  Return gpio mode for a dedicated pin on dedicated port.
 293:Drivers/STM32G4xx_HAL_Driver/Inc/stm32g4xx_ll_gpio.h ****   * @note   I/O mode can be Input mode, General purpose output, Alternate function mode or Analog.
 294:Drivers/STM32G4xx_HAL_Driver/Inc/stm32g4xx_ll_gpio.h ****   * @note   Warning: only one pin can be passed as parameter.
 295:Drivers/STM32G4xx_HAL_Driver/Inc/stm32g4xx_ll_gpio.h ****   * @rmtoll MODER        MODEy         LL_GPIO_GetPinMode
 296:Drivers/STM32G4xx_HAL_Driver/Inc/stm32g4xx_ll_gpio.h ****   * @param  GPIOx GPIO Port
 297:Drivers/STM32G4xx_HAL_Driver/Inc/stm32g4xx_ll_gpio.h ****   * @param  Pin This parameter can be one of the following values:
 298:Drivers/STM32G4xx_HAL_Driver/Inc/stm32g4xx_ll_gpio.h ****   *         @arg @ref LL_GPIO_PIN_0
ARM GAS  /tmp/ccXhhYW8.s 			page 16


 299:Drivers/STM32G4xx_HAL_Driver/Inc/stm32g4xx_ll_gpio.h ****   *         @arg @ref LL_GPIO_PIN_1
 300:Drivers/STM32G4xx_HAL_Driver/Inc/stm32g4xx_ll_gpio.h ****   *         @arg @ref LL_GPIO_PIN_2
 301:Drivers/STM32G4xx_HAL_Driver/Inc/stm32g4xx_ll_gpio.h ****   *         @arg @ref LL_GPIO_PIN_3
 302:Drivers/STM32G4xx_HAL_Driver/Inc/stm32g4xx_ll_gpio.h ****   *         @arg @ref LL_GPIO_PIN_4
 303:Drivers/STM32G4xx_HAL_Driver/Inc/stm32g4xx_ll_gpio.h ****   *         @arg @ref LL_GPIO_PIN_5
 304:Drivers/STM32G4xx_HAL_Driver/Inc/stm32g4xx_ll_gpio.h ****   *         @arg @ref LL_GPIO_PIN_6
 305:Drivers/STM32G4xx_HAL_Driver/Inc/stm32g4xx_ll_gpio.h ****   *         @arg @ref LL_GPIO_PIN_7
 306:Drivers/STM32G4xx_HAL_Driver/Inc/stm32g4xx_ll_gpio.h ****   *         @arg @ref LL_GPIO_PIN_8
 307:Drivers/STM32G4xx_HAL_Driver/Inc/stm32g4xx_ll_gpio.h ****   *         @arg @ref LL_GPIO_PIN_9
 308:Drivers/STM32G4xx_HAL_Driver/Inc/stm32g4xx_ll_gpio.h ****   *         @arg @ref LL_GPIO_PIN_10
 309:Drivers/STM32G4xx_HAL_Driver/Inc/stm32g4xx_ll_gpio.h ****   *         @arg @ref LL_GPIO_PIN_11
 310:Drivers/STM32G4xx_HAL_Driver/Inc/stm32g4xx_ll_gpio.h ****   *         @arg @ref LL_GPIO_PIN_12
 311:Drivers/STM32G4xx_HAL_Driver/Inc/stm32g4xx_ll_gpio.h ****   *         @arg @ref LL_GPIO_PIN_13
 312:Drivers/STM32G4xx_HAL_Driver/Inc/stm32g4xx_ll_gpio.h ****   *         @arg @ref LL_GPIO_PIN_14
 313:Drivers/STM32G4xx_HAL_Driver/Inc/stm32g4xx_ll_gpio.h ****   *         @arg @ref LL_GPIO_PIN_15
 314:Drivers/STM32G4xx_HAL_Driver/Inc/stm32g4xx_ll_gpio.h ****   * @retval Returned value can be one of the following values:
 315:Drivers/STM32G4xx_HAL_Driver/Inc/stm32g4xx_ll_gpio.h ****   *         @arg @ref LL_GPIO_MODE_INPUT
 316:Drivers/STM32G4xx_HAL_Driver/Inc/stm32g4xx_ll_gpio.h ****   *         @arg @ref LL_GPIO_MODE_OUTPUT
 317:Drivers/STM32G4xx_HAL_Driver/Inc/stm32g4xx_ll_gpio.h ****   *         @arg @ref LL_GPIO_MODE_ALTERNATE
 318:Drivers/STM32G4xx_HAL_Driver/Inc/stm32g4xx_ll_gpio.h ****   *         @arg @ref LL_GPIO_MODE_ANALOG
 319:Drivers/STM32G4xx_HAL_Driver/Inc/stm32g4xx_ll_gpio.h ****   */
 320:Drivers/STM32G4xx_HAL_Driver/Inc/stm32g4xx_ll_gpio.h **** __STATIC_INLINE uint32_t LL_GPIO_GetPinMode(GPIO_TypeDef *GPIOx, uint32_t Pin)
 321:Drivers/STM32G4xx_HAL_Driver/Inc/stm32g4xx_ll_gpio.h **** {
 322:Drivers/STM32G4xx_HAL_Driver/Inc/stm32g4xx_ll_gpio.h ****   return (uint32_t)(READ_BIT(GPIOx->MODER,
 323:Drivers/STM32G4xx_HAL_Driver/Inc/stm32g4xx_ll_gpio.h ****                              (GPIO_MODER_MODE0 << (POSITION_VAL(Pin) * 2U))) >> (POSITION_VAL(Pin) 
 324:Drivers/STM32G4xx_HAL_Driver/Inc/stm32g4xx_ll_gpio.h **** }
 325:Drivers/STM32G4xx_HAL_Driver/Inc/stm32g4xx_ll_gpio.h **** 
 326:Drivers/STM32G4xx_HAL_Driver/Inc/stm32g4xx_ll_gpio.h **** /**
 327:Drivers/STM32G4xx_HAL_Driver/Inc/stm32g4xx_ll_gpio.h ****   * @brief  Configure gpio output type for several pins on dedicated port.
 328:Drivers/STM32G4xx_HAL_Driver/Inc/stm32g4xx_ll_gpio.h ****   * @note   Output type as to be set when gpio pin is in output or
 329:Drivers/STM32G4xx_HAL_Driver/Inc/stm32g4xx_ll_gpio.h ****   *         alternate modes. Possible type are Push-pull or Open-drain.
 330:Drivers/STM32G4xx_HAL_Driver/Inc/stm32g4xx_ll_gpio.h ****   * @rmtoll OTYPER       OTy           LL_GPIO_SetPinOutputType
 331:Drivers/STM32G4xx_HAL_Driver/Inc/stm32g4xx_ll_gpio.h ****   * @param  GPIOx GPIO Port
 332:Drivers/STM32G4xx_HAL_Driver/Inc/stm32g4xx_ll_gpio.h ****   * @param  PinMask This parameter can be a combination of the following values:
 333:Drivers/STM32G4xx_HAL_Driver/Inc/stm32g4xx_ll_gpio.h ****   *         @arg @ref LL_GPIO_PIN_0
 334:Drivers/STM32G4xx_HAL_Driver/Inc/stm32g4xx_ll_gpio.h ****   *         @arg @ref LL_GPIO_PIN_1
 335:Drivers/STM32G4xx_HAL_Driver/Inc/stm32g4xx_ll_gpio.h ****   *         @arg @ref LL_GPIO_PIN_2
 336:Drivers/STM32G4xx_HAL_Driver/Inc/stm32g4xx_ll_gpio.h ****   *         @arg @ref LL_GPIO_PIN_3
 337:Drivers/STM32G4xx_HAL_Driver/Inc/stm32g4xx_ll_gpio.h ****   *         @arg @ref LL_GPIO_PIN_4
 338:Drivers/STM32G4xx_HAL_Driver/Inc/stm32g4xx_ll_gpio.h ****   *         @arg @ref LL_GPIO_PIN_5
 339:Drivers/STM32G4xx_HAL_Driver/Inc/stm32g4xx_ll_gpio.h ****   *         @arg @ref LL_GPIO_PIN_6
 340:Drivers/STM32G4xx_HAL_Driver/Inc/stm32g4xx_ll_gpio.h ****   *         @arg @ref LL_GPIO_PIN_7
 341:Drivers/STM32G4xx_HAL_Driver/Inc/stm32g4xx_ll_gpio.h ****   *         @arg @ref LL_GPIO_PIN_8
 342:Drivers/STM32G4xx_HAL_Driver/Inc/stm32g4xx_ll_gpio.h ****   *         @arg @ref LL_GPIO_PIN_9
 343:Drivers/STM32G4xx_HAL_Driver/Inc/stm32g4xx_ll_gpio.h ****   *         @arg @ref LL_GPIO_PIN_10
 344:Drivers/STM32G4xx_HAL_Driver/Inc/stm32g4xx_ll_gpio.h ****   *         @arg @ref LL_GPIO_PIN_11
 345:Drivers/STM32G4xx_HAL_Driver/Inc/stm32g4xx_ll_gpio.h ****   *         @arg @ref LL_GPIO_PIN_12
 346:Drivers/STM32G4xx_HAL_Driver/Inc/stm32g4xx_ll_gpio.h ****   *         @arg @ref LL_GPIO_PIN_13
 347:Drivers/STM32G4xx_HAL_Driver/Inc/stm32g4xx_ll_gpio.h ****   *         @arg @ref LL_GPIO_PIN_14
 348:Drivers/STM32G4xx_HAL_Driver/Inc/stm32g4xx_ll_gpio.h ****   *         @arg @ref LL_GPIO_PIN_15
 349:Drivers/STM32G4xx_HAL_Driver/Inc/stm32g4xx_ll_gpio.h ****   *         @arg @ref LL_GPIO_PIN_ALL
 350:Drivers/STM32G4xx_HAL_Driver/Inc/stm32g4xx_ll_gpio.h ****   * @param  OutputType This parameter can be one of the following values:
 351:Drivers/STM32G4xx_HAL_Driver/Inc/stm32g4xx_ll_gpio.h ****   *         @arg @ref LL_GPIO_OUTPUT_PUSHPULL
 352:Drivers/STM32G4xx_HAL_Driver/Inc/stm32g4xx_ll_gpio.h ****   *         @arg @ref LL_GPIO_OUTPUT_OPENDRAIN
 353:Drivers/STM32G4xx_HAL_Driver/Inc/stm32g4xx_ll_gpio.h ****   * @retval None
 354:Drivers/STM32G4xx_HAL_Driver/Inc/stm32g4xx_ll_gpio.h ****   */
 355:Drivers/STM32G4xx_HAL_Driver/Inc/stm32g4xx_ll_gpio.h **** __STATIC_INLINE void LL_GPIO_SetPinOutputType(GPIO_TypeDef *GPIOx, uint32_t PinMask, uint32_t Outpu
ARM GAS  /tmp/ccXhhYW8.s 			page 17


 356:Drivers/STM32G4xx_HAL_Driver/Inc/stm32g4xx_ll_gpio.h **** {
 357:Drivers/STM32G4xx_HAL_Driver/Inc/stm32g4xx_ll_gpio.h ****   MODIFY_REG(GPIOx->OTYPER, PinMask, (PinMask * OutputType));
 358:Drivers/STM32G4xx_HAL_Driver/Inc/stm32g4xx_ll_gpio.h **** }
 359:Drivers/STM32G4xx_HAL_Driver/Inc/stm32g4xx_ll_gpio.h **** 
 360:Drivers/STM32G4xx_HAL_Driver/Inc/stm32g4xx_ll_gpio.h **** /**
 361:Drivers/STM32G4xx_HAL_Driver/Inc/stm32g4xx_ll_gpio.h ****   * @brief  Return gpio output type for several pins on dedicated port.
 362:Drivers/STM32G4xx_HAL_Driver/Inc/stm32g4xx_ll_gpio.h ****   * @note   Output type as to be set when gpio pin is in output or
 363:Drivers/STM32G4xx_HAL_Driver/Inc/stm32g4xx_ll_gpio.h ****   *         alternate modes. Possible type are Push-pull or Open-drain.
 364:Drivers/STM32G4xx_HAL_Driver/Inc/stm32g4xx_ll_gpio.h ****   * @note   Warning: only one pin can be passed as parameter.
 365:Drivers/STM32G4xx_HAL_Driver/Inc/stm32g4xx_ll_gpio.h ****   * @rmtoll OTYPER       OTy           LL_GPIO_GetPinOutputType
 366:Drivers/STM32G4xx_HAL_Driver/Inc/stm32g4xx_ll_gpio.h ****   * @param  GPIOx GPIO Port
 367:Drivers/STM32G4xx_HAL_Driver/Inc/stm32g4xx_ll_gpio.h ****   * @param  Pin This parameter can be one of the following values:
 368:Drivers/STM32G4xx_HAL_Driver/Inc/stm32g4xx_ll_gpio.h ****   *         @arg @ref LL_GPIO_PIN_0
 369:Drivers/STM32G4xx_HAL_Driver/Inc/stm32g4xx_ll_gpio.h ****   *         @arg @ref LL_GPIO_PIN_1
 370:Drivers/STM32G4xx_HAL_Driver/Inc/stm32g4xx_ll_gpio.h ****   *         @arg @ref LL_GPIO_PIN_2
 371:Drivers/STM32G4xx_HAL_Driver/Inc/stm32g4xx_ll_gpio.h ****   *         @arg @ref LL_GPIO_PIN_3
 372:Drivers/STM32G4xx_HAL_Driver/Inc/stm32g4xx_ll_gpio.h ****   *         @arg @ref LL_GPIO_PIN_4
 373:Drivers/STM32G4xx_HAL_Driver/Inc/stm32g4xx_ll_gpio.h ****   *         @arg @ref LL_GPIO_PIN_5
 374:Drivers/STM32G4xx_HAL_Driver/Inc/stm32g4xx_ll_gpio.h ****   *         @arg @ref LL_GPIO_PIN_6
 375:Drivers/STM32G4xx_HAL_Driver/Inc/stm32g4xx_ll_gpio.h ****   *         @arg @ref LL_GPIO_PIN_7
 376:Drivers/STM32G4xx_HAL_Driver/Inc/stm32g4xx_ll_gpio.h ****   *         @arg @ref LL_GPIO_PIN_8
 377:Drivers/STM32G4xx_HAL_Driver/Inc/stm32g4xx_ll_gpio.h ****   *         @arg @ref LL_GPIO_PIN_9
 378:Drivers/STM32G4xx_HAL_Driver/Inc/stm32g4xx_ll_gpio.h ****   *         @arg @ref LL_GPIO_PIN_10
 379:Drivers/STM32G4xx_HAL_Driver/Inc/stm32g4xx_ll_gpio.h ****   *         @arg @ref LL_GPIO_PIN_11
 380:Drivers/STM32G4xx_HAL_Driver/Inc/stm32g4xx_ll_gpio.h ****   *         @arg @ref LL_GPIO_PIN_12
 381:Drivers/STM32G4xx_HAL_Driver/Inc/stm32g4xx_ll_gpio.h ****   *         @arg @ref LL_GPIO_PIN_13
 382:Drivers/STM32G4xx_HAL_Driver/Inc/stm32g4xx_ll_gpio.h ****   *         @arg @ref LL_GPIO_PIN_14
 383:Drivers/STM32G4xx_HAL_Driver/Inc/stm32g4xx_ll_gpio.h ****   *         @arg @ref LL_GPIO_PIN_15
 384:Drivers/STM32G4xx_HAL_Driver/Inc/stm32g4xx_ll_gpio.h ****   *         @arg @ref LL_GPIO_PIN_ALL
 385:Drivers/STM32G4xx_HAL_Driver/Inc/stm32g4xx_ll_gpio.h ****   * @retval Returned value can be one of the following values:
 386:Drivers/STM32G4xx_HAL_Driver/Inc/stm32g4xx_ll_gpio.h ****   *         @arg @ref LL_GPIO_OUTPUT_PUSHPULL
 387:Drivers/STM32G4xx_HAL_Driver/Inc/stm32g4xx_ll_gpio.h ****   *         @arg @ref LL_GPIO_OUTPUT_OPENDRAIN
 388:Drivers/STM32G4xx_HAL_Driver/Inc/stm32g4xx_ll_gpio.h ****   */
 389:Drivers/STM32G4xx_HAL_Driver/Inc/stm32g4xx_ll_gpio.h **** __STATIC_INLINE uint32_t LL_GPIO_GetPinOutputType(GPIO_TypeDef *GPIOx, uint32_t Pin)
 390:Drivers/STM32G4xx_HAL_Driver/Inc/stm32g4xx_ll_gpio.h **** {
 391:Drivers/STM32G4xx_HAL_Driver/Inc/stm32g4xx_ll_gpio.h ****   return (uint32_t)(READ_BIT(GPIOx->OTYPER, Pin) >> POSITION_VAL(Pin));
 392:Drivers/STM32G4xx_HAL_Driver/Inc/stm32g4xx_ll_gpio.h **** }
 393:Drivers/STM32G4xx_HAL_Driver/Inc/stm32g4xx_ll_gpio.h **** 
 394:Drivers/STM32G4xx_HAL_Driver/Inc/stm32g4xx_ll_gpio.h **** /**
 395:Drivers/STM32G4xx_HAL_Driver/Inc/stm32g4xx_ll_gpio.h ****   * @brief  Configure gpio speed for a dedicated pin on dedicated port.
 396:Drivers/STM32G4xx_HAL_Driver/Inc/stm32g4xx_ll_gpio.h ****   * @note   I/O speed can be Low, Medium, Fast or High speed.
 397:Drivers/STM32G4xx_HAL_Driver/Inc/stm32g4xx_ll_gpio.h ****   * @note   Warning: only one pin can be passed as parameter.
 398:Drivers/STM32G4xx_HAL_Driver/Inc/stm32g4xx_ll_gpio.h ****   * @note   Refer to datasheet for frequency specifications and the power
 399:Drivers/STM32G4xx_HAL_Driver/Inc/stm32g4xx_ll_gpio.h ****   *         supply and load conditions for each speed.
 400:Drivers/STM32G4xx_HAL_Driver/Inc/stm32g4xx_ll_gpio.h ****   * @rmtoll OSPEEDR      OSPEEDy       LL_GPIO_SetPinSpeed
 401:Drivers/STM32G4xx_HAL_Driver/Inc/stm32g4xx_ll_gpio.h ****   * @param  GPIOx GPIO Port
 402:Drivers/STM32G4xx_HAL_Driver/Inc/stm32g4xx_ll_gpio.h ****   * @param  Pin This parameter can be one of the following values:
 403:Drivers/STM32G4xx_HAL_Driver/Inc/stm32g4xx_ll_gpio.h ****   *         @arg @ref LL_GPIO_PIN_0
 404:Drivers/STM32G4xx_HAL_Driver/Inc/stm32g4xx_ll_gpio.h ****   *         @arg @ref LL_GPIO_PIN_1
 405:Drivers/STM32G4xx_HAL_Driver/Inc/stm32g4xx_ll_gpio.h ****   *         @arg @ref LL_GPIO_PIN_2
 406:Drivers/STM32G4xx_HAL_Driver/Inc/stm32g4xx_ll_gpio.h ****   *         @arg @ref LL_GPIO_PIN_3
 407:Drivers/STM32G4xx_HAL_Driver/Inc/stm32g4xx_ll_gpio.h ****   *         @arg @ref LL_GPIO_PIN_4
 408:Drivers/STM32G4xx_HAL_Driver/Inc/stm32g4xx_ll_gpio.h ****   *         @arg @ref LL_GPIO_PIN_5
 409:Drivers/STM32G4xx_HAL_Driver/Inc/stm32g4xx_ll_gpio.h ****   *         @arg @ref LL_GPIO_PIN_6
 410:Drivers/STM32G4xx_HAL_Driver/Inc/stm32g4xx_ll_gpio.h ****   *         @arg @ref LL_GPIO_PIN_7
 411:Drivers/STM32G4xx_HAL_Driver/Inc/stm32g4xx_ll_gpio.h ****   *         @arg @ref LL_GPIO_PIN_8
 412:Drivers/STM32G4xx_HAL_Driver/Inc/stm32g4xx_ll_gpio.h ****   *         @arg @ref LL_GPIO_PIN_9
ARM GAS  /tmp/ccXhhYW8.s 			page 18


 413:Drivers/STM32G4xx_HAL_Driver/Inc/stm32g4xx_ll_gpio.h ****   *         @arg @ref LL_GPIO_PIN_10
 414:Drivers/STM32G4xx_HAL_Driver/Inc/stm32g4xx_ll_gpio.h ****   *         @arg @ref LL_GPIO_PIN_11
 415:Drivers/STM32G4xx_HAL_Driver/Inc/stm32g4xx_ll_gpio.h ****   *         @arg @ref LL_GPIO_PIN_12
 416:Drivers/STM32G4xx_HAL_Driver/Inc/stm32g4xx_ll_gpio.h ****   *         @arg @ref LL_GPIO_PIN_13
 417:Drivers/STM32G4xx_HAL_Driver/Inc/stm32g4xx_ll_gpio.h ****   *         @arg @ref LL_GPIO_PIN_14
 418:Drivers/STM32G4xx_HAL_Driver/Inc/stm32g4xx_ll_gpio.h ****   *         @arg @ref LL_GPIO_PIN_15
 419:Drivers/STM32G4xx_HAL_Driver/Inc/stm32g4xx_ll_gpio.h ****   * @param  Speed This parameter can be one of the following values:
 420:Drivers/STM32G4xx_HAL_Driver/Inc/stm32g4xx_ll_gpio.h ****   *         @arg @ref LL_GPIO_SPEED_FREQ_LOW
 421:Drivers/STM32G4xx_HAL_Driver/Inc/stm32g4xx_ll_gpio.h ****   *         @arg @ref LL_GPIO_SPEED_FREQ_MEDIUM
 422:Drivers/STM32G4xx_HAL_Driver/Inc/stm32g4xx_ll_gpio.h ****   *         @arg @ref LL_GPIO_SPEED_FREQ_HIGH
 423:Drivers/STM32G4xx_HAL_Driver/Inc/stm32g4xx_ll_gpio.h ****   *         @arg @ref LL_GPIO_SPEED_FREQ_VERY_HIGH
 424:Drivers/STM32G4xx_HAL_Driver/Inc/stm32g4xx_ll_gpio.h ****   * @retval None
 425:Drivers/STM32G4xx_HAL_Driver/Inc/stm32g4xx_ll_gpio.h ****   */
 426:Drivers/STM32G4xx_HAL_Driver/Inc/stm32g4xx_ll_gpio.h **** __STATIC_INLINE void LL_GPIO_SetPinSpeed(GPIO_TypeDef *GPIOx, uint32_t Pin, uint32_t  Speed)
 427:Drivers/STM32G4xx_HAL_Driver/Inc/stm32g4xx_ll_gpio.h **** {
 428:Drivers/STM32G4xx_HAL_Driver/Inc/stm32g4xx_ll_gpio.h ****   MODIFY_REG(GPIOx->OSPEEDR, (GPIO_OSPEEDR_OSPEED0 << (POSITION_VAL(Pin) * 2U)),
 429:Drivers/STM32G4xx_HAL_Driver/Inc/stm32g4xx_ll_gpio.h ****              (Speed << (POSITION_VAL(Pin) * 2U)));
 430:Drivers/STM32G4xx_HAL_Driver/Inc/stm32g4xx_ll_gpio.h **** }
 431:Drivers/STM32G4xx_HAL_Driver/Inc/stm32g4xx_ll_gpio.h **** 
 432:Drivers/STM32G4xx_HAL_Driver/Inc/stm32g4xx_ll_gpio.h **** /**
 433:Drivers/STM32G4xx_HAL_Driver/Inc/stm32g4xx_ll_gpio.h ****   * @brief  Return gpio speed for a dedicated pin on dedicated port.
 434:Drivers/STM32G4xx_HAL_Driver/Inc/stm32g4xx_ll_gpio.h ****   * @note   I/O speed can be Low, Medium, Fast or High speed.
 435:Drivers/STM32G4xx_HAL_Driver/Inc/stm32g4xx_ll_gpio.h ****   * @note   Warning: only one pin can be passed as parameter.
 436:Drivers/STM32G4xx_HAL_Driver/Inc/stm32g4xx_ll_gpio.h ****   * @note   Refer to datasheet for frequency specifications and the power
 437:Drivers/STM32G4xx_HAL_Driver/Inc/stm32g4xx_ll_gpio.h ****   *         supply and load conditions for each speed.
 438:Drivers/STM32G4xx_HAL_Driver/Inc/stm32g4xx_ll_gpio.h ****   * @rmtoll OSPEEDR      OSPEEDy       LL_GPIO_GetPinSpeed
 439:Drivers/STM32G4xx_HAL_Driver/Inc/stm32g4xx_ll_gpio.h ****   * @param  GPIOx GPIO Port
 440:Drivers/STM32G4xx_HAL_Driver/Inc/stm32g4xx_ll_gpio.h ****   * @param  Pin This parameter can be one of the following values:
 441:Drivers/STM32G4xx_HAL_Driver/Inc/stm32g4xx_ll_gpio.h ****   *         @arg @ref LL_GPIO_PIN_0
 442:Drivers/STM32G4xx_HAL_Driver/Inc/stm32g4xx_ll_gpio.h ****   *         @arg @ref LL_GPIO_PIN_1
 443:Drivers/STM32G4xx_HAL_Driver/Inc/stm32g4xx_ll_gpio.h ****   *         @arg @ref LL_GPIO_PIN_2
 444:Drivers/STM32G4xx_HAL_Driver/Inc/stm32g4xx_ll_gpio.h ****   *         @arg @ref LL_GPIO_PIN_3
 445:Drivers/STM32G4xx_HAL_Driver/Inc/stm32g4xx_ll_gpio.h ****   *         @arg @ref LL_GPIO_PIN_4
 446:Drivers/STM32G4xx_HAL_Driver/Inc/stm32g4xx_ll_gpio.h ****   *         @arg @ref LL_GPIO_PIN_5
 447:Drivers/STM32G4xx_HAL_Driver/Inc/stm32g4xx_ll_gpio.h ****   *         @arg @ref LL_GPIO_PIN_6
 448:Drivers/STM32G4xx_HAL_Driver/Inc/stm32g4xx_ll_gpio.h ****   *         @arg @ref LL_GPIO_PIN_7
 449:Drivers/STM32G4xx_HAL_Driver/Inc/stm32g4xx_ll_gpio.h ****   *         @arg @ref LL_GPIO_PIN_8
 450:Drivers/STM32G4xx_HAL_Driver/Inc/stm32g4xx_ll_gpio.h ****   *         @arg @ref LL_GPIO_PIN_9
 451:Drivers/STM32G4xx_HAL_Driver/Inc/stm32g4xx_ll_gpio.h ****   *         @arg @ref LL_GPIO_PIN_10
 452:Drivers/STM32G4xx_HAL_Driver/Inc/stm32g4xx_ll_gpio.h ****   *         @arg @ref LL_GPIO_PIN_11
 453:Drivers/STM32G4xx_HAL_Driver/Inc/stm32g4xx_ll_gpio.h ****   *         @arg @ref LL_GPIO_PIN_12
 454:Drivers/STM32G4xx_HAL_Driver/Inc/stm32g4xx_ll_gpio.h ****   *         @arg @ref LL_GPIO_PIN_13
 455:Drivers/STM32G4xx_HAL_Driver/Inc/stm32g4xx_ll_gpio.h ****   *         @arg @ref LL_GPIO_PIN_14
 456:Drivers/STM32G4xx_HAL_Driver/Inc/stm32g4xx_ll_gpio.h ****   *         @arg @ref LL_GPIO_PIN_15
 457:Drivers/STM32G4xx_HAL_Driver/Inc/stm32g4xx_ll_gpio.h ****   * @retval Returned value can be one of the following values:
 458:Drivers/STM32G4xx_HAL_Driver/Inc/stm32g4xx_ll_gpio.h ****   *         @arg @ref LL_GPIO_SPEED_FREQ_LOW
 459:Drivers/STM32G4xx_HAL_Driver/Inc/stm32g4xx_ll_gpio.h ****   *         @arg @ref LL_GPIO_SPEED_FREQ_MEDIUM
 460:Drivers/STM32G4xx_HAL_Driver/Inc/stm32g4xx_ll_gpio.h ****   *         @arg @ref LL_GPIO_SPEED_FREQ_HIGH
 461:Drivers/STM32G4xx_HAL_Driver/Inc/stm32g4xx_ll_gpio.h ****   *         @arg @ref LL_GPIO_SPEED_FREQ_VERY_HIGH
 462:Drivers/STM32G4xx_HAL_Driver/Inc/stm32g4xx_ll_gpio.h ****   */
 463:Drivers/STM32G4xx_HAL_Driver/Inc/stm32g4xx_ll_gpio.h **** __STATIC_INLINE uint32_t LL_GPIO_GetPinSpeed(GPIO_TypeDef *GPIOx, uint32_t Pin)
 464:Drivers/STM32G4xx_HAL_Driver/Inc/stm32g4xx_ll_gpio.h **** {
 465:Drivers/STM32G4xx_HAL_Driver/Inc/stm32g4xx_ll_gpio.h ****   return (uint32_t)(READ_BIT(GPIOx->OSPEEDR,
 466:Drivers/STM32G4xx_HAL_Driver/Inc/stm32g4xx_ll_gpio.h ****                              (GPIO_OSPEEDR_OSPEED0 << (POSITION_VAL(Pin) * 2U))) >> (POSITION_VAL(P
 467:Drivers/STM32G4xx_HAL_Driver/Inc/stm32g4xx_ll_gpio.h **** }
 468:Drivers/STM32G4xx_HAL_Driver/Inc/stm32g4xx_ll_gpio.h **** 
 469:Drivers/STM32G4xx_HAL_Driver/Inc/stm32g4xx_ll_gpio.h **** /**
ARM GAS  /tmp/ccXhhYW8.s 			page 19


 470:Drivers/STM32G4xx_HAL_Driver/Inc/stm32g4xx_ll_gpio.h ****   * @brief  Configure gpio pull-up or pull-down for a dedicated pin on a dedicated port.
 471:Drivers/STM32G4xx_HAL_Driver/Inc/stm32g4xx_ll_gpio.h ****   * @note   Warning: only one pin can be passed as parameter.
 472:Drivers/STM32G4xx_HAL_Driver/Inc/stm32g4xx_ll_gpio.h ****   * @rmtoll PUPDR        PUPDy         LL_GPIO_SetPinPull
 473:Drivers/STM32G4xx_HAL_Driver/Inc/stm32g4xx_ll_gpio.h ****   * @param  GPIOx GPIO Port
 474:Drivers/STM32G4xx_HAL_Driver/Inc/stm32g4xx_ll_gpio.h ****   * @param  Pin This parameter can be one of the following values:
 475:Drivers/STM32G4xx_HAL_Driver/Inc/stm32g4xx_ll_gpio.h ****   *         @arg @ref LL_GPIO_PIN_0
 476:Drivers/STM32G4xx_HAL_Driver/Inc/stm32g4xx_ll_gpio.h ****   *         @arg @ref LL_GPIO_PIN_1
 477:Drivers/STM32G4xx_HAL_Driver/Inc/stm32g4xx_ll_gpio.h ****   *         @arg @ref LL_GPIO_PIN_2
 478:Drivers/STM32G4xx_HAL_Driver/Inc/stm32g4xx_ll_gpio.h ****   *         @arg @ref LL_GPIO_PIN_3
 479:Drivers/STM32G4xx_HAL_Driver/Inc/stm32g4xx_ll_gpio.h ****   *         @arg @ref LL_GPIO_PIN_4
 480:Drivers/STM32G4xx_HAL_Driver/Inc/stm32g4xx_ll_gpio.h ****   *         @arg @ref LL_GPIO_PIN_5
 481:Drivers/STM32G4xx_HAL_Driver/Inc/stm32g4xx_ll_gpio.h ****   *         @arg @ref LL_GPIO_PIN_6
 482:Drivers/STM32G4xx_HAL_Driver/Inc/stm32g4xx_ll_gpio.h ****   *         @arg @ref LL_GPIO_PIN_7
 483:Drivers/STM32G4xx_HAL_Driver/Inc/stm32g4xx_ll_gpio.h ****   *         @arg @ref LL_GPIO_PIN_8
 484:Drivers/STM32G4xx_HAL_Driver/Inc/stm32g4xx_ll_gpio.h ****   *         @arg @ref LL_GPIO_PIN_9
 485:Drivers/STM32G4xx_HAL_Driver/Inc/stm32g4xx_ll_gpio.h ****   *         @arg @ref LL_GPIO_PIN_10
 486:Drivers/STM32G4xx_HAL_Driver/Inc/stm32g4xx_ll_gpio.h ****   *         @arg @ref LL_GPIO_PIN_11
 487:Drivers/STM32G4xx_HAL_Driver/Inc/stm32g4xx_ll_gpio.h ****   *         @arg @ref LL_GPIO_PIN_12
 488:Drivers/STM32G4xx_HAL_Driver/Inc/stm32g4xx_ll_gpio.h ****   *         @arg @ref LL_GPIO_PIN_13
 489:Drivers/STM32G4xx_HAL_Driver/Inc/stm32g4xx_ll_gpio.h ****   *         @arg @ref LL_GPIO_PIN_14
 490:Drivers/STM32G4xx_HAL_Driver/Inc/stm32g4xx_ll_gpio.h ****   *         @arg @ref LL_GPIO_PIN_15
 491:Drivers/STM32G4xx_HAL_Driver/Inc/stm32g4xx_ll_gpio.h ****   * @param  Pull This parameter can be one of the following values:
 492:Drivers/STM32G4xx_HAL_Driver/Inc/stm32g4xx_ll_gpio.h ****   *         @arg @ref LL_GPIO_PULL_NO
 493:Drivers/STM32G4xx_HAL_Driver/Inc/stm32g4xx_ll_gpio.h ****   *         @arg @ref LL_GPIO_PULL_UP
 494:Drivers/STM32G4xx_HAL_Driver/Inc/stm32g4xx_ll_gpio.h ****   *         @arg @ref LL_GPIO_PULL_DOWN
 495:Drivers/STM32G4xx_HAL_Driver/Inc/stm32g4xx_ll_gpio.h ****   * @retval None
 496:Drivers/STM32G4xx_HAL_Driver/Inc/stm32g4xx_ll_gpio.h ****   */
 497:Drivers/STM32G4xx_HAL_Driver/Inc/stm32g4xx_ll_gpio.h **** __STATIC_INLINE void LL_GPIO_SetPinPull(GPIO_TypeDef *GPIOx, uint32_t Pin, uint32_t Pull)
 498:Drivers/STM32G4xx_HAL_Driver/Inc/stm32g4xx_ll_gpio.h **** {
 499:Drivers/STM32G4xx_HAL_Driver/Inc/stm32g4xx_ll_gpio.h ****   MODIFY_REG(GPIOx->PUPDR, (GPIO_PUPDR_PUPD0 << (POSITION_VAL(Pin) * 2U)), (Pull << (POSITION_VAL(P
 500:Drivers/STM32G4xx_HAL_Driver/Inc/stm32g4xx_ll_gpio.h **** }
 501:Drivers/STM32G4xx_HAL_Driver/Inc/stm32g4xx_ll_gpio.h **** 
 502:Drivers/STM32G4xx_HAL_Driver/Inc/stm32g4xx_ll_gpio.h **** /**
 503:Drivers/STM32G4xx_HAL_Driver/Inc/stm32g4xx_ll_gpio.h ****   * @brief  Return gpio pull-up or pull-down for a dedicated pin on a dedicated port
 504:Drivers/STM32G4xx_HAL_Driver/Inc/stm32g4xx_ll_gpio.h ****   * @note   Warning: only one pin can be passed as parameter.
 505:Drivers/STM32G4xx_HAL_Driver/Inc/stm32g4xx_ll_gpio.h ****   * @rmtoll PUPDR        PUPDy         LL_GPIO_GetPinPull
 506:Drivers/STM32G4xx_HAL_Driver/Inc/stm32g4xx_ll_gpio.h ****   * @param  GPIOx GPIO Port
 507:Drivers/STM32G4xx_HAL_Driver/Inc/stm32g4xx_ll_gpio.h ****   * @param  Pin This parameter can be one of the following values:
 508:Drivers/STM32G4xx_HAL_Driver/Inc/stm32g4xx_ll_gpio.h ****   *         @arg @ref LL_GPIO_PIN_0
 509:Drivers/STM32G4xx_HAL_Driver/Inc/stm32g4xx_ll_gpio.h ****   *         @arg @ref LL_GPIO_PIN_1
 510:Drivers/STM32G4xx_HAL_Driver/Inc/stm32g4xx_ll_gpio.h ****   *         @arg @ref LL_GPIO_PIN_2
 511:Drivers/STM32G4xx_HAL_Driver/Inc/stm32g4xx_ll_gpio.h ****   *         @arg @ref LL_GPIO_PIN_3
 512:Drivers/STM32G4xx_HAL_Driver/Inc/stm32g4xx_ll_gpio.h ****   *         @arg @ref LL_GPIO_PIN_4
 513:Drivers/STM32G4xx_HAL_Driver/Inc/stm32g4xx_ll_gpio.h ****   *         @arg @ref LL_GPIO_PIN_5
 514:Drivers/STM32G4xx_HAL_Driver/Inc/stm32g4xx_ll_gpio.h ****   *         @arg @ref LL_GPIO_PIN_6
 515:Drivers/STM32G4xx_HAL_Driver/Inc/stm32g4xx_ll_gpio.h ****   *         @arg @ref LL_GPIO_PIN_7
 516:Drivers/STM32G4xx_HAL_Driver/Inc/stm32g4xx_ll_gpio.h ****   *         @arg @ref LL_GPIO_PIN_8
 517:Drivers/STM32G4xx_HAL_Driver/Inc/stm32g4xx_ll_gpio.h ****   *         @arg @ref LL_GPIO_PIN_9
 518:Drivers/STM32G4xx_HAL_Driver/Inc/stm32g4xx_ll_gpio.h ****   *         @arg @ref LL_GPIO_PIN_10
 519:Drivers/STM32G4xx_HAL_Driver/Inc/stm32g4xx_ll_gpio.h ****   *         @arg @ref LL_GPIO_PIN_11
 520:Drivers/STM32G4xx_HAL_Driver/Inc/stm32g4xx_ll_gpio.h ****   *         @arg @ref LL_GPIO_PIN_12
 521:Drivers/STM32G4xx_HAL_Driver/Inc/stm32g4xx_ll_gpio.h ****   *         @arg @ref LL_GPIO_PIN_13
 522:Drivers/STM32G4xx_HAL_Driver/Inc/stm32g4xx_ll_gpio.h ****   *         @arg @ref LL_GPIO_PIN_14
 523:Drivers/STM32G4xx_HAL_Driver/Inc/stm32g4xx_ll_gpio.h ****   *         @arg @ref LL_GPIO_PIN_15
 524:Drivers/STM32G4xx_HAL_Driver/Inc/stm32g4xx_ll_gpio.h ****   * @retval Returned value can be one of the following values:
 525:Drivers/STM32G4xx_HAL_Driver/Inc/stm32g4xx_ll_gpio.h ****   *         @arg @ref LL_GPIO_PULL_NO
 526:Drivers/STM32G4xx_HAL_Driver/Inc/stm32g4xx_ll_gpio.h ****   *         @arg @ref LL_GPIO_PULL_UP
ARM GAS  /tmp/ccXhhYW8.s 			page 20


 527:Drivers/STM32G4xx_HAL_Driver/Inc/stm32g4xx_ll_gpio.h ****   *         @arg @ref LL_GPIO_PULL_DOWN
 528:Drivers/STM32G4xx_HAL_Driver/Inc/stm32g4xx_ll_gpio.h ****   */
 529:Drivers/STM32G4xx_HAL_Driver/Inc/stm32g4xx_ll_gpio.h **** __STATIC_INLINE uint32_t LL_GPIO_GetPinPull(GPIO_TypeDef *GPIOx, uint32_t Pin)
 530:Drivers/STM32G4xx_HAL_Driver/Inc/stm32g4xx_ll_gpio.h **** {
 531:Drivers/STM32G4xx_HAL_Driver/Inc/stm32g4xx_ll_gpio.h ****   return (uint32_t)(READ_BIT(GPIOx->PUPDR,
 532:Drivers/STM32G4xx_HAL_Driver/Inc/stm32g4xx_ll_gpio.h ****                              (GPIO_PUPDR_PUPD0 << (POSITION_VAL(Pin) * 2U))) >> (POSITION_VAL(Pin) 
 533:Drivers/STM32G4xx_HAL_Driver/Inc/stm32g4xx_ll_gpio.h **** }
 534:Drivers/STM32G4xx_HAL_Driver/Inc/stm32g4xx_ll_gpio.h **** 
 535:Drivers/STM32G4xx_HAL_Driver/Inc/stm32g4xx_ll_gpio.h **** /**
 536:Drivers/STM32G4xx_HAL_Driver/Inc/stm32g4xx_ll_gpio.h ****   * @brief  Configure gpio alternate function of a dedicated pin from 0 to 7 for a dedicated port.
 537:Drivers/STM32G4xx_HAL_Driver/Inc/stm32g4xx_ll_gpio.h ****   * @note   Possible values are from AF0 to AF15 depending on target.
 538:Drivers/STM32G4xx_HAL_Driver/Inc/stm32g4xx_ll_gpio.h ****   * @note   Warning: only one pin can be passed as parameter.
 539:Drivers/STM32G4xx_HAL_Driver/Inc/stm32g4xx_ll_gpio.h ****   * @rmtoll AFRL         AFSELy        LL_GPIO_SetAFPin_0_7
 540:Drivers/STM32G4xx_HAL_Driver/Inc/stm32g4xx_ll_gpio.h ****   * @param  GPIOx GPIO Port
 541:Drivers/STM32G4xx_HAL_Driver/Inc/stm32g4xx_ll_gpio.h ****   * @param  Pin This parameter can be one of the following values:
 542:Drivers/STM32G4xx_HAL_Driver/Inc/stm32g4xx_ll_gpio.h ****   *         @arg @ref LL_GPIO_PIN_0
 543:Drivers/STM32G4xx_HAL_Driver/Inc/stm32g4xx_ll_gpio.h ****   *         @arg @ref LL_GPIO_PIN_1
 544:Drivers/STM32G4xx_HAL_Driver/Inc/stm32g4xx_ll_gpio.h ****   *         @arg @ref LL_GPIO_PIN_2
 545:Drivers/STM32G4xx_HAL_Driver/Inc/stm32g4xx_ll_gpio.h ****   *         @arg @ref LL_GPIO_PIN_3
 546:Drivers/STM32G4xx_HAL_Driver/Inc/stm32g4xx_ll_gpio.h ****   *         @arg @ref LL_GPIO_PIN_4
 547:Drivers/STM32G4xx_HAL_Driver/Inc/stm32g4xx_ll_gpio.h ****   *         @arg @ref LL_GPIO_PIN_5
 548:Drivers/STM32G4xx_HAL_Driver/Inc/stm32g4xx_ll_gpio.h ****   *         @arg @ref LL_GPIO_PIN_6
 549:Drivers/STM32G4xx_HAL_Driver/Inc/stm32g4xx_ll_gpio.h ****   *         @arg @ref LL_GPIO_PIN_7
 550:Drivers/STM32G4xx_HAL_Driver/Inc/stm32g4xx_ll_gpio.h ****   * @param  Alternate This parameter can be one of the following values:
 551:Drivers/STM32G4xx_HAL_Driver/Inc/stm32g4xx_ll_gpio.h ****   *         @arg @ref LL_GPIO_AF_0
 552:Drivers/STM32G4xx_HAL_Driver/Inc/stm32g4xx_ll_gpio.h ****   *         @arg @ref LL_GPIO_AF_1
 553:Drivers/STM32G4xx_HAL_Driver/Inc/stm32g4xx_ll_gpio.h ****   *         @arg @ref LL_GPIO_AF_2
 554:Drivers/STM32G4xx_HAL_Driver/Inc/stm32g4xx_ll_gpio.h ****   *         @arg @ref LL_GPIO_AF_3
 555:Drivers/STM32G4xx_HAL_Driver/Inc/stm32g4xx_ll_gpio.h ****   *         @arg @ref LL_GPIO_AF_4
 556:Drivers/STM32G4xx_HAL_Driver/Inc/stm32g4xx_ll_gpio.h ****   *         @arg @ref LL_GPIO_AF_5
 557:Drivers/STM32G4xx_HAL_Driver/Inc/stm32g4xx_ll_gpio.h ****   *         @arg @ref LL_GPIO_AF_6
 558:Drivers/STM32G4xx_HAL_Driver/Inc/stm32g4xx_ll_gpio.h ****   *         @arg @ref LL_GPIO_AF_7
 559:Drivers/STM32G4xx_HAL_Driver/Inc/stm32g4xx_ll_gpio.h ****   *         @arg @ref LL_GPIO_AF_8
 560:Drivers/STM32G4xx_HAL_Driver/Inc/stm32g4xx_ll_gpio.h ****   *         @arg @ref LL_GPIO_AF_9
 561:Drivers/STM32G4xx_HAL_Driver/Inc/stm32g4xx_ll_gpio.h ****   *         @arg @ref LL_GPIO_AF_10
 562:Drivers/STM32G4xx_HAL_Driver/Inc/stm32g4xx_ll_gpio.h ****   *         @arg @ref LL_GPIO_AF_11
 563:Drivers/STM32G4xx_HAL_Driver/Inc/stm32g4xx_ll_gpio.h ****   *         @arg @ref LL_GPIO_AF_12
 564:Drivers/STM32G4xx_HAL_Driver/Inc/stm32g4xx_ll_gpio.h ****   *         @arg @ref LL_GPIO_AF_13
 565:Drivers/STM32G4xx_HAL_Driver/Inc/stm32g4xx_ll_gpio.h ****   *         @arg @ref LL_GPIO_AF_14
 566:Drivers/STM32G4xx_HAL_Driver/Inc/stm32g4xx_ll_gpio.h ****   *         @arg @ref LL_GPIO_AF_15
 567:Drivers/STM32G4xx_HAL_Driver/Inc/stm32g4xx_ll_gpio.h ****   * @retval None
 568:Drivers/STM32G4xx_HAL_Driver/Inc/stm32g4xx_ll_gpio.h ****   */
 569:Drivers/STM32G4xx_HAL_Driver/Inc/stm32g4xx_ll_gpio.h **** __STATIC_INLINE void LL_GPIO_SetAFPin_0_7(GPIO_TypeDef *GPIOx, uint32_t Pin, uint32_t Alternate)
 570:Drivers/STM32G4xx_HAL_Driver/Inc/stm32g4xx_ll_gpio.h **** {
 571:Drivers/STM32G4xx_HAL_Driver/Inc/stm32g4xx_ll_gpio.h ****   MODIFY_REG(GPIOx->AFR[0], (GPIO_AFRL_AFSEL0 << (POSITION_VAL(Pin) * 4U)),
 572:Drivers/STM32G4xx_HAL_Driver/Inc/stm32g4xx_ll_gpio.h ****              (Alternate << (POSITION_VAL(Pin) * 4U)));
 573:Drivers/STM32G4xx_HAL_Driver/Inc/stm32g4xx_ll_gpio.h **** }
 574:Drivers/STM32G4xx_HAL_Driver/Inc/stm32g4xx_ll_gpio.h **** 
 575:Drivers/STM32G4xx_HAL_Driver/Inc/stm32g4xx_ll_gpio.h **** /**
 576:Drivers/STM32G4xx_HAL_Driver/Inc/stm32g4xx_ll_gpio.h ****   * @brief  Return gpio alternate function of a dedicated pin from 0 to 7 for a dedicated port.
 577:Drivers/STM32G4xx_HAL_Driver/Inc/stm32g4xx_ll_gpio.h ****   * @rmtoll AFRL         AFSELy        LL_GPIO_GetAFPin_0_7
 578:Drivers/STM32G4xx_HAL_Driver/Inc/stm32g4xx_ll_gpio.h ****   * @param  GPIOx GPIO Port
 579:Drivers/STM32G4xx_HAL_Driver/Inc/stm32g4xx_ll_gpio.h ****   * @param  Pin This parameter can be one of the following values:
 580:Drivers/STM32G4xx_HAL_Driver/Inc/stm32g4xx_ll_gpio.h ****   *         @arg @ref LL_GPIO_PIN_0
 581:Drivers/STM32G4xx_HAL_Driver/Inc/stm32g4xx_ll_gpio.h ****   *         @arg @ref LL_GPIO_PIN_1
 582:Drivers/STM32G4xx_HAL_Driver/Inc/stm32g4xx_ll_gpio.h ****   *         @arg @ref LL_GPIO_PIN_2
 583:Drivers/STM32G4xx_HAL_Driver/Inc/stm32g4xx_ll_gpio.h ****   *         @arg @ref LL_GPIO_PIN_3
ARM GAS  /tmp/ccXhhYW8.s 			page 21


 584:Drivers/STM32G4xx_HAL_Driver/Inc/stm32g4xx_ll_gpio.h ****   *         @arg @ref LL_GPIO_PIN_4
 585:Drivers/STM32G4xx_HAL_Driver/Inc/stm32g4xx_ll_gpio.h ****   *         @arg @ref LL_GPIO_PIN_5
 586:Drivers/STM32G4xx_HAL_Driver/Inc/stm32g4xx_ll_gpio.h ****   *         @arg @ref LL_GPIO_PIN_6
 587:Drivers/STM32G4xx_HAL_Driver/Inc/stm32g4xx_ll_gpio.h ****   *         @arg @ref LL_GPIO_PIN_7
 588:Drivers/STM32G4xx_HAL_Driver/Inc/stm32g4xx_ll_gpio.h ****   * @retval Returned value can be one of the following values:
 589:Drivers/STM32G4xx_HAL_Driver/Inc/stm32g4xx_ll_gpio.h ****   *         @arg @ref LL_GPIO_AF_0
 590:Drivers/STM32G4xx_HAL_Driver/Inc/stm32g4xx_ll_gpio.h ****   *         @arg @ref LL_GPIO_AF_1
 591:Drivers/STM32G4xx_HAL_Driver/Inc/stm32g4xx_ll_gpio.h ****   *         @arg @ref LL_GPIO_AF_2
 592:Drivers/STM32G4xx_HAL_Driver/Inc/stm32g4xx_ll_gpio.h ****   *         @arg @ref LL_GPIO_AF_3
 593:Drivers/STM32G4xx_HAL_Driver/Inc/stm32g4xx_ll_gpio.h ****   *         @arg @ref LL_GPIO_AF_4
 594:Drivers/STM32G4xx_HAL_Driver/Inc/stm32g4xx_ll_gpio.h ****   *         @arg @ref LL_GPIO_AF_5
 595:Drivers/STM32G4xx_HAL_Driver/Inc/stm32g4xx_ll_gpio.h ****   *         @arg @ref LL_GPIO_AF_6
 596:Drivers/STM32G4xx_HAL_Driver/Inc/stm32g4xx_ll_gpio.h ****   *         @arg @ref LL_GPIO_AF_7
 597:Drivers/STM32G4xx_HAL_Driver/Inc/stm32g4xx_ll_gpio.h ****   *         @arg @ref LL_GPIO_AF_8
 598:Drivers/STM32G4xx_HAL_Driver/Inc/stm32g4xx_ll_gpio.h ****   *         @arg @ref LL_GPIO_AF_9
 599:Drivers/STM32G4xx_HAL_Driver/Inc/stm32g4xx_ll_gpio.h ****   *         @arg @ref LL_GPIO_AF_10
 600:Drivers/STM32G4xx_HAL_Driver/Inc/stm32g4xx_ll_gpio.h ****   *         @arg @ref LL_GPIO_AF_11
 601:Drivers/STM32G4xx_HAL_Driver/Inc/stm32g4xx_ll_gpio.h ****   *         @arg @ref LL_GPIO_AF_12
 602:Drivers/STM32G4xx_HAL_Driver/Inc/stm32g4xx_ll_gpio.h ****   *         @arg @ref LL_GPIO_AF_13
 603:Drivers/STM32G4xx_HAL_Driver/Inc/stm32g4xx_ll_gpio.h ****   *         @arg @ref LL_GPIO_AF_14
 604:Drivers/STM32G4xx_HAL_Driver/Inc/stm32g4xx_ll_gpio.h ****   *         @arg @ref LL_GPIO_AF_15
 605:Drivers/STM32G4xx_HAL_Driver/Inc/stm32g4xx_ll_gpio.h ****   */
 606:Drivers/STM32G4xx_HAL_Driver/Inc/stm32g4xx_ll_gpio.h **** __STATIC_INLINE uint32_t LL_GPIO_GetAFPin_0_7(GPIO_TypeDef *GPIOx, uint32_t Pin)
 607:Drivers/STM32G4xx_HAL_Driver/Inc/stm32g4xx_ll_gpio.h **** {
 608:Drivers/STM32G4xx_HAL_Driver/Inc/stm32g4xx_ll_gpio.h ****   return (uint32_t)(READ_BIT(GPIOx->AFR[0],
 609:Drivers/STM32G4xx_HAL_Driver/Inc/stm32g4xx_ll_gpio.h ****                              (GPIO_AFRL_AFSEL0 << (POSITION_VAL(Pin) * 4U))) >> (POSITION_VAL(Pin) 
 610:Drivers/STM32G4xx_HAL_Driver/Inc/stm32g4xx_ll_gpio.h **** }
 611:Drivers/STM32G4xx_HAL_Driver/Inc/stm32g4xx_ll_gpio.h **** 
 612:Drivers/STM32G4xx_HAL_Driver/Inc/stm32g4xx_ll_gpio.h **** /**
 613:Drivers/STM32G4xx_HAL_Driver/Inc/stm32g4xx_ll_gpio.h ****   * @brief  Configure gpio alternate function of a dedicated pin from 8 to 15 for a dedicated port.
 614:Drivers/STM32G4xx_HAL_Driver/Inc/stm32g4xx_ll_gpio.h ****   * @note   Possible values are from AF0 to AF15 depending on target.
 615:Drivers/STM32G4xx_HAL_Driver/Inc/stm32g4xx_ll_gpio.h ****   * @note   Warning: only one pin can be passed as parameter.
 616:Drivers/STM32G4xx_HAL_Driver/Inc/stm32g4xx_ll_gpio.h ****   * @rmtoll AFRH         AFSELy        LL_GPIO_SetAFPin_8_15
 617:Drivers/STM32G4xx_HAL_Driver/Inc/stm32g4xx_ll_gpio.h ****   * @param  GPIOx GPIO Port
 618:Drivers/STM32G4xx_HAL_Driver/Inc/stm32g4xx_ll_gpio.h ****   * @param  Pin This parameter can be one of the following values:
 619:Drivers/STM32G4xx_HAL_Driver/Inc/stm32g4xx_ll_gpio.h ****   *         @arg @ref LL_GPIO_PIN_8
 620:Drivers/STM32G4xx_HAL_Driver/Inc/stm32g4xx_ll_gpio.h ****   *         @arg @ref LL_GPIO_PIN_9
 621:Drivers/STM32G4xx_HAL_Driver/Inc/stm32g4xx_ll_gpio.h ****   *         @arg @ref LL_GPIO_PIN_10
 622:Drivers/STM32G4xx_HAL_Driver/Inc/stm32g4xx_ll_gpio.h ****   *         @arg @ref LL_GPIO_PIN_11
 623:Drivers/STM32G4xx_HAL_Driver/Inc/stm32g4xx_ll_gpio.h ****   *         @arg @ref LL_GPIO_PIN_12
 624:Drivers/STM32G4xx_HAL_Driver/Inc/stm32g4xx_ll_gpio.h ****   *         @arg @ref LL_GPIO_PIN_13
 625:Drivers/STM32G4xx_HAL_Driver/Inc/stm32g4xx_ll_gpio.h ****   *         @arg @ref LL_GPIO_PIN_14
 626:Drivers/STM32G4xx_HAL_Driver/Inc/stm32g4xx_ll_gpio.h ****   *         @arg @ref LL_GPIO_PIN_15
 627:Drivers/STM32G4xx_HAL_Driver/Inc/stm32g4xx_ll_gpio.h ****   * @param  Alternate This parameter can be one of the following values:
 628:Drivers/STM32G4xx_HAL_Driver/Inc/stm32g4xx_ll_gpio.h ****   *         @arg @ref LL_GPIO_AF_0
 629:Drivers/STM32G4xx_HAL_Driver/Inc/stm32g4xx_ll_gpio.h ****   *         @arg @ref LL_GPIO_AF_1
 630:Drivers/STM32G4xx_HAL_Driver/Inc/stm32g4xx_ll_gpio.h ****   *         @arg @ref LL_GPIO_AF_2
 631:Drivers/STM32G4xx_HAL_Driver/Inc/stm32g4xx_ll_gpio.h ****   *         @arg @ref LL_GPIO_AF_3
 632:Drivers/STM32G4xx_HAL_Driver/Inc/stm32g4xx_ll_gpio.h ****   *         @arg @ref LL_GPIO_AF_4
 633:Drivers/STM32G4xx_HAL_Driver/Inc/stm32g4xx_ll_gpio.h ****   *         @arg @ref LL_GPIO_AF_5
 634:Drivers/STM32G4xx_HAL_Driver/Inc/stm32g4xx_ll_gpio.h ****   *         @arg @ref LL_GPIO_AF_6
 635:Drivers/STM32G4xx_HAL_Driver/Inc/stm32g4xx_ll_gpio.h ****   *         @arg @ref LL_GPIO_AF_7
 636:Drivers/STM32G4xx_HAL_Driver/Inc/stm32g4xx_ll_gpio.h ****   *         @arg @ref LL_GPIO_AF_8
 637:Drivers/STM32G4xx_HAL_Driver/Inc/stm32g4xx_ll_gpio.h ****   *         @arg @ref LL_GPIO_AF_9
 638:Drivers/STM32G4xx_HAL_Driver/Inc/stm32g4xx_ll_gpio.h ****   *         @arg @ref LL_GPIO_AF_10
 639:Drivers/STM32G4xx_HAL_Driver/Inc/stm32g4xx_ll_gpio.h ****   *         @arg @ref LL_GPIO_AF_11
 640:Drivers/STM32G4xx_HAL_Driver/Inc/stm32g4xx_ll_gpio.h ****   *         @arg @ref LL_GPIO_AF_12
ARM GAS  /tmp/ccXhhYW8.s 			page 22


 641:Drivers/STM32G4xx_HAL_Driver/Inc/stm32g4xx_ll_gpio.h ****   *         @arg @ref LL_GPIO_AF_13
 642:Drivers/STM32G4xx_HAL_Driver/Inc/stm32g4xx_ll_gpio.h ****   *         @arg @ref LL_GPIO_AF_14
 643:Drivers/STM32G4xx_HAL_Driver/Inc/stm32g4xx_ll_gpio.h ****   *         @arg @ref LL_GPIO_AF_15
 644:Drivers/STM32G4xx_HAL_Driver/Inc/stm32g4xx_ll_gpio.h ****   * @retval None
 645:Drivers/STM32G4xx_HAL_Driver/Inc/stm32g4xx_ll_gpio.h ****   */
 646:Drivers/STM32G4xx_HAL_Driver/Inc/stm32g4xx_ll_gpio.h **** __STATIC_INLINE void LL_GPIO_SetAFPin_8_15(GPIO_TypeDef *GPIOx, uint32_t Pin, uint32_t Alternate)
 647:Drivers/STM32G4xx_HAL_Driver/Inc/stm32g4xx_ll_gpio.h **** {
 648:Drivers/STM32G4xx_HAL_Driver/Inc/stm32g4xx_ll_gpio.h ****   MODIFY_REG(GPIOx->AFR[1], (GPIO_AFRH_AFSEL8 << (POSITION_VAL(Pin >> 8U) * 4U)),
 649:Drivers/STM32G4xx_HAL_Driver/Inc/stm32g4xx_ll_gpio.h ****              (Alternate << (POSITION_VAL(Pin >> 8U) * 4U)));
 650:Drivers/STM32G4xx_HAL_Driver/Inc/stm32g4xx_ll_gpio.h **** }
 651:Drivers/STM32G4xx_HAL_Driver/Inc/stm32g4xx_ll_gpio.h **** 
 652:Drivers/STM32G4xx_HAL_Driver/Inc/stm32g4xx_ll_gpio.h **** /**
 653:Drivers/STM32G4xx_HAL_Driver/Inc/stm32g4xx_ll_gpio.h ****   * @brief  Return gpio alternate function of a dedicated pin from 8 to 15 for a dedicated port.
 654:Drivers/STM32G4xx_HAL_Driver/Inc/stm32g4xx_ll_gpio.h ****   * @note   Possible values are from AF0 to AF15 depending on target.
 655:Drivers/STM32G4xx_HAL_Driver/Inc/stm32g4xx_ll_gpio.h ****   * @rmtoll AFRH         AFSELy        LL_GPIO_GetAFPin_8_15
 656:Drivers/STM32G4xx_HAL_Driver/Inc/stm32g4xx_ll_gpio.h ****   * @param  GPIOx GPIO Port
 657:Drivers/STM32G4xx_HAL_Driver/Inc/stm32g4xx_ll_gpio.h ****   * @param  Pin This parameter can be one of the following values:
 658:Drivers/STM32G4xx_HAL_Driver/Inc/stm32g4xx_ll_gpio.h ****   *         @arg @ref LL_GPIO_PIN_8
 659:Drivers/STM32G4xx_HAL_Driver/Inc/stm32g4xx_ll_gpio.h ****   *         @arg @ref LL_GPIO_PIN_9
 660:Drivers/STM32G4xx_HAL_Driver/Inc/stm32g4xx_ll_gpio.h ****   *         @arg @ref LL_GPIO_PIN_10
 661:Drivers/STM32G4xx_HAL_Driver/Inc/stm32g4xx_ll_gpio.h ****   *         @arg @ref LL_GPIO_PIN_11
 662:Drivers/STM32G4xx_HAL_Driver/Inc/stm32g4xx_ll_gpio.h ****   *         @arg @ref LL_GPIO_PIN_12
 663:Drivers/STM32G4xx_HAL_Driver/Inc/stm32g4xx_ll_gpio.h ****   *         @arg @ref LL_GPIO_PIN_13
 664:Drivers/STM32G4xx_HAL_Driver/Inc/stm32g4xx_ll_gpio.h ****   *         @arg @ref LL_GPIO_PIN_14
 665:Drivers/STM32G4xx_HAL_Driver/Inc/stm32g4xx_ll_gpio.h ****   *         @arg @ref LL_GPIO_PIN_15
 666:Drivers/STM32G4xx_HAL_Driver/Inc/stm32g4xx_ll_gpio.h ****   * @retval Returned value can be one of the following values:
 667:Drivers/STM32G4xx_HAL_Driver/Inc/stm32g4xx_ll_gpio.h ****   *         @arg @ref LL_GPIO_AF_0
 668:Drivers/STM32G4xx_HAL_Driver/Inc/stm32g4xx_ll_gpio.h ****   *         @arg @ref LL_GPIO_AF_1
 669:Drivers/STM32G4xx_HAL_Driver/Inc/stm32g4xx_ll_gpio.h ****   *         @arg @ref LL_GPIO_AF_2
 670:Drivers/STM32G4xx_HAL_Driver/Inc/stm32g4xx_ll_gpio.h ****   *         @arg @ref LL_GPIO_AF_3
 671:Drivers/STM32G4xx_HAL_Driver/Inc/stm32g4xx_ll_gpio.h ****   *         @arg @ref LL_GPIO_AF_4
 672:Drivers/STM32G4xx_HAL_Driver/Inc/stm32g4xx_ll_gpio.h ****   *         @arg @ref LL_GPIO_AF_5
 673:Drivers/STM32G4xx_HAL_Driver/Inc/stm32g4xx_ll_gpio.h ****   *         @arg @ref LL_GPIO_AF_6
 674:Drivers/STM32G4xx_HAL_Driver/Inc/stm32g4xx_ll_gpio.h ****   *         @arg @ref LL_GPIO_AF_7
 675:Drivers/STM32G4xx_HAL_Driver/Inc/stm32g4xx_ll_gpio.h ****   *         @arg @ref LL_GPIO_AF_8
 676:Drivers/STM32G4xx_HAL_Driver/Inc/stm32g4xx_ll_gpio.h ****   *         @arg @ref LL_GPIO_AF_9
 677:Drivers/STM32G4xx_HAL_Driver/Inc/stm32g4xx_ll_gpio.h ****   *         @arg @ref LL_GPIO_AF_10
 678:Drivers/STM32G4xx_HAL_Driver/Inc/stm32g4xx_ll_gpio.h ****   *         @arg @ref LL_GPIO_AF_11
 679:Drivers/STM32G4xx_HAL_Driver/Inc/stm32g4xx_ll_gpio.h ****   *         @arg @ref LL_GPIO_AF_12
 680:Drivers/STM32G4xx_HAL_Driver/Inc/stm32g4xx_ll_gpio.h ****   *         @arg @ref LL_GPIO_AF_13
 681:Drivers/STM32G4xx_HAL_Driver/Inc/stm32g4xx_ll_gpio.h ****   *         @arg @ref LL_GPIO_AF_14
 682:Drivers/STM32G4xx_HAL_Driver/Inc/stm32g4xx_ll_gpio.h ****   *         @arg @ref LL_GPIO_AF_15
 683:Drivers/STM32G4xx_HAL_Driver/Inc/stm32g4xx_ll_gpio.h ****   */
 684:Drivers/STM32G4xx_HAL_Driver/Inc/stm32g4xx_ll_gpio.h **** __STATIC_INLINE uint32_t LL_GPIO_GetAFPin_8_15(GPIO_TypeDef *GPIOx, uint32_t Pin)
 685:Drivers/STM32G4xx_HAL_Driver/Inc/stm32g4xx_ll_gpio.h **** {
 686:Drivers/STM32G4xx_HAL_Driver/Inc/stm32g4xx_ll_gpio.h ****   return (uint32_t)(READ_BIT(GPIOx->AFR[1],
 687:Drivers/STM32G4xx_HAL_Driver/Inc/stm32g4xx_ll_gpio.h ****                              (GPIO_AFRH_AFSEL8 << (POSITION_VAL(Pin >> 8U) * 4U))) >> (POSITION_VAL
 688:Drivers/STM32G4xx_HAL_Driver/Inc/stm32g4xx_ll_gpio.h **** }
 689:Drivers/STM32G4xx_HAL_Driver/Inc/stm32g4xx_ll_gpio.h **** 
 690:Drivers/STM32G4xx_HAL_Driver/Inc/stm32g4xx_ll_gpio.h **** 
 691:Drivers/STM32G4xx_HAL_Driver/Inc/stm32g4xx_ll_gpio.h **** /**
 692:Drivers/STM32G4xx_HAL_Driver/Inc/stm32g4xx_ll_gpio.h ****   * @brief  Lock configuration of several pins for a dedicated port.
 693:Drivers/STM32G4xx_HAL_Driver/Inc/stm32g4xx_ll_gpio.h ****   * @note   When the lock sequence has been applied on a port bit, the
 694:Drivers/STM32G4xx_HAL_Driver/Inc/stm32g4xx_ll_gpio.h ****   *         value of this port bit can no longer be modified until the
 695:Drivers/STM32G4xx_HAL_Driver/Inc/stm32g4xx_ll_gpio.h ****   *         next reset.
 696:Drivers/STM32G4xx_HAL_Driver/Inc/stm32g4xx_ll_gpio.h ****   * @note   Each lock bit freezes a specific configuration register
 697:Drivers/STM32G4xx_HAL_Driver/Inc/stm32g4xx_ll_gpio.h ****   *         (control and alternate function registers).
ARM GAS  /tmp/ccXhhYW8.s 			page 23


 698:Drivers/STM32G4xx_HAL_Driver/Inc/stm32g4xx_ll_gpio.h ****   * @rmtoll LCKR         LCKK          LL_GPIO_LockPin
 699:Drivers/STM32G4xx_HAL_Driver/Inc/stm32g4xx_ll_gpio.h ****   * @param  GPIOx GPIO Port
 700:Drivers/STM32G4xx_HAL_Driver/Inc/stm32g4xx_ll_gpio.h ****   * @param  PinMask This parameter can be a combination of the following values:
 701:Drivers/STM32G4xx_HAL_Driver/Inc/stm32g4xx_ll_gpio.h ****   *         @arg @ref LL_GPIO_PIN_0
 702:Drivers/STM32G4xx_HAL_Driver/Inc/stm32g4xx_ll_gpio.h ****   *         @arg @ref LL_GPIO_PIN_1
 703:Drivers/STM32G4xx_HAL_Driver/Inc/stm32g4xx_ll_gpio.h ****   *         @arg @ref LL_GPIO_PIN_2
 704:Drivers/STM32G4xx_HAL_Driver/Inc/stm32g4xx_ll_gpio.h ****   *         @arg @ref LL_GPIO_PIN_3
 705:Drivers/STM32G4xx_HAL_Driver/Inc/stm32g4xx_ll_gpio.h ****   *         @arg @ref LL_GPIO_PIN_4
 706:Drivers/STM32G4xx_HAL_Driver/Inc/stm32g4xx_ll_gpio.h ****   *         @arg @ref LL_GPIO_PIN_5
 707:Drivers/STM32G4xx_HAL_Driver/Inc/stm32g4xx_ll_gpio.h ****   *         @arg @ref LL_GPIO_PIN_6
 708:Drivers/STM32G4xx_HAL_Driver/Inc/stm32g4xx_ll_gpio.h ****   *         @arg @ref LL_GPIO_PIN_7
 709:Drivers/STM32G4xx_HAL_Driver/Inc/stm32g4xx_ll_gpio.h ****   *         @arg @ref LL_GPIO_PIN_8
 710:Drivers/STM32G4xx_HAL_Driver/Inc/stm32g4xx_ll_gpio.h ****   *         @arg @ref LL_GPIO_PIN_9
 711:Drivers/STM32G4xx_HAL_Driver/Inc/stm32g4xx_ll_gpio.h ****   *         @arg @ref LL_GPIO_PIN_10
 712:Drivers/STM32G4xx_HAL_Driver/Inc/stm32g4xx_ll_gpio.h ****   *         @arg @ref LL_GPIO_PIN_11
 713:Drivers/STM32G4xx_HAL_Driver/Inc/stm32g4xx_ll_gpio.h ****   *         @arg @ref LL_GPIO_PIN_12
 714:Drivers/STM32G4xx_HAL_Driver/Inc/stm32g4xx_ll_gpio.h ****   *         @arg @ref LL_GPIO_PIN_13
 715:Drivers/STM32G4xx_HAL_Driver/Inc/stm32g4xx_ll_gpio.h ****   *         @arg @ref LL_GPIO_PIN_14
 716:Drivers/STM32G4xx_HAL_Driver/Inc/stm32g4xx_ll_gpio.h ****   *         @arg @ref LL_GPIO_PIN_15
 717:Drivers/STM32G4xx_HAL_Driver/Inc/stm32g4xx_ll_gpio.h ****   *         @arg @ref LL_GPIO_PIN_ALL
 718:Drivers/STM32G4xx_HAL_Driver/Inc/stm32g4xx_ll_gpio.h ****   * @retval None
 719:Drivers/STM32G4xx_HAL_Driver/Inc/stm32g4xx_ll_gpio.h ****   */
 720:Drivers/STM32G4xx_HAL_Driver/Inc/stm32g4xx_ll_gpio.h **** __STATIC_INLINE void LL_GPIO_LockPin(GPIO_TypeDef *GPIOx, uint32_t PinMask)
 721:Drivers/STM32G4xx_HAL_Driver/Inc/stm32g4xx_ll_gpio.h **** {
 722:Drivers/STM32G4xx_HAL_Driver/Inc/stm32g4xx_ll_gpio.h ****   __IO uint32_t temp;
 723:Drivers/STM32G4xx_HAL_Driver/Inc/stm32g4xx_ll_gpio.h ****   WRITE_REG(GPIOx->LCKR, GPIO_LCKR_LCKK | PinMask);
 724:Drivers/STM32G4xx_HAL_Driver/Inc/stm32g4xx_ll_gpio.h ****   WRITE_REG(GPIOx->LCKR, PinMask);
 725:Drivers/STM32G4xx_HAL_Driver/Inc/stm32g4xx_ll_gpio.h ****   WRITE_REG(GPIOx->LCKR, GPIO_LCKR_LCKK | PinMask);
 726:Drivers/STM32G4xx_HAL_Driver/Inc/stm32g4xx_ll_gpio.h ****   /* Read LCKR register. This read is mandatory to complete key lock sequence */
 727:Drivers/STM32G4xx_HAL_Driver/Inc/stm32g4xx_ll_gpio.h ****   temp = READ_REG(GPIOx->LCKR);
 728:Drivers/STM32G4xx_HAL_Driver/Inc/stm32g4xx_ll_gpio.h ****   (void) temp;
 729:Drivers/STM32G4xx_HAL_Driver/Inc/stm32g4xx_ll_gpio.h **** }
 730:Drivers/STM32G4xx_HAL_Driver/Inc/stm32g4xx_ll_gpio.h **** 
 731:Drivers/STM32G4xx_HAL_Driver/Inc/stm32g4xx_ll_gpio.h **** /**
 732:Drivers/STM32G4xx_HAL_Driver/Inc/stm32g4xx_ll_gpio.h ****   * @brief  Return 1 if all pins passed as parameter, of a dedicated port, are locked. else Return 
 733:Drivers/STM32G4xx_HAL_Driver/Inc/stm32g4xx_ll_gpio.h ****   * @rmtoll LCKR         LCKy          LL_GPIO_IsPinLocked
 734:Drivers/STM32G4xx_HAL_Driver/Inc/stm32g4xx_ll_gpio.h ****   * @param  GPIOx GPIO Port
 735:Drivers/STM32G4xx_HAL_Driver/Inc/stm32g4xx_ll_gpio.h ****   * @param  PinMask This parameter can be a combination of the following values:
 736:Drivers/STM32G4xx_HAL_Driver/Inc/stm32g4xx_ll_gpio.h ****   *         @arg @ref LL_GPIO_PIN_0
 737:Drivers/STM32G4xx_HAL_Driver/Inc/stm32g4xx_ll_gpio.h ****   *         @arg @ref LL_GPIO_PIN_1
 738:Drivers/STM32G4xx_HAL_Driver/Inc/stm32g4xx_ll_gpio.h ****   *         @arg @ref LL_GPIO_PIN_2
 739:Drivers/STM32G4xx_HAL_Driver/Inc/stm32g4xx_ll_gpio.h ****   *         @arg @ref LL_GPIO_PIN_3
 740:Drivers/STM32G4xx_HAL_Driver/Inc/stm32g4xx_ll_gpio.h ****   *         @arg @ref LL_GPIO_PIN_4
 741:Drivers/STM32G4xx_HAL_Driver/Inc/stm32g4xx_ll_gpio.h ****   *         @arg @ref LL_GPIO_PIN_5
 742:Drivers/STM32G4xx_HAL_Driver/Inc/stm32g4xx_ll_gpio.h ****   *         @arg @ref LL_GPIO_PIN_6
 743:Drivers/STM32G4xx_HAL_Driver/Inc/stm32g4xx_ll_gpio.h ****   *         @arg @ref LL_GPIO_PIN_7
 744:Drivers/STM32G4xx_HAL_Driver/Inc/stm32g4xx_ll_gpio.h ****   *         @arg @ref LL_GPIO_PIN_8
 745:Drivers/STM32G4xx_HAL_Driver/Inc/stm32g4xx_ll_gpio.h ****   *         @arg @ref LL_GPIO_PIN_9
 746:Drivers/STM32G4xx_HAL_Driver/Inc/stm32g4xx_ll_gpio.h ****   *         @arg @ref LL_GPIO_PIN_10
 747:Drivers/STM32G4xx_HAL_Driver/Inc/stm32g4xx_ll_gpio.h ****   *         @arg @ref LL_GPIO_PIN_11
 748:Drivers/STM32G4xx_HAL_Driver/Inc/stm32g4xx_ll_gpio.h ****   *         @arg @ref LL_GPIO_PIN_12
 749:Drivers/STM32G4xx_HAL_Driver/Inc/stm32g4xx_ll_gpio.h ****   *         @arg @ref LL_GPIO_PIN_13
 750:Drivers/STM32G4xx_HAL_Driver/Inc/stm32g4xx_ll_gpio.h ****   *         @arg @ref LL_GPIO_PIN_14
 751:Drivers/STM32G4xx_HAL_Driver/Inc/stm32g4xx_ll_gpio.h ****   *         @arg @ref LL_GPIO_PIN_15
 752:Drivers/STM32G4xx_HAL_Driver/Inc/stm32g4xx_ll_gpio.h ****   *         @arg @ref LL_GPIO_PIN_ALL
 753:Drivers/STM32G4xx_HAL_Driver/Inc/stm32g4xx_ll_gpio.h ****   * @retval State of bit (1 or 0).
 754:Drivers/STM32G4xx_HAL_Driver/Inc/stm32g4xx_ll_gpio.h ****   */
ARM GAS  /tmp/ccXhhYW8.s 			page 24


 755:Drivers/STM32G4xx_HAL_Driver/Inc/stm32g4xx_ll_gpio.h **** __STATIC_INLINE uint32_t LL_GPIO_IsPinLocked(GPIO_TypeDef *GPIOx, uint32_t PinMask)
 756:Drivers/STM32G4xx_HAL_Driver/Inc/stm32g4xx_ll_gpio.h **** {
 757:Drivers/STM32G4xx_HAL_Driver/Inc/stm32g4xx_ll_gpio.h ****   return ((READ_BIT(GPIOx->LCKR, PinMask) == (PinMask)) ? 1UL : 0UL);
 758:Drivers/STM32G4xx_HAL_Driver/Inc/stm32g4xx_ll_gpio.h **** }
 759:Drivers/STM32G4xx_HAL_Driver/Inc/stm32g4xx_ll_gpio.h **** 
 760:Drivers/STM32G4xx_HAL_Driver/Inc/stm32g4xx_ll_gpio.h **** /**
 761:Drivers/STM32G4xx_HAL_Driver/Inc/stm32g4xx_ll_gpio.h ****   * @brief  Return 1 if one of the pin of a dedicated port is locked. else return 0.
 762:Drivers/STM32G4xx_HAL_Driver/Inc/stm32g4xx_ll_gpio.h ****   * @rmtoll LCKR         LCKK          LL_GPIO_IsAnyPinLocked
 763:Drivers/STM32G4xx_HAL_Driver/Inc/stm32g4xx_ll_gpio.h ****   * @param  GPIOx GPIO Port
 764:Drivers/STM32G4xx_HAL_Driver/Inc/stm32g4xx_ll_gpio.h ****   * @retval State of bit (1 or 0).
 765:Drivers/STM32G4xx_HAL_Driver/Inc/stm32g4xx_ll_gpio.h ****   */
 766:Drivers/STM32G4xx_HAL_Driver/Inc/stm32g4xx_ll_gpio.h **** __STATIC_INLINE uint32_t LL_GPIO_IsAnyPinLocked(GPIO_TypeDef *GPIOx)
 767:Drivers/STM32G4xx_HAL_Driver/Inc/stm32g4xx_ll_gpio.h **** {
 768:Drivers/STM32G4xx_HAL_Driver/Inc/stm32g4xx_ll_gpio.h ****   return ((READ_BIT(GPIOx->LCKR, GPIO_LCKR_LCKK) == (GPIO_LCKR_LCKK)) ? 1UL : 0UL);
 769:Drivers/STM32G4xx_HAL_Driver/Inc/stm32g4xx_ll_gpio.h **** }
 770:Drivers/STM32G4xx_HAL_Driver/Inc/stm32g4xx_ll_gpio.h **** 
 771:Drivers/STM32G4xx_HAL_Driver/Inc/stm32g4xx_ll_gpio.h **** /**
 772:Drivers/STM32G4xx_HAL_Driver/Inc/stm32g4xx_ll_gpio.h ****   * @}
 773:Drivers/STM32G4xx_HAL_Driver/Inc/stm32g4xx_ll_gpio.h ****   */
 774:Drivers/STM32G4xx_HAL_Driver/Inc/stm32g4xx_ll_gpio.h **** 
 775:Drivers/STM32G4xx_HAL_Driver/Inc/stm32g4xx_ll_gpio.h **** /** @defgroup GPIO_LL_EF_Data_Access Data Access
 776:Drivers/STM32G4xx_HAL_Driver/Inc/stm32g4xx_ll_gpio.h ****   * @{
 777:Drivers/STM32G4xx_HAL_Driver/Inc/stm32g4xx_ll_gpio.h ****   */
 778:Drivers/STM32G4xx_HAL_Driver/Inc/stm32g4xx_ll_gpio.h **** 
 779:Drivers/STM32G4xx_HAL_Driver/Inc/stm32g4xx_ll_gpio.h **** /**
 780:Drivers/STM32G4xx_HAL_Driver/Inc/stm32g4xx_ll_gpio.h ****   * @brief  Return full input data register value for a dedicated port.
 781:Drivers/STM32G4xx_HAL_Driver/Inc/stm32g4xx_ll_gpio.h ****   * @rmtoll IDR          IDy           LL_GPIO_ReadInputPort
 782:Drivers/STM32G4xx_HAL_Driver/Inc/stm32g4xx_ll_gpio.h ****   * @param  GPIOx GPIO Port
 783:Drivers/STM32G4xx_HAL_Driver/Inc/stm32g4xx_ll_gpio.h ****   * @retval Input data register value of port
 784:Drivers/STM32G4xx_HAL_Driver/Inc/stm32g4xx_ll_gpio.h ****   */
 785:Drivers/STM32G4xx_HAL_Driver/Inc/stm32g4xx_ll_gpio.h **** __STATIC_INLINE uint32_t LL_GPIO_ReadInputPort(GPIO_TypeDef *GPIOx)
 786:Drivers/STM32G4xx_HAL_Driver/Inc/stm32g4xx_ll_gpio.h **** {
 787:Drivers/STM32G4xx_HAL_Driver/Inc/stm32g4xx_ll_gpio.h ****   return (uint32_t)(READ_REG(GPIOx->IDR));
 788:Drivers/STM32G4xx_HAL_Driver/Inc/stm32g4xx_ll_gpio.h **** }
 789:Drivers/STM32G4xx_HAL_Driver/Inc/stm32g4xx_ll_gpio.h **** 
 790:Drivers/STM32G4xx_HAL_Driver/Inc/stm32g4xx_ll_gpio.h **** /**
 791:Drivers/STM32G4xx_HAL_Driver/Inc/stm32g4xx_ll_gpio.h ****   * @brief  Return if input data level for several pins of dedicated port is high or low.
 792:Drivers/STM32G4xx_HAL_Driver/Inc/stm32g4xx_ll_gpio.h ****   * @rmtoll IDR          IDy           LL_GPIO_IsInputPinSet
 793:Drivers/STM32G4xx_HAL_Driver/Inc/stm32g4xx_ll_gpio.h ****   * @param  GPIOx GPIO Port
 794:Drivers/STM32G4xx_HAL_Driver/Inc/stm32g4xx_ll_gpio.h ****   * @param  PinMask This parameter can be a combination of the following values:
 795:Drivers/STM32G4xx_HAL_Driver/Inc/stm32g4xx_ll_gpio.h ****   *         @arg @ref LL_GPIO_PIN_0
 796:Drivers/STM32G4xx_HAL_Driver/Inc/stm32g4xx_ll_gpio.h ****   *         @arg @ref LL_GPIO_PIN_1
 797:Drivers/STM32G4xx_HAL_Driver/Inc/stm32g4xx_ll_gpio.h ****   *         @arg @ref LL_GPIO_PIN_2
 798:Drivers/STM32G4xx_HAL_Driver/Inc/stm32g4xx_ll_gpio.h ****   *         @arg @ref LL_GPIO_PIN_3
 799:Drivers/STM32G4xx_HAL_Driver/Inc/stm32g4xx_ll_gpio.h ****   *         @arg @ref LL_GPIO_PIN_4
 800:Drivers/STM32G4xx_HAL_Driver/Inc/stm32g4xx_ll_gpio.h ****   *         @arg @ref LL_GPIO_PIN_5
 801:Drivers/STM32G4xx_HAL_Driver/Inc/stm32g4xx_ll_gpio.h ****   *         @arg @ref LL_GPIO_PIN_6
 802:Drivers/STM32G4xx_HAL_Driver/Inc/stm32g4xx_ll_gpio.h ****   *         @arg @ref LL_GPIO_PIN_7
 803:Drivers/STM32G4xx_HAL_Driver/Inc/stm32g4xx_ll_gpio.h ****   *         @arg @ref LL_GPIO_PIN_8
 804:Drivers/STM32G4xx_HAL_Driver/Inc/stm32g4xx_ll_gpio.h ****   *         @arg @ref LL_GPIO_PIN_9
 805:Drivers/STM32G4xx_HAL_Driver/Inc/stm32g4xx_ll_gpio.h ****   *         @arg @ref LL_GPIO_PIN_10
 806:Drivers/STM32G4xx_HAL_Driver/Inc/stm32g4xx_ll_gpio.h ****   *         @arg @ref LL_GPIO_PIN_11
 807:Drivers/STM32G4xx_HAL_Driver/Inc/stm32g4xx_ll_gpio.h ****   *         @arg @ref LL_GPIO_PIN_12
 808:Drivers/STM32G4xx_HAL_Driver/Inc/stm32g4xx_ll_gpio.h ****   *         @arg @ref LL_GPIO_PIN_13
 809:Drivers/STM32G4xx_HAL_Driver/Inc/stm32g4xx_ll_gpio.h ****   *         @arg @ref LL_GPIO_PIN_14
 810:Drivers/STM32G4xx_HAL_Driver/Inc/stm32g4xx_ll_gpio.h ****   *         @arg @ref LL_GPIO_PIN_15
 811:Drivers/STM32G4xx_HAL_Driver/Inc/stm32g4xx_ll_gpio.h ****   *         @arg @ref LL_GPIO_PIN_ALL
ARM GAS  /tmp/ccXhhYW8.s 			page 25


 812:Drivers/STM32G4xx_HAL_Driver/Inc/stm32g4xx_ll_gpio.h ****   * @retval State of bit (1 or 0).
 813:Drivers/STM32G4xx_HAL_Driver/Inc/stm32g4xx_ll_gpio.h ****   */
 814:Drivers/STM32G4xx_HAL_Driver/Inc/stm32g4xx_ll_gpio.h **** __STATIC_INLINE uint32_t LL_GPIO_IsInputPinSet(GPIO_TypeDef *GPIOx, uint32_t PinMask)
 815:Drivers/STM32G4xx_HAL_Driver/Inc/stm32g4xx_ll_gpio.h **** {
 816:Drivers/STM32G4xx_HAL_Driver/Inc/stm32g4xx_ll_gpio.h ****   return ((READ_BIT(GPIOx->IDR, PinMask) == (PinMask)) ? 1UL : 0UL);
 817:Drivers/STM32G4xx_HAL_Driver/Inc/stm32g4xx_ll_gpio.h **** }
 818:Drivers/STM32G4xx_HAL_Driver/Inc/stm32g4xx_ll_gpio.h **** 
 819:Drivers/STM32G4xx_HAL_Driver/Inc/stm32g4xx_ll_gpio.h **** /**
 820:Drivers/STM32G4xx_HAL_Driver/Inc/stm32g4xx_ll_gpio.h ****   * @brief  Write output data register for the port.
 821:Drivers/STM32G4xx_HAL_Driver/Inc/stm32g4xx_ll_gpio.h ****   * @rmtoll ODR          ODy           LL_GPIO_WriteOutputPort
 822:Drivers/STM32G4xx_HAL_Driver/Inc/stm32g4xx_ll_gpio.h ****   * @param  GPIOx GPIO Port
 823:Drivers/STM32G4xx_HAL_Driver/Inc/stm32g4xx_ll_gpio.h ****   * @param  PortValue Level value for each pin of the port
 824:Drivers/STM32G4xx_HAL_Driver/Inc/stm32g4xx_ll_gpio.h ****   * @retval None
 825:Drivers/STM32G4xx_HAL_Driver/Inc/stm32g4xx_ll_gpio.h ****   */
 826:Drivers/STM32G4xx_HAL_Driver/Inc/stm32g4xx_ll_gpio.h **** __STATIC_INLINE void LL_GPIO_WriteOutputPort(GPIO_TypeDef *GPIOx, uint32_t PortValue)
 827:Drivers/STM32G4xx_HAL_Driver/Inc/stm32g4xx_ll_gpio.h **** {
 828:Drivers/STM32G4xx_HAL_Driver/Inc/stm32g4xx_ll_gpio.h ****   WRITE_REG(GPIOx->ODR, PortValue);
 829:Drivers/STM32G4xx_HAL_Driver/Inc/stm32g4xx_ll_gpio.h **** }
 830:Drivers/STM32G4xx_HAL_Driver/Inc/stm32g4xx_ll_gpio.h **** 
 831:Drivers/STM32G4xx_HAL_Driver/Inc/stm32g4xx_ll_gpio.h **** /**
 832:Drivers/STM32G4xx_HAL_Driver/Inc/stm32g4xx_ll_gpio.h ****   * @brief  Return full output data register value for a dedicated port.
 833:Drivers/STM32G4xx_HAL_Driver/Inc/stm32g4xx_ll_gpio.h ****   * @rmtoll ODR          ODy           LL_GPIO_ReadOutputPort
 834:Drivers/STM32G4xx_HAL_Driver/Inc/stm32g4xx_ll_gpio.h ****   * @param  GPIOx GPIO Port
 835:Drivers/STM32G4xx_HAL_Driver/Inc/stm32g4xx_ll_gpio.h ****   * @retval Output data register value of port
 836:Drivers/STM32G4xx_HAL_Driver/Inc/stm32g4xx_ll_gpio.h ****   */
 837:Drivers/STM32G4xx_HAL_Driver/Inc/stm32g4xx_ll_gpio.h **** __STATIC_INLINE uint32_t LL_GPIO_ReadOutputPort(GPIO_TypeDef *GPIOx)
 838:Drivers/STM32G4xx_HAL_Driver/Inc/stm32g4xx_ll_gpio.h **** {
 839:Drivers/STM32G4xx_HAL_Driver/Inc/stm32g4xx_ll_gpio.h ****   return (uint32_t)(READ_REG(GPIOx->ODR));
 840:Drivers/STM32G4xx_HAL_Driver/Inc/stm32g4xx_ll_gpio.h **** }
 841:Drivers/STM32G4xx_HAL_Driver/Inc/stm32g4xx_ll_gpio.h **** 
 842:Drivers/STM32G4xx_HAL_Driver/Inc/stm32g4xx_ll_gpio.h **** /**
 843:Drivers/STM32G4xx_HAL_Driver/Inc/stm32g4xx_ll_gpio.h ****   * @brief  Return if input data level for several pins of dedicated port is high or low.
 844:Drivers/STM32G4xx_HAL_Driver/Inc/stm32g4xx_ll_gpio.h ****   * @rmtoll ODR          ODy           LL_GPIO_IsOutputPinSet
 845:Drivers/STM32G4xx_HAL_Driver/Inc/stm32g4xx_ll_gpio.h ****   * @param  GPIOx GPIO Port
 846:Drivers/STM32G4xx_HAL_Driver/Inc/stm32g4xx_ll_gpio.h ****   * @param  PinMask This parameter can be a combination of the following values:
 847:Drivers/STM32G4xx_HAL_Driver/Inc/stm32g4xx_ll_gpio.h ****   *         @arg @ref LL_GPIO_PIN_0
 848:Drivers/STM32G4xx_HAL_Driver/Inc/stm32g4xx_ll_gpio.h ****   *         @arg @ref LL_GPIO_PIN_1
 849:Drivers/STM32G4xx_HAL_Driver/Inc/stm32g4xx_ll_gpio.h ****   *         @arg @ref LL_GPIO_PIN_2
 850:Drivers/STM32G4xx_HAL_Driver/Inc/stm32g4xx_ll_gpio.h ****   *         @arg @ref LL_GPIO_PIN_3
 851:Drivers/STM32G4xx_HAL_Driver/Inc/stm32g4xx_ll_gpio.h ****   *         @arg @ref LL_GPIO_PIN_4
 852:Drivers/STM32G4xx_HAL_Driver/Inc/stm32g4xx_ll_gpio.h ****   *         @arg @ref LL_GPIO_PIN_5
 853:Drivers/STM32G4xx_HAL_Driver/Inc/stm32g4xx_ll_gpio.h ****   *         @arg @ref LL_GPIO_PIN_6
 854:Drivers/STM32G4xx_HAL_Driver/Inc/stm32g4xx_ll_gpio.h ****   *         @arg @ref LL_GPIO_PIN_7
 855:Drivers/STM32G4xx_HAL_Driver/Inc/stm32g4xx_ll_gpio.h ****   *         @arg @ref LL_GPIO_PIN_8
 856:Drivers/STM32G4xx_HAL_Driver/Inc/stm32g4xx_ll_gpio.h ****   *         @arg @ref LL_GPIO_PIN_9
 857:Drivers/STM32G4xx_HAL_Driver/Inc/stm32g4xx_ll_gpio.h ****   *         @arg @ref LL_GPIO_PIN_10
 858:Drivers/STM32G4xx_HAL_Driver/Inc/stm32g4xx_ll_gpio.h ****   *         @arg @ref LL_GPIO_PIN_11
 859:Drivers/STM32G4xx_HAL_Driver/Inc/stm32g4xx_ll_gpio.h ****   *         @arg @ref LL_GPIO_PIN_12
 860:Drivers/STM32G4xx_HAL_Driver/Inc/stm32g4xx_ll_gpio.h ****   *         @arg @ref LL_GPIO_PIN_13
 861:Drivers/STM32G4xx_HAL_Driver/Inc/stm32g4xx_ll_gpio.h ****   *         @arg @ref LL_GPIO_PIN_14
 862:Drivers/STM32G4xx_HAL_Driver/Inc/stm32g4xx_ll_gpio.h ****   *         @arg @ref LL_GPIO_PIN_15
 863:Drivers/STM32G4xx_HAL_Driver/Inc/stm32g4xx_ll_gpio.h ****   *         @arg @ref LL_GPIO_PIN_ALL
 864:Drivers/STM32G4xx_HAL_Driver/Inc/stm32g4xx_ll_gpio.h ****   * @retval State of bit (1 or 0).
 865:Drivers/STM32G4xx_HAL_Driver/Inc/stm32g4xx_ll_gpio.h ****   */
 866:Drivers/STM32G4xx_HAL_Driver/Inc/stm32g4xx_ll_gpio.h **** __STATIC_INLINE uint32_t LL_GPIO_IsOutputPinSet(GPIO_TypeDef *GPIOx, uint32_t PinMask)
 867:Drivers/STM32G4xx_HAL_Driver/Inc/stm32g4xx_ll_gpio.h **** {
 868:Drivers/STM32G4xx_HAL_Driver/Inc/stm32g4xx_ll_gpio.h ****   return ((READ_BIT(GPIOx->ODR, PinMask) == (PinMask)) ? 1UL : 0UL);
ARM GAS  /tmp/ccXhhYW8.s 			page 26


 869:Drivers/STM32G4xx_HAL_Driver/Inc/stm32g4xx_ll_gpio.h **** }
 870:Drivers/STM32G4xx_HAL_Driver/Inc/stm32g4xx_ll_gpio.h **** 
 871:Drivers/STM32G4xx_HAL_Driver/Inc/stm32g4xx_ll_gpio.h **** /**
 872:Drivers/STM32G4xx_HAL_Driver/Inc/stm32g4xx_ll_gpio.h ****   * @brief  Set several pins to high level on dedicated gpio port.
 873:Drivers/STM32G4xx_HAL_Driver/Inc/stm32g4xx_ll_gpio.h ****   * @rmtoll BSRR         BSy           LL_GPIO_SetOutputPin
 874:Drivers/STM32G4xx_HAL_Driver/Inc/stm32g4xx_ll_gpio.h ****   * @param  GPIOx GPIO Port
 875:Drivers/STM32G4xx_HAL_Driver/Inc/stm32g4xx_ll_gpio.h ****   * @param  PinMask This parameter can be a combination of the following values:
 876:Drivers/STM32G4xx_HAL_Driver/Inc/stm32g4xx_ll_gpio.h ****   *         @arg @ref LL_GPIO_PIN_0
 877:Drivers/STM32G4xx_HAL_Driver/Inc/stm32g4xx_ll_gpio.h ****   *         @arg @ref LL_GPIO_PIN_1
 878:Drivers/STM32G4xx_HAL_Driver/Inc/stm32g4xx_ll_gpio.h ****   *         @arg @ref LL_GPIO_PIN_2
 879:Drivers/STM32G4xx_HAL_Driver/Inc/stm32g4xx_ll_gpio.h ****   *         @arg @ref LL_GPIO_PIN_3
 880:Drivers/STM32G4xx_HAL_Driver/Inc/stm32g4xx_ll_gpio.h ****   *         @arg @ref LL_GPIO_PIN_4
 881:Drivers/STM32G4xx_HAL_Driver/Inc/stm32g4xx_ll_gpio.h ****   *         @arg @ref LL_GPIO_PIN_5
 882:Drivers/STM32G4xx_HAL_Driver/Inc/stm32g4xx_ll_gpio.h ****   *         @arg @ref LL_GPIO_PIN_6
 883:Drivers/STM32G4xx_HAL_Driver/Inc/stm32g4xx_ll_gpio.h ****   *         @arg @ref LL_GPIO_PIN_7
 884:Drivers/STM32G4xx_HAL_Driver/Inc/stm32g4xx_ll_gpio.h ****   *         @arg @ref LL_GPIO_PIN_8
 885:Drivers/STM32G4xx_HAL_Driver/Inc/stm32g4xx_ll_gpio.h ****   *         @arg @ref LL_GPIO_PIN_9
 886:Drivers/STM32G4xx_HAL_Driver/Inc/stm32g4xx_ll_gpio.h ****   *         @arg @ref LL_GPIO_PIN_10
 887:Drivers/STM32G4xx_HAL_Driver/Inc/stm32g4xx_ll_gpio.h ****   *         @arg @ref LL_GPIO_PIN_11
 888:Drivers/STM32G4xx_HAL_Driver/Inc/stm32g4xx_ll_gpio.h ****   *         @arg @ref LL_GPIO_PIN_12
 889:Drivers/STM32G4xx_HAL_Driver/Inc/stm32g4xx_ll_gpio.h ****   *         @arg @ref LL_GPIO_PIN_13
 890:Drivers/STM32G4xx_HAL_Driver/Inc/stm32g4xx_ll_gpio.h ****   *         @arg @ref LL_GPIO_PIN_14
 891:Drivers/STM32G4xx_HAL_Driver/Inc/stm32g4xx_ll_gpio.h ****   *         @arg @ref LL_GPIO_PIN_15
 892:Drivers/STM32G4xx_HAL_Driver/Inc/stm32g4xx_ll_gpio.h ****   *         @arg @ref LL_GPIO_PIN_ALL
 893:Drivers/STM32G4xx_HAL_Driver/Inc/stm32g4xx_ll_gpio.h ****   * @retval None
 894:Drivers/STM32G4xx_HAL_Driver/Inc/stm32g4xx_ll_gpio.h ****   */
 895:Drivers/STM32G4xx_HAL_Driver/Inc/stm32g4xx_ll_gpio.h **** __STATIC_INLINE void LL_GPIO_SetOutputPin(GPIO_TypeDef *GPIOx, uint32_t PinMask)
 896:Drivers/STM32G4xx_HAL_Driver/Inc/stm32g4xx_ll_gpio.h **** {
 897:Drivers/STM32G4xx_HAL_Driver/Inc/stm32g4xx_ll_gpio.h ****   WRITE_REG(GPIOx->BSRR, PinMask);
 898:Drivers/STM32G4xx_HAL_Driver/Inc/stm32g4xx_ll_gpio.h **** }
 899:Drivers/STM32G4xx_HAL_Driver/Inc/stm32g4xx_ll_gpio.h **** 
 900:Drivers/STM32G4xx_HAL_Driver/Inc/stm32g4xx_ll_gpio.h **** /**
 901:Drivers/STM32G4xx_HAL_Driver/Inc/stm32g4xx_ll_gpio.h ****   * @brief  Set several pins to low level on dedicated gpio port.
 902:Drivers/STM32G4xx_HAL_Driver/Inc/stm32g4xx_ll_gpio.h ****   * @rmtoll BRR          BRy           LL_GPIO_ResetOutputPin
 903:Drivers/STM32G4xx_HAL_Driver/Inc/stm32g4xx_ll_gpio.h ****   * @param  GPIOx GPIO Port
 904:Drivers/STM32G4xx_HAL_Driver/Inc/stm32g4xx_ll_gpio.h ****   * @param  PinMask This parameter can be a combination of the following values:
 905:Drivers/STM32G4xx_HAL_Driver/Inc/stm32g4xx_ll_gpio.h ****   *         @arg @ref LL_GPIO_PIN_0
 906:Drivers/STM32G4xx_HAL_Driver/Inc/stm32g4xx_ll_gpio.h ****   *         @arg @ref LL_GPIO_PIN_1
 907:Drivers/STM32G4xx_HAL_Driver/Inc/stm32g4xx_ll_gpio.h ****   *         @arg @ref LL_GPIO_PIN_2
 908:Drivers/STM32G4xx_HAL_Driver/Inc/stm32g4xx_ll_gpio.h ****   *         @arg @ref LL_GPIO_PIN_3
 909:Drivers/STM32G4xx_HAL_Driver/Inc/stm32g4xx_ll_gpio.h ****   *         @arg @ref LL_GPIO_PIN_4
 910:Drivers/STM32G4xx_HAL_Driver/Inc/stm32g4xx_ll_gpio.h ****   *         @arg @ref LL_GPIO_PIN_5
 911:Drivers/STM32G4xx_HAL_Driver/Inc/stm32g4xx_ll_gpio.h ****   *         @arg @ref LL_GPIO_PIN_6
 912:Drivers/STM32G4xx_HAL_Driver/Inc/stm32g4xx_ll_gpio.h ****   *         @arg @ref LL_GPIO_PIN_7
 913:Drivers/STM32G4xx_HAL_Driver/Inc/stm32g4xx_ll_gpio.h ****   *         @arg @ref LL_GPIO_PIN_8
 914:Drivers/STM32G4xx_HAL_Driver/Inc/stm32g4xx_ll_gpio.h ****   *         @arg @ref LL_GPIO_PIN_9
 915:Drivers/STM32G4xx_HAL_Driver/Inc/stm32g4xx_ll_gpio.h ****   *         @arg @ref LL_GPIO_PIN_10
 916:Drivers/STM32G4xx_HAL_Driver/Inc/stm32g4xx_ll_gpio.h ****   *         @arg @ref LL_GPIO_PIN_11
 917:Drivers/STM32G4xx_HAL_Driver/Inc/stm32g4xx_ll_gpio.h ****   *         @arg @ref LL_GPIO_PIN_12
 918:Drivers/STM32G4xx_HAL_Driver/Inc/stm32g4xx_ll_gpio.h ****   *         @arg @ref LL_GPIO_PIN_13
 919:Drivers/STM32G4xx_HAL_Driver/Inc/stm32g4xx_ll_gpio.h ****   *         @arg @ref LL_GPIO_PIN_14
 920:Drivers/STM32G4xx_HAL_Driver/Inc/stm32g4xx_ll_gpio.h ****   *         @arg @ref LL_GPIO_PIN_15
 921:Drivers/STM32G4xx_HAL_Driver/Inc/stm32g4xx_ll_gpio.h ****   *         @arg @ref LL_GPIO_PIN_ALL
 922:Drivers/STM32G4xx_HAL_Driver/Inc/stm32g4xx_ll_gpio.h ****   * @retval None
 923:Drivers/STM32G4xx_HAL_Driver/Inc/stm32g4xx_ll_gpio.h ****   */
 924:Drivers/STM32G4xx_HAL_Driver/Inc/stm32g4xx_ll_gpio.h **** __STATIC_INLINE void LL_GPIO_ResetOutputPin(GPIO_TypeDef *GPIOx, uint32_t PinMask)
 925:Drivers/STM32G4xx_HAL_Driver/Inc/stm32g4xx_ll_gpio.h **** {
ARM GAS  /tmp/ccXhhYW8.s 			page 27


 926:Drivers/STM32G4xx_HAL_Driver/Inc/stm32g4xx_ll_gpio.h ****   WRITE_REG(GPIOx->BRR, PinMask);
  59              		.loc 3 926 3 view .LVU4
  60 0008 2E4D     		ldr	r5, .L4+4
  61              	.LBE20:
  62              	.LBE19:
  63              	.LBB23:
  64              	.LBB24:
  65 000a 2F4F     		ldr	r7, .L4+8
  66              	.LBE24:
  67              	.LBE23:
  68              		.loc 1 43 23 view .LVU5
  69 000c 0024     		movs	r4, #0
  70 000e 0994     		str	r4, [sp, #36]
  44:Core/Src/gpio.c **** 
  45:Core/Src/gpio.c ****   /* GPIO Ports Clock Enable */
  46:Core/Src/gpio.c ****   LL_AHB2_GRP1_EnableClock(LL_AHB2_GRP1_PERIPH_GPIOF);
  71              		.loc 1 46 3 is_stmt 1 view .LVU6
  72              	.LVL0:
  73              	.LBB28:
  74              	.LBI16:
 453:Drivers/STM32G4xx_HAL_Driver/Inc/stm32g4xx_ll_bus.h **** {
  75              		.loc 2 453 22 view .LVU7
  76              	.LBB18:
 455:Drivers/STM32G4xx_HAL_Driver/Inc/stm32g4xx_ll_bus.h ****   SET_BIT(RCC->AHB2ENR, Periphs);
  77              		.loc 2 455 3 view .LVU8
  78              		.loc 2 456 3 view .LVU9
  79 0010 DA6C     		ldr	r2, [r3, #76]
  80 0012 42F02002 		orr	r2, r2, #32
  81 0016 DA64     		str	r2, [r3, #76]
 457:Drivers/STM32G4xx_HAL_Driver/Inc/stm32g4xx_ll_bus.h ****   /* Delay after an RCC peripheral clock enabling */
 458:Drivers/STM32G4xx_HAL_Driver/Inc/stm32g4xx_ll_bus.h ****   tmpreg = READ_BIT(RCC->AHB2ENR, Periphs);
  82              		.loc 2 458 3 view .LVU10
  83              		.loc 2 458 12 is_stmt 0 view .LVU11
  84 0018 DA6C     		ldr	r2, [r3, #76]
  85 001a 02F02002 		and	r2, r2, #32
  86              		.loc 2 458 10 view .LVU12
  87 001e 0392     		str	r2, [sp, #12]
 459:Drivers/STM32G4xx_HAL_Driver/Inc/stm32g4xx_ll_bus.h ****   (void)tmpreg;
  88              		.loc 2 459 3 is_stmt 1 view .LVU13
  89 0020 039A     		ldr	r2, [sp, #12]
  90              	.LVL1:
  91              		.loc 2 459 3 is_stmt 0 view .LVU14
  92              	.LBE18:
  93              	.LBE28:
  47:Core/Src/gpio.c ****   LL_AHB2_GRP1_EnableClock(LL_AHB2_GRP1_PERIPH_GPIOA);
  94              		.loc 1 47 3 is_stmt 1 view .LVU15
  95              	.LBB29:
  96              	.LBI29:
 453:Drivers/STM32G4xx_HAL_Driver/Inc/stm32g4xx_ll_bus.h **** {
  97              		.loc 2 453 22 view .LVU16
  98              	.LBB30:
 455:Drivers/STM32G4xx_HAL_Driver/Inc/stm32g4xx_ll_bus.h ****   SET_BIT(RCC->AHB2ENR, Periphs);
  99              		.loc 2 455 3 view .LVU17
 456:Drivers/STM32G4xx_HAL_Driver/Inc/stm32g4xx_ll_bus.h ****   /* Delay after an RCC peripheral clock enabling */
 100              		.loc 2 456 3 view .LVU18
 101 0022 DA6C     		ldr	r2, [r3, #76]
 102 0024 42F00102 		orr	r2, r2, #1
ARM GAS  /tmp/ccXhhYW8.s 			page 28


 103 0028 DA64     		str	r2, [r3, #76]
 458:Drivers/STM32G4xx_HAL_Driver/Inc/stm32g4xx_ll_bus.h ****   (void)tmpreg;
 104              		.loc 2 458 3 view .LVU19
 458:Drivers/STM32G4xx_HAL_Driver/Inc/stm32g4xx_ll_bus.h ****   (void)tmpreg;
 105              		.loc 2 458 12 is_stmt 0 view .LVU20
 106 002a DA6C     		ldr	r2, [r3, #76]
 107 002c 02F00102 		and	r2, r2, #1
 458:Drivers/STM32G4xx_HAL_Driver/Inc/stm32g4xx_ll_bus.h ****   (void)tmpreg;
 108              		.loc 2 458 10 view .LVU21
 109 0030 0292     		str	r2, [sp, #8]
 110              		.loc 2 459 3 is_stmt 1 view .LVU22
 111 0032 029A     		ldr	r2, [sp, #8]
 112              	.LVL2:
 113              		.loc 2 459 3 is_stmt 0 view .LVU23
 114              	.LBE30:
 115              	.LBE29:
  48:Core/Src/gpio.c ****   LL_AHB2_GRP1_EnableClock(LL_AHB2_GRP1_PERIPH_GPIOC);
 116              		.loc 1 48 3 is_stmt 1 view .LVU24
 117              	.LBB31:
 118              	.LBI31:
 453:Drivers/STM32G4xx_HAL_Driver/Inc/stm32g4xx_ll_bus.h **** {
 119              		.loc 2 453 22 view .LVU25
 120              	.LBB32:
 455:Drivers/STM32G4xx_HAL_Driver/Inc/stm32g4xx_ll_bus.h ****   SET_BIT(RCC->AHB2ENR, Periphs);
 121              		.loc 2 455 3 view .LVU26
 456:Drivers/STM32G4xx_HAL_Driver/Inc/stm32g4xx_ll_bus.h ****   /* Delay after an RCC peripheral clock enabling */
 122              		.loc 2 456 3 view .LVU27
 123 0034 DA6C     		ldr	r2, [r3, #76]
 124 0036 42F00402 		orr	r2, r2, #4
 125 003a DA64     		str	r2, [r3, #76]
 458:Drivers/STM32G4xx_HAL_Driver/Inc/stm32g4xx_ll_bus.h ****   (void)tmpreg;
 126              		.loc 2 458 3 view .LVU28
 458:Drivers/STM32G4xx_HAL_Driver/Inc/stm32g4xx_ll_bus.h ****   (void)tmpreg;
 127              		.loc 2 458 12 is_stmt 0 view .LVU29
 128 003c DA6C     		ldr	r2, [r3, #76]
 129 003e 02F00402 		and	r2, r2, #4
 458:Drivers/STM32G4xx_HAL_Driver/Inc/stm32g4xx_ll_bus.h ****   (void)tmpreg;
 130              		.loc 2 458 10 view .LVU30
 131 0042 0192     		str	r2, [sp, #4]
 132              		.loc 2 459 3 is_stmt 1 view .LVU31
 133 0044 019A     		ldr	r2, [sp, #4]
 134              	.LVL3:
 135              		.loc 2 459 3 is_stmt 0 view .LVU32
 136              	.LBE32:
 137              	.LBE31:
  49:Core/Src/gpio.c ****   LL_AHB2_GRP1_EnableClock(LL_AHB2_GRP1_PERIPH_GPIOB);
 138              		.loc 1 49 3 is_stmt 1 view .LVU33
 139              	.LBB33:
 140              	.LBI33:
 453:Drivers/STM32G4xx_HAL_Driver/Inc/stm32g4xx_ll_bus.h **** {
 141              		.loc 2 453 22 view .LVU34
 142              	.LBB34:
 455:Drivers/STM32G4xx_HAL_Driver/Inc/stm32g4xx_ll_bus.h ****   SET_BIT(RCC->AHB2ENR, Periphs);
 143              		.loc 2 455 3 view .LVU35
 456:Drivers/STM32G4xx_HAL_Driver/Inc/stm32g4xx_ll_bus.h ****   /* Delay after an RCC peripheral clock enabling */
 144              		.loc 2 456 3 view .LVU36
 145 0046 DA6C     		ldr	r2, [r3, #76]
ARM GAS  /tmp/ccXhhYW8.s 			page 29


 146 0048 42F00202 		orr	r2, r2, #2
 147 004c DA64     		str	r2, [r3, #76]
 458:Drivers/STM32G4xx_HAL_Driver/Inc/stm32g4xx_ll_bus.h ****   (void)tmpreg;
 148              		.loc 2 458 3 view .LVU37
 458:Drivers/STM32G4xx_HAL_Driver/Inc/stm32g4xx_ll_bus.h ****   (void)tmpreg;
 149              		.loc 2 458 12 is_stmt 0 view .LVU38
 150 004e DB6C     		ldr	r3, [r3, #76]
 151 0050 03F00203 		and	r3, r3, #2
 458:Drivers/STM32G4xx_HAL_Driver/Inc/stm32g4xx_ll_bus.h ****   (void)tmpreg;
 152              		.loc 2 458 10 view .LVU39
 153 0054 0093     		str	r3, [sp]
 154              		.loc 2 459 3 is_stmt 1 view .LVU40
 155              	.LBE34:
 156              	.LBE33:
 157              	.LBB36:
 158              	.LBB25:
 159              		.loc 3 926 3 is_stmt 0 view .LVU41
 160 0056 4FF04009 		mov	r9, #64
 161              	.LBE25:
 162              	.LBE36:
 163              	.LBB37:
 164              	.LBB21:
 165 005a 4FF48063 		mov	r3, #1024
 166              	.LBE21:
 167              	.LBE37:
 168              	.LBB38:
 169              	.LBB39:
 170 005e 4FF02008 		mov	r8, #32
 171              	.LBE39:
 172              	.LBE38:
 173              	.LBB42:
 174              	.LBB35:
 175              		.loc 2 459 3 view .LVU42
 176 0062 009A     		ldr	r2, [sp]
 177              	.LVL4:
 178              		.loc 2 459 3 view .LVU43
 179              	.LBE35:
 180              	.LBE42:
  50:Core/Src/gpio.c **** 
  51:Core/Src/gpio.c ****   /**/
  52:Core/Src/gpio.c ****   LL_GPIO_ResetOutputPin(LED_STATUS_GPIO_Port, LED_STATUS_Pin);
 181              		.loc 1 52 3 is_stmt 1 view .LVU44
 182              	.LBB43:
 183              	.LBI19:
 924:Drivers/STM32G4xx_HAL_Driver/Inc/stm32g4xx_ll_gpio.h **** {
 184              		.loc 3 924 22 view .LVU45
 185              	.LBB22:
 186              		.loc 3 926 3 view .LVU46
 187 0064 AB62     		str	r3, [r5, #40]
 188              	.LVL5:
 189              		.loc 3 926 3 is_stmt 0 view .LVU47
 190              	.LBE22:
 191              	.LBE43:
  53:Core/Src/gpio.c **** 
  54:Core/Src/gpio.c ****   /**/
  55:Core/Src/gpio.c ****   LL_GPIO_ResetOutputPin(USER_GPIO_GPIO_Port, USER_GPIO_Pin);
 192              		.loc 1 55 3 is_stmt 1 view .LVU48
ARM GAS  /tmp/ccXhhYW8.s 			page 30


 193              	.LBB44:
 194              	.LBI23:
 924:Drivers/STM32G4xx_HAL_Driver/Inc/stm32g4xx_ll_gpio.h **** {
 195              		.loc 3 924 22 view .LVU49
 196              	.LBB26:
 197              		.loc 3 926 3 view .LVU50
 198              	.LBE26:
 199              	.LBE44:
  56:Core/Src/gpio.c **** 
  57:Core/Src/gpio.c ****   /**/
  58:Core/Src/gpio.c ****   LL_GPIO_ResetOutputPin(DRV_ENABLE_GPIO_Port, DRV_ENABLE_Pin);
  59:Core/Src/gpio.c **** 
  60:Core/Src/gpio.c ****   /**/
  61:Core/Src/gpio.c ****   GPIO_InitStruct.Pin = LED_STATUS_Pin;
  62:Core/Src/gpio.c ****   GPIO_InitStruct.Mode = LL_GPIO_MODE_OUTPUT;
 200              		.loc 1 62 24 is_stmt 0 view .LVU51
 201 0066 0126     		movs	r6, #1
 202              	.LBB45:
 203              	.LBB27:
 204              		.loc 3 926 3 view .LVU52
 205 0068 C7F82890 		str	r9, [r7, #40]
 206              	.LVL6:
 207              		.loc 3 926 3 view .LVU53
 208              	.LBE27:
 209              	.LBE45:
  58:Core/Src/gpio.c **** 
 210              		.loc 1 58 3 is_stmt 1 view .LVU54
 211              	.LBB46:
 212              	.LBI38:
 924:Drivers/STM32G4xx_HAL_Driver/Inc/stm32g4xx_ll_gpio.h **** {
 213              		.loc 3 924 22 view .LVU55
 214              	.LBB40:
 215              		.loc 3 926 3 view .LVU56
 216              	.LBE40:
 217              	.LBE46:
  63:Core/Src/gpio.c ****   GPIO_InitStruct.Speed = LL_GPIO_SPEED_FREQ_LOW;
  64:Core/Src/gpio.c ****   GPIO_InitStruct.OutputType = LL_GPIO_OUTPUT_PUSHPULL;
  65:Core/Src/gpio.c ****   GPIO_InitStruct.Pull = LL_GPIO_PULL_NO;
  66:Core/Src/gpio.c ****   LL_GPIO_Init(LED_STATUS_GPIO_Port, &GPIO_InitStruct);
 218              		.loc 1 66 3 is_stmt 0 view .LVU57
 219 006c 04A9     		add	r1, sp, #16
 220              	.LBB47:
 221              	.LBB41:
 222              		.loc 3 926 3 view .LVU58
 223 006e C5F82880 		str	r8, [r5, #40]
 224              	.LVL7:
 225              		.loc 3 926 3 view .LVU59
 226              	.LBE41:
 227              	.LBE47:
  61:Core/Src/gpio.c ****   GPIO_InitStruct.Mode = LL_GPIO_MODE_OUTPUT;
 228              		.loc 1 61 3 is_stmt 1 view .LVU60
 229              		.loc 1 66 3 is_stmt 0 view .LVU61
 230 0072 2846     		mov	r0, r5
  61:Core/Src/gpio.c ****   GPIO_InitStruct.Mode = LL_GPIO_MODE_OUTPUT;
 231              		.loc 1 61 23 view .LVU62
 232 0074 0493     		str	r3, [sp, #16]
  62:Core/Src/gpio.c ****   GPIO_InitStruct.Speed = LL_GPIO_SPEED_FREQ_LOW;
ARM GAS  /tmp/ccXhhYW8.s 			page 31


 233              		.loc 1 62 3 is_stmt 1 view .LVU63
  64:Core/Src/gpio.c ****   GPIO_InitStruct.Pull = LL_GPIO_PULL_NO;
 234              		.loc 1 64 30 is_stmt 0 view .LVU64
 235 0076 CDE90644 		strd	r4, r4, [sp, #24]
  65:Core/Src/gpio.c ****   LL_GPIO_Init(LED_STATUS_GPIO_Port, &GPIO_InitStruct);
 236              		.loc 1 65 24 view .LVU65
 237 007a 0894     		str	r4, [sp, #32]
  62:Core/Src/gpio.c ****   GPIO_InitStruct.Speed = LL_GPIO_SPEED_FREQ_LOW;
 238              		.loc 1 62 24 view .LVU66
 239 007c 0596     		str	r6, [sp, #20]
  63:Core/Src/gpio.c ****   GPIO_InitStruct.OutputType = LL_GPIO_OUTPUT_PUSHPULL;
 240              		.loc 1 63 3 is_stmt 1 view .LVU67
  64:Core/Src/gpio.c ****   GPIO_InitStruct.Pull = LL_GPIO_PULL_NO;
 241              		.loc 1 64 3 view .LVU68
  65:Core/Src/gpio.c ****   LL_GPIO_Init(LED_STATUS_GPIO_Port, &GPIO_InitStruct);
 242              		.loc 1 65 3 view .LVU69
 243              		.loc 1 66 3 view .LVU70
 244 007e FFF7FEFF 		bl	LL_GPIO_Init
 245              	.LVL8:
  67:Core/Src/gpio.c **** 
  68:Core/Src/gpio.c ****   /**/
  69:Core/Src/gpio.c ****   GPIO_InitStruct.Pin = USER_GPIO_Pin;
 246              		.loc 1 69 3 view .LVU71
  70:Core/Src/gpio.c ****   GPIO_InitStruct.Mode = LL_GPIO_MODE_OUTPUT;
  71:Core/Src/gpio.c ****   GPIO_InitStruct.Speed = LL_GPIO_SPEED_FREQ_LOW;
  72:Core/Src/gpio.c ****   GPIO_InitStruct.OutputType = LL_GPIO_OUTPUT_PUSHPULL;
  73:Core/Src/gpio.c ****   GPIO_InitStruct.Pull = LL_GPIO_PULL_NO;
  74:Core/Src/gpio.c ****   LL_GPIO_Init(USER_GPIO_GPIO_Port, &GPIO_InitStruct);
 247              		.loc 1 74 3 is_stmt 0 view .LVU72
 248 0082 04A9     		add	r1, sp, #16
 249 0084 3846     		mov	r0, r7
  70:Core/Src/gpio.c ****   GPIO_InitStruct.Mode = LL_GPIO_MODE_OUTPUT;
 250              		.loc 1 70 24 view .LVU73
 251 0086 CDE90496 		strd	r9, r6, [sp, #16]
  71:Core/Src/gpio.c ****   GPIO_InitStruct.OutputType = LL_GPIO_OUTPUT_PUSHPULL;
 252              		.loc 1 71 3 is_stmt 1 view .LVU74
  72:Core/Src/gpio.c ****   GPIO_InitStruct.Pull = LL_GPIO_PULL_NO;
 253              		.loc 1 72 30 is_stmt 0 view .LVU75
 254 008a CDE90644 		strd	r4, r4, [sp, #24]
  73:Core/Src/gpio.c ****   LL_GPIO_Init(USER_GPIO_GPIO_Port, &GPIO_InitStruct);
 255              		.loc 1 73 3 is_stmt 1 view .LVU76
  73:Core/Src/gpio.c ****   LL_GPIO_Init(USER_GPIO_GPIO_Port, &GPIO_InitStruct);
 256              		.loc 1 73 24 is_stmt 0 view .LVU77
 257 008e 0894     		str	r4, [sp, #32]
 258              		.loc 1 74 3 is_stmt 1 view .LVU78
 259 0090 FFF7FEFF 		bl	LL_GPIO_Init
 260              	.LVL9:
  75:Core/Src/gpio.c **** 
  76:Core/Src/gpio.c ****   /**/
  77:Core/Src/gpio.c ****   GPIO_InitStruct.Pin = DRV_nFAULT_Pin;
 261              		.loc 1 77 3 view .LVU79
 262              		.loc 1 77 23 is_stmt 0 view .LVU80
 263 0094 4FF40043 		mov	r3, #32768
  78:Core/Src/gpio.c ****   GPIO_InitStruct.Mode = LL_GPIO_MODE_INPUT;
  79:Core/Src/gpio.c ****   GPIO_InitStruct.Pull = LL_GPIO_PULL_NO;
  80:Core/Src/gpio.c ****   LL_GPIO_Init(DRV_nFAULT_GPIO_Port, &GPIO_InitStruct);
 264              		.loc 1 80 3 view .LVU81
ARM GAS  /tmp/ccXhhYW8.s 			page 32


 265 0098 04A9     		add	r1, sp, #16
 266 009a 4FF09040 		mov	r0, #1207959552
  77:Core/Src/gpio.c ****   GPIO_InitStruct.Mode = LL_GPIO_MODE_INPUT;
 267              		.loc 1 77 23 view .LVU82
 268 009e 0493     		str	r3, [sp, #16]
  78:Core/Src/gpio.c ****   GPIO_InitStruct.Mode = LL_GPIO_MODE_INPUT;
 269              		.loc 1 78 3 is_stmt 1 view .LVU83
  79:Core/Src/gpio.c ****   LL_GPIO_Init(DRV_nFAULT_GPIO_Port, &GPIO_InitStruct);
 270              		.loc 1 79 3 view .LVU84
 271              		.loc 1 80 3 view .LVU85
  78:Core/Src/gpio.c ****   GPIO_InitStruct.Mode = LL_GPIO_MODE_INPUT;
 272              		.loc 1 78 24 is_stmt 0 view .LVU86
 273 00a0 0594     		str	r4, [sp, #20]
  79:Core/Src/gpio.c ****   LL_GPIO_Init(DRV_nFAULT_GPIO_Port, &GPIO_InitStruct);
 274              		.loc 1 79 24 view .LVU87
 275 00a2 0894     		str	r4, [sp, #32]
 276              		.loc 1 80 3 view .LVU88
 277 00a4 FFF7FEFF 		bl	LL_GPIO_Init
 278              	.LVL10:
  81:Core/Src/gpio.c **** 
  82:Core/Src/gpio.c ****   /**/
  83:Core/Src/gpio.c ****   GPIO_InitStruct.Pin = DRV_ENABLE_Pin;
 279              		.loc 1 83 3 is_stmt 1 view .LVU89
  84:Core/Src/gpio.c ****   GPIO_InitStruct.Mode = LL_GPIO_MODE_OUTPUT;
  85:Core/Src/gpio.c ****   GPIO_InitStruct.Speed = LL_GPIO_SPEED_FREQ_LOW;
  86:Core/Src/gpio.c ****   GPIO_InitStruct.OutputType = LL_GPIO_OUTPUT_PUSHPULL;
  87:Core/Src/gpio.c ****   GPIO_InitStruct.Pull = LL_GPIO_PULL_NO;
  88:Core/Src/gpio.c ****   LL_GPIO_Init(DRV_ENABLE_GPIO_Port, &GPIO_InitStruct);
 280              		.loc 1 88 3 is_stmt 0 view .LVU90
 281 00a8 04A9     		add	r1, sp, #16
 282 00aa 2846     		mov	r0, r5
  84:Core/Src/gpio.c ****   GPIO_InitStruct.Mode = LL_GPIO_MODE_OUTPUT;
 283              		.loc 1 84 24 view .LVU91
 284 00ac CDE90486 		strd	r8, r6, [sp, #16]
  85:Core/Src/gpio.c ****   GPIO_InitStruct.OutputType = LL_GPIO_OUTPUT_PUSHPULL;
 285              		.loc 1 85 3 is_stmt 1 view .LVU92
  86:Core/Src/gpio.c ****   GPIO_InitStruct.Pull = LL_GPIO_PULL_NO;
 286              		.loc 1 86 30 is_stmt 0 view .LVU93
 287 00b0 CDE90644 		strd	r4, r4, [sp, #24]
  87:Core/Src/gpio.c ****   LL_GPIO_Init(DRV_ENABLE_GPIO_Port, &GPIO_InitStruct);
 288              		.loc 1 87 3 is_stmt 1 view .LVU94
  87:Core/Src/gpio.c ****   LL_GPIO_Init(DRV_ENABLE_GPIO_Port, &GPIO_InitStruct);
 289              		.loc 1 87 24 is_stmt 0 view .LVU95
 290 00b4 0894     		str	r4, [sp, #32]
 291              		.loc 1 88 3 is_stmt 1 view .LVU96
 292 00b6 FFF7FEFF 		bl	LL_GPIO_Init
 293              	.LVL11:
  89:Core/Src/gpio.c **** 
  90:Core/Src/gpio.c **** }
 294              		.loc 1 90 1 is_stmt 0 view .LVU97
 295 00ba 0BB0     		add	sp, sp, #44
 296              	.LCFI2:
 297              		.cfi_def_cfa_offset 28
 298              		@ sp needed
 299 00bc BDE8F083 		pop	{r4, r5, r6, r7, r8, r9, pc}
 300              	.L5:
 301              		.align	2
ARM GAS  /tmp/ccXhhYW8.s 			page 33


 302              	.L4:
 303 00c0 00100240 		.word	1073876992
 304 00c4 00040048 		.word	1207960576
 305 00c8 00080048 		.word	1207961600
 306              		.cfi_endproc
 307              	.LFE1311:
 309              		.text
 310              	.Letext0:
 311              		.file 4 "/usr/lib/gcc/arm-none-eabi/9.2.1/include/stdint.h"
 312              		.file 5 "Drivers/CMSIS/Include/core_cm4.h"
 313              		.file 6 "Drivers/CMSIS/Device/ST/STM32G4xx/Include/system_stm32g4xx.h"
 314              		.file 7 "Drivers/CMSIS/Device/ST/STM32G4xx/Include/stm32g474xx.h"
 315              		.file 8 "Drivers/STM32G4xx_HAL_Driver/Inc/stm32g4xx_hal_def.h"
 316              		.file 9 "Drivers/STM32G4xx_HAL_Driver/Inc/stm32g4xx_hal_flash.h"
 317              		.file 10 "Drivers/STM32G4xx_HAL_Driver/Inc/stm32g4xx_hal.h"
 318              		.file 11 "Drivers/STM32G4xx_HAL_Driver/Inc/stm32g4xx_ll_dma.h"
 319              		.file 12 "Drivers/STM32G4xx_HAL_Driver/Inc/stm32g4xx_ll_usart.h"
ARM GAS  /tmp/ccXhhYW8.s 			page 34

