ARM GAS  /tmp/cc9uxjOc.s 			page 1


   1              		.cpu cortex-m4
   2              		.eabi_attribute 27, 1
   3              		.eabi_attribute 28, 1
   4              		.eabi_attribute 20, 1
   5              		.eabi_attribute 21, 1
   6              		.eabi_attribute 23, 3
   7              		.eabi_attribute 24, 1
   8              		.eabi_attribute 25, 1
   9              		.eabi_attribute 26, 1
  10              		.eabi_attribute 30, 2
  11              		.eabi_attribute 34, 1
  12              		.eabi_attribute 18, 4
  13              		.file	"list.c"
  14              		.text
  15              	.Ltext0:
  16              		.cfi_sections	.debug_frame
  17              		.section	.text.vListInitialise,"ax",%progbits
  18              		.align	1
  19              		.p2align 2,,3
  20              		.global	vListInitialise
  21              		.arch armv7e-m
  22              		.syntax unified
  23              		.thumb
  24              		.thumb_func
  25              		.fpu fpv4-sp-d16
  27              	vListInitialise:
  28              	.LVL0:
  29              	.LFB4:
  30              		.file 1 "Middlewares/Third_Party/FreeRTOS/Source/list.c"
   1:Middlewares/Third_Party/FreeRTOS/Source/list.c **** /*
   2:Middlewares/Third_Party/FreeRTOS/Source/list.c ****  * FreeRTOS Kernel V10.2.1
   3:Middlewares/Third_Party/FreeRTOS/Source/list.c ****  * Copyright (C) 2019 Amazon.com, Inc. or its affiliates.  All Rights Reserved.
   4:Middlewares/Third_Party/FreeRTOS/Source/list.c ****  *
   5:Middlewares/Third_Party/FreeRTOS/Source/list.c ****  * Permission is hereby granted, free of charge, to any person obtaining a copy of
   6:Middlewares/Third_Party/FreeRTOS/Source/list.c ****  * this software and associated documentation files (the "Software"), to deal in
   7:Middlewares/Third_Party/FreeRTOS/Source/list.c ****  * the Software without restriction, including without limitation the rights to
   8:Middlewares/Third_Party/FreeRTOS/Source/list.c ****  * use, copy, modify, merge, publish, distribute, sublicense, and/or sell copies of
   9:Middlewares/Third_Party/FreeRTOS/Source/list.c ****  * the Software, and to permit persons to whom the Software is furnished to do so,
  10:Middlewares/Third_Party/FreeRTOS/Source/list.c ****  * subject to the following conditions:
  11:Middlewares/Third_Party/FreeRTOS/Source/list.c ****  *
  12:Middlewares/Third_Party/FreeRTOS/Source/list.c ****  * The above copyright notice and this permission notice shall be included in all
  13:Middlewares/Third_Party/FreeRTOS/Source/list.c ****  * copies or substantial portions of the Software.
  14:Middlewares/Third_Party/FreeRTOS/Source/list.c ****  *
  15:Middlewares/Third_Party/FreeRTOS/Source/list.c ****  * THE SOFTWARE IS PROVIDED "AS IS", WITHOUT WARRANTY OF ANY KIND, EXPRESS OR
  16:Middlewares/Third_Party/FreeRTOS/Source/list.c ****  * IMPLIED, INCLUDING BUT NOT LIMITED TO THE WARRANTIES OF MERCHANTABILITY, FITNESS
  17:Middlewares/Third_Party/FreeRTOS/Source/list.c ****  * FOR A PARTICULAR PURPOSE AND NONINFRINGEMENT. IN NO EVENT SHALL THE AUTHORS OR
  18:Middlewares/Third_Party/FreeRTOS/Source/list.c ****  * COPYRIGHT HOLDERS BE LIABLE FOR ANY CLAIM, DAMAGES OR OTHER LIABILITY, WHETHER
  19:Middlewares/Third_Party/FreeRTOS/Source/list.c ****  * IN AN ACTION OF CONTRACT, TORT OR OTHERWISE, ARISING FROM, OUT OF OR IN
  20:Middlewares/Third_Party/FreeRTOS/Source/list.c ****  * CONNECTION WITH THE SOFTWARE OR THE USE OR OTHER DEALINGS IN THE SOFTWARE.
  21:Middlewares/Third_Party/FreeRTOS/Source/list.c ****  *
  22:Middlewares/Third_Party/FreeRTOS/Source/list.c ****  * http://www.FreeRTOS.org
  23:Middlewares/Third_Party/FreeRTOS/Source/list.c ****  * http://aws.amazon.com/freertos
  24:Middlewares/Third_Party/FreeRTOS/Source/list.c ****  *
  25:Middlewares/Third_Party/FreeRTOS/Source/list.c ****  * 1 tab == 4 spaces!
  26:Middlewares/Third_Party/FreeRTOS/Source/list.c ****  */
  27:Middlewares/Third_Party/FreeRTOS/Source/list.c **** 
  28:Middlewares/Third_Party/FreeRTOS/Source/list.c **** 
ARM GAS  /tmp/cc9uxjOc.s 			page 2


  29:Middlewares/Third_Party/FreeRTOS/Source/list.c **** #include <stdlib.h>
  30:Middlewares/Third_Party/FreeRTOS/Source/list.c **** #include "FreeRTOS.h"
  31:Middlewares/Third_Party/FreeRTOS/Source/list.c **** #include "list.h"
  32:Middlewares/Third_Party/FreeRTOS/Source/list.c **** 
  33:Middlewares/Third_Party/FreeRTOS/Source/list.c **** /*-----------------------------------------------------------
  34:Middlewares/Third_Party/FreeRTOS/Source/list.c ****  * PUBLIC LIST API documented in list.h
  35:Middlewares/Third_Party/FreeRTOS/Source/list.c ****  *----------------------------------------------------------*/
  36:Middlewares/Third_Party/FreeRTOS/Source/list.c **** 
  37:Middlewares/Third_Party/FreeRTOS/Source/list.c **** void vListInitialise( List_t * const pxList )
  38:Middlewares/Third_Party/FreeRTOS/Source/list.c **** {
  31              		.loc 1 38 1 view -0
  32              		.cfi_startproc
  33              		@ args = 0, pretend = 0, frame = 0
  34              		@ frame_needed = 0, uses_anonymous_args = 0
  35              		@ link register save eliminated.
  39:Middlewares/Third_Party/FreeRTOS/Source/list.c **** 	/* The list structure contains a list item which is used to mark the
  40:Middlewares/Third_Party/FreeRTOS/Source/list.c **** 	end of the list.  To initialise the list the list end is inserted
  41:Middlewares/Third_Party/FreeRTOS/Source/list.c **** 	as the only list entry. */
  42:Middlewares/Third_Party/FreeRTOS/Source/list.c **** 	pxList->pxIndex = ( ListItem_t * ) &( pxList->xListEnd );			/*lint !e826 !e740 !e9087 The mini lis
  36              		.loc 1 42 2 view .LVU1
  37              		.loc 1 42 37 is_stmt 0 view .LVU2
  38 0000 00F10803 		add	r3, r0, #8
  43:Middlewares/Third_Party/FreeRTOS/Source/list.c **** 
  44:Middlewares/Third_Party/FreeRTOS/Source/list.c **** 	/* The list end value is the highest possible value in the list to
  45:Middlewares/Third_Party/FreeRTOS/Source/list.c **** 	ensure it remains at the end of the list. */
  46:Middlewares/Third_Party/FreeRTOS/Source/list.c **** 	pxList->xListEnd.xItemValue = portMAX_DELAY;
  39              		.loc 1 46 30 view .LVU3
  40 0004 4FF0FF31 		mov	r1, #-1
  47:Middlewares/Third_Party/FreeRTOS/Source/list.c **** 
  48:Middlewares/Third_Party/FreeRTOS/Source/list.c **** 	/* The list end next and previous pointers point to itself so we know
  49:Middlewares/Third_Party/FreeRTOS/Source/list.c **** 	when the list is empty. */
  50:Middlewares/Third_Party/FreeRTOS/Source/list.c **** 	pxList->xListEnd.pxNext = ( ListItem_t * ) &( pxList->xListEnd );	/*lint !e826 !e740 !e9087 The mi
  51:Middlewares/Third_Party/FreeRTOS/Source/list.c **** 	pxList->xListEnd.pxPrevious = ( ListItem_t * ) &( pxList->xListEnd );/*lint !e826 !e740 !e9087 The
  52:Middlewares/Third_Party/FreeRTOS/Source/list.c **** 
  53:Middlewares/Third_Party/FreeRTOS/Source/list.c **** 	pxList->uxNumberOfItems = ( UBaseType_t ) 0U;
  41              		.loc 1 53 26 view .LVU4
  42 0008 0022     		movs	r2, #0
  51:Middlewares/Third_Party/FreeRTOS/Source/list.c **** 
  43              		.loc 1 51 30 view .LVU5
  44 000a C0E90333 		strd	r3, r3, [r0, #12]
  46:Middlewares/Third_Party/FreeRTOS/Source/list.c **** 
  45              		.loc 1 46 30 view .LVU6
  46 000e 8160     		str	r1, [r0, #8]
  47              		.loc 1 53 26 view .LVU7
  48 0010 0260     		str	r2, [r0]
  42:Middlewares/Third_Party/FreeRTOS/Source/list.c **** 
  49              		.loc 1 42 18 view .LVU8
  50 0012 4360     		str	r3, [r0, #4]
  46:Middlewares/Third_Party/FreeRTOS/Source/list.c **** 
  51              		.loc 1 46 2 is_stmt 1 view .LVU9
  50:Middlewares/Third_Party/FreeRTOS/Source/list.c **** 	pxList->xListEnd.pxPrevious = ( ListItem_t * ) &( pxList->xListEnd );/*lint !e826 !e740 !e9087 The
  52              		.loc 1 50 2 view .LVU10
  53              		.loc 1 53 2 view .LVU11
  54:Middlewares/Third_Party/FreeRTOS/Source/list.c **** 
  55:Middlewares/Third_Party/FreeRTOS/Source/list.c **** 	/* Write known values into the list if
  56:Middlewares/Third_Party/FreeRTOS/Source/list.c **** 	configUSE_LIST_DATA_INTEGRITY_CHECK_BYTES is set to 1. */
  57:Middlewares/Third_Party/FreeRTOS/Source/list.c **** 	listSET_LIST_INTEGRITY_CHECK_1_VALUE( pxList );
ARM GAS  /tmp/cc9uxjOc.s 			page 3


  54              		.loc 1 57 48 view .LVU12
  58:Middlewares/Third_Party/FreeRTOS/Source/list.c **** 	listSET_LIST_INTEGRITY_CHECK_2_VALUE( pxList );
  55              		.loc 1 58 48 view .LVU13
  59:Middlewares/Third_Party/FreeRTOS/Source/list.c **** }
  56              		.loc 1 59 1 is_stmt 0 view .LVU14
  57 0014 7047     		bx	lr
  58              		.cfi_endproc
  59              	.LFE4:
  61 0016 00BF     		.section	.text.vListInitialiseItem,"ax",%progbits
  62              		.align	1
  63              		.p2align 2,,3
  64              		.global	vListInitialiseItem
  65              		.syntax unified
  66              		.thumb
  67              		.thumb_func
  68              		.fpu fpv4-sp-d16
  70              	vListInitialiseItem:
  71              	.LVL1:
  72              	.LFB5:
  60:Middlewares/Third_Party/FreeRTOS/Source/list.c **** /*-----------------------------------------------------------*/
  61:Middlewares/Third_Party/FreeRTOS/Source/list.c **** 
  62:Middlewares/Third_Party/FreeRTOS/Source/list.c **** void vListInitialiseItem( ListItem_t * const pxItem )
  63:Middlewares/Third_Party/FreeRTOS/Source/list.c **** {
  73              		.loc 1 63 1 is_stmt 1 view -0
  74              		.cfi_startproc
  75              		@ args = 0, pretend = 0, frame = 0
  76              		@ frame_needed = 0, uses_anonymous_args = 0
  77              		@ link register save eliminated.
  64:Middlewares/Third_Party/FreeRTOS/Source/list.c **** 	/* Make sure the list item is not recorded as being on a list. */
  65:Middlewares/Third_Party/FreeRTOS/Source/list.c **** 	pxItem->pxContainer = NULL;
  78              		.loc 1 65 2 view .LVU16
  79              		.loc 1 65 22 is_stmt 0 view .LVU17
  80 0000 0023     		movs	r3, #0
  81 0002 0361     		str	r3, [r0, #16]
  66:Middlewares/Third_Party/FreeRTOS/Source/list.c **** 
  67:Middlewares/Third_Party/FreeRTOS/Source/list.c **** 	/* Write known values into the list item if
  68:Middlewares/Third_Party/FreeRTOS/Source/list.c **** 	configUSE_LIST_DATA_INTEGRITY_CHECK_BYTES is set to 1. */
  69:Middlewares/Third_Party/FreeRTOS/Source/list.c **** 	listSET_FIRST_LIST_ITEM_INTEGRITY_CHECK_VALUE( pxItem );
  82              		.loc 1 69 57 is_stmt 1 view .LVU18
  70:Middlewares/Third_Party/FreeRTOS/Source/list.c **** 	listSET_SECOND_LIST_ITEM_INTEGRITY_CHECK_VALUE( pxItem );
  83              		.loc 1 70 58 view .LVU19
  71:Middlewares/Third_Party/FreeRTOS/Source/list.c **** }
  84              		.loc 1 71 1 is_stmt 0 view .LVU20
  85 0004 7047     		bx	lr
  86              		.cfi_endproc
  87              	.LFE5:
  89 0006 00BF     		.section	.text.vListInsertEnd,"ax",%progbits
  90              		.align	1
  91              		.p2align 2,,3
  92              		.global	vListInsertEnd
  93              		.syntax unified
  94              		.thumb
  95              		.thumb_func
  96              		.fpu fpv4-sp-d16
  98              	vListInsertEnd:
  99              	.LVL2:
 100              	.LFB6:
ARM GAS  /tmp/cc9uxjOc.s 			page 4


  72:Middlewares/Third_Party/FreeRTOS/Source/list.c **** /*-----------------------------------------------------------*/
  73:Middlewares/Third_Party/FreeRTOS/Source/list.c **** 
  74:Middlewares/Third_Party/FreeRTOS/Source/list.c **** void vListInsertEnd( List_t * const pxList, ListItem_t * const pxNewListItem )
  75:Middlewares/Third_Party/FreeRTOS/Source/list.c **** {
 101              		.loc 1 75 1 is_stmt 1 view -0
 102              		.cfi_startproc
 103              		@ args = 0, pretend = 0, frame = 0
 104              		@ frame_needed = 0, uses_anonymous_args = 0
 105              		@ link register save eliminated.
  76:Middlewares/Third_Party/FreeRTOS/Source/list.c **** ListItem_t * const pxIndex = pxList->pxIndex;
 106              		.loc 1 76 1 view .LVU22
 107              		.loc 1 76 20 is_stmt 0 view .LVU23
 108 0000 4368     		ldr	r3, [r0, #4]
 109              	.LVL3:
  77:Middlewares/Third_Party/FreeRTOS/Source/list.c **** 
  78:Middlewares/Third_Party/FreeRTOS/Source/list.c **** 	/* Only effective when configASSERT() is also defined, these tests may catch
  79:Middlewares/Third_Party/FreeRTOS/Source/list.c **** 	the list data structures being overwritten in memory.  They will not catch
  80:Middlewares/Third_Party/FreeRTOS/Source/list.c **** 	data errors caused by incorrect configuration or use of FreeRTOS. */
  81:Middlewares/Third_Party/FreeRTOS/Source/list.c **** 	listTEST_LIST_INTEGRITY( pxList );
 110              		.loc 1 81 35 is_stmt 1 view .LVU24
  82:Middlewares/Third_Party/FreeRTOS/Source/list.c **** 	listTEST_LIST_ITEM_INTEGRITY( pxNewListItem );
 111              		.loc 1 82 47 view .LVU25
  83:Middlewares/Third_Party/FreeRTOS/Source/list.c **** 
  84:Middlewares/Third_Party/FreeRTOS/Source/list.c **** 	/* Insert a new list item into pxList, but rather than sort the list,
  85:Middlewares/Third_Party/FreeRTOS/Source/list.c **** 	makes the new list item the last item to be removed by a call to
  86:Middlewares/Third_Party/FreeRTOS/Source/list.c **** 	listGET_OWNER_OF_NEXT_ENTRY(). */
  87:Middlewares/Third_Party/FreeRTOS/Source/list.c **** 	pxNewListItem->pxNext = pxIndex;
 112              		.loc 1 87 2 view .LVU26
  88:Middlewares/Third_Party/FreeRTOS/Source/list.c **** 	pxNewListItem->pxPrevious = pxIndex->pxPrevious;
  89:Middlewares/Third_Party/FreeRTOS/Source/list.c **** 
  90:Middlewares/Third_Party/FreeRTOS/Source/list.c **** 	/* Only used during decision coverage testing. */
  91:Middlewares/Third_Party/FreeRTOS/Source/list.c **** 	mtCOVERAGE_TEST_DELAY();
  92:Middlewares/Third_Party/FreeRTOS/Source/list.c **** 
  93:Middlewares/Third_Party/FreeRTOS/Source/list.c **** 	pxIndex->pxPrevious->pxNext = pxNewListItem;
  94:Middlewares/Third_Party/FreeRTOS/Source/list.c **** 	pxIndex->pxPrevious = pxNewListItem;
  95:Middlewares/Third_Party/FreeRTOS/Source/list.c **** 
  96:Middlewares/Third_Party/FreeRTOS/Source/list.c **** 	/* Remember which list the item is in. */
  97:Middlewares/Third_Party/FreeRTOS/Source/list.c **** 	pxNewListItem->pxContainer = pxList;
  98:Middlewares/Third_Party/FreeRTOS/Source/list.c **** 
  99:Middlewares/Third_Party/FreeRTOS/Source/list.c **** 	( pxList->uxNumberOfItems )++;
 113              		.loc 1 99 10 is_stmt 0 view .LVU27
 114 0002 0268     		ldr	r2, [r0]
  75:Middlewares/Third_Party/FreeRTOS/Source/list.c **** ListItem_t * const pxIndex = pxList->pxIndex;
 115              		.loc 1 75 1 view .LVU28
 116 0004 10B4     		push	{r4}
 117              	.LCFI0:
 118              		.cfi_def_cfa_offset 4
 119              		.cfi_offset 4, -4
  88:Middlewares/Third_Party/FreeRTOS/Source/list.c **** 	pxNewListItem->pxPrevious = pxIndex->pxPrevious;
 120              		.loc 1 88 37 view .LVU29
 121 0006 9C68     		ldr	r4, [r3, #8]
  88:Middlewares/Third_Party/FreeRTOS/Source/list.c **** 	pxNewListItem->pxPrevious = pxIndex->pxPrevious;
 122              		.loc 1 88 28 view .LVU30
 123 0008 8C60     		str	r4, [r1, #8]
  93:Middlewares/Third_Party/FreeRTOS/Source/list.c **** 	pxIndex->pxPrevious = pxNewListItem;
 124              		.loc 1 93 30 view .LVU31
 125 000a 9C68     		ldr	r4, [r3, #8]
ARM GAS  /tmp/cc9uxjOc.s 			page 5


  87:Middlewares/Third_Party/FreeRTOS/Source/list.c **** 	pxNewListItem->pxPrevious = pxIndex->pxPrevious;
 126              		.loc 1 87 24 view .LVU32
 127 000c 4B60     		str	r3, [r1, #4]
  88:Middlewares/Third_Party/FreeRTOS/Source/list.c **** 
 128              		.loc 1 88 2 is_stmt 1 view .LVU33
  91:Middlewares/Third_Party/FreeRTOS/Source/list.c **** 
 129              		.loc 1 91 25 view .LVU34
  93:Middlewares/Third_Party/FreeRTOS/Source/list.c **** 	pxIndex->pxPrevious = pxNewListItem;
 130              		.loc 1 93 2 view .LVU35
 131              		.loc 1 99 29 is_stmt 0 view .LVU36
 132 000e 0132     		adds	r2, r2, #1
  93:Middlewares/Third_Party/FreeRTOS/Source/list.c **** 	pxIndex->pxPrevious = pxNewListItem;
 133              		.loc 1 93 30 view .LVU37
 134 0010 6160     		str	r1, [r4, #4]
  94:Middlewares/Third_Party/FreeRTOS/Source/list.c **** 
 135              		.loc 1 94 2 is_stmt 1 view .LVU38
  94:Middlewares/Third_Party/FreeRTOS/Source/list.c **** 
 136              		.loc 1 94 22 is_stmt 0 view .LVU39
 137 0012 9960     		str	r1, [r3, #8]
  97:Middlewares/Third_Party/FreeRTOS/Source/list.c **** 
 138              		.loc 1 97 2 is_stmt 1 view .LVU40
 100:Middlewares/Third_Party/FreeRTOS/Source/list.c **** }
 139              		.loc 1 100 1 is_stmt 0 view .LVU41
 140 0014 5DF8044B 		ldr	r4, [sp], #4
 141              	.LCFI1:
 142              		.cfi_restore 4
 143              		.cfi_def_cfa_offset 0
  97:Middlewares/Third_Party/FreeRTOS/Source/list.c **** 
 144              		.loc 1 97 29 view .LVU42
 145 0018 0861     		str	r0, [r1, #16]
  99:Middlewares/Third_Party/FreeRTOS/Source/list.c **** }
 146              		.loc 1 99 2 is_stmt 1 view .LVU43
  99:Middlewares/Third_Party/FreeRTOS/Source/list.c **** }
 147              		.loc 1 99 29 is_stmt 0 view .LVU44
 148 001a 0260     		str	r2, [r0]
 149              		.loc 1 100 1 view .LVU45
 150 001c 7047     		bx	lr
 151              		.cfi_endproc
 152              	.LFE6:
 154 001e 00BF     		.section	.text.vListInsert,"ax",%progbits
 155              		.align	1
 156              		.p2align 2,,3
 157              		.global	vListInsert
 158              		.syntax unified
 159              		.thumb
 160              		.thumb_func
 161              		.fpu fpv4-sp-d16
 163              	vListInsert:
 164              	.LVL4:
 165              	.LFB7:
 101:Middlewares/Third_Party/FreeRTOS/Source/list.c **** /*-----------------------------------------------------------*/
 102:Middlewares/Third_Party/FreeRTOS/Source/list.c **** 
 103:Middlewares/Third_Party/FreeRTOS/Source/list.c **** void vListInsert( List_t * const pxList, ListItem_t * const pxNewListItem )
 104:Middlewares/Third_Party/FreeRTOS/Source/list.c **** {
 166              		.loc 1 104 1 is_stmt 1 view -0
 167              		.cfi_startproc
 168              		@ args = 0, pretend = 0, frame = 0
ARM GAS  /tmp/cc9uxjOc.s 			page 6


 169              		@ frame_needed = 0, uses_anonymous_args = 0
 170              		@ link register save eliminated.
 105:Middlewares/Third_Party/FreeRTOS/Source/list.c **** ListItem_t *pxIterator;
 171              		.loc 1 105 1 view .LVU47
 106:Middlewares/Third_Party/FreeRTOS/Source/list.c **** const TickType_t xValueOfInsertion = pxNewListItem->xItemValue;
 172              		.loc 1 106 1 view .LVU48
 104:Middlewares/Third_Party/FreeRTOS/Source/list.c **** ListItem_t *pxIterator;
 173              		.loc 1 104 1 is_stmt 0 view .LVU49
 174 0000 30B4     		push	{r4, r5}
 175              	.LCFI2:
 176              		.cfi_def_cfa_offset 8
 177              		.cfi_offset 4, -8
 178              		.cfi_offset 5, -4
 179              		.loc 1 106 18 view .LVU50
 180 0002 0D68     		ldr	r5, [r1]
 181              	.LVL5:
 107:Middlewares/Third_Party/FreeRTOS/Source/list.c **** 
 108:Middlewares/Third_Party/FreeRTOS/Source/list.c **** 	/* Only effective when configASSERT() is also defined, these tests may catch
 109:Middlewares/Third_Party/FreeRTOS/Source/list.c **** 	the list data structures being overwritten in memory.  They will not catch
 110:Middlewares/Third_Party/FreeRTOS/Source/list.c **** 	data errors caused by incorrect configuration or use of FreeRTOS. */
 111:Middlewares/Third_Party/FreeRTOS/Source/list.c **** 	listTEST_LIST_INTEGRITY( pxList );
 182              		.loc 1 111 35 is_stmt 1 view .LVU51
 112:Middlewares/Third_Party/FreeRTOS/Source/list.c **** 	listTEST_LIST_ITEM_INTEGRITY( pxNewListItem );
 183              		.loc 1 112 47 view .LVU52
 113:Middlewares/Third_Party/FreeRTOS/Source/list.c **** 
 114:Middlewares/Third_Party/FreeRTOS/Source/list.c **** 	/* Insert the new list item into the list, sorted in xItemValue order.
 115:Middlewares/Third_Party/FreeRTOS/Source/list.c **** 
 116:Middlewares/Third_Party/FreeRTOS/Source/list.c **** 	If the list already contains a list item with the same item value then the
 117:Middlewares/Third_Party/FreeRTOS/Source/list.c **** 	new list item should be placed after it.  This ensures that TCBs which are
 118:Middlewares/Third_Party/FreeRTOS/Source/list.c **** 	stored in ready lists (all of which have the same xItemValue value) get a
 119:Middlewares/Third_Party/FreeRTOS/Source/list.c **** 	share of the CPU.  However, if the xItemValue is the same as the back marker
 120:Middlewares/Third_Party/FreeRTOS/Source/list.c **** 	the iteration loop below will not end.  Therefore the value is checked
 121:Middlewares/Third_Party/FreeRTOS/Source/list.c **** 	first, and the algorithm slightly modified if necessary. */
 122:Middlewares/Third_Party/FreeRTOS/Source/list.c **** 	if( xValueOfInsertion == portMAX_DELAY )
 184              		.loc 1 122 2 view .LVU53
 185              		.loc 1 122 4 is_stmt 0 view .LVU54
 186 0004 6B1C     		adds	r3, r5, #1
 187 0006 10D0     		beq	.L12
 123:Middlewares/Third_Party/FreeRTOS/Source/list.c **** 	{
 124:Middlewares/Third_Party/FreeRTOS/Source/list.c **** 		pxIterator = pxList->xListEnd.pxPrevious;
 125:Middlewares/Third_Party/FreeRTOS/Source/list.c **** 	}
 126:Middlewares/Third_Party/FreeRTOS/Source/list.c **** 	else
 127:Middlewares/Third_Party/FreeRTOS/Source/list.c **** 	{
 128:Middlewares/Third_Party/FreeRTOS/Source/list.c **** 		/* *** NOTE ***********************************************************
 129:Middlewares/Third_Party/FreeRTOS/Source/list.c **** 		If you find your application is crashing here then likely causes are
 130:Middlewares/Third_Party/FreeRTOS/Source/list.c **** 		listed below.  In addition see https://www.freertos.org/FAQHelp.html for
 131:Middlewares/Third_Party/FreeRTOS/Source/list.c **** 		more tips, and ensure configASSERT() is defined!
 132:Middlewares/Third_Party/FreeRTOS/Source/list.c **** 		https://www.freertos.org/a00110.html#configASSERT
 133:Middlewares/Third_Party/FreeRTOS/Source/list.c **** 
 134:Middlewares/Third_Party/FreeRTOS/Source/list.c **** 			1) Stack overflow -
 135:Middlewares/Third_Party/FreeRTOS/Source/list.c **** 			   see https://www.freertos.org/Stacks-and-stack-overflow-checking.html
 136:Middlewares/Third_Party/FreeRTOS/Source/list.c **** 			2) Incorrect interrupt priority assignment, especially on Cortex-M
 137:Middlewares/Third_Party/FreeRTOS/Source/list.c **** 			   parts where numerically high priority values denote low actual
 138:Middlewares/Third_Party/FreeRTOS/Source/list.c **** 			   interrupt priorities, which can seem counter intuitive.  See
 139:Middlewares/Third_Party/FreeRTOS/Source/list.c **** 			   https://www.freertos.org/RTOS-Cortex-M3-M4.html and the definition
 140:Middlewares/Third_Party/FreeRTOS/Source/list.c **** 			   of configMAX_SYSCALL_INTERRUPT_PRIORITY on
 141:Middlewares/Third_Party/FreeRTOS/Source/list.c **** 			   https://www.freertos.org/a00110.html
ARM GAS  /tmp/cc9uxjOc.s 			page 7


 142:Middlewares/Third_Party/FreeRTOS/Source/list.c **** 			3) Calling an API function from within a critical section or when
 143:Middlewares/Third_Party/FreeRTOS/Source/list.c **** 			   the scheduler is suspended, or calling an API function that does
 144:Middlewares/Third_Party/FreeRTOS/Source/list.c **** 			   not end in "FromISR" from an interrupt.
 145:Middlewares/Third_Party/FreeRTOS/Source/list.c **** 			4) Using a queue or semaphore before it has been initialised or
 146:Middlewares/Third_Party/FreeRTOS/Source/list.c **** 			   before the scheduler has been started (are interrupts firing
 147:Middlewares/Third_Party/FreeRTOS/Source/list.c **** 			   before vTaskStartScheduler() has been called?).
 148:Middlewares/Third_Party/FreeRTOS/Source/list.c **** 		**********************************************************************/
 149:Middlewares/Third_Party/FreeRTOS/Source/list.c **** 
 150:Middlewares/Third_Party/FreeRTOS/Source/list.c **** 		for( pxIterator = ( ListItem_t * ) &( pxList->xListEnd ); pxIterator->pxNext->xItemValue <= xValu
 188              		.loc 1 150 3 is_stmt 1 view .LVU55
 189              		.loc 1 150 19 is_stmt 0 view .LVU56
 190 0008 00F10803 		add	r3, r0, #8
 191              	.LVL6:
 192              	.L9:
 193              		.loc 1 150 61 is_stmt 1 discriminator 1 view .LVU57
 194 000c 1C46     		mov	r4, r3
 195              		.loc 1 150 71 is_stmt 0 discriminator 1 view .LVU58
 196 000e 5B68     		ldr	r3, [r3, #4]
 197              	.LVL7:
 198              		.loc 1 150 3 discriminator 1 view .LVU59
 199 0010 1A68     		ldr	r2, [r3]
 200 0012 AA42     		cmp	r2, r5
 201 0014 FAD9     		bls	.L9
 202              	.L8:
 151:Middlewares/Third_Party/FreeRTOS/Source/list.c **** 		{
 152:Middlewares/Third_Party/FreeRTOS/Source/list.c **** 			/* There is nothing to do here, just iterating to the wanted
 153:Middlewares/Third_Party/FreeRTOS/Source/list.c **** 			insertion position. */
 154:Middlewares/Third_Party/FreeRTOS/Source/list.c **** 		}
 155:Middlewares/Third_Party/FreeRTOS/Source/list.c **** 	}
 156:Middlewares/Third_Party/FreeRTOS/Source/list.c **** 
 157:Middlewares/Third_Party/FreeRTOS/Source/list.c **** 	pxNewListItem->pxNext = pxIterator->pxNext;
 203              		.loc 1 157 2 is_stmt 1 view .LVU60
 158:Middlewares/Third_Party/FreeRTOS/Source/list.c **** 	pxNewListItem->pxNext->pxPrevious = pxNewListItem;
 159:Middlewares/Third_Party/FreeRTOS/Source/list.c **** 	pxNewListItem->pxPrevious = pxIterator;
 160:Middlewares/Third_Party/FreeRTOS/Source/list.c **** 	pxIterator->pxNext = pxNewListItem;
 161:Middlewares/Third_Party/FreeRTOS/Source/list.c **** 
 162:Middlewares/Third_Party/FreeRTOS/Source/list.c **** 	/* Remember which list the item is in.  This allows fast removal of the
 163:Middlewares/Third_Party/FreeRTOS/Source/list.c **** 	item later. */
 164:Middlewares/Third_Party/FreeRTOS/Source/list.c **** 	pxNewListItem->pxContainer = pxList;
 165:Middlewares/Third_Party/FreeRTOS/Source/list.c **** 
 166:Middlewares/Third_Party/FreeRTOS/Source/list.c **** 	( pxList->uxNumberOfItems )++;
 204              		.loc 1 166 10 is_stmt 0 view .LVU61
 205 0016 0268     		ldr	r2, [r0]
 157:Middlewares/Third_Party/FreeRTOS/Source/list.c **** 	pxNewListItem->pxNext->pxPrevious = pxNewListItem;
 206              		.loc 1 157 24 view .LVU62
 207 0018 4B60     		str	r3, [r1, #4]
 158:Middlewares/Third_Party/FreeRTOS/Source/list.c **** 	pxNewListItem->pxNext->pxPrevious = pxNewListItem;
 208              		.loc 1 158 2 is_stmt 1 view .LVU63
 209              		.loc 1 166 29 is_stmt 0 view .LVU64
 210 001a 0132     		adds	r2, r2, #1
 158:Middlewares/Third_Party/FreeRTOS/Source/list.c **** 	pxNewListItem->pxNext->pxPrevious = pxNewListItem;
 211              		.loc 1 158 36 view .LVU65
 212 001c 9960     		str	r1, [r3, #8]
 159:Middlewares/Third_Party/FreeRTOS/Source/list.c **** 	pxIterator->pxNext = pxNewListItem;
 213              		.loc 1 159 2 is_stmt 1 view .LVU66
 159:Middlewares/Third_Party/FreeRTOS/Source/list.c **** 	pxIterator->pxNext = pxNewListItem;
 214              		.loc 1 159 28 is_stmt 0 view .LVU67
ARM GAS  /tmp/cc9uxjOc.s 			page 8


 215 001e 8C60     		str	r4, [r1, #8]
 160:Middlewares/Third_Party/FreeRTOS/Source/list.c **** 
 216              		.loc 1 160 2 is_stmt 1 view .LVU68
 160:Middlewares/Third_Party/FreeRTOS/Source/list.c **** 
 217              		.loc 1 160 21 is_stmt 0 view .LVU69
 218 0020 6160     		str	r1, [r4, #4]
 164:Middlewares/Third_Party/FreeRTOS/Source/list.c **** 
 219              		.loc 1 164 2 is_stmt 1 view .LVU70
 164:Middlewares/Third_Party/FreeRTOS/Source/list.c **** 
 220              		.loc 1 164 29 is_stmt 0 view .LVU71
 221 0022 0861     		str	r0, [r1, #16]
 222              		.loc 1 166 2 is_stmt 1 view .LVU72
 167:Middlewares/Third_Party/FreeRTOS/Source/list.c **** }
 223              		.loc 1 167 1 is_stmt 0 view .LVU73
 224 0024 30BC     		pop	{r4, r5}
 225              	.LCFI3:
 226              		.cfi_remember_state
 227              		.cfi_restore 5
 228              		.cfi_restore 4
 229              		.cfi_def_cfa_offset 0
 230              	.LVL8:
 166:Middlewares/Third_Party/FreeRTOS/Source/list.c **** }
 231              		.loc 1 166 29 view .LVU74
 232 0026 0260     		str	r2, [r0]
 233              		.loc 1 167 1 view .LVU75
 234 0028 7047     		bx	lr
 235              	.LVL9:
 236              	.L12:
 237              	.LCFI4:
 238              		.cfi_restore_state
 124:Middlewares/Third_Party/FreeRTOS/Source/list.c **** 	}
 239              		.loc 1 124 3 is_stmt 1 view .LVU76
 124:Middlewares/Third_Party/FreeRTOS/Source/list.c **** 	}
 240              		.loc 1 124 14 is_stmt 0 view .LVU77
 241 002a 0469     		ldr	r4, [r0, #16]
 242              	.LVL10:
 124:Middlewares/Third_Party/FreeRTOS/Source/list.c **** 	}
 243              		.loc 1 124 14 view .LVU78
 244 002c 6368     		ldr	r3, [r4, #4]
 245 002e F2E7     		b	.L8
 246              		.cfi_endproc
 247              	.LFE7:
 249              		.section	.text.uxListRemove,"ax",%progbits
 250              		.align	1
 251              		.p2align 2,,3
 252              		.global	uxListRemove
 253              		.syntax unified
 254              		.thumb
 255              		.thumb_func
 256              		.fpu fpv4-sp-d16
 258              	uxListRemove:
 259              	.LVL11:
 260              	.LFB8:
 168:Middlewares/Third_Party/FreeRTOS/Source/list.c **** /*-----------------------------------------------------------*/
 169:Middlewares/Third_Party/FreeRTOS/Source/list.c **** 
 170:Middlewares/Third_Party/FreeRTOS/Source/list.c **** UBaseType_t uxListRemove( ListItem_t * const pxItemToRemove )
 171:Middlewares/Third_Party/FreeRTOS/Source/list.c **** {
ARM GAS  /tmp/cc9uxjOc.s 			page 9


 261              		.loc 1 171 1 is_stmt 1 view -0
 262              		.cfi_startproc
 263              		@ args = 0, pretend = 0, frame = 0
 264              		@ frame_needed = 0, uses_anonymous_args = 0
 265              		@ link register save eliminated.
 172:Middlewares/Third_Party/FreeRTOS/Source/list.c **** /* The list item knows which list it is in.  Obtain the list from the list
 173:Middlewares/Third_Party/FreeRTOS/Source/list.c **** item. */
 174:Middlewares/Third_Party/FreeRTOS/Source/list.c **** List_t * const pxList = pxItemToRemove->pxContainer;
 266              		.loc 1 174 1 view .LVU80
 267              		.loc 1 174 16 is_stmt 0 view .LVU81
 268 0000 0369     		ldr	r3, [r0, #16]
 269              	.LVL12:
 175:Middlewares/Third_Party/FreeRTOS/Source/list.c **** 
 176:Middlewares/Third_Party/FreeRTOS/Source/list.c **** 	pxItemToRemove->pxNext->pxPrevious = pxItemToRemove->pxPrevious;
 270              		.loc 1 176 2 is_stmt 1 view .LVU82
 171:Middlewares/Third_Party/FreeRTOS/Source/list.c **** /* The list item knows which list it is in.  Obtain the list from the list
 271              		.loc 1 171 1 is_stmt 0 view .LVU83
 272 0002 10B4     		push	{r4}
 273              	.LCFI5:
 274              		.cfi_def_cfa_offset 4
 275              		.cfi_offset 4, -4
 276              		.loc 1 176 53 view .LVU84
 277 0004 D0E90112 		ldrd	r1, r2, [r0, #4]
 177:Middlewares/Third_Party/FreeRTOS/Source/list.c **** 	pxItemToRemove->pxPrevious->pxNext = pxItemToRemove->pxNext;
 178:Middlewares/Third_Party/FreeRTOS/Source/list.c **** 
 179:Middlewares/Third_Party/FreeRTOS/Source/list.c **** 	/* Only used during decision coverage testing. */
 180:Middlewares/Third_Party/FreeRTOS/Source/list.c **** 	mtCOVERAGE_TEST_DELAY();
 181:Middlewares/Third_Party/FreeRTOS/Source/list.c **** 
 182:Middlewares/Third_Party/FreeRTOS/Source/list.c **** 	/* Make sure the index is left pointing to a valid item. */
 183:Middlewares/Third_Party/FreeRTOS/Source/list.c **** 	if( pxList->pxIndex == pxItemToRemove )
 278              		.loc 1 183 4 view .LVU85
 279 0008 5C68     		ldr	r4, [r3, #4]
 176:Middlewares/Third_Party/FreeRTOS/Source/list.c **** 	pxItemToRemove->pxPrevious->pxNext = pxItemToRemove->pxNext;
 280              		.loc 1 176 37 view .LVU86
 281 000a 8A60     		str	r2, [r1, #8]
 177:Middlewares/Third_Party/FreeRTOS/Source/list.c **** 	pxItemToRemove->pxPrevious->pxNext = pxItemToRemove->pxNext;
 282              		.loc 1 177 2 is_stmt 1 view .LVU87
 283              		.loc 1 183 4 is_stmt 0 view .LVU88
 284 000c 8442     		cmp	r4, r0
 177:Middlewares/Third_Party/FreeRTOS/Source/list.c **** 	pxItemToRemove->pxPrevious->pxNext = pxItemToRemove->pxNext;
 285              		.loc 1 177 37 view .LVU89
 286 000e 5160     		str	r1, [r2, #4]
 180:Middlewares/Third_Party/FreeRTOS/Source/list.c **** 
 287              		.loc 1 180 25 is_stmt 1 view .LVU90
 288              		.loc 1 183 2 view .LVU91
 184:Middlewares/Third_Party/FreeRTOS/Source/list.c **** 	{
 185:Middlewares/Third_Party/FreeRTOS/Source/list.c **** 		pxList->pxIndex = pxItemToRemove->pxPrevious;
 289              		.loc 1 185 3 view .LVU92
 290              		.loc 1 185 19 is_stmt 0 view .LVU93
 291 0010 08BF     		it	eq
 292 0012 5A60     		streq	r2, [r3, #4]
 186:Middlewares/Third_Party/FreeRTOS/Source/list.c **** 	}
 187:Middlewares/Third_Party/FreeRTOS/Source/list.c **** 	else
 188:Middlewares/Third_Party/FreeRTOS/Source/list.c **** 	{
 189:Middlewares/Third_Party/FreeRTOS/Source/list.c **** 		mtCOVERAGE_TEST_MARKER();
 293              		.loc 1 189 27 is_stmt 1 view .LVU94
 190:Middlewares/Third_Party/FreeRTOS/Source/list.c **** 	}
ARM GAS  /tmp/cc9uxjOc.s 			page 10


 191:Middlewares/Third_Party/FreeRTOS/Source/list.c **** 
 192:Middlewares/Third_Party/FreeRTOS/Source/list.c **** 	pxItemToRemove->pxContainer = NULL;
 294              		.loc 1 192 2 view .LVU95
 193:Middlewares/Third_Party/FreeRTOS/Source/list.c **** 	( pxList->uxNumberOfItems )--;
 295              		.loc 1 193 10 is_stmt 0 view .LVU96
 296 0014 1A68     		ldr	r2, [r3]
 194:Middlewares/Third_Party/FreeRTOS/Source/list.c **** 
 195:Middlewares/Third_Party/FreeRTOS/Source/list.c **** 	return pxList->uxNumberOfItems;
 196:Middlewares/Third_Party/FreeRTOS/Source/list.c **** }
 297              		.loc 1 196 1 view .LVU97
 298 0016 5DF8044B 		ldr	r4, [sp], #4
 299              	.LCFI6:
 300              		.cfi_restore 4
 301              		.cfi_def_cfa_offset 0
 192:Middlewares/Third_Party/FreeRTOS/Source/list.c **** 	( pxList->uxNumberOfItems )--;
 302              		.loc 1 192 30 view .LVU98
 303 001a 0021     		movs	r1, #0
 193:Middlewares/Third_Party/FreeRTOS/Source/list.c **** 	( pxList->uxNumberOfItems )--;
 304              		.loc 1 193 29 view .LVU99
 305 001c 013A     		subs	r2, r2, #1
 192:Middlewares/Third_Party/FreeRTOS/Source/list.c **** 	( pxList->uxNumberOfItems )--;
 306              		.loc 1 192 30 view .LVU100
 307 001e 0161     		str	r1, [r0, #16]
 193:Middlewares/Third_Party/FreeRTOS/Source/list.c **** 	( pxList->uxNumberOfItems )--;
 308              		.loc 1 193 2 is_stmt 1 view .LVU101
 193:Middlewares/Third_Party/FreeRTOS/Source/list.c **** 	( pxList->uxNumberOfItems )--;
 309              		.loc 1 193 29 is_stmt 0 view .LVU102
 310 0020 1A60     		str	r2, [r3]
 195:Middlewares/Third_Party/FreeRTOS/Source/list.c **** }
 311              		.loc 1 195 2 is_stmt 1 view .LVU103
 195:Middlewares/Third_Party/FreeRTOS/Source/list.c **** }
 312              		.loc 1 195 15 is_stmt 0 view .LVU104
 313 0022 1868     		ldr	r0, [r3]
 314              	.LVL13:
 315              		.loc 1 196 1 view .LVU105
 316 0024 7047     		bx	lr
 317              		.cfi_endproc
 318              	.LFE8:
 320 0026 00BF     		.text
 321              	.Letext0:
 322              		.file 2 "/usr/lib/gcc/arm-none-eabi/9.2.1/include/stddef.h"
 323              		.file 3 "/usr/include/newlib/sys/_types.h"
 324              		.file 4 "/usr/include/newlib/sys/reent.h"
 325              		.file 5 "/usr/include/newlib/sys/lock.h"
 326              		.file 6 "/usr/include/newlib/stdlib.h"
 327              		.file 7 "/usr/lib/gcc/arm-none-eabi/9.2.1/include/stdint.h"
 328              		.file 8 "Core/Inc/FreeRTOSConfig.h"
 329              		.file 9 "Middlewares/Third_Party/FreeRTOS/Source/portable/GCC/ARM_CM4F/portmacro.h"
 330              		.file 10 "Middlewares/Third_Party/FreeRTOS/Source/include/list.h"
ARM GAS  /tmp/cc9uxjOc.s 			page 11

