Archive member included to satisfy reference by file (symbol)

/usr/lib/gcc/arm-none-eabi/9.2.1/../../../arm-none-eabi/lib/thumb/v7e-m+fp/hard/libc.a(lib_a-atexit.o)
                              /usr/lib/gcc/arm-none-eabi/9.2.1/../../../arm-none-eabi/lib/thumb/v7e-m+fp/hard/crt0.o (atexit)
/usr/lib/gcc/arm-none-eabi/9.2.1/../../../arm-none-eabi/lib/thumb/v7e-m+fp/hard/libc.a(lib_a-exit.o)
                              /usr/lib/gcc/arm-none-eabi/9.2.1/../../../arm-none-eabi/lib/thumb/v7e-m+fp/hard/crt0.o (exit)
/usr/lib/gcc/arm-none-eabi/9.2.1/../../../arm-none-eabi/lib/thumb/v7e-m+fp/hard/libc.a(lib_a-fini.o)
                              /usr/lib/gcc/arm-none-eabi/9.2.1/../../../arm-none-eabi/lib/thumb/v7e-m+fp/hard/crt0.o (__libc_fini_array)
/usr/lib/gcc/arm-none-eabi/9.2.1/../../../arm-none-eabi/lib/thumb/v7e-m+fp/hard/libc.a(lib_a-impure.o)
                              /usr/lib/gcc/arm-none-eabi/9.2.1/../../../arm-none-eabi/lib/thumb/v7e-m+fp/hard/libc.a(lib_a-exit.o) (_global_impure_ptr)
/usr/lib/gcc/arm-none-eabi/9.2.1/../../../arm-none-eabi/lib/thumb/v7e-m+fp/hard/libc.a(lib_a-init.o)
                              /usr/lib/gcc/arm-none-eabi/9.2.1/../../../arm-none-eabi/lib/thumb/v7e-m+fp/hard/crt0.o (__libc_init_array)
/usr/lib/gcc/arm-none-eabi/9.2.1/../../../arm-none-eabi/lib/thumb/v7e-m+fp/hard/libc.a(lib_a-memcpy.o)
                              build/queue.o (memcpy)
/usr/lib/gcc/arm-none-eabi/9.2.1/../../../arm-none-eabi/lib/thumb/v7e-m+fp/hard/libc.a(lib_a-memset.o)
                              /usr/lib/gcc/arm-none-eabi/9.2.1/../../../arm-none-eabi/lib/thumb/v7e-m+fp/hard/crt0.o (memset)
/usr/lib/gcc/arm-none-eabi/9.2.1/../../../arm-none-eabi/lib/thumb/v7e-m+fp/hard/libc.a(lib_a-__atexit.o)
                              /usr/lib/gcc/arm-none-eabi/9.2.1/../../../arm-none-eabi/lib/thumb/v7e-m+fp/hard/libc.a(lib_a-atexit.o) (__register_exitproc)
/usr/lib/gcc/arm-none-eabi/9.2.1/../../../arm-none-eabi/lib/thumb/v7e-m+fp/hard/libc.a(lib_a-__call_atexit.o)
                              /usr/lib/gcc/arm-none-eabi/9.2.1/../../../arm-none-eabi/lib/thumb/v7e-m+fp/hard/libc.a(lib_a-exit.o) (__call_exitprocs)
/usr/lib/gcc/arm-none-eabi/9.2.1/../../../arm-none-eabi/lib/thumb/v7e-m+fp/hard/libnosys.a(_exit.o)
                              /usr/lib/gcc/arm-none-eabi/9.2.1/../../../arm-none-eabi/lib/thumb/v7e-m+fp/hard/libc.a(lib_a-exit.o) (_exit)
/usr/lib/gcc/arm-none-eabi/9.2.1/thumb/v7e-m+fp/hard/libgcc.a(unwind-arm.o)
                              build/main.o (__aeabi_unwind_cpp_pr0)
/usr/lib/gcc/arm-none-eabi/9.2.1/thumb/v7e-m+fp/hard/libgcc.a(libunwind.o)
                              /usr/lib/gcc/arm-none-eabi/9.2.1/thumb/v7e-m+fp/hard/libgcc.a(unwind-arm.o) (restore_core_regs)
/usr/lib/gcc/arm-none-eabi/9.2.1/thumb/v7e-m+fp/hard/libgcc.a(pr-support.o)
                              /usr/lib/gcc/arm-none-eabi/9.2.1/thumb/v7e-m+fp/hard/libgcc.a(unwind-arm.o) (__gnu_unwind_execute)
/usr/lib/gcc/arm-none-eabi/9.2.1/../../../arm-none-eabi/lib/thumb/v7e-m+fp/hard/libc.a(lib_a-abort.o)
                              /usr/lib/gcc/arm-none-eabi/9.2.1/thumb/v7e-m+fp/hard/libgcc.a(unwind-arm.o) (abort)
/usr/lib/gcc/arm-none-eabi/9.2.1/../../../arm-none-eabi/lib/thumb/v7e-m+fp/hard/libc.a(lib_a-signal.o)
                              /usr/lib/gcc/arm-none-eabi/9.2.1/../../../arm-none-eabi/lib/thumb/v7e-m+fp/hard/libc.a(lib_a-abort.o) (raise)
/usr/lib/gcc/arm-none-eabi/9.2.1/../../../arm-none-eabi/lib/thumb/v7e-m+fp/hard/libc.a(lib_a-signalr.o)
                              /usr/lib/gcc/arm-none-eabi/9.2.1/../../../arm-none-eabi/lib/thumb/v7e-m+fp/hard/libc.a(lib_a-signal.o) (_kill_r)
/usr/lib/gcc/arm-none-eabi/9.2.1/../../../arm-none-eabi/lib/thumb/v7e-m+fp/hard/libc.a(lib_a-mallocr.o)
                              /usr/lib/gcc/arm-none-eabi/9.2.1/../../../arm-none-eabi/lib/thumb/v7e-m+fp/hard/libc.a(lib_a-signal.o) (_malloc_r)
/usr/lib/gcc/arm-none-eabi/9.2.1/../../../arm-none-eabi/lib/thumb/v7e-m+fp/hard/libc.a(lib_a-mlock.o)
                              /usr/lib/gcc/arm-none-eabi/9.2.1/../../../arm-none-eabi/lib/thumb/v7e-m+fp/hard/libc.a(lib_a-mallocr.o) (__malloc_lock)
/usr/lib/gcc/arm-none-eabi/9.2.1/../../../arm-none-eabi/lib/thumb/v7e-m+fp/hard/libc.a(lib_a-reent.o)
                              /usr/lib/gcc/arm-none-eabi/9.2.1/../../../arm-none-eabi/lib/thumb/v7e-m+fp/hard/libc.a(lib_a-signalr.o) (errno)
/usr/lib/gcc/arm-none-eabi/9.2.1/../../../arm-none-eabi/lib/thumb/v7e-m+fp/hard/libc.a(lib_a-sbrkr.o)
                              /usr/lib/gcc/arm-none-eabi/9.2.1/../../../arm-none-eabi/lib/thumb/v7e-m+fp/hard/libc.a(lib_a-mallocr.o) (_sbrk_r)
/usr/lib/gcc/arm-none-eabi/9.2.1/../../../arm-none-eabi/lib/thumb/v7e-m+fp/hard/libc.a(lib_a-freer.o)
                              /usr/lib/gcc/arm-none-eabi/9.2.1/../../../arm-none-eabi/lib/thumb/v7e-m+fp/hard/libc.a(lib_a-mallocr.o) (_free_r)
/usr/lib/gcc/arm-none-eabi/9.2.1/../../../arm-none-eabi/lib/thumb/v7e-m+fp/hard/libnosys.a(getpid.o)
                              /usr/lib/gcc/arm-none-eabi/9.2.1/../../../arm-none-eabi/lib/thumb/v7e-m+fp/hard/libc.a(lib_a-signalr.o) (_getpid)
/usr/lib/gcc/arm-none-eabi/9.2.1/../../../arm-none-eabi/lib/thumb/v7e-m+fp/hard/libnosys.a(kill.o)
                              /usr/lib/gcc/arm-none-eabi/9.2.1/../../../arm-none-eabi/lib/thumb/v7e-m+fp/hard/libc.a(lib_a-signalr.o) (_kill)
/usr/lib/gcc/arm-none-eabi/9.2.1/../../../arm-none-eabi/lib/thumb/v7e-m+fp/hard/libnosys.a(sbrk.o)
                              /usr/lib/gcc/arm-none-eabi/9.2.1/../../../arm-none-eabi/lib/thumb/v7e-m+fp/hard/libc.a(lib_a-sbrkr.o) (_sbrk)

Allocating common symbols
Common symbol       size              file

defaultTaskHandle   0x4               build/app_freertos.o
hspi2               0x64              build/spi.o
htim8               0x4c              build/tim.o
errno               0x4               /usr/lib/gcc/arm-none-eabi/9.2.1/../../../arm-none-eabi/lib/thumb/v7e-m+fp/hard/libc.a(lib_a-reent.o)
hadc2               0x6c              build/adc.o
hadc5               0x6c              build/adc.o
hfdcan3             0x64              build/fdcan.o
uwTick              0x4               build/stm32g4xx_hal.o
xQueueRegistry      0x40              build/queue.o
hadc1               0x6c              build/adc.o
hadc3               0x6c              build/adc.o
htim6               0x4c              build/stm32g4xx_hal_timebase_tim.o
controlTaskHandle   0x4               build/app_freertos.o
hspi1               0x64              build/spi.o
htim2               0x4c              build/tim.o
hadc4               0x6c              build/adc.o
commsTaskHandle     0x4               build/app_freertos.o

Discarded input sections

 .text          0x0000000000000000        0x0 /usr/lib/gcc/arm-none-eabi/9.2.1/thumb/v7e-m+fp/hard/crti.o
 .data          0x0000000000000000        0x0 /usr/lib/gcc/arm-none-eabi/9.2.1/thumb/v7e-m+fp/hard/crti.o
 .bss           0x0000000000000000        0x0 /usr/lib/gcc/arm-none-eabi/9.2.1/thumb/v7e-m+fp/hard/crti.o
 .data          0x0000000000000000        0x4 /usr/lib/gcc/arm-none-eabi/9.2.1/thumb/v7e-m+fp/hard/crtbegin.o
 .text          0x0000000000000000       0x70 /usr/lib/gcc/arm-none-eabi/9.2.1/../../../arm-none-eabi/lib/thumb/v7e-m+fp/hard/crt0.o
 .data          0x0000000000000000        0x0 /usr/lib/gcc/arm-none-eabi/9.2.1/../../../arm-none-eabi/lib/thumb/v7e-m+fp/hard/crt0.o
 .bss           0x0000000000000000        0x0 /usr/lib/gcc/arm-none-eabi/9.2.1/../../../arm-none-eabi/lib/thumb/v7e-m+fp/hard/crt0.o
 .ARM.extab     0x0000000000000000        0x0 /usr/lib/gcc/arm-none-eabi/9.2.1/../../../arm-none-eabi/lib/thumb/v7e-m+fp/hard/crt0.o
 .ARM.exidx     0x0000000000000000       0x10 /usr/lib/gcc/arm-none-eabi/9.2.1/../../../arm-none-eabi/lib/thumb/v7e-m+fp/hard/crt0.o
 .debug_line    0x0000000000000000       0x87 /usr/lib/gcc/arm-none-eabi/9.2.1/../../../arm-none-eabi/lib/thumb/v7e-m+fp/hard/crt0.o
 .debug_info    0x0000000000000000       0x26 /usr/lib/gcc/arm-none-eabi/9.2.1/../../../arm-none-eabi/lib/thumb/v7e-m+fp/hard/crt0.o
 .debug_abbrev  0x0000000000000000       0x14 /usr/lib/gcc/arm-none-eabi/9.2.1/../../../arm-none-eabi/lib/thumb/v7e-m+fp/hard/crt0.o
 .debug_aranges
                0x0000000000000000       0x20 /usr/lib/gcc/arm-none-eabi/9.2.1/../../../arm-none-eabi/lib/thumb/v7e-m+fp/hard/crt0.o
 .debug_str     0x0000000000000000       0x98 /usr/lib/gcc/arm-none-eabi/9.2.1/../../../arm-none-eabi/lib/thumb/v7e-m+fp/hard/crt0.o
 .ARM.attributes
                0x0000000000000000       0x1c /usr/lib/gcc/arm-none-eabi/9.2.1/../../../arm-none-eabi/lib/thumb/v7e-m+fp/hard/crt0.o
 .text          0x0000000000000000        0x0 build/main.o
 .data          0x0000000000000000        0x0 build/main.o
 .bss           0x0000000000000000        0x0 build/main.o
 .ARM.extab.text.SystemClock_Config
                0x0000000000000000        0x0 build/main.o
 .ARM.extab.text.HAL_TIM_PeriodElapsedCallback
                0x0000000000000000        0x0 build/main.o
 .ARM.extab.text.Error_Handler
                0x0000000000000000        0x0 build/main.o
 .text          0x0000000000000000        0x0 build/SerialHandler.o
 .data          0x0000000000000000        0x0 build/SerialHandler.o
 .bss           0x0000000000000000        0x0 build/SerialHandler.o
 .ARM.extab.text.comms_thread_entry
                0x0000000000000000        0x0 build/SerialHandler.o
 .text          0x0000000000000000        0x0 build/gpio.o
 .data          0x0000000000000000        0x0 build/gpio.o
 .bss           0x0000000000000000        0x0 build/gpio.o
 .text          0x0000000000000000        0x0 build/app_freertos.o
 .data          0x0000000000000000        0x0 build/app_freertos.o
 .bss           0x0000000000000000        0x0 build/app_freertos.o
 .text          0x0000000000000000        0x0 build/adc.o
 .data          0x0000000000000000        0x0 build/adc.o
 .bss           0x0000000000000000        0x0 build/adc.o
 .text.HAL_ADC_MspDeInit
                0x0000000000000000       0xd8 build/adc.o
 .text          0x0000000000000000        0x0 build/cordic.o
 .data          0x0000000000000000        0x0 build/cordic.o
 .bss           0x0000000000000000        0x0 build/cordic.o
 .text          0x0000000000000000        0x0 build/dma.o
 .data          0x0000000000000000        0x0 build/dma.o
 .bss           0x0000000000000000        0x0 build/dma.o
 .text          0x0000000000000000        0x0 build/fdcan.o
 .data          0x0000000000000000        0x0 build/fdcan.o
 .bss           0x0000000000000000        0x0 build/fdcan.o
 .text.HAL_FDCAN_MspDeInit
                0x0000000000000000       0x28 build/fdcan.o
 .text          0x0000000000000000        0x0 build/fmac.o
 .data          0x0000000000000000        0x0 build/fmac.o
 .bss           0x0000000000000000        0x0 build/fmac.o
 .text          0x0000000000000000        0x0 build/spi.o
 .data          0x0000000000000000        0x0 build/spi.o
 .bss           0x0000000000000000        0x0 build/spi.o
 .text.HAL_SPI_MspDeInit
                0x0000000000000000       0x60 build/spi.o
 .text          0x0000000000000000        0x0 build/tim.o
 .data          0x0000000000000000        0x0 build/tim.o
 .bss           0x0000000000000000        0x0 build/tim.o
 .text.HAL_TIM_Encoder_MspDeInit
                0x0000000000000000       0x24 build/tim.o
 .text.HAL_TIM_Base_MspDeInit
                0x0000000000000000       0x20 build/tim.o
 .text          0x0000000000000000        0x0 build/usart.o
 .data          0x0000000000000000        0x0 build/usart.o
 .bss           0x0000000000000000        0x0 build/usart.o
 .text          0x0000000000000000        0x0 build/stm32g4xx_it.o
 .data          0x0000000000000000        0x0 build/stm32g4xx_it.o
 .bss           0x0000000000000000        0x0 build/stm32g4xx_it.o
 .text          0x0000000000000000        0x0 build/stm32g4xx_hal_msp.o
 .data          0x0000000000000000        0x0 build/stm32g4xx_hal_msp.o
 .bss           0x0000000000000000        0x0 build/stm32g4xx_hal_msp.o
 .text          0x0000000000000000        0x0 build/stm32g4xx_hal_timebase_tim.o
 .data          0x0000000000000000        0x0 build/stm32g4xx_hal_timebase_tim.o
 .bss           0x0000000000000000        0x0 build/stm32g4xx_hal_timebase_tim.o
 .text.HAL_SuspendTick
                0x0000000000000000       0x14 build/stm32g4xx_hal_timebase_tim.o
 .text.HAL_ResumeTick
                0x0000000000000000       0x14 build/stm32g4xx_hal_timebase_tim.o
 .text          0x0000000000000000        0x0 build/stm32g4xx_ll_utils.o
 .data          0x0000000000000000        0x0 build/stm32g4xx_ll_utils.o
 .bss           0x0000000000000000        0x0 build/stm32g4xx_ll_utils.o
 .text.LL_SetFlashLatency.part.0
                0x0000000000000000       0xc8 build/stm32g4xx_ll_utils.o
 .text.UTILS_EnablePLLAndSwitchSystem
                0x0000000000000000       0xb8 build/stm32g4xx_ll_utils.o
 .text.LL_Init1msTick
                0x0000000000000000       0x20 build/stm32g4xx_ll_utils.o
 .text.LL_mDelay
                0x0000000000000000       0x2c build/stm32g4xx_ll_utils.o
 .text.LL_SetFlashLatency
                0x0000000000000000       0x14 build/stm32g4xx_ll_utils.o
 .text.LL_PLL_ConfigSystemClock_HSI
                0x0000000000000000       0xcc build/stm32g4xx_ll_utils.o
 .text.LL_PLL_ConfigSystemClock_HSE
                0x0000000000000000       0xd0 build/stm32g4xx_ll_utils.o
 .text          0x0000000000000000        0x0 build/stm32g4xx_ll_exti.o
 .data          0x0000000000000000        0x0 build/stm32g4xx_ll_exti.o
 .bss           0x0000000000000000        0x0 build/stm32g4xx_ll_exti.o
 .text.LL_EXTI_DeInit
                0x0000000000000000       0x3c build/stm32g4xx_ll_exti.o
 .text.LL_EXTI_Init
                0x0000000000000000      0x16c build/stm32g4xx_ll_exti.o
 .text.LL_EXTI_StructInit
                0x0000000000000000       0x10 build/stm32g4xx_ll_exti.o
 .debug_info    0x0000000000000000      0xa38 build/stm32g4xx_ll_exti.o
 .debug_abbrev  0x0000000000000000      0x24d build/stm32g4xx_ll_exti.o
 .debug_loc     0x0000000000000000      0x401 build/stm32g4xx_ll_exti.o
 .debug_aranges
                0x0000000000000000       0x30 build/stm32g4xx_ll_exti.o
 .debug_ranges  0x0000000000000000       0x50 build/stm32g4xx_ll_exti.o
 .debug_line    0x0000000000000000      0x52e build/stm32g4xx_ll_exti.o
 .debug_str     0x0000000000000000      0x698 build/stm32g4xx_ll_exti.o
 .comment       0x0000000000000000       0x5a build/stm32g4xx_ll_exti.o
 .debug_frame   0x0000000000000000       0x64 build/stm32g4xx_ll_exti.o
 .ARM.attributes
                0x0000000000000000       0x34 build/stm32g4xx_ll_exti.o
 .text          0x0000000000000000        0x0 build/stm32g4xx_ll_gpio.o
 .data          0x0000000000000000        0x0 build/stm32g4xx_ll_gpio.o
 .bss           0x0000000000000000        0x0 build/stm32g4xx_ll_gpio.o
 .text.LL_GPIO_DeInit
                0x0000000000000000      0x108 build/stm32g4xx_ll_gpio.o
 .text.LL_GPIO_StructInit
                0x0000000000000000       0x14 build/stm32g4xx_ll_gpio.o
 .text          0x0000000000000000        0x0 build/stm32g4xx_hal_adc.o
 .data          0x0000000000000000        0x0 build/stm32g4xx_hal_adc.o
 .bss           0x0000000000000000        0x0 build/stm32g4xx_hal_adc.o
 .text.HAL_ADC_MspInit
                0x0000000000000000        0x4 build/stm32g4xx_hal_adc.o
 .text.HAL_ADC_MspDeInit
                0x0000000000000000        0x4 build/stm32g4xx_hal_adc.o
 .text.HAL_ADC_PollForConversion
                0x0000000000000000      0x134 build/stm32g4xx_hal_adc.o
 .text.HAL_ADC_PollForEvent
                0x0000000000000000       0xc8 build/stm32g4xx_hal_adc.o
 .text.HAL_ADC_GetValue
                0x0000000000000000        0x8 build/stm32g4xx_hal_adc.o
 .text.HAL_ADC_StartSampling
                0x0000000000000000       0x10 build/stm32g4xx_hal_adc.o
 .text.HAL_ADC_StopSampling
                0x0000000000000000       0x10 build/stm32g4xx_hal_adc.o
 .text.HAL_ADC_ConvCpltCallback
                0x0000000000000000        0x4 build/stm32g4xx_hal_adc.o
 .text.HAL_ADC_ConvHalfCpltCallback
                0x0000000000000000        0x4 build/stm32g4xx_hal_adc.o
 .text.ADC_DMAHalfConvCplt
                0x0000000000000000        0xc build/stm32g4xx_hal_adc.o
 .text.HAL_ADC_LevelOutOfWindowCallback
                0x0000000000000000        0x4 build/stm32g4xx_hal_adc.o
 .text.HAL_ADC_ErrorCallback
                0x0000000000000000        0x4 build/stm32g4xx_hal_adc.o
 .text.HAL_ADC_IRQHandler
                0x0000000000000000      0x2a4 build/stm32g4xx_hal_adc.o
 .text.ADC_DMAConvCplt
                0x0000000000000000       0x6c build/stm32g4xx_hal_adc.o
 .text.ADC_DMAError
                0x0000000000000000       0x1c build/stm32g4xx_hal_adc.o
 .text.HAL_ADC_AnalogWDGConfig
                0x0000000000000000      0x2f4 build/stm32g4xx_hal_adc.o
 .text.HAL_ADC_GetState
                0x0000000000000000        0x4 build/stm32g4xx_hal_adc.o
 .text.HAL_ADC_GetError
                0x0000000000000000        0x4 build/stm32g4xx_hal_adc.o
 .text.ADC_ConversionStop
                0x0000000000000000      0x100 build/stm32g4xx_hal_adc.o
 .text.ADC_Enable
                0x0000000000000000       0x70 build/stm32g4xx_hal_adc.o
 .text.HAL_ADC_Start
                0x0000000000000000      0x108 build/stm32g4xx_hal_adc.o
 .text.HAL_ADC_Start_IT
                0x0000000000000000      0x178 build/stm32g4xx_hal_adc.o
 .text.HAL_ADC_Start_DMA
                0x0000000000000000      0x11c build/stm32g4xx_hal_adc.o
 .text.ADC_Disable
                0x0000000000000000       0x68 build/stm32g4xx_hal_adc.o
 .text.HAL_ADC_DeInit
                0x0000000000000000      0x1a8 build/stm32g4xx_hal_adc.o
 .text.HAL_ADC_Stop
                0x0000000000000000       0x48 build/stm32g4xx_hal_adc.o
 .text.HAL_ADC_Stop_IT
                0x0000000000000000       0x54 build/stm32g4xx_hal_adc.o
 .text.HAL_ADC_Stop_DMA
                0x0000000000000000       0x90 build/stm32g4xx_hal_adc.o
 .text          0x0000000000000000        0x0 build/stm32g4xx_hal_adc_ex.o
 .data          0x0000000000000000        0x0 build/stm32g4xx_hal_adc_ex.o
 .bss           0x0000000000000000        0x0 build/stm32g4xx_hal_adc_ex.o
 .text.HAL_ADCEx_Calibration_Start
                0x0000000000000000       0x9c build/stm32g4xx_hal_adc_ex.o
 .text.HAL_ADCEx_Calibration_GetValue
                0x0000000000000000       0x18 build/stm32g4xx_hal_adc_ex.o
 .text.HAL_ADCEx_Calibration_SetValue
                0x0000000000000000       0x78 build/stm32g4xx_hal_adc_ex.o
 .text.HAL_ADCEx_InjectedStart
                0x0000000000000000       0xfc build/stm32g4xx_hal_adc_ex.o
 .text.HAL_ADCEx_InjectedStop
                0x0000000000000000       0x58 build/stm32g4xx_hal_adc_ex.o
 .text.HAL_ADCEx_InjectedPollForConversion
                0x0000000000000000      0x104 build/stm32g4xx_hal_adc_ex.o
 .text.HAL_ADCEx_InjectedStart_IT
                0x0000000000000000      0x130 build/stm32g4xx_hal_adc_ex.o
 .text.HAL_ADCEx_InjectedStop_IT
                0x0000000000000000       0x60 build/stm32g4xx_hal_adc_ex.o
 .text.HAL_ADCEx_MultiModeStart_DMA
                0x0000000000000000      0x100 build/stm32g4xx_hal_adc_ex.o
 .text.HAL_ADCEx_MultiModeStop_DMA
                0x0000000000000000      0x100 build/stm32g4xx_hal_adc_ex.o
 .text.HAL_ADCEx_MultiModeGetValue
                0x0000000000000000       0x2c build/stm32g4xx_hal_adc_ex.o
 .text.HAL_ADCEx_InjectedGetValue
                0x0000000000000000       0x38 build/stm32g4xx_hal_adc_ex.o
 .text.HAL_ADCEx_InjectedConvCpltCallback
                0x0000000000000000        0x4 build/stm32g4xx_hal_adc_ex.o
 .text.HAL_ADCEx_InjectedQueueOverflowCallback
                0x0000000000000000        0x4 build/stm32g4xx_hal_adc_ex.o
 .text.HAL_ADCEx_LevelOutOfWindow2Callback
                0x0000000000000000        0x4 build/stm32g4xx_hal_adc_ex.o
 .text.HAL_ADCEx_LevelOutOfWindow3Callback
                0x0000000000000000        0x4 build/stm32g4xx_hal_adc_ex.o
 .text.HAL_ADCEx_EndOfSamplingCallback
                0x0000000000000000        0x4 build/stm32g4xx_hal_adc_ex.o
 .text.HAL_ADCEx_RegularStop
                0x0000000000000000       0x5c build/stm32g4xx_hal_adc_ex.o
 .text.HAL_ADCEx_RegularStop_IT
                0x0000000000000000       0x64 build/stm32g4xx_hal_adc_ex.o
 .text.HAL_ADCEx_RegularStop_DMA
                0x0000000000000000       0xa0 build/stm32g4xx_hal_adc_ex.o
 .text.HAL_ADCEx_RegularMultiModeStop_DMA
                0x0000000000000000      0x110 build/stm32g4xx_hal_adc_ex.o
 .text.HAL_ADCEx_InjectedConfigChannel
                0x0000000000000000      0x654 build/stm32g4xx_hal_adc_ex.o
 .text.HAL_ADCEx_EnableInjectedQueue
                0x0000000000000000       0x2c build/stm32g4xx_hal_adc_ex.o
 .text.HAL_ADCEx_DisableInjectedQueue
                0x0000000000000000       0x28 build/stm32g4xx_hal_adc_ex.o
 .text.HAL_ADCEx_DisableVoltageRegulator
                0x0000000000000000       0x1c build/stm32g4xx_hal_adc_ex.o
 .text.HAL_ADCEx_EnterADCDeepPowerDownMode
                0x0000000000000000       0x20 build/stm32g4xx_hal_adc_ex.o
 .text          0x0000000000000000        0x0 build/stm32g4xx_ll_adc.o
 .data          0x0000000000000000        0x0 build/stm32g4xx_ll_adc.o
 .bss           0x0000000000000000        0x0 build/stm32g4xx_ll_adc.o
 .text.LL_ADC_CommonDeInit
                0x0000000000000000       0x38 build/stm32g4xx_ll_adc.o
 .text.LL_ADC_CommonInit
                0x0000000000000000       0x80 build/stm32g4xx_ll_adc.o
 .text.LL_ADC_CommonStructInit
                0x0000000000000000       0x10 build/stm32g4xx_ll_adc.o
 .text.LL_ADC_DeInit
                0x0000000000000000      0x1fc build/stm32g4xx_ll_adc.o
 .text.LL_ADC_Init
                0x0000000000000000       0x30 build/stm32g4xx_ll_adc.o
 .text.LL_ADC_StructInit
                0x0000000000000000        0xc build/stm32g4xx_ll_adc.o
 .text.LL_ADC_REG_Init
                0x0000000000000000       0x5c build/stm32g4xx_ll_adc.o
 .text.LL_ADC_REG_StructInit
                0x0000000000000000       0x14 build/stm32g4xx_ll_adc.o
 .text.LL_ADC_INJ_Init
                0x0000000000000000       0x48 build/stm32g4xx_ll_adc.o
 .text.LL_ADC_INJ_StructInit
                0x0000000000000000        0xc build/stm32g4xx_ll_adc.o
 .debug_info    0x0000000000000000     0x127f build/stm32g4xx_ll_adc.o
 .debug_abbrev  0x0000000000000000      0x265 build/stm32g4xx_ll_adc.o
 .debug_loc     0x0000000000000000      0x80d build/stm32g4xx_ll_adc.o
 .debug_aranges
                0x0000000000000000       0x68 build/stm32g4xx_ll_adc.o
 .debug_ranges  0x0000000000000000      0x180 build/stm32g4xx_ll_adc.o
 .debug_line    0x0000000000000000      0x7b1 build/stm32g4xx_ll_adc.o
 .debug_str     0x0000000000000000      0x9cf build/stm32g4xx_ll_adc.o
 .comment       0x0000000000000000       0x5a build/stm32g4xx_ll_adc.o
 .debug_frame   0x0000000000000000      0x134 build/stm32g4xx_ll_adc.o
 .ARM.attributes
                0x0000000000000000       0x34 build/stm32g4xx_ll_adc.o
 .text          0x0000000000000000        0x0 build/stm32g4xx_hal_gpio.o
 .data          0x0000000000000000        0x0 build/stm32g4xx_hal_gpio.o
 .bss           0x0000000000000000        0x0 build/stm32g4xx_hal_gpio.o
 .text.HAL_GPIO_DeInit
                0x0000000000000000      0x138 build/stm32g4xx_hal_gpio.o
 .text.HAL_GPIO_ReadPin
                0x0000000000000000        0xc build/stm32g4xx_hal_gpio.o
 .text.HAL_GPIO_WritePin
                0x0000000000000000        0xc build/stm32g4xx_hal_gpio.o
 .text.HAL_GPIO_TogglePin
                0x0000000000000000       0x14 build/stm32g4xx_hal_gpio.o
 .text.HAL_GPIO_LockPin
                0x0000000000000000       0x2c build/stm32g4xx_hal_gpio.o
 .text.HAL_GPIO_EXTI_Callback
                0x0000000000000000        0x4 build/stm32g4xx_hal_gpio.o
 .text.HAL_GPIO_EXTI_IRQHandler
                0x0000000000000000       0x18 build/stm32g4xx_hal_gpio.o
 .text          0x0000000000000000        0x0 build/stm32g4xx_hal.o
 .data          0x0000000000000000        0x0 build/stm32g4xx_hal.o
 .bss           0x0000000000000000        0x0 build/stm32g4xx_hal.o
 .text.HAL_MspInit
                0x0000000000000000        0x4 build/stm32g4xx_hal.o
 .text.HAL_MspDeInit
                0x0000000000000000        0x4 build/stm32g4xx_hal.o
 .text.HAL_DeInit
                0x0000000000000000       0x2c build/stm32g4xx_hal.o
 .text.HAL_InitTick
                0x0000000000000000       0x4c build/stm32g4xx_hal.o
 .text.HAL_GetTickPrio
                0x0000000000000000        0xc build/stm32g4xx_hal.o
 .text.HAL_SetTickFreq
                0x0000000000000000       0x28 build/stm32g4xx_hal.o
 .text.HAL_GetTickFreq
                0x0000000000000000        0xc build/stm32g4xx_hal.o
 .text.HAL_Delay
                0x0000000000000000       0x24 build/stm32g4xx_hal.o
 .text.HAL_SuspendTick
                0x0000000000000000       0x10 build/stm32g4xx_hal.o
 .text.HAL_ResumeTick
                0x0000000000000000       0x10 build/stm32g4xx_hal.o
 .text.HAL_GetHalVersion
                0x0000000000000000        0x8 build/stm32g4xx_hal.o
 .text.HAL_GetREVID
                0x0000000000000000        0xc build/stm32g4xx_hal.o
 .text.HAL_GetDEVID
                0x0000000000000000       0x10 build/stm32g4xx_hal.o
 .text.HAL_DBGMCU_EnableDBGSleepMode
                0x0000000000000000       0x10 build/stm32g4xx_hal.o
 .text.HAL_DBGMCU_DisableDBGSleepMode
                0x0000000000000000       0x10 build/stm32g4xx_hal.o
 .text.HAL_DBGMCU_EnableDBGStopMode
                0x0000000000000000       0x10 build/stm32g4xx_hal.o
 .text.HAL_DBGMCU_DisableDBGStopMode
                0x0000000000000000       0x10 build/stm32g4xx_hal.o
 .text.HAL_DBGMCU_EnableDBGStandbyMode
                0x0000000000000000       0x10 build/stm32g4xx_hal.o
 .text.HAL_DBGMCU_DisableDBGStandbyMode
                0x0000000000000000       0x10 build/stm32g4xx_hal.o
 .text.HAL_SYSCFG_CCMSRAMErase
                0x0000000000000000       0x18 build/stm32g4xx_hal.o
 .text.HAL_SYSCFG_EnableMemorySwappingBank
                0x0000000000000000       0x10 build/stm32g4xx_hal.o
 .text.HAL_SYSCFG_DisableMemorySwappingBank
                0x0000000000000000       0x10 build/stm32g4xx_hal.o
 .text.HAL_SYSCFG_VREFBUF_VoltageScalingConfig
                0x0000000000000000       0x14 build/stm32g4xx_hal.o
 .text.HAL_SYSCFG_VREFBUF_HighImpedanceConfig
                0x0000000000000000       0x14 build/stm32g4xx_hal.o
 .text.HAL_SYSCFG_VREFBUF_TrimmingConfig
                0x0000000000000000       0x14 build/stm32g4xx_hal.o
 .text.HAL_SYSCFG_EnableVREFBUF
                0x0000000000000000       0x30 build/stm32g4xx_hal.o
 .text.HAL_SYSCFG_DisableVREFBUF
                0x0000000000000000       0x10 build/stm32g4xx_hal.o
 .text.HAL_SYSCFG_EnableIOSwitchBooster
                0x0000000000000000       0x10 build/stm32g4xx_hal.o
 .text.HAL_SYSCFG_DisableIOSwitchBooster
                0x0000000000000000       0x10 build/stm32g4xx_hal.o
 .text.HAL_SYSCFG_EnableIOSwitchVDD
                0x0000000000000000       0x10 build/stm32g4xx_hal.o
 .text.HAL_SYSCFG_DisableIOSwitchVDD
                0x0000000000000000       0x10 build/stm32g4xx_hal.o
 .text.HAL_SYSCFG_CCMSRAM_WriteProtectionEnable
                0x0000000000000000       0x10 build/stm32g4xx_hal.o
 .text          0x0000000000000000        0x0 build/stm32g4xx_hal_rcc.o
 .data          0x0000000000000000        0x0 build/stm32g4xx_hal_rcc.o
 .bss           0x0000000000000000        0x0 build/stm32g4xx_hal_rcc.o
 .text.HAL_RCC_DeInit
                0x0000000000000000       0xc0 build/stm32g4xx_hal_rcc.o
 .text.HAL_RCC_OscConfig
                0x0000000000000000      0x498 build/stm32g4xx_hal_rcc.o
 .text.HAL_RCC_MCOConfig
                0x0000000000000000       0x50 build/stm32g4xx_hal_rcc.o
 .text.HAL_RCC_GetSysClockFreq
                0x0000000000000000       0x70 build/stm32g4xx_hal_rcc.o
 .text.HAL_RCC_ClockConfig
                0x0000000000000000      0x224 build/stm32g4xx_hal_rcc.o
 .text.HAL_RCC_GetHCLKFreq
                0x0000000000000000        0xc build/stm32g4xx_hal_rcc.o
 .text.HAL_RCC_GetPCLK2Freq
                0x0000000000000000       0x24 build/stm32g4xx_hal_rcc.o
 .text.HAL_RCC_GetOscConfig
                0x0000000000000000       0xb4 build/stm32g4xx_hal_rcc.o
 .text.HAL_RCC_EnableCSS
                0x0000000000000000       0x10 build/stm32g4xx_hal_rcc.o
 .text.HAL_RCC_EnableLSECSS
                0x0000000000000000       0x14 build/stm32g4xx_hal_rcc.o
 .text.HAL_RCC_DisableLSECSS
                0x0000000000000000       0x14 build/stm32g4xx_hal_rcc.o
 .text.HAL_RCC_CSSCallback
                0x0000000000000000        0x4 build/stm32g4xx_hal_rcc.o
 .text.HAL_RCC_NMI_IRQHandler
                0x0000000000000000       0x1c build/stm32g4xx_hal_rcc.o
 .text          0x0000000000000000        0x0 build/stm32g4xx_hal_rcc_ex.o
 .data          0x0000000000000000        0x0 build/stm32g4xx_hal_rcc_ex.o
 .bss           0x0000000000000000        0x0 build/stm32g4xx_hal_rcc_ex.o
 .text.HAL_RCCEx_PeriphCLKConfig
                0x0000000000000000      0x310 build/stm32g4xx_hal_rcc_ex.o
 .text.HAL_RCCEx_GetPeriphCLKConfig
                0x0000000000000000       0xd8 build/stm32g4xx_hal_rcc_ex.o
 .text.HAL_RCCEx_GetPeriphCLKFreq
                0x0000000000000000      0x574 build/stm32g4xx_hal_rcc_ex.o
 .text.HAL_RCCEx_EnableLSECSS
                0x0000000000000000       0x14 build/stm32g4xx_hal_rcc_ex.o
 .text.HAL_RCCEx_DisableLSECSS
                0x0000000000000000       0x1c build/stm32g4xx_hal_rcc_ex.o
 .text.HAL_RCCEx_EnableLSECSS_IT
                0x0000000000000000       0x34 build/stm32g4xx_hal_rcc_ex.o
 .text.HAL_RCCEx_LSECSS_Callback
                0x0000000000000000        0x4 build/stm32g4xx_hal_rcc_ex.o
 .text.HAL_RCCEx_LSECSS_IRQHandler
                0x0000000000000000       0x1c build/stm32g4xx_hal_rcc_ex.o
 .text.HAL_RCCEx_EnableLSCO
                0x0000000000000000       0xa4 build/stm32g4xx_hal_rcc_ex.o
 .text.HAL_RCCEx_DisableLSCO
                0x0000000000000000       0x74 build/stm32g4xx_hal_rcc_ex.o
 .text.HAL_RCCEx_CRSConfig
                0x0000000000000000       0x50 build/stm32g4xx_hal_rcc_ex.o
 .text.HAL_RCCEx_CRSSoftwareSynchronizationGenerate
                0x0000000000000000       0x10 build/stm32g4xx_hal_rcc_ex.o
 .text.HAL_RCCEx_CRSGetSynchronizationInfo
                0x0000000000000000       0x24 build/stm32g4xx_hal_rcc_ex.o
 .text.HAL_RCCEx_CRSWaitSynchronization
                0x0000000000000000       0x98 build/stm32g4xx_hal_rcc_ex.o
 .text.HAL_RCCEx_CRS_SyncOkCallback
                0x0000000000000000        0x4 build/stm32g4xx_hal_rcc_ex.o
 .text.HAL_RCCEx_CRS_SyncWarnCallback
                0x0000000000000000        0x4 build/stm32g4xx_hal_rcc_ex.o
 .text.HAL_RCCEx_CRS_ExpectedSyncCallback
                0x0000000000000000        0x4 build/stm32g4xx_hal_rcc_ex.o
 .text.HAL_RCCEx_CRS_ErrorCallback
                0x0000000000000000        0x4 build/stm32g4xx_hal_rcc_ex.o
 .text.HAL_RCCEx_CRS_IRQHandler
                0x0000000000000000       0x74 build/stm32g4xx_hal_rcc_ex.o
 .debug_info    0x0000000000000000     0x1184 build/stm32g4xx_hal_rcc_ex.o
 .debug_abbrev  0x0000000000000000      0x2f8 build/stm32g4xx_hal_rcc_ex.o
 .debug_loc     0x0000000000000000      0xc4e build/stm32g4xx_hal_rcc_ex.o
 .debug_aranges
                0x0000000000000000       0x98 build/stm32g4xx_hal_rcc_ex.o
 .debug_ranges  0x0000000000000000       0xd8 build/stm32g4xx_hal_rcc_ex.o
 .debug_line    0x0000000000000000      0xfe7 build/stm32g4xx_hal_rcc_ex.o
 .debug_str     0x0000000000000000      0xc67 build/stm32g4xx_hal_rcc_ex.o
 .comment       0x0000000000000000       0x5a build/stm32g4xx_hal_rcc_ex.o
 .debug_frame   0x0000000000000000      0x1b0 build/stm32g4xx_hal_rcc_ex.o
 .ARM.attributes
                0x0000000000000000       0x34 build/stm32g4xx_hal_rcc_ex.o
 .text          0x0000000000000000        0x0 build/stm32g4xx_hal_flash.o
 .data          0x0000000000000000        0x0 build/stm32g4xx_hal_flash.o
 .bss           0x0000000000000000        0x0 build/stm32g4xx_hal_flash.o
 .text.HAL_FLASH_EndOfOperationCallback
                0x0000000000000000        0x4 build/stm32g4xx_hal_flash.o
 .text.HAL_FLASH_OperationErrorCallback
                0x0000000000000000        0x4 build/stm32g4xx_hal_flash.o
 .text.HAL_FLASH_IRQHandler
                0x0000000000000000       0xfc build/stm32g4xx_hal_flash.o
 .text.HAL_FLASH_Unlock
                0x0000000000000000       0x28 build/stm32g4xx_hal_flash.o
 .text.HAL_FLASH_Lock
                0x0000000000000000       0x18 build/stm32g4xx_hal_flash.o
 .text.HAL_FLASH_OB_Unlock
                0x0000000000000000       0x28 build/stm32g4xx_hal_flash.o
 .text.HAL_FLASH_OB_Lock
                0x0000000000000000       0x1c build/stm32g4xx_hal_flash.o
 .text.HAL_FLASH_GetError
                0x0000000000000000        0xc build/stm32g4xx_hal_flash.o
 .text.FLASH_WaitForLastOperation
                0x0000000000000000       0x54 build/stm32g4xx_hal_flash.o
 .text.HAL_FLASH_Program
                0x0000000000000000       0xb4 build/stm32g4xx_hal_flash.o
 .text.HAL_FLASH_Program_IT
                0x0000000000000000       0xb4 build/stm32g4xx_hal_flash.o
 .text.HAL_FLASH_OB_Launch
                0x0000000000000000       0x18 build/stm32g4xx_hal_flash.o
 .data.pFlash   0x0000000000000000       0x20 build/stm32g4xx_hal_flash.o
 .debug_info    0x0000000000000000      0xbb8 build/stm32g4xx_hal_flash.o
 .debug_abbrev  0x0000000000000000      0x38f build/stm32g4xx_hal_flash.o
 .debug_loc     0x0000000000000000      0x7f6 build/stm32g4xx_hal_flash.o
 .debug_aranges
                0x0000000000000000       0x70 build/stm32g4xx_hal_flash.o
 .debug_ranges  0x0000000000000000       0x78 build/stm32g4xx_hal_flash.o
 .debug_line    0x0000000000000000      0x806 build/stm32g4xx_hal_flash.o
 .debug_str     0x0000000000000000      0x6d2 build/stm32g4xx_hal_flash.o
 .comment       0x0000000000000000       0x5a build/stm32g4xx_hal_flash.o
 .debug_frame   0x0000000000000000      0x108 build/stm32g4xx_hal_flash.o
 .ARM.attributes
                0x0000000000000000       0x34 build/stm32g4xx_hal_flash.o
 .text          0x0000000000000000        0x0 build/stm32g4xx_hal_flash_ex.o
 .data          0x0000000000000000        0x0 build/stm32g4xx_hal_flash_ex.o
 .bss           0x0000000000000000        0x0 build/stm32g4xx_hal_flash_ex.o
 .text.FLASH_MassErase
                0x0000000000000000       0x40 build/stm32g4xx_hal_flash_ex.o
 .text.HAL_FLASHEx_OBProgram
                0x0000000000000000      0x420 build/stm32g4xx_hal_flash_ex.o
 .text.HAL_FLASHEx_OBGetConfig
                0x0000000000000000      0x1ac build/stm32g4xx_hal_flash_ex.o
 .text.HAL_FLASHEx_EnableSecMemProtection
                0x0000000000000000       0x38 build/stm32g4xx_hal_flash_ex.o
 .text.HAL_FLASHEx_EnableDebugger
                0x0000000000000000       0x10 build/stm32g4xx_hal_flash_ex.o
 .text.HAL_FLASHEx_DisableDebugger
                0x0000000000000000       0x10 build/stm32g4xx_hal_flash_ex.o
 .text.FLASH_PageErase
                0x0000000000000000       0x48 build/stm32g4xx_hal_flash_ex.o
 .text.HAL_FLASHEx_Erase_IT
                0x0000000000000000       0x94 build/stm32g4xx_hal_flash_ex.o
 .text.FLASH_FlushCaches
                0x0000000000000000       0x58 build/stm32g4xx_hal_flash_ex.o
 .text.HAL_FLASHEx_Erase
                0x0000000000000000       0xf8 build/stm32g4xx_hal_flash_ex.o
 .debug_info    0x0000000000000000      0xf89 build/stm32g4xx_hal_flash_ex.o
 .debug_abbrev  0x0000000000000000      0x34f build/stm32g4xx_hal_flash_ex.o
 .debug_loc     0x0000000000000000      0xeb7 build/stm32g4xx_hal_flash_ex.o
 .debug_aranges
                0x0000000000000000       0x68 build/stm32g4xx_hal_flash_ex.o
 .debug_ranges  0x0000000000000000      0x1c8 build/stm32g4xx_hal_flash_ex.o
 .debug_line    0x0000000000000000      0xe42 build/stm32g4xx_hal_flash_ex.o
 .debug_str     0x0000000000000000      0x854 build/stm32g4xx_hal_flash_ex.o
 .comment       0x0000000000000000       0x5a build/stm32g4xx_hal_flash_ex.o
 .debug_frame   0x0000000000000000       0xf8 build/stm32g4xx_hal_flash_ex.o
 .ARM.attributes
                0x0000000000000000       0x34 build/stm32g4xx_hal_flash_ex.o
 .text          0x0000000000000000        0x0 build/stm32g4xx_hal_flash_ramfunc.o
 .data          0x0000000000000000        0x0 build/stm32g4xx_hal_flash_ramfunc.o
 .bss           0x0000000000000000        0x0 build/stm32g4xx_hal_flash_ramfunc.o
 .RamFunc       0x0000000000000000      0x188 build/stm32g4xx_hal_flash_ramfunc.o
 .debug_info    0x0000000000000000      0x4e5 build/stm32g4xx_hal_flash_ramfunc.o
 .debug_abbrev  0x0000000000000000      0x18d build/stm32g4xx_hal_flash_ramfunc.o
 .debug_loc     0x0000000000000000       0xcc build/stm32g4xx_hal_flash_ramfunc.o
 .debug_aranges
                0x0000000000000000       0x30 build/stm32g4xx_hal_flash_ramfunc.o
 .debug_ranges  0x0000000000000000       0x20 build/stm32g4xx_hal_flash_ramfunc.o
 .debug_line    0x0000000000000000      0x33d build/stm32g4xx_hal_flash_ramfunc.o
 .debug_str     0x0000000000000000      0x51e build/stm32g4xx_hal_flash_ramfunc.o
 .comment       0x0000000000000000       0x5a build/stm32g4xx_hal_flash_ramfunc.o
 .debug_frame   0x0000000000000000       0x50 build/stm32g4xx_hal_flash_ramfunc.o
 .ARM.attributes
                0x0000000000000000       0x34 build/stm32g4xx_hal_flash_ramfunc.o
 .text          0x0000000000000000        0x0 build/stm32g4xx_hal_exti.o
 .data          0x0000000000000000        0x0 build/stm32g4xx_hal_exti.o
 .bss           0x0000000000000000        0x0 build/stm32g4xx_hal_exti.o
 .text.HAL_EXTI_SetConfigLine
                0x0000000000000000       0xc0 build/stm32g4xx_hal_exti.o
 .text.HAL_EXTI_GetConfigLine
                0x0000000000000000       0xac build/stm32g4xx_hal_exti.o
 .text.HAL_EXTI_ClearConfigLine
                0x0000000000000000       0x94 build/stm32g4xx_hal_exti.o
 .text.HAL_EXTI_RegisterCallback
                0x0000000000000000       0x10 build/stm32g4xx_hal_exti.o
 .text.HAL_EXTI_GetHandle
                0x0000000000000000        0xc build/stm32g4xx_hal_exti.o
 .text.HAL_EXTI_IRQHandler
                0x0000000000000000       0x30 build/stm32g4xx_hal_exti.o
 .text.HAL_EXTI_GetPending
                0x0000000000000000       0x20 build/stm32g4xx_hal_exti.o
 .text.HAL_EXTI_ClearPending
                0x0000000000000000       0x1c build/stm32g4xx_hal_exti.o
 .text.HAL_EXTI_GenerateSWI
                0x0000000000000000       0x1c build/stm32g4xx_hal_exti.o
 .debug_info    0x0000000000000000      0x9d7 build/stm32g4xx_hal_exti.o
 .debug_abbrev  0x0000000000000000      0x1fb build/stm32g4xx_hal_exti.o
 .debug_loc     0x0000000000000000      0xc62 build/stm32g4xx_hal_exti.o
 .debug_aranges
                0x0000000000000000       0x60 build/stm32g4xx_hal_exti.o
 .debug_ranges  0x0000000000000000       0x50 build/stm32g4xx_hal_exti.o
 .debug_line    0x0000000000000000      0x6cb build/stm32g4xx_hal_exti.o
 .debug_str     0x0000000000000000      0x63e build/stm32g4xx_hal_exti.o
 .comment       0x0000000000000000       0x5a build/stm32g4xx_hal_exti.o
 .debug_frame   0x0000000000000000      0x118 build/stm32g4xx_hal_exti.o
 .ARM.attributes
                0x0000000000000000       0x34 build/stm32g4xx_hal_exti.o
 .text          0x0000000000000000        0x0 build/stm32g4xx_hal_dma.o
 .data          0x0000000000000000        0x0 build/stm32g4xx_hal_dma.o
 .bss           0x0000000000000000        0x0 build/stm32g4xx_hal_dma.o
 .text.HAL_DMA_Init
                0x0000000000000000      0x11c build/stm32g4xx_hal_dma.o
 .text.HAL_DMA_DeInit
                0x0000000000000000       0xf0 build/stm32g4xx_hal_dma.o
 .text.HAL_DMA_Start
                0x0000000000000000       0x80 build/stm32g4xx_hal_dma.o
 .text.HAL_DMA_Start_IT
                0x0000000000000000       0xb8 build/stm32g4xx_hal_dma.o
 .text.HAL_DMA_Abort
                0x0000000000000000       0x74 build/stm32g4xx_hal_dma.o
 .text.HAL_DMA_Abort_IT
                0x0000000000000000       0x80 build/stm32g4xx_hal_dma.o
 .text.HAL_DMA_PollForTransfer
                0x0000000000000000      0x10c build/stm32g4xx_hal_dma.o
 .text.HAL_DMA_IRQHandler
                0x0000000000000000       0x9c build/stm32g4xx_hal_dma.o
 .text.HAL_DMA_RegisterCallback
                0x0000000000000000       0x50 build/stm32g4xx_hal_dma.o
 .text.HAL_DMA_UnRegisterCallback
                0x0000000000000000       0x64 build/stm32g4xx_hal_dma.o
 .text.HAL_DMA_GetState
                0x0000000000000000        0x8 build/stm32g4xx_hal_dma.o
 .text.HAL_DMA_GetError
                0x0000000000000000        0x4 build/stm32g4xx_hal_dma.o
 .debug_info    0x0000000000000000      0xd2b build/stm32g4xx_hal_dma.o
 .debug_abbrev  0x0000000000000000      0x2ed build/stm32g4xx_hal_dma.o
 .debug_loc     0x0000000000000000      0xc21 build/stm32g4xx_hal_dma.o
 .debug_aranges
                0x0000000000000000       0x78 build/stm32g4xx_hal_dma.o
 .debug_ranges  0x0000000000000000      0x168 build/stm32g4xx_hal_dma.o
 .debug_line    0x0000000000000000      0xe61 build/stm32g4xx_hal_dma.o
 .debug_str     0x0000000000000000      0x977 build/stm32g4xx_hal_dma.o
 .comment       0x0000000000000000       0x5a build/stm32g4xx_hal_dma.o
 .debug_frame   0x0000000000000000      0x1dc build/stm32g4xx_hal_dma.o
 .ARM.attributes
                0x0000000000000000       0x34 build/stm32g4xx_hal_dma.o
 .text          0x0000000000000000        0x0 build/stm32g4xx_hal_dma_ex.o
 .data          0x0000000000000000        0x0 build/stm32g4xx_hal_dma_ex.o
 .bss           0x0000000000000000        0x0 build/stm32g4xx_hal_dma_ex.o
 .text.HAL_DMAEx_ConfigMuxSync
                0x0000000000000000       0x50 build/stm32g4xx_hal_dma_ex.o
 .text.HAL_DMAEx_ConfigMuxRequestGenerator
                0x0000000000000000       0x50 build/stm32g4xx_hal_dma_ex.o
 .text.HAL_DMAEx_EnableMuxRequestGenerator
                0x0000000000000000       0x1c build/stm32g4xx_hal_dma_ex.o
 .text.HAL_DMAEx_DisableMuxRequestGenerator
                0x0000000000000000       0x1c build/stm32g4xx_hal_dma_ex.o
 .text.HAL_DMAEx_MUX_IRQHandler
                0x0000000000000000       0x58 build/stm32g4xx_hal_dma_ex.o
 .debug_info    0x0000000000000000      0x8e9 build/stm32g4xx_hal_dma_ex.o
 .debug_abbrev  0x0000000000000000      0x24c build/stm32g4xx_hal_dma_ex.o
 .debug_loc     0x0000000000000000      0x2ba build/stm32g4xx_hal_dma_ex.o
 .debug_aranges
                0x0000000000000000       0x40 build/stm32g4xx_hal_dma_ex.o
 .debug_ranges  0x0000000000000000       0x30 build/stm32g4xx_hal_dma_ex.o
 .debug_line    0x0000000000000000      0x44b build/stm32g4xx_hal_dma_ex.o
 .debug_str     0x0000000000000000      0x842 build/stm32g4xx_hal_dma_ex.o
 .comment       0x0000000000000000       0x5a build/stm32g4xx_hal_dma_ex.o
 .debug_frame   0x0000000000000000       0x9c build/stm32g4xx_hal_dma_ex.o
 .ARM.attributes
                0x0000000000000000       0x34 build/stm32g4xx_hal_dma_ex.o
 .text          0x0000000000000000        0x0 build/stm32g4xx_hal_pwr.o
 .data          0x0000000000000000        0x0 build/stm32g4xx_hal_pwr.o
 .bss           0x0000000000000000        0x0 build/stm32g4xx_hal_pwr.o
 .text.HAL_PWR_DeInit
                0x0000000000000000       0x18 build/stm32g4xx_hal_pwr.o
 .text.HAL_PWR_EnableBkUpAccess
                0x0000000000000000       0x10 build/stm32g4xx_hal_pwr.o
 .text.HAL_PWR_DisableBkUpAccess
                0x0000000000000000       0x10 build/stm32g4xx_hal_pwr.o
 .text.HAL_PWR_ConfigPVD
                0x0000000000000000       0x7c build/stm32g4xx_hal_pwr.o
 .text.HAL_PWR_EnablePVD
                0x0000000000000000       0x10 build/stm32g4xx_hal_pwr.o
 .text.HAL_PWR_DisablePVD
                0x0000000000000000       0x10 build/stm32g4xx_hal_pwr.o
 .text.HAL_PWR_EnableWakeUpPin
                0x0000000000000000       0x20 build/stm32g4xx_hal_pwr.o
 .text.HAL_PWR_DisableWakeUpPin
                0x0000000000000000       0x14 build/stm32g4xx_hal_pwr.o
 .text.HAL_PWR_EnterSLEEPMode
                0x0000000000000000       0x40 build/stm32g4xx_hal_pwr.o
 .text.HAL_PWR_EnterSTOPMode
                0x0000000000000000       0x10 build/stm32g4xx_hal_pwr.o
 .text.HAL_PWR_EnterSTANDBYMode
                0x0000000000000000       0x24 build/stm32g4xx_hal_pwr.o
 .text.HAL_PWR_EnableSleepOnExit
                0x0000000000000000       0x10 build/stm32g4xx_hal_pwr.o
 .text.HAL_PWR_DisableSleepOnExit
                0x0000000000000000       0x10 build/stm32g4xx_hal_pwr.o
 .text.HAL_PWR_EnableSEVOnPend
                0x0000000000000000       0x10 build/stm32g4xx_hal_pwr.o
 .text.HAL_PWR_DisableSEVOnPend
                0x0000000000000000       0x10 build/stm32g4xx_hal_pwr.o
 .text.HAL_PWR_PVDCallback
                0x0000000000000000        0x4 build/stm32g4xx_hal_pwr.o
 .debug_info    0x0000000000000000      0xc88 build/stm32g4xx_hal_pwr.o
 .debug_abbrev  0x0000000000000000      0x1d1 build/stm32g4xx_hal_pwr.o
 .debug_loc     0x0000000000000000      0x1e0 build/stm32g4xx_hal_pwr.o
 .debug_aranges
                0x0000000000000000       0x98 build/stm32g4xx_hal_pwr.o
 .debug_ranges  0x0000000000000000       0x88 build/stm32g4xx_hal_pwr.o
 .debug_line    0x0000000000000000      0x3cb build/stm32g4xx_hal_pwr.o
 .debug_str     0x0000000000000000      0x89c build/stm32g4xx_hal_pwr.o
 .comment       0x0000000000000000       0x5a build/stm32g4xx_hal_pwr.o
 .debug_frame   0x0000000000000000      0x124 build/stm32g4xx_hal_pwr.o
 .ARM.attributes
                0x0000000000000000       0x34 build/stm32g4xx_hal_pwr.o
 .text          0x0000000000000000        0x0 build/stm32g4xx_hal_pwr_ex.o
 .data          0x0000000000000000        0x0 build/stm32g4xx_hal_pwr_ex.o
 .bss           0x0000000000000000        0x0 build/stm32g4xx_hal_pwr_ex.o
 .text.HAL_PWREx_GetVoltageRange
                0x0000000000000000       0x24 build/stm32g4xx_hal_pwr_ex.o
 .text.HAL_PWREx_ControlVoltageScaling
                0x0000000000000000       0xfc build/stm32g4xx_hal_pwr_ex.o
 .text.HAL_PWREx_EnableBatteryCharging
                0x0000000000000000       0x1c build/stm32g4xx_hal_pwr_ex.o
 .text.HAL_PWREx_DisableBatteryCharging
                0x0000000000000000       0x10 build/stm32g4xx_hal_pwr_ex.o
 .text.HAL_PWREx_EnableInternalWakeUpLine
                0x0000000000000000       0x10 build/stm32g4xx_hal_pwr_ex.o
 .text.HAL_PWREx_DisableInternalWakeUpLine
                0x0000000000000000       0x10 build/stm32g4xx_hal_pwr_ex.o
 .text.HAL_PWREx_EnableGPIOPullUp
                0x0000000000000000       0xbc build/stm32g4xx_hal_pwr_ex.o
 .text.HAL_PWREx_DisableGPIOPullUp
                0x0000000000000000       0x84 build/stm32g4xx_hal_pwr_ex.o
 .text.HAL_PWREx_EnableGPIOPullDown
                0x0000000000000000       0xbc build/stm32g4xx_hal_pwr_ex.o
 .text.HAL_PWREx_DisableGPIOPullDown
                0x0000000000000000       0x88 build/stm32g4xx_hal_pwr_ex.o
 .text.HAL_PWREx_EnablePullUpPullDownConfig
                0x0000000000000000       0x10 build/stm32g4xx_hal_pwr_ex.o
 .text.HAL_PWREx_DisablePullUpPullDownConfig
                0x0000000000000000       0x10 build/stm32g4xx_hal_pwr_ex.o
 .text.HAL_PWREx_EnableSRAM2ContentRetention
                0x0000000000000000       0x10 build/stm32g4xx_hal_pwr_ex.o
 .text.HAL_PWREx_DisableSRAM2ContentRetention
                0x0000000000000000       0x10 build/stm32g4xx_hal_pwr_ex.o
 .text.HAL_PWREx_EnablePVM1
                0x0000000000000000       0x10 build/stm32g4xx_hal_pwr_ex.o
 .text.HAL_PWREx_DisablePVM1
                0x0000000000000000       0x10 build/stm32g4xx_hal_pwr_ex.o
 .text.HAL_PWREx_EnablePVM2
                0x0000000000000000       0x10 build/stm32g4xx_hal_pwr_ex.o
 .text.HAL_PWREx_DisablePVM2
                0x0000000000000000       0x10 build/stm32g4xx_hal_pwr_ex.o
 .text.HAL_PWREx_EnablePVM3
                0x0000000000000000       0x10 build/stm32g4xx_hal_pwr_ex.o
 .text.HAL_PWREx_DisablePVM3
                0x0000000000000000       0x10 build/stm32g4xx_hal_pwr_ex.o
 .text.HAL_PWREx_EnablePVM4
                0x0000000000000000       0x10 build/stm32g4xx_hal_pwr_ex.o
 .text.HAL_PWREx_DisablePVM4
                0x0000000000000000       0x10 build/stm32g4xx_hal_pwr_ex.o
 .text.HAL_PWREx_ConfigPVM
                0x0000000000000000      0x198 build/stm32g4xx_hal_pwr_ex.o
 .text.HAL_PWREx_EnableLowPowerRunMode
                0x0000000000000000       0x10 build/stm32g4xx_hal_pwr_ex.o
 .text.HAL_PWREx_DisableLowPowerRunMode
                0x0000000000000000       0x4c build/stm32g4xx_hal_pwr_ex.o
 .text.HAL_PWREx_EnterSTOP0Mode
                0x0000000000000000       0x38 build/stm32g4xx_hal_pwr_ex.o
 .text.HAL_PWREx_EnterSTOP1Mode
                0x0000000000000000       0x3c build/stm32g4xx_hal_pwr_ex.o
 .text.HAL_PWREx_EnterSHUTDOWNMode
                0x0000000000000000       0x24 build/stm32g4xx_hal_pwr_ex.o
 .text.HAL_PWREx_PVM1Callback
                0x0000000000000000        0x4 build/stm32g4xx_hal_pwr_ex.o
 .text.HAL_PWREx_PVM2Callback
                0x0000000000000000        0x4 build/stm32g4xx_hal_pwr_ex.o
 .text.HAL_PWREx_PVM3Callback
                0x0000000000000000        0x4 build/stm32g4xx_hal_pwr_ex.o
 .text.HAL_PWREx_PVM4Callback
                0x0000000000000000        0x4 build/stm32g4xx_hal_pwr_ex.o
 .text.HAL_PWREx_PVD_PVM_IRQHandler
                0x0000000000000000       0x64 build/stm32g4xx_hal_pwr_ex.o
 .text.HAL_PWREx_EnableUCPDStandbyMode
                0x0000000000000000       0x10 build/stm32g4xx_hal_pwr_ex.o
 .text.HAL_PWREx_DisableUCPDStandbyMode
                0x0000000000000000       0x10 build/stm32g4xx_hal_pwr_ex.o
 .text.HAL_PWREx_EnableUCPDDeadBattery
                0x0000000000000000       0x10 build/stm32g4xx_hal_pwr_ex.o
 .text          0x0000000000000000        0x0 build/stm32g4xx_hal_cortex.o
 .data          0x0000000000000000        0x0 build/stm32g4xx_hal_cortex.o
 .bss           0x0000000000000000        0x0 build/stm32g4xx_hal_cortex.o
 .text.HAL_NVIC_DisableIRQ
                0x0000000000000000       0x28 build/stm32g4xx_hal_cortex.o
 .text.HAL_NVIC_SystemReset
                0x0000000000000000       0x24 build/stm32g4xx_hal_cortex.o
 .text.HAL_SYSTICK_Config
                0x0000000000000000       0x34 build/stm32g4xx_hal_cortex.o
 .text.HAL_NVIC_GetPriorityGrouping
                0x0000000000000000       0x10 build/stm32g4xx_hal_cortex.o
 .text.HAL_NVIC_GetPriority
                0x0000000000000000       0x60 build/stm32g4xx_hal_cortex.o
 .text.HAL_NVIC_SetPendingIRQ
                0x0000000000000000       0x20 build/stm32g4xx_hal_cortex.o
 .text.HAL_NVIC_GetPendingIRQ
                0x0000000000000000       0x24 build/stm32g4xx_hal_cortex.o
 .text.HAL_NVIC_ClearPendingIRQ
                0x0000000000000000       0x20 build/stm32g4xx_hal_cortex.o
 .text.HAL_NVIC_GetActive
                0x0000000000000000       0x24 build/stm32g4xx_hal_cortex.o
 .text.HAL_SYSTICK_CLKSourceConfig
                0x0000000000000000       0x18 build/stm32g4xx_hal_cortex.o
 .text.HAL_SYSTICK_Callback
                0x0000000000000000        0x4 build/stm32g4xx_hal_cortex.o
 .text.HAL_SYSTICK_IRQHandler
                0x0000000000000000        0x8 build/stm32g4xx_hal_cortex.o
 .text.HAL_MPU_Enable
                0x0000000000000000       0x18 build/stm32g4xx_hal_cortex.o
 .text.HAL_MPU_Disable
                0x0000000000000000       0x10 build/stm32g4xx_hal_cortex.o
 .text.HAL_MPU_ConfigRegion
                0x0000000000000000       0x50 build/stm32g4xx_hal_cortex.o
 .text          0x0000000000000000        0x0 build/stm32g4xx_ll_cordic.o
 .data          0x0000000000000000        0x0 build/stm32g4xx_ll_cordic.o
 .bss           0x0000000000000000        0x0 build/stm32g4xx_ll_cordic.o
 .text.LL_CORDIC_DeInit
                0x0000000000000000       0x2c build/stm32g4xx_ll_cordic.o
 .debug_info    0x0000000000000000      0x644 build/stm32g4xx_ll_cordic.o
 .debug_abbrev  0x0000000000000000      0x1c0 build/stm32g4xx_ll_cordic.o
 .debug_loc     0x0000000000000000       0x89 build/stm32g4xx_ll_cordic.o
 .debug_aranges
                0x0000000000000000       0x20 build/stm32g4xx_ll_cordic.o
 .debug_ranges  0x0000000000000000       0x28 build/stm32g4xx_ll_cordic.o
 .debug_line    0x0000000000000000      0x1e9 build/stm32g4xx_ll_cordic.o
 .debug_str     0x0000000000000000      0x5b0 build/stm32g4xx_ll_cordic.o
 .comment       0x0000000000000000       0x5a build/stm32g4xx_ll_cordic.o
 .debug_frame   0x0000000000000000       0x20 build/stm32g4xx_ll_cordic.o
 .ARM.attributes
                0x0000000000000000       0x34 build/stm32g4xx_ll_cordic.o
 .text          0x0000000000000000        0x0 build/stm32g4xx_ll_dma.o
 .data          0x0000000000000000        0x0 build/stm32g4xx_ll_dma.o
 .bss           0x0000000000000000        0x0 build/stm32g4xx_ll_dma.o
 .text.LL_DMA_DeInit
                0x0000000000000000      0x1b8 build/stm32g4xx_ll_dma.o
 .text.LL_DMA_Init
                0x0000000000000000       0x74 build/stm32g4xx_ll_dma.o
 .text.LL_DMA_StructInit
                0x0000000000000000       0x1c build/stm32g4xx_ll_dma.o
 .rodata.CHANNEL_OFFSET_TAB
                0x0000000000000000        0x8 build/stm32g4xx_ll_dma.o
 .debug_info    0x0000000000000000      0xda2 build/stm32g4xx_ll_dma.o
 .debug_abbrev  0x0000000000000000      0x2e9 build/stm32g4xx_ll_dma.o
 .debug_loc     0x0000000000000000      0x5fb build/stm32g4xx_ll_dma.o
 .debug_aranges
                0x0000000000000000       0x30 build/stm32g4xx_ll_dma.o
 .debug_ranges  0x0000000000000000      0x158 build/stm32g4xx_ll_dma.o
 .debug_line    0x0000000000000000      0x629 build/stm32g4xx_ll_dma.o
 .debug_str     0x0000000000000000      0x84b build/stm32g4xx_ll_dma.o
 .comment       0x0000000000000000       0x5a build/stm32g4xx_ll_dma.o
 .debug_frame   0x0000000000000000       0x88 build/stm32g4xx_ll_dma.o
 .ARM.attributes
                0x0000000000000000       0x34 build/stm32g4xx_ll_dma.o
 .text          0x0000000000000000        0x0 build/stm32g4xx_hal_fdcan.o
 .data          0x0000000000000000        0x0 build/stm32g4xx_hal_fdcan.o
 .bss           0x0000000000000000        0x0 build/stm32g4xx_hal_fdcan.o
 .text.HAL_FDCAN_Stop.part.0
                0x0000000000000000       0x70 build/stm32g4xx_hal_fdcan.o
 .text.HAL_FDCAN_MspInit
                0x0000000000000000        0x4 build/stm32g4xx_hal_fdcan.o
 .text.HAL_FDCAN_MspDeInit
                0x0000000000000000        0x4 build/stm32g4xx_hal_fdcan.o
 .text.HAL_FDCAN_DeInit
                0x0000000000000000       0x3c build/stm32g4xx_hal_fdcan.o
 .text.HAL_FDCAN_EnterPowerDownMode
                0x0000000000000000       0x40 build/stm32g4xx_hal_fdcan.o
 .text.HAL_FDCAN_ExitPowerDownMode
                0x0000000000000000       0x48 build/stm32g4xx_hal_fdcan.o
 .text.HAL_FDCAN_ConfigFilter
                0x0000000000000000       0x64 build/stm32g4xx_hal_fdcan.o
 .text.HAL_FDCAN_ConfigGlobalFilter
                0x0000000000000000       0x40 build/stm32g4xx_hal_fdcan.o
 .text.HAL_FDCAN_ConfigExtendedIdMask
                0x0000000000000000       0x20 build/stm32g4xx_hal_fdcan.o
 .text.HAL_FDCAN_ConfigRxFifoOverwrite
                0x0000000000000000       0x38 build/stm32g4xx_hal_fdcan.o
 .text.HAL_FDCAN_ConfigRamWatchdog
                0x0000000000000000       0x24 build/stm32g4xx_hal_fdcan.o
 .text.HAL_FDCAN_ConfigTimestampCounter
                0x0000000000000000       0x24 build/stm32g4xx_hal_fdcan.o
 .text.HAL_FDCAN_EnableTimestampCounter
                0x0000000000000000       0x24 build/stm32g4xx_hal_fdcan.o
 .text.HAL_FDCAN_DisableTimestampCounter
                0x0000000000000000       0x24 build/stm32g4xx_hal_fdcan.o
 .text.HAL_FDCAN_GetTimestampCounter
                0x0000000000000000        0x8 build/stm32g4xx_hal_fdcan.o
 .text.HAL_FDCAN_ResetTimestampCounter
                0x0000000000000000       0x20 build/stm32g4xx_hal_fdcan.o
 .text.HAL_FDCAN_ConfigTimeoutCounter
                0x0000000000000000       0x34 build/stm32g4xx_hal_fdcan.o
 .text.HAL_FDCAN_EnableTimeoutCounter
                0x0000000000000000       0x24 build/stm32g4xx_hal_fdcan.o
 .text.HAL_FDCAN_DisableTimeoutCounter
                0x0000000000000000       0x24 build/stm32g4xx_hal_fdcan.o
 .text.HAL_FDCAN_GetTimeoutCounter
                0x0000000000000000        0x8 build/stm32g4xx_hal_fdcan.o
 .text.HAL_FDCAN_ResetTimeoutCounter
                0x0000000000000000       0x1c build/stm32g4xx_hal_fdcan.o
 .text.HAL_FDCAN_ConfigTxDelayCompensation
                0x0000000000000000       0x20 build/stm32g4xx_hal_fdcan.o
 .text.HAL_FDCAN_EnableTxDelayCompensation
                0x0000000000000000       0x24 build/stm32g4xx_hal_fdcan.o
 .text.HAL_FDCAN_DisableTxDelayCompensation
                0x0000000000000000       0x24 build/stm32g4xx_hal_fdcan.o
 .text.HAL_FDCAN_EnableISOMode
                0x0000000000000000       0x24 build/stm32g4xx_hal_fdcan.o
 .text.HAL_FDCAN_DisableISOMode
                0x0000000000000000       0x24 build/stm32g4xx_hal_fdcan.o
 .text.HAL_FDCAN_EnableEdgeFiltering
                0x0000000000000000       0x24 build/stm32g4xx_hal_fdcan.o
 .text.HAL_FDCAN_DisableEdgeFiltering
                0x0000000000000000       0x24 build/stm32g4xx_hal_fdcan.o
 .text.HAL_FDCAN_Start
                0x0000000000000000       0x30 build/stm32g4xx_hal_fdcan.o
 .text.HAL_FDCAN_Stop
                0x0000000000000000       0x18 build/stm32g4xx_hal_fdcan.o
 .text.HAL_FDCAN_AddMessageToTxFifoQ
                0x0000000000000000       0xd0 build/stm32g4xx_hal_fdcan.o
 .text.HAL_FDCAN_GetLatestTxFifoQRequestBuffer
                0x0000000000000000        0x4 build/stm32g4xx_hal_fdcan.o
 .text.HAL_FDCAN_AbortTxRequest
                0x0000000000000000       0x20 build/stm32g4xx_hal_fdcan.o
 .text.HAL_FDCAN_GetRxMessage
                0x0000000000000000       0xfc build/stm32g4xx_hal_fdcan.o
 .text.HAL_FDCAN_GetTxEvent
                0x0000000000000000       0xa4 build/stm32g4xx_hal_fdcan.o
 .text.HAL_FDCAN_GetHighPriorityMessageStatus
                0x0000000000000000       0x34 build/stm32g4xx_hal_fdcan.o
 .text.HAL_FDCAN_GetProtocolStatus
                0x0000000000000000       0x50 build/stm32g4xx_hal_fdcan.o
 .text.HAL_FDCAN_GetErrorCounters
                0x0000000000000000       0x24 build/stm32g4xx_hal_fdcan.o
 .text.HAL_FDCAN_IsTxBufferMessagePending
                0x0000000000000000       0x10 build/stm32g4xx_hal_fdcan.o
 .text.HAL_FDCAN_GetRxFifoFillLevel
                0x0000000000000000       0x14 build/stm32g4xx_hal_fdcan.o
 .text.HAL_FDCAN_GetTxFifoFreeLevel
                0x0000000000000000        0xc build/stm32g4xx_hal_fdcan.o
 .text.HAL_FDCAN_IsRestrictedOperationMode
                0x0000000000000000        0xc build/stm32g4xx_hal_fdcan.o
 .text.HAL_FDCAN_ExitRestrictedOperationMode
                0x0000000000000000       0x24 build/stm32g4xx_hal_fdcan.o
 .text.HAL_FDCAN_ConfigInterruptLines
                0x0000000000000000       0x2c build/stm32g4xx_hal_fdcan.o
 .text.HAL_FDCAN_ActivateNotification
                0x0000000000000000       0xe4 build/stm32g4xx_hal_fdcan.o
 .text.HAL_FDCAN_DeactivateNotification
                0x0000000000000000       0xec build/stm32g4xx_hal_fdcan.o
 .text.HAL_FDCAN_TxEventFifoCallback
                0x0000000000000000        0x4 build/stm32g4xx_hal_fdcan.o
 .text.HAL_FDCAN_RxFifo0Callback
                0x0000000000000000        0x4 build/stm32g4xx_hal_fdcan.o
 .text.HAL_FDCAN_RxFifo1Callback
                0x0000000000000000        0x4 build/stm32g4xx_hal_fdcan.o
 .text.HAL_FDCAN_TxFifoEmptyCallback
                0x0000000000000000        0x4 build/stm32g4xx_hal_fdcan.o
 .text.HAL_FDCAN_TxBufferCompleteCallback
                0x0000000000000000        0x4 build/stm32g4xx_hal_fdcan.o
 .text.HAL_FDCAN_TxBufferAbortCallback
                0x0000000000000000        0x4 build/stm32g4xx_hal_fdcan.o
 .text.HAL_FDCAN_TimestampWraparoundCallback
                0x0000000000000000        0x4 build/stm32g4xx_hal_fdcan.o
 .text.HAL_FDCAN_TimeoutOccurredCallback
                0x0000000000000000        0x4 build/stm32g4xx_hal_fdcan.o
 .text.HAL_FDCAN_HighPriorityMessageCallback
                0x0000000000000000        0x4 build/stm32g4xx_hal_fdcan.o
 .text.HAL_FDCAN_ErrorCallback
                0x0000000000000000        0x4 build/stm32g4xx_hal_fdcan.o
 .text.HAL_FDCAN_ErrorStatusCallback
                0x0000000000000000        0x4 build/stm32g4xx_hal_fdcan.o
 .text.HAL_FDCAN_IRQHandler
                0x0000000000000000      0x190 build/stm32g4xx_hal_fdcan.o
 .text.HAL_FDCAN_GetState
                0x0000000000000000        0x8 build/stm32g4xx_hal_fdcan.o
 .text.HAL_FDCAN_GetError
                0x0000000000000000        0x4 build/stm32g4xx_hal_fdcan.o
 .rodata.DLCtoBytes
                0x0000000000000000       0x10 build/stm32g4xx_hal_fdcan.o
 .text          0x0000000000000000        0x0 build/stm32g4xx_ll_fmac.o
 .data          0x0000000000000000        0x0 build/stm32g4xx_ll_fmac.o
 .bss           0x0000000000000000        0x0 build/stm32g4xx_ll_fmac.o
 .text.LL_FMAC_Init
                0x0000000000000000       0x24 build/stm32g4xx_ll_fmac.o
 .text.LL_FMAC_DeInit
                0x0000000000000000       0x28 build/stm32g4xx_ll_fmac.o
 .debug_info    0x0000000000000000      0x759 build/stm32g4xx_ll_fmac.o
 .debug_abbrev  0x0000000000000000      0x20a build/stm32g4xx_ll_fmac.o
 .debug_loc     0x0000000000000000      0x113 build/stm32g4xx_ll_fmac.o
 .debug_aranges
                0x0000000000000000       0x28 build/stm32g4xx_ll_fmac.o
 .debug_ranges  0x0000000000000000       0x48 build/stm32g4xx_ll_fmac.o
 .debug_line    0x0000000000000000      0x277 build/stm32g4xx_ll_fmac.o
 .debug_str     0x0000000000000000      0x600 build/stm32g4xx_ll_fmac.o
 .comment       0x0000000000000000       0x5a build/stm32g4xx_ll_fmac.o
 .debug_frame   0x0000000000000000       0x30 build/stm32g4xx_ll_fmac.o
 .ARM.attributes
                0x0000000000000000       0x34 build/stm32g4xx_ll_fmac.o
 .text          0x0000000000000000        0x0 build/stm32g4xx_hal_spi.o
 .data          0x0000000000000000        0x0 build/stm32g4xx_hal_spi.o
 .bss           0x0000000000000000        0x0 build/stm32g4xx_hal_spi.o
 .text.SPI_WaitFlagStateUntilTimeout.constprop.0
                0x0000000000000000       0xb0 build/stm32g4xx_hal_spi.o
 .text.SPI_WaitFifoStateUntilTimeout.constprop.0
                0x0000000000000000       0xc8 build/stm32g4xx_hal_spi.o
 .text.SPI_AbortRx_ISR
                0x0000000000000000       0x88 build/stm32g4xx_hal_spi.o
 .text.SPI_EndRxTransaction
                0x0000000000000000       0x84 build/stm32g4xx_hal_spi.o
 .text.SPI_EndRxTxTransaction
                0x0000000000000000       0x40 build/stm32g4xx_hal_spi.o
 .text.SPI_AbortTx_ISR
                0x0000000000000000       0xe0 build/stm32g4xx_hal_spi.o
 .text.HAL_SPI_MspInit
                0x0000000000000000        0x4 build/stm32g4xx_hal_spi.o
 .text.HAL_SPI_MspDeInit
                0x0000000000000000        0x4 build/stm32g4xx_hal_spi.o
 .text.HAL_SPI_DeInit
                0x0000000000000000       0x2c build/stm32g4xx_hal_spi.o
 .text.HAL_SPI_Transmit
                0x0000000000000000      0x1c0 build/stm32g4xx_hal_spi.o
 .text.HAL_SPI_TransmitReceive
                0x0000000000000000      0x2a8 build/stm32g4xx_hal_spi.o
 .text.HAL_SPI_Receive
                0x0000000000000000      0x170 build/stm32g4xx_hal_spi.o
 .text.HAL_SPI_Transmit_IT
                0x0000000000000000       0xac build/stm32g4xx_hal_spi.o
 .text.HAL_SPI_TransmitReceive_IT
                0x0000000000000000       0xcc build/stm32g4xx_hal_spi.o
 .text.HAL_SPI_Receive_IT
                0x0000000000000000       0xd0 build/stm32g4xx_hal_spi.o
 .text.HAL_SPI_Transmit_DMA
                0x0000000000000000      0x114 build/stm32g4xx_hal_spi.o
 .text.HAL_SPI_TransmitReceive_DMA
                0x0000000000000000      0x1b0 build/stm32g4xx_hal_spi.o
 .text.HAL_SPI_Receive_DMA
                0x0000000000000000      0x160 build/stm32g4xx_hal_spi.o
 .text.HAL_SPI_Abort
                0x0000000000000000      0x180 build/stm32g4xx_hal_spi.o
 .text.HAL_SPI_DMAPause
                0x0000000000000000       0x24 build/stm32g4xx_hal_spi.o
 .text.HAL_SPI_DMAResume
                0x0000000000000000       0x24 build/stm32g4xx_hal_spi.o
 .text.HAL_SPI_DMAStop
                0x0000000000000000       0x44 build/stm32g4xx_hal_spi.o
 .text.HAL_SPI_TxCpltCallback
                0x0000000000000000        0x4 build/stm32g4xx_hal_spi.o
 .text.HAL_SPI_RxCpltCallback
                0x0000000000000000        0x4 build/stm32g4xx_hal_spi.o
 .text.HAL_SPI_TxRxCpltCallback
                0x0000000000000000        0x4 build/stm32g4xx_hal_spi.o
 .text.HAL_SPI_TxHalfCpltCallback
                0x0000000000000000        0x4 build/stm32g4xx_hal_spi.o
 .text.SPI_DMAHalfTransmitCplt
                0x0000000000000000        0xc build/stm32g4xx_hal_spi.o
 .text.HAL_SPI_RxHalfCpltCallback
                0x0000000000000000        0x4 build/stm32g4xx_hal_spi.o
 .text.SPI_DMAHalfReceiveCplt
                0x0000000000000000        0xc build/stm32g4xx_hal_spi.o
 .text.HAL_SPI_TxRxHalfCpltCallback
                0x0000000000000000        0x4 build/stm32g4xx_hal_spi.o
 .text.SPI_DMAHalfTransmitReceiveCplt
                0x0000000000000000        0xc build/stm32g4xx_hal_spi.o
 .text.HAL_SPI_ErrorCallback
                0x0000000000000000        0x4 build/stm32g4xx_hal_spi.o
 .text.SPI_CloseTx_ISR
                0x0000000000000000       0x58 build/stm32g4xx_hal_spi.o
 .text.SPI_TxISR_8BIT
                0x0000000000000000       0x24 build/stm32g4xx_hal_spi.o
 .text.SPI_TxISR_16BIT
                0x0000000000000000       0x2c build/stm32g4xx_hal_spi.o
 .text.SPI_CloseRx_ISR
                0x0000000000000000       0x40 build/stm32g4xx_hal_spi.o
 .text.SPI_RxISR_8BIT
                0x0000000000000000       0x28 build/stm32g4xx_hal_spi.o
 .text.SPI_RxISR_16BIT
                0x0000000000000000       0x28 build/stm32g4xx_hal_spi.o
 .text.SPI_CloseRxTx_ISR
                0x0000000000000000       0x58 build/stm32g4xx_hal_spi.o
 .text.SPI_2linesTxISR_8BIT
                0x0000000000000000       0x50 build/stm32g4xx_hal_spi.o
 .text.SPI_2linesRxISR_8BIT
                0x0000000000000000       0x70 build/stm32g4xx_hal_spi.o
 .text.SPI_2linesTxISR_16BIT
                0x0000000000000000       0x3c build/stm32g4xx_hal_spi.o
 .text.SPI_2linesRxISR_16BIT
                0x0000000000000000       0x40 build/stm32g4xx_hal_spi.o
 .text.SPI_DMAError
                0x0000000000000000       0x24 build/stm32g4xx_hal_spi.o
 .text.SPI_DMATransmitCplt
                0x0000000000000000       0x70 build/stm32g4xx_hal_spi.o
 .text.SPI_DMAReceiveCplt
                0x0000000000000000       0x6c build/stm32g4xx_hal_spi.o
 .text.SPI_DMATransmitReceiveCplt
                0x0000000000000000       0x5c build/stm32g4xx_hal_spi.o
 .text.HAL_SPI_IRQHandler
                0x0000000000000000      0x138 build/stm32g4xx_hal_spi.o
 .text.SPI_DMAAbortOnError
                0x0000000000000000       0x14 build/stm32g4xx_hal_spi.o
 .text.HAL_SPI_AbortCpltCallback
                0x0000000000000000        0x4 build/stm32g4xx_hal_spi.o
 .text.HAL_SPI_Abort_IT
                0x0000000000000000      0x15c build/stm32g4xx_hal_spi.o
 .text.SPI_DMARxAbortCallback
                0x0000000000000000       0x90 build/stm32g4xx_hal_spi.o
 .text.SPI_DMATxAbortCallback
                0x0000000000000000       0x90 build/stm32g4xx_hal_spi.o
 .text.HAL_SPI_GetState
                0x0000000000000000        0x8 build/stm32g4xx_hal_spi.o
 .text.HAL_SPI_GetError
                0x0000000000000000        0x4 build/stm32g4xx_hal_spi.o
 .text          0x0000000000000000        0x0 build/stm32g4xx_hal_spi_ex.o
 .data          0x0000000000000000        0x0 build/stm32g4xx_hal_spi_ex.o
 .bss           0x0000000000000000        0x0 build/stm32g4xx_hal_spi_ex.o
 .text.HAL_SPIEx_FlushRxFifo
                0x0000000000000000       0x34 build/stm32g4xx_hal_spi_ex.o
 .debug_info    0x0000000000000000      0x994 build/stm32g4xx_hal_spi_ex.o
 .debug_abbrev  0x0000000000000000      0x196 build/stm32g4xx_hal_spi_ex.o
 .debug_loc     0x0000000000000000       0xc7 build/stm32g4xx_hal_spi_ex.o
 .debug_aranges
                0x0000000000000000       0x20 build/stm32g4xx_hal_spi_ex.o
 .debug_ranges  0x0000000000000000       0x10 build/stm32g4xx_hal_spi_ex.o
 .debug_line    0x0000000000000000      0x1f4 build/stm32g4xx_hal_spi_ex.o
 .debug_str     0x0000000000000000      0x8d3 build/stm32g4xx_hal_spi_ex.o
 .comment       0x0000000000000000       0x5a build/stm32g4xx_hal_spi_ex.o
 .debug_frame   0x0000000000000000       0x28 build/stm32g4xx_hal_spi_ex.o
 .ARM.attributes
                0x0000000000000000       0x34 build/stm32g4xx_hal_spi_ex.o
 .text          0x0000000000000000        0x0 build/stm32g4xx_hal_tim.o
 .data          0x0000000000000000        0x0 build/stm32g4xx_hal_tim.o
 .bss           0x0000000000000000        0x0 build/stm32g4xx_hal_tim.o
 .text.TIM_SlaveTimer_SetConfig
                0x0000000000000000       0xd0 build/stm32g4xx_hal_tim.o
 .text.HAL_TIM_Base_MspInit
                0x0000000000000000        0x4 build/stm32g4xx_hal_tim.o
 .text.HAL_TIM_Base_MspDeInit
                0x0000000000000000        0x4 build/stm32g4xx_hal_tim.o
 .text.HAL_TIM_Base_DeInit
                0x0000000000000000       0x68 build/stm32g4xx_hal_tim.o
 .text.HAL_TIM_Base_Start
                0x0000000000000000       0x78 build/stm32g4xx_hal_tim.o
 .text.HAL_TIM_Base_Stop
                0x0000000000000000       0x28 build/stm32g4xx_hal_tim.o
 .text.HAL_TIM_Base_Stop_IT
                0x0000000000000000       0x30 build/stm32g4xx_hal_tim.o
 .text.HAL_TIM_Base_Start_DMA
                0x0000000000000000       0xbc build/stm32g4xx_hal_tim.o
 .text.HAL_TIM_Base_Stop_DMA
                0x0000000000000000       0x3c build/stm32g4xx_hal_tim.o
 .text.HAL_TIM_OC_MspDeInit
                0x0000000000000000        0x4 build/stm32g4xx_hal_tim.o
 .text.HAL_TIM_OC_DeInit
                0x0000000000000000       0x68 build/stm32g4xx_hal_tim.o
 .text.HAL_TIM_OC_Start
                0x0000000000000000      0x13c build/stm32g4xx_hal_tim.o
 .text.HAL_TIM_OC_Stop
                0x0000000000000000       0xd0 build/stm32g4xx_hal_tim.o
 .text.HAL_TIM_OC_Start_IT
                0x0000000000000000      0x1a8 build/stm32g4xx_hal_tim.o
 .text.HAL_TIM_OC_Stop_IT
                0x0000000000000000      0x110 build/stm32g4xx_hal_tim.o
 .text.HAL_TIM_OC_Start_DMA
                0x0000000000000000      0x2e0 build/stm32g4xx_hal_tim.o
 .text.HAL_TIM_OC_Stop_DMA
                0x0000000000000000      0x128 build/stm32g4xx_hal_tim.o
 .text.HAL_TIM_PWM_MspDeInit
                0x0000000000000000        0x4 build/stm32g4xx_hal_tim.o
 .text.HAL_TIM_PWM_DeInit
                0x0000000000000000       0x68 build/stm32g4xx_hal_tim.o
 .text.HAL_TIM_PWM_Start
                0x0000000000000000        0x4 build/stm32g4xx_hal_tim.o
 .text.HAL_TIM_PWM_Stop
                0x0000000000000000        0x4 build/stm32g4xx_hal_tim.o
 .text.HAL_TIM_PWM_Start_IT
                0x0000000000000000        0x4 build/stm32g4xx_hal_tim.o
 .text.HAL_TIM_PWM_Stop_IT
                0x0000000000000000        0x4 build/stm32g4xx_hal_tim.o
 .text.HAL_TIM_PWM_Start_DMA
                0x0000000000000000        0x4 build/stm32g4xx_hal_tim.o
 .text.HAL_TIM_PWM_Stop_DMA
                0x0000000000000000        0x4 build/stm32g4xx_hal_tim.o
 .text.HAL_TIM_IC_MspInit
                0x0000000000000000        0x4 build/stm32g4xx_hal_tim.o
 .text.HAL_TIM_IC_MspDeInit
                0x0000000000000000        0x4 build/stm32g4xx_hal_tim.o
 .text.HAL_TIM_IC_DeInit
                0x0000000000000000       0x68 build/stm32g4xx_hal_tim.o
 .text.HAL_TIM_IC_Start
                0x0000000000000000      0x140 build/stm32g4xx_hal_tim.o
 .text.HAL_TIM_IC_Stop
                0x0000000000000000       0x94 build/stm32g4xx_hal_tim.o
 .text.HAL_TIM_IC_Start_IT
                0x0000000000000000      0x1b0 build/stm32g4xx_hal_tim.o
 .text.HAL_TIM_IC_Stop_IT
                0x0000000000000000      0x130 build/stm32g4xx_hal_tim.o
 .text.HAL_TIM_IC_Start_DMA
                0x0000000000000000      0x238 build/stm32g4xx_hal_tim.o
 .text.HAL_TIM_IC_Stop_DMA
                0x0000000000000000      0x114 build/stm32g4xx_hal_tim.o
 .text.HAL_TIM_OnePulse_MspInit
                0x0000000000000000        0x4 build/stm32g4xx_hal_tim.o
 .text.HAL_TIM_OnePulse_MspDeInit
                0x0000000000000000        0x4 build/stm32g4xx_hal_tim.o
 .text.HAL_TIM_OnePulse_DeInit
                0x0000000000000000       0x50 build/stm32g4xx_hal_tim.o
 .text.HAL_TIM_OnePulse_Start
                0x0000000000000000       0xb0 build/stm32g4xx_hal_tim.o
 .text.HAL_TIM_OnePulse_Stop
                0x0000000000000000       0xa0 build/stm32g4xx_hal_tim.o
 .text.HAL_TIM_OnePulse_Start_IT
                0x0000000000000000       0xc0 build/stm32g4xx_hal_tim.o
 .text.HAL_TIM_OnePulse_Stop_IT
                0x0000000000000000       0xb0 build/stm32g4xx_hal_tim.o
 .text.HAL_TIM_Encoder_MspInit
                0x0000000000000000        0x4 build/stm32g4xx_hal_tim.o
 .text.HAL_TIM_Encoder_MspDeInit
                0x0000000000000000        0x4 build/stm32g4xx_hal_tim.o
 .text.HAL_TIM_Encoder_DeInit
                0x0000000000000000       0x50 build/stm32g4xx_hal_tim.o
 .text.HAL_TIM_Encoder_Start
                0x0000000000000000       0xb8 build/stm32g4xx_hal_tim.o
 .text.HAL_TIM_Encoder_Stop
                0x0000000000000000       0xa0 build/stm32g4xx_hal_tim.o
 .text.HAL_TIM_Encoder_Start_IT
                0x0000000000000000       0xe8 build/stm32g4xx_hal_tim.o
 .text.HAL_TIM_Encoder_Stop_IT
                0x0000000000000000       0xdc build/stm32g4xx_hal_tim.o
 .text.HAL_TIM_Encoder_Start_DMA
                0x0000000000000000      0x1e4 build/stm32g4xx_hal_tim.o
 .text.HAL_TIM_Encoder_Stop_DMA
                0x0000000000000000       0xf8 build/stm32g4xx_hal_tim.o
 .text.HAL_TIM_DMABurst_MultiWriteStart
                0x0000000000000000       0xf0 build/stm32g4xx_hal_tim.o
 .text.HAL_TIM_DMABurst_WriteStart
                0x0000000000000000       0x18 build/stm32g4xx_hal_tim.o
 .text.HAL_TIM_DMABurst_WriteStop
                0x0000000000000000       0x7c build/stm32g4xx_hal_tim.o
 .text.HAL_TIM_DMABurst_MultiReadStart
                0x0000000000000000       0xf0 build/stm32g4xx_hal_tim.o
 .text.HAL_TIM_DMABurst_ReadStart
                0x0000000000000000       0x18 build/stm32g4xx_hal_tim.o
 .text.HAL_TIM_DMABurst_ReadStop
                0x0000000000000000        0x4 build/stm32g4xx_hal_tim.o
 .text.HAL_TIM_GenerateEvent
                0x0000000000000000       0x2c build/stm32g4xx_hal_tim.o
 .text.HAL_TIM_ConfigOCrefClear
                0x0000000000000000      0x274 build/stm32g4xx_hal_tim.o
 .text.HAL_TIM_ConfigTI1Input
                0x0000000000000000       0x10 build/stm32g4xx_hal_tim.o
 .text.HAL_TIM_SlaveConfigSynchro
                0x0000000000000000       0x4c build/stm32g4xx_hal_tim.o
 .text.HAL_TIM_SlaveConfigSynchro_IT
                0x0000000000000000       0x4c build/stm32g4xx_hal_tim.o
 .text.HAL_TIM_ReadCapturedValue
                0x0000000000000000       0x34 build/stm32g4xx_hal_tim.o
 .text.HAL_TIM_PeriodElapsedCallback
                0x0000000000000000        0x4 build/stm32g4xx_hal_tim.o
 .text.TIM_DMAPeriodElapsedCplt
                0x0000000000000000       0x18 build/stm32g4xx_hal_tim.o
 .text.HAL_TIM_PeriodElapsedHalfCpltCallback
                0x0000000000000000        0x4 build/stm32g4xx_hal_tim.o
 .text.TIM_DMAPeriodElapsedHalfCplt
                0x0000000000000000        0xc build/stm32g4xx_hal_tim.o
 .text.TIM_DMACaptureCplt
                0x0000000000000000       0x94 build/stm32g4xx_hal_tim.o
 .text.HAL_TIM_IC_CaptureHalfCpltCallback
                0x0000000000000000        0x4 build/stm32g4xx_hal_tim.o
 .text.TIM_DMACaptureHalfCplt
                0x0000000000000000       0x5c build/stm32g4xx_hal_tim.o
 .text.TIM_DMADelayPulseCplt
                0x0000000000000000       0x84 build/stm32g4xx_hal_tim.o
 .text.HAL_TIM_PWM_PulseFinishedHalfCpltCallback
                0x0000000000000000        0x4 build/stm32g4xx_hal_tim.o
 .text.TIM_DMADelayPulseHalfCplt
                0x0000000000000000       0x5c build/stm32g4xx_hal_tim.o
 .text.TIM_DMATriggerCplt
                0x0000000000000000       0x18 build/stm32g4xx_hal_tim.o
 .text.HAL_TIM_TriggerHalfCpltCallback
                0x0000000000000000        0x4 build/stm32g4xx_hal_tim.o
 .text.TIM_DMATriggerHalfCplt
                0x0000000000000000        0xc build/stm32g4xx_hal_tim.o
 .text.HAL_TIM_ErrorCallback
                0x0000000000000000        0x4 build/stm32g4xx_hal_tim.o
 .text.TIM_DMAError
                0x0000000000000000       0x84 build/stm32g4xx_hal_tim.o
 .text.HAL_TIM_Base_GetState
                0x0000000000000000        0x8 build/stm32g4xx_hal_tim.o
 .text.HAL_TIM_OC_GetState
                0x0000000000000000        0x8 build/stm32g4xx_hal_tim.o
 .text.HAL_TIM_PWM_GetState
                0x0000000000000000        0x8 build/stm32g4xx_hal_tim.o
 .text.HAL_TIM_IC_GetState
                0x0000000000000000        0x8 build/stm32g4xx_hal_tim.o
 .text.HAL_TIM_OnePulse_GetState
                0x0000000000000000        0x8 build/stm32g4xx_hal_tim.o
 .text.HAL_TIM_Encoder_GetState
                0x0000000000000000        0x8 build/stm32g4xx_hal_tim.o
 .text.HAL_TIM_GetActiveChannel
                0x0000000000000000        0x4 build/stm32g4xx_hal_tim.o
 .text.HAL_TIM_GetChannelState
                0x0000000000000000       0x40 build/stm32g4xx_hal_tim.o
 .text.HAL_TIM_DMABurstState
                0x0000000000000000        0x8 build/stm32g4xx_hal_tim.o
 .text.HAL_TIM_IC_Init
                0x0000000000000000       0x64 build/stm32g4xx_hal_tim.o
 .text.HAL_TIM_OnePulse_Init
                0x0000000000000000       0x60 build/stm32g4xx_hal_tim.o
 .text.TIM_TI1_SetConfig
                0x0000000000000000       0x78 build/stm32g4xx_hal_tim.o
 .text.HAL_TIM_IC_ConfigChannel
                0x0000000000000000      0x11c build/stm32g4xx_hal_tim.o
 .text.HAL_TIM_OnePulse_ConfigChannel
                0x0000000000000000      0x114 build/stm32g4xx_hal_tim.o
 .text.TIM_ETR_SetConfig
                0x0000000000000000       0x18 build/stm32g4xx_hal_tim.o
 .text.TIM_CCxChannelCmd
                0x0000000000000000       0x20 build/stm32g4xx_hal_tim.o
 .text          0x0000000000000000        0x0 build/stm32g4xx_hal_tim_ex.o
 .data          0x0000000000000000        0x0 build/stm32g4xx_hal_tim_ex.o
 .bss           0x0000000000000000        0x0 build/stm32g4xx_hal_tim_ex.o
 .text.TIM_DMAErrorCCxN
                0x0000000000000000       0x64 build/stm32g4xx_hal_tim_ex.o
 .text.TIM_DMADelayPulseNCplt
                0x0000000000000000       0x84 build/stm32g4xx_hal_tim_ex.o
 .text.HAL_TIMEx_HallSensor_MspInit
                0x0000000000000000        0x4 build/stm32g4xx_hal_tim_ex.o
 .text.HAL_TIMEx_HallSensor_Init
                0x0000000000000000       0xd4 build/stm32g4xx_hal_tim_ex.o
 .text.HAL_TIMEx_HallSensor_MspDeInit
                0x0000000000000000        0x4 build/stm32g4xx_hal_tim_ex.o
 .text.HAL_TIMEx_HallSensor_DeInit
                0x0000000000000000       0x50 build/stm32g4xx_hal_tim_ex.o
 .text.HAL_TIMEx_HallSensor_Start
                0x0000000000000000       0xb4 build/stm32g4xx_hal_tim_ex.o
 .text.HAL_TIMEx_HallSensor_Stop
                0x0000000000000000       0x44 build/stm32g4xx_hal_tim_ex.o
 .text.HAL_TIMEx_HallSensor_Start_IT
                0x0000000000000000       0xbc build/stm32g4xx_hal_tim_ex.o
 .text.HAL_TIMEx_HallSensor_Stop_IT
                0x0000000000000000       0x4c build/stm32g4xx_hal_tim_ex.o
 .text.HAL_TIMEx_HallSensor_Start_DMA
                0x0000000000000000       0xe8 build/stm32g4xx_hal_tim_ex.o
 .text.HAL_TIMEx_HallSensor_Stop_DMA
                0x0000000000000000       0x4c build/stm32g4xx_hal_tim_ex.o
 .text.HAL_TIMEx_OCN_Start
                0x0000000000000000       0xe0 build/stm32g4xx_hal_tim_ex.o
 .text.HAL_TIMEx_OCN_Stop
                0x0000000000000000       0x84 build/stm32g4xx_hal_tim_ex.o
 .text.HAL_TIMEx_OCN_Start_IT
                0x0000000000000000      0x150 build/stm32g4xx_hal_tim_ex.o
 .text.HAL_TIMEx_OCN_Stop_IT
                0x0000000000000000       0xd8 build/stm32g4xx_hal_tim_ex.o
 .text.HAL_TIMEx_OCN_Start_DMA
                0x0000000000000000      0x240 build/stm32g4xx_hal_tim_ex.o
 .text.HAL_TIMEx_OCN_Stop_DMA
                0x0000000000000000       0xdc build/stm32g4xx_hal_tim_ex.o
 .text.HAL_TIMEx_PWMN_Start
                0x0000000000000000        0x4 build/stm32g4xx_hal_tim_ex.o
 .text.HAL_TIMEx_PWMN_Stop
                0x0000000000000000        0x4 build/stm32g4xx_hal_tim_ex.o
 .text.HAL_TIMEx_PWMN_Start_IT
                0x0000000000000000        0x4 build/stm32g4xx_hal_tim_ex.o
 .text.HAL_TIMEx_PWMN_Stop_IT
                0x0000000000000000        0x4 build/stm32g4xx_hal_tim_ex.o
 .text.HAL_TIMEx_PWMN_Start_DMA
                0x0000000000000000        0x4 build/stm32g4xx_hal_tim_ex.o
 .text.HAL_TIMEx_PWMN_Stop_DMA
                0x0000000000000000        0x4 build/stm32g4xx_hal_tim_ex.o
 .text.HAL_TIMEx_OnePulseN_Start
                0x0000000000000000       0xac build/stm32g4xx_hal_tim_ex.o
 .text.HAL_TIMEx_OnePulseN_Stop
                0x0000000000000000       0xa0 build/stm32g4xx_hal_tim_ex.o
 .text.HAL_TIMEx_OnePulseN_Start_IT
                0x0000000000000000       0xbc build/stm32g4xx_hal_tim_ex.o
 .text.HAL_TIMEx_OnePulseN_Stop_IT
                0x0000000000000000       0xb0 build/stm32g4xx_hal_tim_ex.o
 .text.HAL_TIMEx_ConfigCommutEvent
                0x0000000000000000       0x78 build/stm32g4xx_hal_tim_ex.o
 .text.HAL_TIMEx_ConfigCommutEvent_IT
                0x0000000000000000       0x78 build/stm32g4xx_hal_tim_ex.o
 .text.HAL_TIMEx_ConfigCommutEvent_DMA
                0x0000000000000000       0x90 build/stm32g4xx_hal_tim_ex.o
 .text.HAL_TIMEx_ConfigBreakInput
                0x0000000000000000      0x128 build/stm32g4xx_hal_tim_ex.o
 .text.HAL_TIMEx_RemapConfig
                0x0000000000000000       0x24 build/stm32g4xx_hal_tim_ex.o
 .text.HAL_TIMEx_TISelection
                0x0000000000000000       0xac build/stm32g4xx_hal_tim_ex.o
 .text.HAL_TIMEx_GroupChannel5
                0x0000000000000000       0x38 build/stm32g4xx_hal_tim_ex.o
 .text.HAL_TIMEx_DisarmBreakInput
                0x0000000000000000       0x48 build/stm32g4xx_hal_tim_ex.o
 .text.HAL_TIMEx_ReArmBreakInput
                0x0000000000000000       0x5c build/stm32g4xx_hal_tim_ex.o
 .text.HAL_TIMEx_DitheringEnable
                0x0000000000000000       0x10 build/stm32g4xx_hal_tim_ex.o
 .text.HAL_TIMEx_DitheringDisable
                0x0000000000000000       0x10 build/stm32g4xx_hal_tim_ex.o
 .text.HAL_TIMEx_OC_ConfigPulseOnCompare
                0x0000000000000000       0x40 build/stm32g4xx_hal_tim_ex.o
 .text.HAL_TIMEx_ConfigSlaveModePreload
                0x0000000000000000       0x10 build/stm32g4xx_hal_tim_ex.o
 .text.HAL_TIMEx_EnableSlaveModePreload
                0x0000000000000000       0x10 build/stm32g4xx_hal_tim_ex.o
 .text.HAL_TIMEx_DisableSlaveModePreload
                0x0000000000000000       0x10 build/stm32g4xx_hal_tim_ex.o
 .text.HAL_TIMEx_EnableDeadTimePreload
                0x0000000000000000       0x10 build/stm32g4xx_hal_tim_ex.o
 .text.HAL_TIMEx_DisableDeadTimePreload
                0x0000000000000000       0x10 build/stm32g4xx_hal_tim_ex.o
 .text.HAL_TIMEx_ConfigDeadTime
                0x0000000000000000       0x10 build/stm32g4xx_hal_tim_ex.o
 .text.HAL_TIMEx_ConfigAsymmetricalDeadTime
                0x0000000000000000       0x10 build/stm32g4xx_hal_tim_ex.o
 .text.HAL_TIMEx_EnableAsymmetricalDeadTime
                0x0000000000000000       0x10 build/stm32g4xx_hal_tim_ex.o
 .text.HAL_TIMEx_DisableAsymmetricalDeadTime
                0x0000000000000000       0x10 build/stm32g4xx_hal_tim_ex.o
 .text.HAL_TIMEx_ConfigEncoderIndex
                0x0000000000000000       0x50 build/stm32g4xx_hal_tim_ex.o
 .text.HAL_TIMEx_EnableEncoderIndex
                0x0000000000000000       0x10 build/stm32g4xx_hal_tim_ex.o
 .text.HAL_TIMEx_DisableEncoderIndex
                0x0000000000000000       0x10 build/stm32g4xx_hal_tim_ex.o
 .text.HAL_TIMEx_EnableEncoderFirstIndex
                0x0000000000000000       0x10 build/stm32g4xx_hal_tim_ex.o
 .text.HAL_TIMEx_DisableEncoderFirstIndex
                0x0000000000000000       0x10 build/stm32g4xx_hal_tim_ex.o
 .text.TIMEx_DMACommutationCplt
                0x0000000000000000       0x10 build/stm32g4xx_hal_tim_ex.o
 .text.HAL_TIMEx_CommutHalfCpltCallback
                0x0000000000000000        0x4 build/stm32g4xx_hal_tim_ex.o
 .text.TIMEx_DMACommutationHalfCplt
                0x0000000000000000       0x10 build/stm32g4xx_hal_tim_ex.o
 .text.HAL_TIMEx_HallSensor_GetState
                0x0000000000000000        0x8 build/stm32g4xx_hal_tim_ex.o
 .text.HAL_TIMEx_GetChannelNState
                0x0000000000000000       0x28 build/stm32g4xx_hal_tim_ex.o
 .text          0x0000000000000000        0x0 build/stm32g4xx_ll_usart.o
 .data          0x0000000000000000        0x0 build/stm32g4xx_ll_usart.o
 .bss           0x0000000000000000        0x0 build/stm32g4xx_ll_usart.o
 .text.LL_USART_DeInit
                0x0000000000000000       0xb0 build/stm32g4xx_ll_usart.o
 .text.LL_USART_StructInit
                0x0000000000000000       0x1c build/stm32g4xx_ll_usart.o
 .text.LL_USART_ClockInit
                0x0000000000000000       0x40 build/stm32g4xx_ll_usart.o
 .text.LL_USART_ClockStructInit
                0x0000000000000000        0xc build/stm32g4xx_ll_usart.o
 .text          0x0000000000000000        0x0 build/stm32g4xx_ll_rcc.o
 .data          0x0000000000000000        0x0 build/stm32g4xx_ll_rcc.o
 .bss           0x0000000000000000        0x0 build/stm32g4xx_ll_rcc.o
 .text.LL_RCC_DeInit
                0x0000000000000000       0x60 build/stm32g4xx_ll_rcc.o
 .text.RCC_GetHCLKClockFreq
                0x0000000000000000       0x1c build/stm32g4xx_ll_rcc.o
 .text.RCC_GetPCLK1ClockFreq
                0x0000000000000000       0x1c build/stm32g4xx_ll_rcc.o
 .text.RCC_GetPCLK2ClockFreq
                0x0000000000000000       0x1c build/stm32g4xx_ll_rcc.o
 .text.LL_RCC_GetSystemClocksFreq
                0x0000000000000000       0x54 build/stm32g4xx_ll_rcc.o
 .text.LL_RCC_GetI2CClockFreq
                0x0000000000000000       0xec build/stm32g4xx_ll_rcc.o
 .text.LL_RCC_GetLPUARTClockFreq
                0x0000000000000000       0x78 build/stm32g4xx_ll_rcc.o
 .text.LL_RCC_GetLPTIMClockFreq
                0x0000000000000000       0x8c build/stm32g4xx_ll_rcc.o
 .text.RCC_PLL_GetFreqDomain_ADC
                0x0000000000000000       0x60 build/stm32g4xx_ll_rcc.o
 .text.LL_RCC_GetADCClockFreq
                0x0000000000000000       0x94 build/stm32g4xx_ll_rcc.o
 .text.RCC_PLL_GetFreqDomain_48M
                0x0000000000000000       0x48 build/stm32g4xx_ll_rcc.o
 .text.LL_RCC_GetSAIClockFreq
                0x0000000000000000       0x50 build/stm32g4xx_ll_rcc.o
 .text.LL_RCC_GetI2SClockFreq
                0x0000000000000000       0x50 build/stm32g4xx_ll_rcc.o
 .text.LL_RCC_GetFDCANClockFreq
                0x0000000000000000       0x74 build/stm32g4xx_ll_rcc.o
 .text.LL_RCC_GetRNGClockFreq
                0x0000000000000000       0x3c build/stm32g4xx_ll_rcc.o
 .text.LL_RCC_GetUSBClockFreq
                0x0000000000000000        0x4 build/stm32g4xx_ll_rcc.o
 .text.LL_RCC_GetQUADSPIClockFreq
                0x0000000000000000       0x40 build/stm32g4xx_ll_rcc.o
 .text          0x0000000000000000        0x0 build/system_stm32g4xx.o
 .data          0x0000000000000000        0x0 build/system_stm32g4xx.o
 .bss           0x0000000000000000        0x0 build/system_stm32g4xx.o
 .text.SystemCoreClockUpdate
                0x0000000000000000       0x84 build/system_stm32g4xx.o
 .text          0x0000000000000000        0x0 build/croutine.o
 .data          0x0000000000000000        0x0 build/croutine.o
 .bss           0x0000000000000000        0x0 build/croutine.o
 .debug_info    0x0000000000000000       0x8c build/croutine.o
 .debug_abbrev  0x0000000000000000       0x48 build/croutine.o
 .debug_aranges
                0x0000000000000000       0x18 build/croutine.o
 .debug_line    0x0000000000000000       0x6f build/croutine.o
 .debug_str     0x0000000000000000      0x1e5 build/croutine.o
 .comment       0x0000000000000000       0x5a build/croutine.o
 .ARM.attributes
                0x0000000000000000       0x39 build/croutine.o
 .text          0x0000000000000000        0x0 build/event_groups.o
 .data          0x0000000000000000        0x0 build/event_groups.o
 .bss           0x0000000000000000        0x0 build/event_groups.o
 .text.xEventGroupCreateStatic
                0x0000000000000000       0x4c build/event_groups.o
 .text.xEventGroupCreate
                0x0000000000000000       0x1c build/event_groups.o
 .text.xEventGroupWaitBits
                0x0000000000000000      0x110 build/event_groups.o
 .text.xEventGroupClearBits
                0x0000000000000000       0x48 build/event_groups.o
 .text.vEventGroupClearBitsCallback
                0x0000000000000000        0x4 build/event_groups.o
 .text.xEventGroupClearBitsFromISR
                0x0000000000000000       0x10 build/event_groups.o
 .text.xEventGroupGetBitsFromISR
                0x0000000000000000       0x1c build/event_groups.o
 .text.xEventGroupSetBits
                0x0000000000000000       0x88 build/event_groups.o
 .text.xEventGroupSync
                0x0000000000000000       0xf0 build/event_groups.o
 .text.vEventGroupSetBitsCallback
                0x0000000000000000        0x4 build/event_groups.o
 .text.vEventGroupDelete
                0x0000000000000000       0x50 build/event_groups.o
 .text.xEventGroupSetBitsFromISR
                0x0000000000000000       0x18 build/event_groups.o
 .text.uxEventGroupGetNumber
                0x0000000000000000        0x8 build/event_groups.o
 .text.vEventGroupSetNumber
                0x0000000000000000        0x4 build/event_groups.o
 .debug_info    0x0000000000000000     0x1af3 build/event_groups.o
 .debug_abbrev  0x0000000000000000      0x45f build/event_groups.o
 .debug_loc     0x0000000000000000      0xebc build/event_groups.o
 .debug_aranges
                0x0000000000000000       0x88 build/event_groups.o
 .debug_ranges  0x0000000000000000       0xe8 build/event_groups.o
 .debug_line    0x0000000000000000      0xbbf build/event_groups.o
 .debug_str     0x0000000000000000      0xc17 build/event_groups.o
 .comment       0x0000000000000000       0x5a build/event_groups.o
 .debug_frame   0x0000000000000000      0x19c build/event_groups.o
 .ARM.attributes
                0x0000000000000000       0x34 build/event_groups.o
 .text          0x0000000000000000        0x0 build/list.o
 .data          0x0000000000000000        0x0 build/list.o
 .bss           0x0000000000000000        0x0 build/list.o
 .text          0x0000000000000000        0x0 build/queue.o
 .data          0x0000000000000000        0x0 build/queue.o
 .bss           0x0000000000000000        0x0 build/queue.o
 .text.xQueueGenericCreate.part.0
                0x0000000000000000       0x50 build/queue.o
 .text.xQueueGenericCreate
                0x0000000000000000       0x18 build/queue.o
 .text.xQueueGetMutexHolder
                0x0000000000000000       0x20 build/queue.o
 .text.xQueueGetMutexHolderFromISR
                0x0000000000000000       0x20 build/queue.o
 .text.xQueueCreateCountingSemaphoreStatic
                0x0000000000000000       0x48 build/queue.o
 .text.xQueueCreateCountingSemaphore
                0x0000000000000000       0x3c build/queue.o
 .text.xQueueCreateMutexStatic
                0x0000000000000000       0x6c build/queue.o
 .text.xQueueGiveMutexRecursive
                0x0000000000000000       0x40 build/queue.o
 .text.xQueueCreateMutex
                0x0000000000000000       0x24 build/queue.o
 .text.xQueueGiveFromISR
                0x0000000000000000       0xb0 build/queue.o
 .text.xQueueSemaphoreTake
                0x0000000000000000      0x1b8 build/queue.o
 .text.xQueueTakeMutexRecursive
                0x0000000000000000       0x48 build/queue.o
 .text.xQueuePeek
                0x0000000000000000      0x168 build/queue.o
 .text.xQueueReceiveFromISR
                0x0000000000000000       0xa8 build/queue.o
 .text.xQueuePeekFromISR
                0x0000000000000000       0x7c build/queue.o
 .text.uxQueueMessagesWaiting
                0x0000000000000000       0x2c build/queue.o
 .text.uxQueueSpacesAvailable
                0x0000000000000000       0x30 build/queue.o
 .text.uxQueueMessagesWaitingFromISR
                0x0000000000000000       0x18 build/queue.o
 .text.vQueueDelete
                0x0000000000000000       0x60 build/queue.o
 .text.uxQueueGetQueueNumber
                0x0000000000000000        0x4 build/queue.o
 .text.vQueueSetQueueNumber
                0x0000000000000000        0x4 build/queue.o
 .text.ucQueueGetQueueType
                0x0000000000000000        0x8 build/queue.o
 .text.xQueueIsQueueEmptyFromISR
                0x0000000000000000       0x20 build/queue.o
 .text.xQueueIsQueueFullFromISR
                0x0000000000000000       0x24 build/queue.o
 .text.pcQueueGetName
                0x0000000000000000       0x28 build/queue.o
 .text.vQueueUnregisterQueue
                0x0000000000000000       0x38 build/queue.o
 .text          0x0000000000000000        0x0 build/stream_buffer.o
 .data          0x0000000000000000        0x0 build/stream_buffer.o
 .bss           0x0000000000000000        0x0 build/stream_buffer.o
 .text.prvReadBytesFromBuffer
                0x0000000000000000       0x90 build/stream_buffer.o
 .text.prvInitialiseNewStreamBuffer
                0x0000000000000000       0x48 build/stream_buffer.o
 .text.prvWriteBytesToBuffer.part.0
                0x0000000000000000       0x74 build/stream_buffer.o
 .text.prvWriteMessageToBuffer
                0x0000000000000000       0x60 build/stream_buffer.o
 .text.xStreamBufferGenericCreate
                0x0000000000000000       0x7c build/stream_buffer.o
 .text.xStreamBufferGenericCreateStatic
                0x0000000000000000       0xa4 build/stream_buffer.o
 .text.vStreamBufferDelete
                0x0000000000000000       0x28 build/stream_buffer.o
 .text.xStreamBufferReset
                0x0000000000000000       0x4c build/stream_buffer.o
 .text.xStreamBufferSetTriggerLevel
                0x0000000000000000       0x28 build/stream_buffer.o
 .text.xStreamBufferSpacesAvailable
                0x0000000000000000       0x2c build/stream_buffer.o
 .text.xStreamBufferBytesAvailable
                0x0000000000000000       0x28 build/stream_buffer.o
 .text.xStreamBufferSend
                0x0000000000000000      0x114 build/stream_buffer.o
 .text.xStreamBufferSendFromISR
                0x0000000000000000       0xa0 build/stream_buffer.o
 .text.xStreamBufferReceive
                0x0000000000000000      0x114 build/stream_buffer.o
 .text.xStreamBufferNextMessageLengthBytes
                0x0000000000000000       0x60 build/stream_buffer.o
 .text.xStreamBufferReceiveFromISR
                0x0000000000000000       0xcc build/stream_buffer.o
 .text.xStreamBufferIsEmpty
                0x0000000000000000       0x24 build/stream_buffer.o
 .text.xStreamBufferIsFull
                0x0000000000000000       0x30 build/stream_buffer.o
 .text.xStreamBufferSendCompletedFromISR
                0x0000000000000000       0x50 build/stream_buffer.o
 .text.xStreamBufferReceiveCompletedFromISR
                0x0000000000000000       0x50 build/stream_buffer.o
 .text.uxStreamBufferGetStreamBufferNumber
                0x0000000000000000        0x4 build/stream_buffer.o
 .text.vStreamBufferSetStreamBufferNumber
                0x0000000000000000        0x4 build/stream_buffer.o
 .text.ucStreamBufferGetStreamBufferType
                0x0000000000000000        0x8 build/stream_buffer.o
 .debug_info    0x0000000000000000     0x2a27 build/stream_buffer.o
 .debug_abbrev  0x0000000000000000      0x505 build/stream_buffer.o
 .debug_loc     0x0000000000000000     0x2147 build/stream_buffer.o
 .debug_aranges
                0x0000000000000000       0xd0 build/stream_buffer.o
 .debug_ranges  0x0000000000000000      0x1b0 build/stream_buffer.o
 .debug_line    0x0000000000000000     0x19a7 build/stream_buffer.o
 .debug_str     0x0000000000000000      0xdbf build/stream_buffer.o
 .comment       0x0000000000000000       0x5a build/stream_buffer.o
 .debug_frame   0x0000000000000000      0x318 build/stream_buffer.o
 .ARM.attributes
                0x0000000000000000       0x34 build/stream_buffer.o
 .text          0x0000000000000000        0x0 build/tasks.o
 .data          0x0000000000000000        0x0 build/tasks.o
 .bss           0x0000000000000000        0x0 build/tasks.o
 .text.prvTaskIsTaskSuspended
                0x0000000000000000       0x38 build/tasks.o
 .text.vTaskDelete
                0x0000000000000000       0xd0 build/tasks.o
 .text.eTaskGetState
                0x0000000000000000       0x84 build/tasks.o
 .text.uxTaskPriorityGet
                0x0000000000000000       0x24 build/tasks.o
 .text.uxTaskPriorityGetFromISR
                0x0000000000000000       0x38 build/tasks.o
 .text.vTaskPrioritySet
                0x0000000000000000       0xd0 build/tasks.o
 .text.vTaskResume
                0x0000000000000000       0x90 build/tasks.o
 .text.xTaskResumeFromISR
                0x0000000000000000       0xa8 build/tasks.o
 .text.vTaskEndScheduler
                0x0000000000000000       0x20 build/tasks.o
 .text.xTaskGetTickCountFromISR
                0x0000000000000000       0x10 build/tasks.o
 .text.uxTaskGetNumberOfTasks
                0x0000000000000000        0xc build/tasks.o
 .text.pcTaskGetName
                0x0000000000000000       0x24 build/tasks.o
 .text.vTaskDelayUntil
                0x0000000000000000       0x94 build/tasks.o
 .text.vTaskSuspend
                0x0000000000000000       0xd4 build/tasks.o
 .text.vTaskPlaceOnUnorderedEventList
                0x0000000000000000       0x58 build/tasks.o
 .text.vTaskRemoveFromUnorderedEventList
                0x0000000000000000       0x88 build/tasks.o
 .text.vTaskSetTimeOutState
                0x0000000000000000       0x38 build/tasks.o
 .text.uxTaskGetTaskNumber
                0x0000000000000000        0x8 build/tasks.o
 .text.vTaskSetTaskNumber
                0x0000000000000000        0x8 build/tasks.o
 .text.vTaskGetInfo
                0x0000000000000000       0x94 build/tasks.o
 .text.prvListTasksWithinSingleList.part.0
                0x0000000000000000       0x50 build/tasks.o
 .text.uxTaskGetSystemState
                0x0000000000000000       0xe8 build/tasks.o
 .text.uxTaskGetStackHighWaterMark
                0x0000000000000000       0x34 build/tasks.o
 .text.xTaskGetCurrentTaskHandle
                0x0000000000000000        0xc build/tasks.o
 .text.xTaskPriorityInherit
                0x0000000000000000       0x8c build/tasks.o
 .text.vTaskPriorityDisinheritAfterTimeout
                0x0000000000000000       0xa8 build/tasks.o
 .text.uxTaskResetEventItemValue
                0x0000000000000000       0x18 build/tasks.o
 .text.pvTaskIncrementMutexHeldCount
                0x0000000000000000       0x18 build/tasks.o
 .text.ulTaskNotifyTake
                0x0000000000000000       0x68 build/tasks.o
 .text.xTaskNotifyWait
                0x0000000000000000       0x98 build/tasks.o
 .text.xTaskGenericNotify
                0x0000000000000000       0xf0 build/tasks.o
 .text.xTaskGenericNotifyFromISR
                0x0000000000000000      0x128 build/tasks.o
 .text.vTaskNotifyGiveFromISR
                0x0000000000000000       0xd4 build/tasks.o
 .text.xTaskNotifyStateClear
                0x0000000000000000       0x34 build/tasks.o
 .text          0x0000000000000000        0x0 build/timers.o
 .data          0x0000000000000000        0x0 build/timers.o
 .bss           0x0000000000000000        0x0 build/timers.o
 .text.prvInitialiseNewTimer
                0x0000000000000000       0x4c build/timers.o
 .text.xTimerCreate
                0x0000000000000000       0x3c build/timers.o
 .text.xTimerCreateStatic
                0x0000000000000000       0x50 build/timers.o
 .text.xTimerGetTimerDaemonTaskHandle
                0x0000000000000000       0x20 build/timers.o
 .text.xTimerGetPeriod
                0x0000000000000000       0x18 build/timers.o
 .text.vTimerSetReloadMode
                0x0000000000000000       0x44 build/timers.o
 .text.xTimerGetExpiryTime
                0x0000000000000000       0x18 build/timers.o
 .text.pcTimerGetName
                0x0000000000000000       0x18 build/timers.o
 .text.xTimerIsTimerActive
                0x0000000000000000       0x34 build/timers.o
 .text.pvTimerGetTimerID
                0x0000000000000000       0x2c build/timers.o
 .text.vTimerSetTimerID
                0x0000000000000000       0x28 build/timers.o
 .text.xTimerPendFunctionCallFromISR
                0x0000000000000000       0x2c build/timers.o
 .text.xTimerPendFunctionCall
                0x0000000000000000       0x40 build/timers.o
 .text.uxTimerGetTimerNumber
                0x0000000000000000        0x4 build/timers.o
 .text.vTimerSetTimerNumber
                0x0000000000000000        0x4 build/timers.o
 .text          0x0000000000000000        0x0 build/cmsis_os2.o
 .data          0x0000000000000000        0x0 build/cmsis_os2.o
 .bss           0x0000000000000000        0x0 build/cmsis_os2.o
 .text.TimerCallback
                0x0000000000000000       0x14 build/cmsis_os2.o
 .rodata.osKernelGetInfo.str1.4
                0x0000000000000000       0x11 build/cmsis_os2.o
 .text.osKernelGetInfo
                0x0000000000000000       0x2c build/cmsis_os2.o
 .text.osKernelGetState
                0x0000000000000000       0x24 build/cmsis_os2.o
 .text.osKernelLock
                0x0000000000000000       0x4c build/cmsis_os2.o
 .text.osKernelUnlock
                0x0000000000000000       0x5c build/cmsis_os2.o
 .text.osKernelRestoreLock
                0x0000000000000000       0x6c build/cmsis_os2.o
 .text.osKernelGetTickCount
                0x0000000000000000       0x34 build/cmsis_os2.o
 .text.osKernelGetTickFreq
                0x0000000000000000        0x8 build/cmsis_os2.o
 .text.osKernelGetSysTimerCount
                0x0000000000000000       0x48 build/cmsis_os2.o
 .text.osKernelGetSysTimerFreq
                0x0000000000000000        0xc build/cmsis_os2.o
 .text.osThreadGetName
                0x0000000000000000       0x34 build/cmsis_os2.o
 .text.osThreadGetId
                0x0000000000000000        0x4 build/cmsis_os2.o
 .text.osThreadGetState
                0x0000000000000000       0x48 build/cmsis_os2.o
 .text.osThreadGetStackSpace
                0x0000000000000000       0x34 build/cmsis_os2.o
 .text.osThreadSetPriority
                0x0000000000000000       0x48 build/cmsis_os2.o
 .text.osThreadGetPriority
                0x0000000000000000       0x34 build/cmsis_os2.o
 .text.osThreadYield
                0x0000000000000000       0x40 build/cmsis_os2.o
 .text.osThreadSuspend
                0x0000000000000000       0x40 build/cmsis_os2.o
 .text.osThreadResume
                0x0000000000000000       0x40 build/cmsis_os2.o
 .text.osThreadExit
                0x0000000000000000        0xc build/cmsis_os2.o
 .text.osThreadTerminate
                0x0000000000000000       0x5c build/cmsis_os2.o
 .text.osThreadGetCount
                0x0000000000000000       0x2c build/cmsis_os2.o
 .text.osThreadEnumerate
                0x0000000000000000       0x88 build/cmsis_os2.o
 .text.osThreadFlagsSet
                0x0000000000000000       0x98 build/cmsis_os2.o
 .text.osThreadFlagsClear
                0x0000000000000000       0x7c build/cmsis_os2.o
 .text.osThreadFlagsGet
                0x0000000000000000       0x4c build/cmsis_os2.o
 .text.osThreadFlagsWait
                0x0000000000000000       0xcc build/cmsis_os2.o
 .text.osDelayUntil
                0x0000000000000000       0x54 build/cmsis_os2.o
 .text.osTimerNew
                0x0000000000000000       0x84 build/cmsis_os2.o
 .text.osTimerGetName
                0x0000000000000000       0x34 build/cmsis_os2.o
 .text.osTimerStart
                0x0000000000000000       0x58 build/cmsis_os2.o
 .text.osTimerStop
                0x0000000000000000       0x6c build/cmsis_os2.o
 .text.osTimerIsRunning
                0x0000000000000000       0x34 build/cmsis_os2.o
 .text.osTimerDelete
                0x0000000000000000       0x74 build/cmsis_os2.o
 .text.osEventFlagsNew
                0x0000000000000000       0x44 build/cmsis_os2.o
 .text.osEventFlagsSet
                0x0000000000000000       0x7c build/cmsis_os2.o
 .text.osEventFlagsClear
                0x0000000000000000       0x64 build/cmsis_os2.o
 .text.osEventFlagsGet
                0x0000000000000000       0x34 build/cmsis_os2.o
 .text.osEventFlagsWait
                0x0000000000000000       0x7c build/cmsis_os2.o
 .text.osEventFlagsDelete
                0x0000000000000000       0x40 build/cmsis_os2.o
 .text.osMutexNew
                0x0000000000000000       0xa8 build/cmsis_os2.o
 .text.osMutexAcquire
                0x0000000000000000       0x70 build/cmsis_os2.o
 .text.osMutexRelease
                0x0000000000000000       0x6c build/cmsis_os2.o
 .text.osMutexGetOwner
                0x0000000000000000       0x38 build/cmsis_os2.o
 .text.osMutexDelete
                0x0000000000000000       0x54 build/cmsis_os2.o
 .text.osSemaphoreNew
                0x0000000000000000       0xcc build/cmsis_os2.o
 .text.osSemaphoreAcquire
                0x0000000000000000       0x84 build/cmsis_os2.o
 .text.osSemaphoreRelease
                0x0000000000000000       0x80 build/cmsis_os2.o
 .text.osSemaphoreGetCount
                0x0000000000000000       0x30 build/cmsis_os2.o
 .text.osSemaphoreDelete
                0x0000000000000000       0x50 build/cmsis_os2.o
 .text.osMessageQueueNew
                0x0000000000000000       0x98 build/cmsis_os2.o
 .text.osMessageQueuePut
                0x0000000000000000       0x90 build/cmsis_os2.o
 .text.osMessageQueueGet
                0x0000000000000000       0x8c build/cmsis_os2.o
 .text.osMessageQueueGetCapacity
                0x0000000000000000        0x8 build/cmsis_os2.o
 .text.osMessageQueueGetMsgSize
                0x0000000000000000        0x8 build/cmsis_os2.o
 .text.osMessageQueueGetCount
                0x0000000000000000        0x4 build/cmsis_os2.o
 .text.osMessageQueueGetSpace
                0x0000000000000000       0x4c build/cmsis_os2.o
 .text.osMessageQueueReset
                0x0000000000000000       0x44 build/cmsis_os2.o
 .text.osMessageQueueDelete
                0x0000000000000000        0x4 build/cmsis_os2.o
 .rodata.CSWTCH.104
                0x0000000000000000       0x14 build/cmsis_os2.o
 .text          0x0000000000000000        0x0 build/heap_4.o
 .data          0x0000000000000000        0x0 build/heap_4.o
 .bss           0x0000000000000000        0x0 build/heap_4.o
 .text.xPortGetFreeHeapSize
                0x0000000000000000        0xc build/heap_4.o
 .text.xPortGetMinimumEverFreeHeapSize
                0x0000000000000000        0xc build/heap_4.o
 .text.vPortInitialiseBlocks
                0x0000000000000000        0x4 build/heap_4.o
 .text          0x0000000000000000        0x0 build/port.o
 .data          0x0000000000000000        0x0 build/port.o
 .bss           0x0000000000000000        0x0 build/port.o
 .text.vPortEndScheduler
                0x0000000000000000       0x24 build/port.o
 .text          0x0000000000000000       0x14 build/startup_stm32g474xx.o
 .data          0x0000000000000000        0x0 build/startup_stm32g474xx.o
 .bss           0x0000000000000000        0x0 build/startup_stm32g474xx.o
 .data          0x0000000000000000        0x0 /usr/lib/gcc/arm-none-eabi/9.2.1/../../../arm-none-eabi/lib/thumb/v7e-m+fp/hard/libc.a(lib_a-atexit.o)
 .bss           0x0000000000000000        0x0 /usr/lib/gcc/arm-none-eabi/9.2.1/../../../arm-none-eabi/lib/thumb/v7e-m+fp/hard/libc.a(lib_a-atexit.o)
 .text          0x0000000000000000       0x20 /usr/lib/gcc/arm-none-eabi/9.2.1/../../../arm-none-eabi/lib/thumb/v7e-m+fp/hard/libc.a(lib_a-exit.o)
 .data          0x0000000000000000        0x0 /usr/lib/gcc/arm-none-eabi/9.2.1/../../../arm-none-eabi/lib/thumb/v7e-m+fp/hard/libc.a(lib_a-exit.o)
 .bss           0x0000000000000000        0x0 /usr/lib/gcc/arm-none-eabi/9.2.1/../../../arm-none-eabi/lib/thumb/v7e-m+fp/hard/libc.a(lib_a-exit.o)
 .debug_info    0x0000000000000000      0x9d0 /usr/lib/gcc/arm-none-eabi/9.2.1/../../../arm-none-eabi/lib/thumb/v7e-m+fp/hard/libc.a(lib_a-exit.o)
 .debug_abbrev  0x0000000000000000      0x21f /usr/lib/gcc/arm-none-eabi/9.2.1/../../../arm-none-eabi/lib/thumb/v7e-m+fp/hard/libc.a(lib_a-exit.o)
 .debug_loc     0x0000000000000000       0x22 /usr/lib/gcc/arm-none-eabi/9.2.1/../../../arm-none-eabi/lib/thumb/v7e-m+fp/hard/libc.a(lib_a-exit.o)
 .debug_aranges
                0x0000000000000000       0x20 /usr/lib/gcc/arm-none-eabi/9.2.1/../../../arm-none-eabi/lib/thumb/v7e-m+fp/hard/libc.a(lib_a-exit.o)
 .debug_line    0x0000000000000000      0x178 /usr/lib/gcc/arm-none-eabi/9.2.1/../../../arm-none-eabi/lib/thumb/v7e-m+fp/hard/libc.a(lib_a-exit.o)
 .debug_str     0x0000000000000000      0x5ec /usr/lib/gcc/arm-none-eabi/9.2.1/../../../arm-none-eabi/lib/thumb/v7e-m+fp/hard/libc.a(lib_a-exit.o)
 .comment       0x0000000000000000       0x4f /usr/lib/gcc/arm-none-eabi/9.2.1/../../../arm-none-eabi/lib/thumb/v7e-m+fp/hard/libc.a(lib_a-exit.o)
 .debug_frame   0x0000000000000000       0x28 /usr/lib/gcc/arm-none-eabi/9.2.1/../../../arm-none-eabi/lib/thumb/v7e-m+fp/hard/libc.a(lib_a-exit.o)
 .ARM.attributes
                0x0000000000000000       0x34 /usr/lib/gcc/arm-none-eabi/9.2.1/../../../arm-none-eabi/lib/thumb/v7e-m+fp/hard/libc.a(lib_a-exit.o)
 .data          0x0000000000000000        0x0 /usr/lib/gcc/arm-none-eabi/9.2.1/../../../arm-none-eabi/lib/thumb/v7e-m+fp/hard/libc.a(lib_a-fini.o)
 .bss           0x0000000000000000        0x0 /usr/lib/gcc/arm-none-eabi/9.2.1/../../../arm-none-eabi/lib/thumb/v7e-m+fp/hard/libc.a(lib_a-fini.o)
 .text          0x0000000000000000        0x0 /usr/lib/gcc/arm-none-eabi/9.2.1/../../../arm-none-eabi/lib/thumb/v7e-m+fp/hard/libc.a(lib_a-impure.o)
 .bss           0x0000000000000000        0x0 /usr/lib/gcc/arm-none-eabi/9.2.1/../../../arm-none-eabi/lib/thumb/v7e-m+fp/hard/libc.a(lib_a-impure.o)
 .data          0x0000000000000000        0x0 /usr/lib/gcc/arm-none-eabi/9.2.1/../../../arm-none-eabi/lib/thumb/v7e-m+fp/hard/libc.a(lib_a-init.o)
 .bss           0x0000000000000000        0x0 /usr/lib/gcc/arm-none-eabi/9.2.1/../../../arm-none-eabi/lib/thumb/v7e-m+fp/hard/libc.a(lib_a-init.o)
 .data          0x0000000000000000        0x0 /usr/lib/gcc/arm-none-eabi/9.2.1/../../../arm-none-eabi/lib/thumb/v7e-m+fp/hard/libc.a(lib_a-memcpy.o)
 .bss           0x0000000000000000        0x0 /usr/lib/gcc/arm-none-eabi/9.2.1/../../../arm-none-eabi/lib/thumb/v7e-m+fp/hard/libc.a(lib_a-memcpy.o)
 .data          0x0000000000000000        0x0 /usr/lib/gcc/arm-none-eabi/9.2.1/../../../arm-none-eabi/lib/thumb/v7e-m+fp/hard/libc.a(lib_a-memset.o)
 .bss           0x0000000000000000        0x0 /usr/lib/gcc/arm-none-eabi/9.2.1/../../../arm-none-eabi/lib/thumb/v7e-m+fp/hard/libc.a(lib_a-memset.o)
 .data          0x0000000000000000        0x0 /usr/lib/gcc/arm-none-eabi/9.2.1/../../../arm-none-eabi/lib/thumb/v7e-m+fp/hard/libc.a(lib_a-__atexit.o)
 .bss           0x0000000000000000        0x0 /usr/lib/gcc/arm-none-eabi/9.2.1/../../../arm-none-eabi/lib/thumb/v7e-m+fp/hard/libc.a(lib_a-__atexit.o)
 .text          0x0000000000000000       0x9c /usr/lib/gcc/arm-none-eabi/9.2.1/../../../arm-none-eabi/lib/thumb/v7e-m+fp/hard/libc.a(lib_a-__call_atexit.o)
 .data          0x0000000000000000        0x0 /usr/lib/gcc/arm-none-eabi/9.2.1/../../../arm-none-eabi/lib/thumb/v7e-m+fp/hard/libc.a(lib_a-__call_atexit.o)
 .bss           0x0000000000000000        0x0 /usr/lib/gcc/arm-none-eabi/9.2.1/../../../arm-none-eabi/lib/thumb/v7e-m+fp/hard/libc.a(lib_a-__call_atexit.o)
 .data          0x0000000000000000        0x0 /usr/lib/gcc/arm-none-eabi/9.2.1/../../../arm-none-eabi/lib/thumb/v7e-m+fp/hard/libnosys.a(_exit.o)
 .bss           0x0000000000000000        0x0 /usr/lib/gcc/arm-none-eabi/9.2.1/../../../arm-none-eabi/lib/thumb/v7e-m+fp/hard/libnosys.a(_exit.o)
 .debug_info    0x0000000000000000       0xa3 /usr/lib/gcc/arm-none-eabi/9.2.1/../../../arm-none-eabi/lib/thumb/v7e-m+fp/hard/libnosys.a(_exit.o)
 .debug_abbrev  0x0000000000000000       0x6a /usr/lib/gcc/arm-none-eabi/9.2.1/../../../arm-none-eabi/lib/thumb/v7e-m+fp/hard/libnosys.a(_exit.o)
 .debug_loc     0x0000000000000000       0x15 /usr/lib/gcc/arm-none-eabi/9.2.1/../../../arm-none-eabi/lib/thumb/v7e-m+fp/hard/libnosys.a(_exit.o)
 .debug_aranges
                0x0000000000000000       0x20 /usr/lib/gcc/arm-none-eabi/9.2.1/../../../arm-none-eabi/lib/thumb/v7e-m+fp/hard/libnosys.a(_exit.o)
 .debug_line    0x0000000000000000       0x6e /usr/lib/gcc/arm-none-eabi/9.2.1/../../../arm-none-eabi/lib/thumb/v7e-m+fp/hard/libnosys.a(_exit.o)
 .debug_str     0x0000000000000000      0x19f /usr/lib/gcc/arm-none-eabi/9.2.1/../../../arm-none-eabi/lib/thumb/v7e-m+fp/hard/libnosys.a(_exit.o)
 .comment       0x0000000000000000       0x4f /usr/lib/gcc/arm-none-eabi/9.2.1/../../../arm-none-eabi/lib/thumb/v7e-m+fp/hard/libnosys.a(_exit.o)
 .debug_frame   0x0000000000000000       0x20 /usr/lib/gcc/arm-none-eabi/9.2.1/../../../arm-none-eabi/lib/thumb/v7e-m+fp/hard/libnosys.a(_exit.o)
 .ARM.attributes
                0x0000000000000000       0x34 /usr/lib/gcc/arm-none-eabi/9.2.1/../../../arm-none-eabi/lib/thumb/v7e-m+fp/hard/libnosys.a(_exit.o)
 .data          0x0000000000000000        0x0 /usr/lib/gcc/arm-none-eabi/9.2.1/thumb/v7e-m+fp/hard/libgcc.a(unwind-arm.o)
 .bss           0x0000000000000000        0x0 /usr/lib/gcc/arm-none-eabi/9.2.1/thumb/v7e-m+fp/hard/libgcc.a(unwind-arm.o)
 .ARM.extab     0x0000000000000000        0x0 /usr/lib/gcc/arm-none-eabi/9.2.1/thumb/v7e-m+fp/hard/libgcc.a(unwind-arm.o)
 .debug_info    0x0000000000000000     0x1e68 /usr/lib/gcc/arm-none-eabi/9.2.1/thumb/v7e-m+fp/hard/libgcc.a(unwind-arm.o)
 .debug_abbrev  0x0000000000000000      0x477 /usr/lib/gcc/arm-none-eabi/9.2.1/thumb/v7e-m+fp/hard/libgcc.a(unwind-arm.o)
 .debug_loc     0x0000000000000000     0x1cf9 /usr/lib/gcc/arm-none-eabi/9.2.1/thumb/v7e-m+fp/hard/libgcc.a(unwind-arm.o)
 .debug_aranges
                0x0000000000000000       0x20 /usr/lib/gcc/arm-none-eabi/9.2.1/thumb/v7e-m+fp/hard/libgcc.a(unwind-arm.o)
 .debug_ranges  0x0000000000000000      0x108 /usr/lib/gcc/arm-none-eabi/9.2.1/thumb/v7e-m+fp/hard/libgcc.a(unwind-arm.o)
 .debug_line    0x0000000000000000     0x103f /usr/lib/gcc/arm-none-eabi/9.2.1/thumb/v7e-m+fp/hard/libgcc.a(unwind-arm.o)
 .debug_str     0x0000000000000000      0xcbb /usr/lib/gcc/arm-none-eabi/9.2.1/thumb/v7e-m+fp/hard/libgcc.a(unwind-arm.o)
 .comment       0x0000000000000000       0x5a /usr/lib/gcc/arm-none-eabi/9.2.1/thumb/v7e-m+fp/hard/libgcc.a(unwind-arm.o)
 .debug_frame   0x0000000000000000      0x2e4 /usr/lib/gcc/arm-none-eabi/9.2.1/thumb/v7e-m+fp/hard/libgcc.a(unwind-arm.o)
 .ARM.attributes
                0x0000000000000000       0x34 /usr/lib/gcc/arm-none-eabi/9.2.1/thumb/v7e-m+fp/hard/libgcc.a(unwind-arm.o)
 .data          0x0000000000000000        0x0 /usr/lib/gcc/arm-none-eabi/9.2.1/thumb/v7e-m+fp/hard/libgcc.a(libunwind.o)
 .bss           0x0000000000000000        0x0 /usr/lib/gcc/arm-none-eabi/9.2.1/thumb/v7e-m+fp/hard/libgcc.a(libunwind.o)
 .debug_line    0x0000000000000000       0xad /usr/lib/gcc/arm-none-eabi/9.2.1/thumb/v7e-m+fp/hard/libgcc.a(libunwind.o)
 .debug_info    0x0000000000000000       0x26 /usr/lib/gcc/arm-none-eabi/9.2.1/thumb/v7e-m+fp/hard/libgcc.a(libunwind.o)
 .debug_abbrev  0x0000000000000000       0x14 /usr/lib/gcc/arm-none-eabi/9.2.1/thumb/v7e-m+fp/hard/libgcc.a(libunwind.o)
 .debug_aranges
                0x0000000000000000       0x20 /usr/lib/gcc/arm-none-eabi/9.2.1/thumb/v7e-m+fp/hard/libgcc.a(libunwind.o)
 .debug_str     0x0000000000000000       0xa7 /usr/lib/gcc/arm-none-eabi/9.2.1/thumb/v7e-m+fp/hard/libgcc.a(libunwind.o)
 .ARM.attributes
                0x0000000000000000       0x1e /usr/lib/gcc/arm-none-eabi/9.2.1/thumb/v7e-m+fp/hard/libgcc.a(libunwind.o)
 .data          0x0000000000000000        0x0 /usr/lib/gcc/arm-none-eabi/9.2.1/thumb/v7e-m+fp/hard/libgcc.a(pr-support.o)
 .bss           0x0000000000000000        0x0 /usr/lib/gcc/arm-none-eabi/9.2.1/thumb/v7e-m+fp/hard/libgcc.a(pr-support.o)
 .text.unlikely
                0x0000000000000000        0xc /usr/lib/gcc/arm-none-eabi/9.2.1/thumb/v7e-m+fp/hard/libgcc.a(pr-support.o)
 .ARM.extab.text.unlikely
                0x0000000000000000        0x0 /usr/lib/gcc/arm-none-eabi/9.2.1/thumb/v7e-m+fp/hard/libgcc.a(pr-support.o)
 .ARM.exidx.text.unlikely
                0x0000000000000000       0x10 /usr/lib/gcc/arm-none-eabi/9.2.1/thumb/v7e-m+fp/hard/libgcc.a(pr-support.o)
 .debug_info    0x0000000000000000      0x9d0 /usr/lib/gcc/arm-none-eabi/9.2.1/thumb/v7e-m+fp/hard/libgcc.a(pr-support.o)
 .debug_abbrev  0x0000000000000000      0x2c7 /usr/lib/gcc/arm-none-eabi/9.2.1/thumb/v7e-m+fp/hard/libgcc.a(pr-support.o)
 .debug_loc     0x0000000000000000      0x5d5 /usr/lib/gcc/arm-none-eabi/9.2.1/thumb/v7e-m+fp/hard/libgcc.a(pr-support.o)
 .debug_aranges
                0x0000000000000000       0x28 /usr/lib/gcc/arm-none-eabi/9.2.1/thumb/v7e-m+fp/hard/libgcc.a(pr-support.o)
 .debug_ranges  0x0000000000000000       0x18 /usr/lib/gcc/arm-none-eabi/9.2.1/thumb/v7e-m+fp/hard/libgcc.a(pr-support.o)
 .debug_line    0x0000000000000000      0x564 /usr/lib/gcc/arm-none-eabi/9.2.1/thumb/v7e-m+fp/hard/libgcc.a(pr-support.o)
 .debug_str     0x0000000000000000      0x585 /usr/lib/gcc/arm-none-eabi/9.2.1/thumb/v7e-m+fp/hard/libgcc.a(pr-support.o)
 .comment       0x0000000000000000       0x5a /usr/lib/gcc/arm-none-eabi/9.2.1/thumb/v7e-m+fp/hard/libgcc.a(pr-support.o)
 .debug_frame   0x0000000000000000      0x104 /usr/lib/gcc/arm-none-eabi/9.2.1/thumb/v7e-m+fp/hard/libgcc.a(pr-support.o)
 .ARM.attributes
                0x0000000000000000       0x34 /usr/lib/gcc/arm-none-eabi/9.2.1/thumb/v7e-m+fp/hard/libgcc.a(pr-support.o)
 .data          0x0000000000000000        0x0 /usr/lib/gcc/arm-none-eabi/9.2.1/../../../arm-none-eabi/lib/thumb/v7e-m+fp/hard/libc.a(lib_a-abort.o)
 .bss           0x0000000000000000        0x0 /usr/lib/gcc/arm-none-eabi/9.2.1/../../../arm-none-eabi/lib/thumb/v7e-m+fp/hard/libc.a(lib_a-abort.o)
 .debug_info    0x0000000000000000      0x9b5 /usr/lib/gcc/arm-none-eabi/9.2.1/../../../arm-none-eabi/lib/thumb/v7e-m+fp/hard/libc.a(lib_a-abort.o)
 .debug_abbrev  0x0000000000000000      0x20b /usr/lib/gcc/arm-none-eabi/9.2.1/../../../arm-none-eabi/lib/thumb/v7e-m+fp/hard/libc.a(lib_a-abort.o)
 .debug_aranges
                0x0000000000000000       0x20 /usr/lib/gcc/arm-none-eabi/9.2.1/../../../arm-none-eabi/lib/thumb/v7e-m+fp/hard/libc.a(lib_a-abort.o)
 .debug_line    0x0000000000000000      0x15f /usr/lib/gcc/arm-none-eabi/9.2.1/../../../arm-none-eabi/lib/thumb/v7e-m+fp/hard/libc.a(lib_a-abort.o)
 .debug_str     0x0000000000000000      0x5de /usr/lib/gcc/arm-none-eabi/9.2.1/../../../arm-none-eabi/lib/thumb/v7e-m+fp/hard/libc.a(lib_a-abort.o)
 .comment       0x0000000000000000       0x4f /usr/lib/gcc/arm-none-eabi/9.2.1/../../../arm-none-eabi/lib/thumb/v7e-m+fp/hard/libc.a(lib_a-abort.o)
 .debug_frame   0x0000000000000000       0x28 /usr/lib/gcc/arm-none-eabi/9.2.1/../../../arm-none-eabi/lib/thumb/v7e-m+fp/hard/libc.a(lib_a-abort.o)
 .ARM.attributes
                0x0000000000000000       0x34 /usr/lib/gcc/arm-none-eabi/9.2.1/../../../arm-none-eabi/lib/thumb/v7e-m+fp/hard/libc.a(lib_a-abort.o)
 .data          0x0000000000000000        0x0 /usr/lib/gcc/arm-none-eabi/9.2.1/../../../arm-none-eabi/lib/thumb/v7e-m+fp/hard/libc.a(lib_a-signal.o)
 .bss           0x0000000000000000        0x0 /usr/lib/gcc/arm-none-eabi/9.2.1/../../../arm-none-eabi/lib/thumb/v7e-m+fp/hard/libc.a(lib_a-signal.o)
 .debug_info    0x0000000000000000      0xd5c /usr/lib/gcc/arm-none-eabi/9.2.1/../../../arm-none-eabi/lib/thumb/v7e-m+fp/hard/libc.a(lib_a-signal.o)
 .debug_abbrev  0x0000000000000000      0x36b /usr/lib/gcc/arm-none-eabi/9.2.1/../../../arm-none-eabi/lib/thumb/v7e-m+fp/hard/libc.a(lib_a-signal.o)
 .debug_loc     0x0000000000000000      0x560 /usr/lib/gcc/arm-none-eabi/9.2.1/../../../arm-none-eabi/lib/thumb/v7e-m+fp/hard/libc.a(lib_a-signal.o)
 .debug_aranges
                0x0000000000000000       0x20 /usr/lib/gcc/arm-none-eabi/9.2.1/../../../arm-none-eabi/lib/thumb/v7e-m+fp/hard/libc.a(lib_a-signal.o)
 .debug_ranges  0x0000000000000000       0x30 /usr/lib/gcc/arm-none-eabi/9.2.1/../../../arm-none-eabi/lib/thumb/v7e-m+fp/hard/libc.a(lib_a-signal.o)
 .debug_line    0x0000000000000000      0x3cc /usr/lib/gcc/arm-none-eabi/9.2.1/../../../arm-none-eabi/lib/thumb/v7e-m+fp/hard/libc.a(lib_a-signal.o)
 .debug_str     0x0000000000000000      0x643 /usr/lib/gcc/arm-none-eabi/9.2.1/../../../arm-none-eabi/lib/thumb/v7e-m+fp/hard/libc.a(lib_a-signal.o)
 .comment       0x0000000000000000       0x4f /usr/lib/gcc/arm-none-eabi/9.2.1/../../../arm-none-eabi/lib/thumb/v7e-m+fp/hard/libc.a(lib_a-signal.o)
 .debug_frame   0x0000000000000000       0xe0 /usr/lib/gcc/arm-none-eabi/9.2.1/../../../arm-none-eabi/lib/thumb/v7e-m+fp/hard/libc.a(lib_a-signal.o)
 .ARM.attributes
                0x0000000000000000       0x34 /usr/lib/gcc/arm-none-eabi/9.2.1/../../../arm-none-eabi/lib/thumb/v7e-m+fp/hard/libc.a(lib_a-signal.o)
 .data          0x0000000000000000        0x0 /usr/lib/gcc/arm-none-eabi/9.2.1/../../../arm-none-eabi/lib/thumb/v7e-m+fp/hard/libc.a(lib_a-signalr.o)
 .bss           0x0000000000000000        0x0 /usr/lib/gcc/arm-none-eabi/9.2.1/../../../arm-none-eabi/lib/thumb/v7e-m+fp/hard/libc.a(lib_a-signalr.o)
 .debug_info    0x0000000000000000      0xa44 /usr/lib/gcc/arm-none-eabi/9.2.1/../../../arm-none-eabi/lib/thumb/v7e-m+fp/hard/libc.a(lib_a-signalr.o)
 .debug_abbrev  0x0000000000000000      0x255 /usr/lib/gcc/arm-none-eabi/9.2.1/../../../arm-none-eabi/lib/thumb/v7e-m+fp/hard/libc.a(lib_a-signalr.o)
 .debug_loc     0x0000000000000000       0xd0 /usr/lib/gcc/arm-none-eabi/9.2.1/../../../arm-none-eabi/lib/thumb/v7e-m+fp/hard/libc.a(lib_a-signalr.o)
 .debug_aranges
                0x0000000000000000       0x20 /usr/lib/gcc/arm-none-eabi/9.2.1/../../../arm-none-eabi/lib/thumb/v7e-m+fp/hard/libc.a(lib_a-signalr.o)
 .debug_line    0x0000000000000000      0x1a4 /usr/lib/gcc/arm-none-eabi/9.2.1/../../../arm-none-eabi/lib/thumb/v7e-m+fp/hard/libc.a(lib_a-signalr.o)
 .debug_str     0x0000000000000000      0x5e8 /usr/lib/gcc/arm-none-eabi/9.2.1/../../../arm-none-eabi/lib/thumb/v7e-m+fp/hard/libc.a(lib_a-signalr.o)
 .comment       0x0000000000000000       0x4f /usr/lib/gcc/arm-none-eabi/9.2.1/../../../arm-none-eabi/lib/thumb/v7e-m+fp/hard/libc.a(lib_a-signalr.o)
 .debug_frame   0x0000000000000000       0x3c /usr/lib/gcc/arm-none-eabi/9.2.1/../../../arm-none-eabi/lib/thumb/v7e-m+fp/hard/libc.a(lib_a-signalr.o)
 .ARM.attributes
                0x0000000000000000       0x34 /usr/lib/gcc/arm-none-eabi/9.2.1/../../../arm-none-eabi/lib/thumb/v7e-m+fp/hard/libc.a(lib_a-signalr.o)
 .debug_info    0x0000000000000000      0xf41 /usr/lib/gcc/arm-none-eabi/9.2.1/../../../arm-none-eabi/lib/thumb/v7e-m+fp/hard/libc.a(lib_a-mallocr.o)
 .debug_abbrev  0x0000000000000000      0x321 /usr/lib/gcc/arm-none-eabi/9.2.1/../../../arm-none-eabi/lib/thumb/v7e-m+fp/hard/libc.a(lib_a-mallocr.o)
 .debug_loc     0x0000000000000000      0xf44 /usr/lib/gcc/arm-none-eabi/9.2.1/../../../arm-none-eabi/lib/thumb/v7e-m+fp/hard/libc.a(lib_a-mallocr.o)
 .debug_aranges
                0x0000000000000000       0x20 /usr/lib/gcc/arm-none-eabi/9.2.1/../../../arm-none-eabi/lib/thumb/v7e-m+fp/hard/libc.a(lib_a-mallocr.o)
 .debug_ranges  0x0000000000000000       0x38 /usr/lib/gcc/arm-none-eabi/9.2.1/../../../arm-none-eabi/lib/thumb/v7e-m+fp/hard/libc.a(lib_a-mallocr.o)
 .debug_line    0x0000000000000000      0x89e /usr/lib/gcc/arm-none-eabi/9.2.1/../../../arm-none-eabi/lib/thumb/v7e-m+fp/hard/libc.a(lib_a-mallocr.o)
 .debug_str     0x0000000000000000      0x808 /usr/lib/gcc/arm-none-eabi/9.2.1/../../../arm-none-eabi/lib/thumb/v7e-m+fp/hard/libc.a(lib_a-mallocr.o)
 .comment       0x0000000000000000       0x4f /usr/lib/gcc/arm-none-eabi/9.2.1/../../../arm-none-eabi/lib/thumb/v7e-m+fp/hard/libc.a(lib_a-mallocr.o)
 .debug_frame   0x0000000000000000       0x4c /usr/lib/gcc/arm-none-eabi/9.2.1/../../../arm-none-eabi/lib/thumb/v7e-m+fp/hard/libc.a(lib_a-mallocr.o)
 .ARM.attributes
                0x0000000000000000       0x34 /usr/lib/gcc/arm-none-eabi/9.2.1/../../../arm-none-eabi/lib/thumb/v7e-m+fp/hard/libc.a(lib_a-mallocr.o)
 .data          0x0000000000000000        0x0 /usr/lib/gcc/arm-none-eabi/9.2.1/../../../arm-none-eabi/lib/thumb/v7e-m+fp/hard/libc.a(lib_a-mlock.o)
 .bss           0x0000000000000000        0x0 /usr/lib/gcc/arm-none-eabi/9.2.1/../../../arm-none-eabi/lib/thumb/v7e-m+fp/hard/libc.a(lib_a-mlock.o)
 .debug_info    0x0000000000000000      0x961 /usr/lib/gcc/arm-none-eabi/9.2.1/../../../arm-none-eabi/lib/thumb/v7e-m+fp/hard/libc.a(lib_a-mlock.o)
 .debug_abbrev  0x0000000000000000      0x203 /usr/lib/gcc/arm-none-eabi/9.2.1/../../../arm-none-eabi/lib/thumb/v7e-m+fp/hard/libc.a(lib_a-mlock.o)
 .debug_aranges
                0x0000000000000000       0x20 /usr/lib/gcc/arm-none-eabi/9.2.1/../../../arm-none-eabi/lib/thumb/v7e-m+fp/hard/libc.a(lib_a-mlock.o)
 .debug_line    0x0000000000000000      0x13d /usr/lib/gcc/arm-none-eabi/9.2.1/../../../arm-none-eabi/lib/thumb/v7e-m+fp/hard/libc.a(lib_a-mlock.o)
 .debug_str     0x0000000000000000      0x5cc /usr/lib/gcc/arm-none-eabi/9.2.1/../../../arm-none-eabi/lib/thumb/v7e-m+fp/hard/libc.a(lib_a-mlock.o)
 .comment       0x0000000000000000       0x4f /usr/lib/gcc/arm-none-eabi/9.2.1/../../../arm-none-eabi/lib/thumb/v7e-m+fp/hard/libc.a(lib_a-mlock.o)
 .debug_frame   0x0000000000000000       0x30 /usr/lib/gcc/arm-none-eabi/9.2.1/../../../arm-none-eabi/lib/thumb/v7e-m+fp/hard/libc.a(lib_a-mlock.o)
 .ARM.attributes
                0x0000000000000000       0x34 /usr/lib/gcc/arm-none-eabi/9.2.1/../../../arm-none-eabi/lib/thumb/v7e-m+fp/hard/libc.a(lib_a-mlock.o)
 .text          0x0000000000000000       0xa4 /usr/lib/gcc/arm-none-eabi/9.2.1/../../../arm-none-eabi/lib/thumb/v7e-m+fp/hard/libc.a(lib_a-reent.o)
 .data          0x0000000000000000        0x0 /usr/lib/gcc/arm-none-eabi/9.2.1/../../../arm-none-eabi/lib/thumb/v7e-m+fp/hard/libc.a(lib_a-reent.o)
 .bss           0x0000000000000000        0x0 /usr/lib/gcc/arm-none-eabi/9.2.1/../../../arm-none-eabi/lib/thumb/v7e-m+fp/hard/libc.a(lib_a-reent.o)
 .debug_info    0x0000000000000000      0xac5 /usr/lib/gcc/arm-none-eabi/9.2.1/../../../arm-none-eabi/lib/thumb/v7e-m+fp/hard/libc.a(lib_a-reent.o)
 .debug_abbrev  0x0000000000000000      0x2ba /usr/lib/gcc/arm-none-eabi/9.2.1/../../../arm-none-eabi/lib/thumb/v7e-m+fp/hard/libc.a(lib_a-reent.o)
 .debug_loc     0x0000000000000000      0x152 /usr/lib/gcc/arm-none-eabi/9.2.1/../../../arm-none-eabi/lib/thumb/v7e-m+fp/hard/libc.a(lib_a-reent.o)
 .debug_aranges
                0x0000000000000000       0x20 /usr/lib/gcc/arm-none-eabi/9.2.1/../../../arm-none-eabi/lib/thumb/v7e-m+fp/hard/libc.a(lib_a-reent.o)
 .debug_line    0x0000000000000000      0x21b /usr/lib/gcc/arm-none-eabi/9.2.1/../../../arm-none-eabi/lib/thumb/v7e-m+fp/hard/libc.a(lib_a-reent.o)
 .debug_str     0x0000000000000000      0x5dc /usr/lib/gcc/arm-none-eabi/9.2.1/../../../arm-none-eabi/lib/thumb/v7e-m+fp/hard/libc.a(lib_a-reent.o)
 .comment       0x0000000000000000       0x4f /usr/lib/gcc/arm-none-eabi/9.2.1/../../../arm-none-eabi/lib/thumb/v7e-m+fp/hard/libc.a(lib_a-reent.o)
 .debug_frame   0x0000000000000000       0x60 /usr/lib/gcc/arm-none-eabi/9.2.1/../../../arm-none-eabi/lib/thumb/v7e-m+fp/hard/libc.a(lib_a-reent.o)
 .ARM.attributes
                0x0000000000000000       0x34 /usr/lib/gcc/arm-none-eabi/9.2.1/../../../arm-none-eabi/lib/thumb/v7e-m+fp/hard/libc.a(lib_a-reent.o)
 .data          0x0000000000000000        0x0 /usr/lib/gcc/arm-none-eabi/9.2.1/../../../arm-none-eabi/lib/thumb/v7e-m+fp/hard/libc.a(lib_a-sbrkr.o)
 .bss           0x0000000000000000        0x0 /usr/lib/gcc/arm-none-eabi/9.2.1/../../../arm-none-eabi/lib/thumb/v7e-m+fp/hard/libc.a(lib_a-sbrkr.o)
 .debug_info    0x0000000000000000      0x9fb /usr/lib/gcc/arm-none-eabi/9.2.1/../../../arm-none-eabi/lib/thumb/v7e-m+fp/hard/libc.a(lib_a-sbrkr.o)
 .debug_abbrev  0x0000000000000000      0x250 /usr/lib/gcc/arm-none-eabi/9.2.1/../../../arm-none-eabi/lib/thumb/v7e-m+fp/hard/libc.a(lib_a-sbrkr.o)
 .debug_loc     0x0000000000000000       0x6c /usr/lib/gcc/arm-none-eabi/9.2.1/../../../arm-none-eabi/lib/thumb/v7e-m+fp/hard/libc.a(lib_a-sbrkr.o)
 .debug_aranges
                0x0000000000000000       0x20 /usr/lib/gcc/arm-none-eabi/9.2.1/../../../arm-none-eabi/lib/thumb/v7e-m+fp/hard/libc.a(lib_a-sbrkr.o)
 .debug_line    0x0000000000000000      0x182 /usr/lib/gcc/arm-none-eabi/9.2.1/../../../arm-none-eabi/lib/thumb/v7e-m+fp/hard/libc.a(lib_a-sbrkr.o)
 .debug_str     0x0000000000000000      0x5e3 /usr/lib/gcc/arm-none-eabi/9.2.1/../../../arm-none-eabi/lib/thumb/v7e-m+fp/hard/libc.a(lib_a-sbrkr.o)
 .comment       0x0000000000000000       0x4f /usr/lib/gcc/arm-none-eabi/9.2.1/../../../arm-none-eabi/lib/thumb/v7e-m+fp/hard/libc.a(lib_a-sbrkr.o)
 .debug_frame   0x0000000000000000       0x2c /usr/lib/gcc/arm-none-eabi/9.2.1/../../../arm-none-eabi/lib/thumb/v7e-m+fp/hard/libc.a(lib_a-sbrkr.o)
 .ARM.attributes
                0x0000000000000000       0x34 /usr/lib/gcc/arm-none-eabi/9.2.1/../../../arm-none-eabi/lib/thumb/v7e-m+fp/hard/libc.a(lib_a-sbrkr.o)
 .data          0x0000000000000000        0x0 /usr/lib/gcc/arm-none-eabi/9.2.1/../../../arm-none-eabi/lib/thumb/v7e-m+fp/hard/libc.a(lib_a-freer.o)
 .bss           0x0000000000000000        0x0 /usr/lib/gcc/arm-none-eabi/9.2.1/../../../arm-none-eabi/lib/thumb/v7e-m+fp/hard/libc.a(lib_a-freer.o)
 .debug_info    0x0000000000000000      0xdc4 /usr/lib/gcc/arm-none-eabi/9.2.1/../../../arm-none-eabi/lib/thumb/v7e-m+fp/hard/libc.a(lib_a-freer.o)
 .debug_abbrev  0x0000000000000000      0x2c9 /usr/lib/gcc/arm-none-eabi/9.2.1/../../../arm-none-eabi/lib/thumb/v7e-m+fp/hard/libc.a(lib_a-freer.o)
 .debug_loc     0x0000000000000000      0x6f8 /usr/lib/gcc/arm-none-eabi/9.2.1/../../../arm-none-eabi/lib/thumb/v7e-m+fp/hard/libc.a(lib_a-freer.o)
 .debug_aranges
                0x0000000000000000       0x20 /usr/lib/gcc/arm-none-eabi/9.2.1/../../../arm-none-eabi/lib/thumb/v7e-m+fp/hard/libc.a(lib_a-freer.o)
 .debug_line    0x0000000000000000      0x51c /usr/lib/gcc/arm-none-eabi/9.2.1/../../../arm-none-eabi/lib/thumb/v7e-m+fp/hard/libc.a(lib_a-freer.o)
 .debug_str     0x0000000000000000      0x781 /usr/lib/gcc/arm-none-eabi/9.2.1/../../../arm-none-eabi/lib/thumb/v7e-m+fp/hard/libc.a(lib_a-freer.o)
 .comment       0x0000000000000000       0x4f /usr/lib/gcc/arm-none-eabi/9.2.1/../../../arm-none-eabi/lib/thumb/v7e-m+fp/hard/libc.a(lib_a-freer.o)
 .debug_frame   0x0000000000000000       0x8c /usr/lib/gcc/arm-none-eabi/9.2.1/../../../arm-none-eabi/lib/thumb/v7e-m+fp/hard/libc.a(lib_a-freer.o)
 .ARM.attributes
                0x0000000000000000       0x34 /usr/lib/gcc/arm-none-eabi/9.2.1/../../../arm-none-eabi/lib/thumb/v7e-m+fp/hard/libc.a(lib_a-freer.o)
 .data          0x0000000000000000        0x0 /usr/lib/gcc/arm-none-eabi/9.2.1/../../../arm-none-eabi/lib/thumb/v7e-m+fp/hard/libnosys.a(getpid.o)
 .bss           0x0000000000000000        0x0 /usr/lib/gcc/arm-none-eabi/9.2.1/../../../arm-none-eabi/lib/thumb/v7e-m+fp/hard/libnosys.a(getpid.o)
 .stab          0x0000000000000000       0x24 /usr/lib/gcc/arm-none-eabi/9.2.1/../../../arm-none-eabi/lib/thumb/v7e-m+fp/hard/libnosys.a(getpid.o)
 .debug_info    0x0000000000000000      0x959 /usr/lib/gcc/arm-none-eabi/9.2.1/../../../arm-none-eabi/lib/thumb/v7e-m+fp/hard/libnosys.a(getpid.o)
 .debug_abbrev  0x0000000000000000      0x1d6 /usr/lib/gcc/arm-none-eabi/9.2.1/../../../arm-none-eabi/lib/thumb/v7e-m+fp/hard/libnosys.a(getpid.o)
 .debug_aranges
                0x0000000000000000       0x20 /usr/lib/gcc/arm-none-eabi/9.2.1/../../../arm-none-eabi/lib/thumb/v7e-m+fp/hard/libnosys.a(getpid.o)
 .debug_line    0x0000000000000000      0x10b /usr/lib/gcc/arm-none-eabi/9.2.1/../../../arm-none-eabi/lib/thumb/v7e-m+fp/hard/libnosys.a(getpid.o)
 .debug_str     0x0000000000000000      0x5a3 /usr/lib/gcc/arm-none-eabi/9.2.1/../../../arm-none-eabi/lib/thumb/v7e-m+fp/hard/libnosys.a(getpid.o)
 .comment       0x0000000000000000       0x4f /usr/lib/gcc/arm-none-eabi/9.2.1/../../../arm-none-eabi/lib/thumb/v7e-m+fp/hard/libnosys.a(getpid.o)
 .debug_frame   0x0000000000000000       0x20 /usr/lib/gcc/arm-none-eabi/9.2.1/../../../arm-none-eabi/lib/thumb/v7e-m+fp/hard/libnosys.a(getpid.o)
 .ARM.attributes
                0x0000000000000000       0x34 /usr/lib/gcc/arm-none-eabi/9.2.1/../../../arm-none-eabi/lib/thumb/v7e-m+fp/hard/libnosys.a(getpid.o)
 .data          0x0000000000000000        0x0 /usr/lib/gcc/arm-none-eabi/9.2.1/../../../arm-none-eabi/lib/thumb/v7e-m+fp/hard/libnosys.a(kill.o)
 .bss           0x0000000000000000        0x0 /usr/lib/gcc/arm-none-eabi/9.2.1/../../../arm-none-eabi/lib/thumb/v7e-m+fp/hard/libnosys.a(kill.o)
 .stab          0x0000000000000000       0x18 /usr/lib/gcc/arm-none-eabi/9.2.1/../../../arm-none-eabi/lib/thumb/v7e-m+fp/hard/libnosys.a(kill.o)
                                         0x24 (size before relaxing)
 .debug_info    0x0000000000000000      0x97c /usr/lib/gcc/arm-none-eabi/9.2.1/../../../arm-none-eabi/lib/thumb/v7e-m+fp/hard/libnosys.a(kill.o)
 .debug_abbrev  0x0000000000000000      0x1fb /usr/lib/gcc/arm-none-eabi/9.2.1/../../../arm-none-eabi/lib/thumb/v7e-m+fp/hard/libnosys.a(kill.o)
 .debug_loc     0x0000000000000000       0x25 /usr/lib/gcc/arm-none-eabi/9.2.1/../../../arm-none-eabi/lib/thumb/v7e-m+fp/hard/libnosys.a(kill.o)
 .debug_aranges
                0x0000000000000000       0x20 /usr/lib/gcc/arm-none-eabi/9.2.1/../../../arm-none-eabi/lib/thumb/v7e-m+fp/hard/libnosys.a(kill.o)
 .debug_line    0x0000000000000000      0x10a /usr/lib/gcc/arm-none-eabi/9.2.1/../../../arm-none-eabi/lib/thumb/v7e-m+fp/hard/libnosys.a(kill.o)
 .debug_str     0x0000000000000000      0x59f /usr/lib/gcc/arm-none-eabi/9.2.1/../../../arm-none-eabi/lib/thumb/v7e-m+fp/hard/libnosys.a(kill.o)
 .comment       0x0000000000000000       0x4f /usr/lib/gcc/arm-none-eabi/9.2.1/../../../arm-none-eabi/lib/thumb/v7e-m+fp/hard/libnosys.a(kill.o)
 .debug_frame   0x0000000000000000       0x20 /usr/lib/gcc/arm-none-eabi/9.2.1/../../../arm-none-eabi/lib/thumb/v7e-m+fp/hard/libnosys.a(kill.o)
 .ARM.attributes
                0x0000000000000000       0x34 /usr/lib/gcc/arm-none-eabi/9.2.1/../../../arm-none-eabi/lib/thumb/v7e-m+fp/hard/libnosys.a(kill.o)
 .data          0x0000000000000000        0x0 /usr/lib/gcc/arm-none-eabi/9.2.1/../../../arm-none-eabi/lib/thumb/v7e-m+fp/hard/libnosys.a(sbrk.o)
 .debug_info    0x0000000000000000       0x9d /usr/lib/gcc/arm-none-eabi/9.2.1/../../../arm-none-eabi/lib/thumb/v7e-m+fp/hard/libnosys.a(sbrk.o)
 .debug_abbrev  0x0000000000000000       0xa2 /usr/lib/gcc/arm-none-eabi/9.2.1/../../../arm-none-eabi/lib/thumb/v7e-m+fp/hard/libnosys.a(sbrk.o)
 .debug_loc     0x0000000000000000       0x3e /usr/lib/gcc/arm-none-eabi/9.2.1/../../../arm-none-eabi/lib/thumb/v7e-m+fp/hard/libnosys.a(sbrk.o)
 .debug_aranges
                0x0000000000000000       0x20 /usr/lib/gcc/arm-none-eabi/9.2.1/../../../arm-none-eabi/lib/thumb/v7e-m+fp/hard/libnosys.a(sbrk.o)
 .debug_line    0x0000000000000000       0x79 /usr/lib/gcc/arm-none-eabi/9.2.1/../../../arm-none-eabi/lib/thumb/v7e-m+fp/hard/libnosys.a(sbrk.o)
 .debug_str     0x0000000000000000      0x12f /usr/lib/gcc/arm-none-eabi/9.2.1/../../../arm-none-eabi/lib/thumb/v7e-m+fp/hard/libnosys.a(sbrk.o)
 .comment       0x0000000000000000       0x4f /usr/lib/gcc/arm-none-eabi/9.2.1/../../../arm-none-eabi/lib/thumb/v7e-m+fp/hard/libnosys.a(sbrk.o)
 .debug_frame   0x0000000000000000       0x20 /usr/lib/gcc/arm-none-eabi/9.2.1/../../../arm-none-eabi/lib/thumb/v7e-m+fp/hard/libnosys.a(sbrk.o)
 .ARM.attributes
                0x0000000000000000       0x34 /usr/lib/gcc/arm-none-eabi/9.2.1/../../../arm-none-eabi/lib/thumb/v7e-m+fp/hard/libnosys.a(sbrk.o)
 .text          0x0000000000000000        0x0 /usr/lib/gcc/arm-none-eabi/9.2.1/thumb/v7e-m+fp/hard/crtend.o
 .data          0x0000000000000000        0x0 /usr/lib/gcc/arm-none-eabi/9.2.1/thumb/v7e-m+fp/hard/crtend.o
 .bss           0x0000000000000000        0x0 /usr/lib/gcc/arm-none-eabi/9.2.1/thumb/v7e-m+fp/hard/crtend.o
 .eh_frame      0x0000000000000000        0x4 /usr/lib/gcc/arm-none-eabi/9.2.1/thumb/v7e-m+fp/hard/crtend.o
 .text          0x0000000000000000        0x0 /usr/lib/gcc/arm-none-eabi/9.2.1/thumb/v7e-m+fp/hard/crtn.o
 .data          0x0000000000000000        0x0 /usr/lib/gcc/arm-none-eabi/9.2.1/thumb/v7e-m+fp/hard/crtn.o
 .bss           0x0000000000000000        0x0 /usr/lib/gcc/arm-none-eabi/9.2.1/thumb/v7e-m+fp/hard/crtn.o

Memory Configuration

Name             Origin             Length             Attributes
RAM              0x0000000020000000 0x0000000000020000 xrw
FLASH            0x0000000008000000 0x0000000000080000 xr
*default*        0x0000000000000000 0xffffffffffffffff

Linker script and memory map

LOAD /usr/lib/gcc/arm-none-eabi/9.2.1/thumb/v7e-m+fp/hard/crti.o
LOAD /usr/lib/gcc/arm-none-eabi/9.2.1/thumb/v7e-m+fp/hard/crtbegin.o
LOAD /usr/lib/gcc/arm-none-eabi/9.2.1/../../../arm-none-eabi/lib/thumb/v7e-m+fp/hard/crt0.o
LOAD build/main.o
LOAD build/SerialHandler.o
LOAD build/gpio.o
LOAD build/app_freertos.o
LOAD build/adc.o
LOAD build/cordic.o
LOAD build/dma.o
LOAD build/fdcan.o
LOAD build/fmac.o
LOAD build/spi.o
LOAD build/tim.o
LOAD build/usart.o
LOAD build/stm32g4xx_it.o
LOAD build/stm32g4xx_hal_msp.o
LOAD build/stm32g4xx_hal_timebase_tim.o
LOAD build/stm32g4xx_ll_utils.o
LOAD build/stm32g4xx_ll_exti.o
LOAD build/stm32g4xx_ll_gpio.o
LOAD build/stm32g4xx_hal_adc.o
LOAD build/stm32g4xx_hal_adc_ex.o
LOAD build/stm32g4xx_ll_adc.o
LOAD build/stm32g4xx_hal_gpio.o
LOAD build/stm32g4xx_hal.o
LOAD build/stm32g4xx_hal_rcc.o
LOAD build/stm32g4xx_hal_rcc_ex.o
LOAD build/stm32g4xx_hal_flash.o
LOAD build/stm32g4xx_hal_flash_ex.o
LOAD build/stm32g4xx_hal_flash_ramfunc.o
LOAD build/stm32g4xx_hal_exti.o
LOAD build/stm32g4xx_hal_dma.o
LOAD build/stm32g4xx_hal_dma_ex.o
LOAD build/stm32g4xx_hal_pwr.o
LOAD build/stm32g4xx_hal_pwr_ex.o
LOAD build/stm32g4xx_hal_cortex.o
LOAD build/stm32g4xx_ll_cordic.o
LOAD build/stm32g4xx_ll_dma.o
LOAD build/stm32g4xx_hal_fdcan.o
LOAD build/stm32g4xx_ll_fmac.o
LOAD build/stm32g4xx_hal_spi.o
LOAD build/stm32g4xx_hal_spi_ex.o
LOAD build/stm32g4xx_hal_tim.o
LOAD build/stm32g4xx_hal_tim_ex.o
LOAD build/stm32g4xx_ll_usart.o
LOAD build/stm32g4xx_ll_rcc.o
LOAD build/system_stm32g4xx.o
LOAD build/croutine.o
LOAD build/event_groups.o
LOAD build/list.o
LOAD build/queue.o
LOAD build/stream_buffer.o
LOAD build/tasks.o
LOAD build/timers.o
LOAD build/cmsis_os2.o
LOAD build/heap_4.o
LOAD build/port.o
LOAD build/startup_stm32g474xx.o
LOAD /usr/lib/gcc/arm-none-eabi/9.2.1/../../../arm-none-eabi/lib/thumb/v7e-m+fp/hard/libc.a
LOAD /usr/lib/gcc/arm-none-eabi/9.2.1/../../../arm-none-eabi/lib/thumb/v7e-m+fp/hard/libm.a
LOAD /usr/lib/gcc/arm-none-eabi/9.2.1/../../../arm-none-eabi/lib/thumb/v7e-m+fp/hard/libnosys.a
START GROUP
LOAD /usr/lib/gcc/arm-none-eabi/9.2.1/thumb/v7e-m+fp/hard/libgcc.a
LOAD /usr/lib/gcc/arm-none-eabi/9.2.1/../../../arm-none-eabi/lib/thumb/v7e-m+fp/hard/libc.a
END GROUP
START GROUP
LOAD /usr/lib/gcc/arm-none-eabi/9.2.1/thumb/v7e-m+fp/hard/libgcc.a
LOAD /usr/lib/gcc/arm-none-eabi/9.2.1/../../../arm-none-eabi/lib/thumb/v7e-m+fp/hard/libc.a
LOAD /usr/lib/gcc/arm-none-eabi/9.2.1/../../../arm-none-eabi/lib/thumb/v7e-m+fp/hard/libnosys.a
END GROUP
LOAD /usr/lib/gcc/arm-none-eabi/9.2.1/thumb/v7e-m+fp/hard/crtend.o
LOAD /usr/lib/gcc/arm-none-eabi/9.2.1/thumb/v7e-m+fp/hard/crtn.o
                0x0000000020020000                _estack = 0x20020000
                0x0000000000000200                _Min_Heap_Size = 0x200
                0x0000000000000400                _Min_Stack_Size = 0x400

.isr_vector     0x0000000008000000      0x1d8
                0x0000000008000000                . = ALIGN (0x4)
 *(.isr_vector)
 .isr_vector    0x0000000008000000      0x1d8 build/startup_stm32g474xx.o
                0x0000000008000000                g_pfnVectors
                0x00000000080001d8                . = ALIGN (0x4)

.text           0x00000000080001e0     0x6a34
                0x00000000080001e0                . = ALIGN (0x4)
 *(.text)
 .text          0x00000000080001e0       0x88 /usr/lib/gcc/arm-none-eabi/9.2.1/thumb/v7e-m+fp/hard/crtbegin.o
 .text          0x0000000008000268        0xc /usr/lib/gcc/arm-none-eabi/9.2.1/../../../arm-none-eabi/lib/thumb/v7e-m+fp/hard/libc.a(lib_a-atexit.o)
                0x0000000008000268                atexit
 .text          0x0000000008000274       0x34 /usr/lib/gcc/arm-none-eabi/9.2.1/../../../arm-none-eabi/lib/thumb/v7e-m+fp/hard/libc.a(lib_a-fini.o)
                0x0000000008000274                __libc_fini_array
 .text          0x00000000080002a8       0x48 /usr/lib/gcc/arm-none-eabi/9.2.1/../../../arm-none-eabi/lib/thumb/v7e-m+fp/hard/libc.a(lib_a-init.o)
                0x00000000080002a8                __libc_init_array
 .text          0x00000000080002f0      0x134 /usr/lib/gcc/arm-none-eabi/9.2.1/../../../arm-none-eabi/lib/thumb/v7e-m+fp/hard/libc.a(lib_a-memcpy.o)
                0x00000000080002f0                memcpy
 .text          0x0000000008000424       0xa0 /usr/lib/gcc/arm-none-eabi/9.2.1/../../../arm-none-eabi/lib/thumb/v7e-m+fp/hard/libc.a(lib_a-memset.o)
                0x0000000008000424                memset
 .text          0x00000000080004c4       0x68 /usr/lib/gcc/arm-none-eabi/9.2.1/../../../arm-none-eabi/lib/thumb/v7e-m+fp/hard/libc.a(lib_a-__atexit.o)
                0x00000000080004c4                __register_exitproc
 .text          0x000000000800052c        0x4 /usr/lib/gcc/arm-none-eabi/9.2.1/../../../arm-none-eabi/lib/thumb/v7e-m+fp/hard/libnosys.a(_exit.o)
                0x000000000800052c                _exit
 .text          0x0000000008000530      0x9b8 /usr/lib/gcc/arm-none-eabi/9.2.1/thumb/v7e-m+fp/hard/libgcc.a(unwind-arm.o)
                0x00000000080007d8                _Unwind_GetCFA
                0x00000000080007dc                __gnu_Unwind_RaiseException
                0x000000000800083c                __gnu_Unwind_ForcedUnwind
                0x0000000008000850                __gnu_Unwind_Resume
                0x0000000008000894                __gnu_Unwind_Resume_or_Rethrow
                0x00000000080008a4                _Unwind_Complete
                0x00000000080008a8                _Unwind_DeleteException
                0x00000000080008b4                _Unwind_VRS_Get
                0x00000000080008fc                _Unwind_VRS_Set
                0x0000000008000944                __gnu_Unwind_Backtrace
                0x0000000008000c64                __aeabi_unwind_cpp_pr0
                0x0000000008000c68                __aeabi_unwind_cpp_pr1
                0x0000000008000c6c                __aeabi_unwind_cpp_pr2
                0x0000000008000c70                _Unwind_VRS_Pop
 .text          0x0000000008000ee8      0x1ac /usr/lib/gcc/arm-none-eabi/9.2.1/thumb/v7e-m+fp/hard/libgcc.a(libunwind.o)
                0x0000000008000ee8                __restore_core_regs
                0x0000000008000ee8                restore_core_regs
                0x0000000008000f00                __gnu_Unwind_Restore_VFP
                0x0000000008000f08                __gnu_Unwind_Save_VFP
                0x0000000008000f10                __gnu_Unwind_Restore_VFP_D
                0x0000000008000f18                __gnu_Unwind_Save_VFP_D
                0x0000000008000f20                __gnu_Unwind_Restore_VFP_D_16_to_31
                0x0000000008000f28                __gnu_Unwind_Save_VFP_D_16_to_31
                0x0000000008000f30                __gnu_Unwind_Restore_WMMXD
                0x0000000008000f74                __gnu_Unwind_Save_WMMXD
                0x0000000008000fb8                __gnu_Unwind_Restore_WMMXC
                0x0000000008000fcc                __gnu_Unwind_Save_WMMXC
                0x0000000008000fe0                ___Unwind_RaiseException
                0x0000000008000fe0                _Unwind_RaiseException
                0x0000000008001004                ___Unwind_Resume
                0x0000000008001004                _Unwind_Resume
                0x0000000008001028                _Unwind_Resume_or_Rethrow
                0x0000000008001028                ___Unwind_Resume_or_Rethrow
                0x000000000800104c                ___Unwind_ForcedUnwind
                0x000000000800104c                _Unwind_ForcedUnwind
                0x0000000008001070                _Unwind_Backtrace
                0x0000000008001070                ___Unwind_Backtrace
 .text          0x0000000008001094      0x340 /usr/lib/gcc/arm-none-eabi/9.2.1/thumb/v7e-m+fp/hard/libgcc.a(pr-support.o)
                0x00000000080010ec                __gnu_unwind_execute
                0x0000000008001388                __gnu_unwind_frame
                0x00000000080013b4                _Unwind_GetRegionStart
                0x00000000080013c0                _Unwind_GetLanguageSpecificData
 .text          0x00000000080013d4       0x10 /usr/lib/gcc/arm-none-eabi/9.2.1/../../../arm-none-eabi/lib/thumb/v7e-m+fp/hard/libc.a(lib_a-abort.o)
                0x00000000080013d4                abort
 .text          0x00000000080013e4      0x15c /usr/lib/gcc/arm-none-eabi/9.2.1/../../../arm-none-eabi/lib/thumb/v7e-m+fp/hard/libc.a(lib_a-signal.o)
                0x000000000800140c                _init_signal_r
                0x0000000008001418                _signal_r
                0x0000000008001450                _raise_r
                0x00000000080014a8                __sigtramp_r
                0x00000000080014fc                raise
                0x000000000800150c                signal
                0x000000000800151c                _init_signal
                0x0000000008001530                __sigtramp
 .text          0x0000000008001540       0x2c /usr/lib/gcc/arm-none-eabi/9.2.1/../../../arm-none-eabi/lib/thumb/v7e-m+fp/hard/libc.a(lib_a-signalr.o)
                0x0000000008001540                _kill_r
                0x0000000008001568                _getpid_r
 .text          0x000000000800156c      0x564 /usr/lib/gcc/arm-none-eabi/9.2.1/../../../arm-none-eabi/lib/thumb/v7e-m+fp/hard/libc.a(lib_a-mallocr.o)
                0x000000000800156c                _malloc_r
 .text          0x0000000008001ad0        0x8 /usr/lib/gcc/arm-none-eabi/9.2.1/../../../arm-none-eabi/lib/thumb/v7e-m+fp/hard/libc.a(lib_a-mlock.o)
                0x0000000008001ad0                __malloc_lock
                0x0000000008001ad4                __malloc_unlock
 .text          0x0000000008001ad8       0x24 /usr/lib/gcc/arm-none-eabi/9.2.1/../../../arm-none-eabi/lib/thumb/v7e-m+fp/hard/libc.a(lib_a-sbrkr.o)
                0x0000000008001ad8                _sbrk_r
 .text          0x0000000008001afc      0x294 /usr/lib/gcc/arm-none-eabi/9.2.1/../../../arm-none-eabi/lib/thumb/v7e-m+fp/hard/libc.a(lib_a-freer.o)
                0x0000000008001afc                _malloc_trim_r
                0x0000000008001b9c                _free_r
 .text          0x0000000008001d90       0x10 /usr/lib/gcc/arm-none-eabi/9.2.1/../../../arm-none-eabi/lib/thumb/v7e-m+fp/hard/libnosys.a(getpid.o)
                0x0000000008001d90                _getpid
 .text          0x0000000008001da0       0x10 /usr/lib/gcc/arm-none-eabi/9.2.1/../../../arm-none-eabi/lib/thumb/v7e-m+fp/hard/libnosys.a(kill.o)
                0x0000000008001da0                _kill
 .text          0x0000000008001db0       0x1c /usr/lib/gcc/arm-none-eabi/9.2.1/../../../arm-none-eabi/lib/thumb/v7e-m+fp/hard/libnosys.a(sbrk.o)
                0x0000000008001db0                _sbrk
 *(.text*)
 .text.SystemClock_Config
                0x0000000008001dcc      0x110 build/main.o
                0x0000000008001dcc                SystemClock_Config
 .text.startup.main
                0x0000000008001edc       0x54 build/main.o
                0x0000000008001edc                main
 .text.HAL_TIM_PeriodElapsedCallback
                0x0000000008001f30       0x14 build/main.o
                0x0000000008001f30                HAL_TIM_PeriodElapsedCallback
 .text.Error_Handler
                0x0000000008001f44        0x4 build/main.o
                0x0000000008001f44                Error_Handler
 .text.comms_thread_entry
                0x0000000008001f48       0x20 build/SerialHandler.o
                0x0000000008001f48                comms_thread_entry
 .text.MX_GPIO_Init
                0x0000000008001f68       0xcc build/gpio.o
                0x0000000008001f68                MX_GPIO_Init
 .text.StartDefaultTask
                0x0000000008002034       0x40 build/app_freertos.o
                0x0000000008002034                StartDefaultTask
 .text.MX_FREERTOS_Init
                0x0000000008002074       0x20 build/app_freertos.o
                0x0000000008002074                MX_FREERTOS_Init
 .text.MX_ADC1_Init
                0x0000000008002094       0x9c build/adc.o
                0x0000000008002094                MX_ADC1_Init
 .text.MX_ADC2_Init
                0x0000000008002130       0x84 build/adc.o
                0x0000000008002130                MX_ADC2_Init
 .text.MX_ADC3_Init
                0x00000000080021b4       0xa0 build/adc.o
                0x00000000080021b4                MX_ADC3_Init
 .text.MX_ADC4_Init
                0x0000000008002254       0x84 build/adc.o
                0x0000000008002254                MX_ADC4_Init
 .text.MX_ADC5_Init
                0x00000000080022d8       0x84 build/adc.o
                0x00000000080022d8                MX_ADC5_Init
 .text.HAL_ADC_MspInit
                0x000000000800235c      0x1e0 build/adc.o
                0x000000000800235c                HAL_ADC_MspInit
 .text.MX_CORDIC_Init
                0x000000000800253c       0x20 build/cordic.o
                0x000000000800253c                MX_CORDIC_Init
 .text.MX_DMA_Init
                0x000000000800255c       0x58 build/dma.o
                0x000000000800255c                MX_DMA_Init
 .text.MX_FDCAN3_Init
                0x00000000080025b4       0x48 build/fdcan.o
                0x00000000080025b4                MX_FDCAN3_Init
 .text.HAL_FDCAN_MspInit
                0x00000000080025fc       0x68 build/fdcan.o
                0x00000000080025fc                HAL_FDCAN_MspInit
 .text.MX_FMAC_Init
                0x0000000008002664       0x20 build/fmac.o
                0x0000000008002664                MX_FMAC_Init
 .text.MX_SPI1_Init
                0x0000000008002684       0x4c build/spi.o
                0x0000000008002684                MX_SPI1_Init
 .text.MX_SPI2_Init
                0x00000000080026d0       0x4c build/spi.o
                0x00000000080026d0                MX_SPI2_Init
 .text.HAL_SPI_MspInit
                0x000000000800271c       0xfc build/spi.o
                0x000000000800271c                HAL_SPI_MspInit
 .text.MX_TIM2_Init
                0x0000000008002818       0x68 build/tim.o
                0x0000000008002818                MX_TIM2_Init
 .text.HAL_TIM_Encoder_MspInit
                0x0000000008002880       0x64 build/tim.o
                0x0000000008002880                HAL_TIM_Encoder_MspInit
 .text.HAL_TIM_Base_MspInit
                0x00000000080028e4       0x2c build/tim.o
                0x00000000080028e4                HAL_TIM_Base_MspInit
 .text.HAL_TIM_MspPostInit
                0x0000000008002910       0x70 build/tim.o
                0x0000000008002910                HAL_TIM_MspPostInit
 .text.MX_TIM8_Init
                0x0000000008002980      0x14c build/tim.o
                0x0000000008002980                MX_TIM8_Init
 .text.MX_USART2_UART_Init
                0x0000000008002acc      0x180 build/usart.o
                0x0000000008002acc                MX_USART2_UART_Init
 .text.NMI_Handler
                0x0000000008002c4c        0x4 build/stm32g4xx_it.o
                0x0000000008002c4c                NMI_Handler
 .text.HardFault_Handler
                0x0000000008002c50        0x4 build/stm32g4xx_it.o
                0x0000000008002c50                HardFault_Handler
 .text.MemManage_Handler
                0x0000000008002c54        0x4 build/stm32g4xx_it.o
                0x0000000008002c54                MemManage_Handler
 .text.BusFault_Handler
                0x0000000008002c58        0x4 build/stm32g4xx_it.o
                0x0000000008002c58                BusFault_Handler
 .text.UsageFault_Handler
                0x0000000008002c5c        0x4 build/stm32g4xx_it.o
                0x0000000008002c5c                UsageFault_Handler
 .text.DebugMon_Handler
                0x0000000008002c60        0x4 build/stm32g4xx_it.o
                0x0000000008002c60                DebugMon_Handler
 .text.DMA1_Channel1_IRQHandler
                0x0000000008002c64        0x4 build/stm32g4xx_it.o
                0x0000000008002c64                DMA1_Channel1_IRQHandler
 .text.DMA1_Channel2_IRQHandler
                0x0000000008002c68        0x4 build/stm32g4xx_it.o
                0x0000000008002c68                DMA1_Channel2_IRQHandler
 .text.TIM6_DAC_IRQHandler
                0x0000000008002c6c        0xc build/stm32g4xx_it.o
                0x0000000008002c6c                TIM6_DAC_IRQHandler
 .text.HAL_MspInit
                0x0000000008002c78       0x34 build/stm32g4xx_hal_msp.o
                0x0000000008002c78                HAL_MspInit
 .text.HAL_InitTick
                0x0000000008002cac       0x94 build/stm32g4xx_hal_timebase_tim.o
                0x0000000008002cac                HAL_InitTick
 .text.LL_SetSystemCoreClock
                0x0000000008002d40        0xc build/stm32g4xx_ll_utils.o
                0x0000000008002d40                LL_SetSystemCoreClock
 .text.LL_GPIO_Init
                0x0000000008002d4c      0x17c build/stm32g4xx_ll_gpio.o
                0x0000000008002d4c                LL_GPIO_Init
 .text.HAL_ADC_Init
                0x0000000008002ec8      0x24c build/stm32g4xx_hal_adc.o
                0x0000000008002ec8                HAL_ADC_Init
 .text.HAL_ADC_ConfigChannel
                0x0000000008003114      0x528 build/stm32g4xx_hal_adc.o
                0x0000000008003114                HAL_ADC_ConfigChannel
 .text.HAL_ADCEx_MultiModeConfigChannel
                0x000000000800363c      0x158 build/stm32g4xx_hal_adc_ex.o
                0x000000000800363c                HAL_ADCEx_MultiModeConfigChannel
 .text.HAL_GPIO_Init
                0x0000000008003794      0x1e8 build/stm32g4xx_hal_gpio.o
                0x0000000008003794                HAL_GPIO_Init
 .text.HAL_Init
                0x000000000800397c       0x20 build/stm32g4xx_hal.o
                0x000000000800397c                HAL_Init
 .text.HAL_IncTick
                0x000000000800399c       0x18 build/stm32g4xx_hal.o
                0x000000000800399c                HAL_IncTick
 .text.HAL_GetTick
                0x00000000080039b4        0xc build/stm32g4xx_hal.o
                0x00000000080039b4                HAL_GetTick
 .text.HAL_RCC_GetPCLK1Freq
                0x00000000080039c0       0x24 build/stm32g4xx_hal_rcc.o
                0x00000000080039c0                HAL_RCC_GetPCLK1Freq
 .text.HAL_RCC_GetClockConfig
                0x00000000080039e4       0x44 build/stm32g4xx_hal_rcc.o
                0x00000000080039e4                HAL_RCC_GetClockConfig
 .text.HAL_PWREx_DisableUCPDDeadBattery
                0x0000000008003a28       0x10 build/stm32g4xx_hal_pwr_ex.o
                0x0000000008003a28                HAL_PWREx_DisableUCPDDeadBattery
 .text.HAL_NVIC_SetPriorityGrouping
                0x0000000008003a38       0x28 build/stm32g4xx_hal_cortex.o
                0x0000000008003a38                HAL_NVIC_SetPriorityGrouping
 .text.HAL_NVIC_SetPriority
                0x0000000008003a60       0x70 build/stm32g4xx_hal_cortex.o
                0x0000000008003a60                HAL_NVIC_SetPriority
 .text.HAL_NVIC_EnableIRQ
                0x0000000008003ad0       0x1c build/stm32g4xx_hal_cortex.o
                0x0000000008003ad0                HAL_NVIC_EnableIRQ
 .text.HAL_FDCAN_Init
                0x0000000008003aec      0x280 build/stm32g4xx_hal_fdcan.o
                0x0000000008003aec                HAL_FDCAN_Init
 .text.HAL_SPI_Init
                0x0000000008003d6c      0x10c build/stm32g4xx_hal_spi.o
                0x0000000008003d6c                HAL_SPI_Init
 .text.TIM_OC1_SetConfig
                0x0000000008003e78       0x84 build/stm32g4xx_hal_tim.o
 .text.TIM_OC3_SetConfig
                0x0000000008003efc       0xa4 build/stm32g4xx_hal_tim.o
 .text.TIM_OC4_SetConfig
                0x0000000008003fa0       0xa4 build/stm32g4xx_hal_tim.o
 .text.TIM_OC5_SetConfig
                0x0000000008004044       0x74 build/stm32g4xx_hal_tim.o
 .text.TIM_OC6_SetConfig
                0x00000000080040b8       0x74 build/stm32g4xx_hal_tim.o
 .text.HAL_TIM_Base_Start_IT
                0x000000000800412c       0x84 build/stm32g4xx_hal_tim.o
                0x000000000800412c                HAL_TIM_Base_Start_IT
 .text.HAL_TIM_OC_MspInit
                0x00000000080041b0        0x4 build/stm32g4xx_hal_tim.o
                0x00000000080041b0                HAL_TIM_OC_MspInit
 .text.HAL_TIM_PWM_MspInit
                0x00000000080041b4        0x4 build/stm32g4xx_hal_tim.o
                0x00000000080041b4                HAL_TIM_PWM_MspInit
 .text.HAL_TIM_ConfigClockSource
                0x00000000080041b8      0x1a0 build/stm32g4xx_hal_tim.o
                0x00000000080041b8                HAL_TIM_ConfigClockSource
 .text.HAL_TIM_OC_DelayElapsedCallback
                0x0000000008004358        0x4 build/stm32g4xx_hal_tim.o
                0x0000000008004358                HAL_TIM_OC_DelayElapsedCallback
 .text.HAL_TIM_IC_CaptureCallback
                0x000000000800435c        0x4 build/stm32g4xx_hal_tim.o
                0x000000000800435c                HAL_TIM_IC_CaptureCallback
 .text.HAL_TIM_PWM_PulseFinishedCallback
                0x0000000008004360        0x4 build/stm32g4xx_hal_tim.o
                0x0000000008004360                HAL_TIM_PWM_PulseFinishedCallback
 .text.HAL_TIM_TriggerCallback
                0x0000000008004364        0x4 build/stm32g4xx_hal_tim.o
                0x0000000008004364                HAL_TIM_TriggerCallback
 .text.HAL_TIM_IRQHandler
                0x0000000008004368      0x1f4 build/stm32g4xx_hal_tim.o
                0x0000000008004368                HAL_TIM_IRQHandler
 .text.TIM_Base_SetConfig
                0x000000000800455c       0xd0 build/stm32g4xx_hal_tim.o
                0x000000000800455c                TIM_Base_SetConfig
 .text.HAL_TIM_Base_Init
                0x000000000800462c       0x64 build/stm32g4xx_hal_tim.o
                0x000000000800462c                HAL_TIM_Base_Init
 .text.HAL_TIM_OC_Init
                0x0000000008004690       0x64 build/stm32g4xx_hal_tim.o
                0x0000000008004690                HAL_TIM_OC_Init
 .text.HAL_TIM_PWM_Init
                0x00000000080046f4       0x64 build/stm32g4xx_hal_tim.o
                0x00000000080046f4                HAL_TIM_PWM_Init
 .text.HAL_TIM_Encoder_Init
                0x0000000008004758       0xbc build/stm32g4xx_hal_tim.o
                0x0000000008004758                HAL_TIM_Encoder_Init
 .text.TIM_OC2_SetConfig
                0x0000000008004814       0xa4 build/stm32g4xx_hal_tim.o
                0x0000000008004814                TIM_OC2_SetConfig
 .text.HAL_TIM_OC_ConfigChannel
                0x00000000080048b8       0x88 build/stm32g4xx_hal_tim.o
                0x00000000080048b8                HAL_TIM_OC_ConfigChannel
 .text.HAL_TIM_PWM_ConfigChannel
                0x0000000008004940      0x130 build/stm32g4xx_hal_tim.o
                0x0000000008004940                HAL_TIM_PWM_ConfigChannel
 .text.HAL_TIMEx_MasterConfigSynchronization
                0x0000000008004a70       0xc8 build/stm32g4xx_hal_tim_ex.o
                0x0000000008004a70                HAL_TIMEx_MasterConfigSynchronization
 .text.HAL_TIMEx_ConfigBreakDeadTime
                0x0000000008004b38       0xa0 build/stm32g4xx_hal_tim_ex.o
                0x0000000008004b38                HAL_TIMEx_ConfigBreakDeadTime
 .text.HAL_TIMEx_CommutCallback
                0x0000000008004bd8        0x4 build/stm32g4xx_hal_tim_ex.o
                0x0000000008004bd8                HAL_TIMEx_CommutCallback
 .text.HAL_TIMEx_BreakCallback
                0x0000000008004bdc        0x4 build/stm32g4xx_hal_tim_ex.o
                0x0000000008004bdc                HAL_TIMEx_BreakCallback
 .text.HAL_TIMEx_Break2Callback
                0x0000000008004be0        0x4 build/stm32g4xx_hal_tim_ex.o
                0x0000000008004be0                HAL_TIMEx_Break2Callback
 .text.HAL_TIMEx_EncoderIndexCallback
                0x0000000008004be4        0x4 build/stm32g4xx_hal_tim_ex.o
                0x0000000008004be4                HAL_TIMEx_EncoderIndexCallback
 .text.HAL_TIMEx_DirectionChangeCallback
                0x0000000008004be8        0x4 build/stm32g4xx_hal_tim_ex.o
                0x0000000008004be8                HAL_TIMEx_DirectionChangeCallback
 .text.HAL_TIMEx_IndexErrorCallback
                0x0000000008004bec        0x4 build/stm32g4xx_hal_tim_ex.o
                0x0000000008004bec                HAL_TIMEx_IndexErrorCallback
 .text.HAL_TIMEx_TransitionErrorCallback
                0x0000000008004bf0        0x4 build/stm32g4xx_hal_tim_ex.o
                0x0000000008004bf0                HAL_TIMEx_TransitionErrorCallback
 .text.LL_USART_Init
                0x0000000008004bf4      0x114 build/stm32g4xx_ll_usart.o
                0x0000000008004bf4                LL_USART_Init
 .text.RCC_PLL_GetFreqDomain_SYS
                0x0000000008004d08       0x48 build/stm32g4xx_ll_rcc.o
                0x0000000008004d08                RCC_PLL_GetFreqDomain_SYS
 .text.RCC_GetSystemClockFreq
                0x0000000008004d50       0x28 build/stm32g4xx_ll_rcc.o
                0x0000000008004d50                RCC_GetSystemClockFreq
 .text.LL_RCC_GetUSARTClockFreq
                0x0000000008004d78       0xf0 build/stm32g4xx_ll_rcc.o
                0x0000000008004d78                LL_RCC_GetUSARTClockFreq
 .text.LL_RCC_GetUARTClockFreq
                0x0000000008004e68       0xb8 build/stm32g4xx_ll_rcc.o
                0x0000000008004e68                LL_RCC_GetUARTClockFreq
 .text.SystemInit
                0x0000000008004f20       0x1c build/system_stm32g4xx.o
                0x0000000008004f20                SystemInit
 .text.vListInitialise
                0x0000000008004f3c       0x18 build/list.o
                0x0000000008004f3c                vListInitialise
 .text.vListInitialiseItem
                0x0000000008004f54        0x8 build/list.o
                0x0000000008004f54                vListInitialiseItem
 .text.vListInsertEnd
                0x0000000008004f5c       0x20 build/list.o
                0x0000000008004f5c                vListInsertEnd
 .text.vListInsert
                0x0000000008004f7c       0x30 build/list.o
                0x0000000008004f7c                vListInsert
 .text.uxListRemove
                0x0000000008004fac       0x28 build/list.o
                0x0000000008004fac                uxListRemove
 .text.prvCopyDataToQueue
                0x0000000008004fd4       0x7c build/queue.o
 .text.prvCopyDataFromQueue
                0x0000000008005050       0x24 build/queue.o
 .text.prvUnlockQueue
                0x0000000008005074       0x90 build/queue.o
 .text.xQueueGenericReset
                0x0000000008005104       0x8c build/queue.o
                0x0000000008005104                xQueueGenericReset
 .text.xQueueGenericCreateStatic
                0x0000000008005190       0xb0 build/queue.o
                0x0000000008005190                xQueueGenericCreateStatic
 .text.xQueueGenericSend
                0x0000000008005240      0x180 build/queue.o
                0x0000000008005240                xQueueGenericSend
 .text.xQueueGenericSendFromISR
                0x00000000080053c0       0xcc build/queue.o
                0x00000000080053c0                xQueueGenericSendFromISR
 .text.xQueueReceive
                0x000000000800548c      0x168 build/queue.o
                0x000000000800548c                xQueueReceive
 .text.vQueueAddToRegistry
                0x00000000080055f4       0x28 build/queue.o
                0x00000000080055f4                vQueueAddToRegistry
 .text.vQueueWaitForMessageRestricted
                0x000000000800561c       0x50 build/queue.o
                0x000000000800561c                vQueueWaitForMessageRestricted
 .text.prvAddNewTaskToReadyList
                0x000000000800566c      0x114 build/tasks.o
 .text.prvResetNextTaskUnblockTime.part.0
                0x0000000008005780       0x18 build/tasks.o
 .text.prvInitialiseNewTask.isra.0
                0x0000000008005798       0x98 build/tasks.o
 .text.prvDeleteTCB
                0x0000000008005830       0x3c build/tasks.o
 .text.prvIdleTask
                0x000000000800586c       0x6c build/tasks.o
 .text.prvAddCurrentTaskToDelayedList
                0x00000000080058d8       0x74 build/tasks.o
 .text.xTaskCreateStatic
                0x000000000800594c       0x70 build/tasks.o
                0x000000000800594c                xTaskCreateStatic
 .text.xTaskCreate
                0x00000000080059bc       0x68 build/tasks.o
                0x00000000080059bc                xTaskCreate
 .text.vTaskStartScheduler
                0x0000000008005a24       0x88 build/tasks.o
                0x0000000008005a24                vTaskStartScheduler
 .text.vTaskSuspendAll
                0x0000000008005aac       0x10 build/tasks.o
                0x0000000008005aac                vTaskSuspendAll
 .text.xTaskGetTickCount
                0x0000000008005abc        0xc build/tasks.o
                0x0000000008005abc                xTaskGetTickCount
 .text.xTaskIncrementTick
                0x0000000008005ac8      0x15c build/tasks.o
                0x0000000008005ac8                xTaskIncrementTick
 .text.xTaskResumeAll
                0x0000000008005c24      0x114 build/tasks.o
                0x0000000008005c24                xTaskResumeAll
 .text.vTaskDelay
                0x0000000008005d38       0x48 build/tasks.o
                0x0000000008005d38                vTaskDelay
 .text.vTaskSwitchContext
                0x0000000008005d80       0x88 build/tasks.o
                0x0000000008005d80                vTaskSwitchContext
 .text.vTaskPlaceOnEventList
                0x0000000008005e08       0x34 build/tasks.o
                0x0000000008005e08                vTaskPlaceOnEventList
 .text.vTaskPlaceOnEventListRestricted
                0x0000000008005e3c       0x40 build/tasks.o
                0x0000000008005e3c                vTaskPlaceOnEventListRestricted
 .text.xTaskRemoveFromEventList
                0x0000000008005e7c       0x90 build/tasks.o
                0x0000000008005e7c                xTaskRemoveFromEventList
 .text.vTaskInternalSetTimeOutState
                0x0000000008005f0c       0x18 build/tasks.o
                0x0000000008005f0c                vTaskInternalSetTimeOutState
 .text.xTaskCheckForTimeOut
                0x0000000008005f24       0x90 build/tasks.o
                0x0000000008005f24                xTaskCheckForTimeOut
 .text.vTaskMissedYield
                0x0000000008005fb4        0xc build/tasks.o
                0x0000000008005fb4                vTaskMissedYield
 .text.xTaskGetSchedulerState
                0x0000000008005fc0       0x20 build/tasks.o
                0x0000000008005fc0                xTaskGetSchedulerState
 .text.xTaskPriorityDisinherit
                0x0000000008005fe0       0x8c build/tasks.o
                0x0000000008005fe0                xTaskPriorityDisinherit
 .text.prvCheckForValidListAndQueue
                0x000000000800606c       0x6c build/timers.o
 .text.prvInsertTimerInActiveList
                0x00000000080060d8       0x44 build/timers.o
 .text.xTimerCreateTimerTask
                0x000000000800611c       0x64 build/timers.o
                0x000000000800611c                xTimerCreateTimerTask
 .text.xTimerGenericCommand
                0x0000000008006180       0x64 build/timers.o
                0x0000000008006180                xTimerGenericCommand
 .text.prvSwitchTimerLists
                0x00000000080061e4       0x88 build/timers.o
 .text.prvTimerTask
                0x000000000800626c      0x214 build/timers.o
 .text.osKernelInitialize
                0x0000000008006480       0x38 build/cmsis_os2.o
                0x0000000008006480                osKernelInitialize
 .text.osKernelStart
                0x00000000080064b8       0x44 build/cmsis_os2.o
                0x00000000080064b8                osKernelStart
 .text.osThreadNew
                0x00000000080064fc       0xb8 build/cmsis_os2.o
                0x00000000080064fc                osThreadNew
 .text.osDelay  0x00000000080065b4       0x40 build/cmsis_os2.o
                0x00000000080065b4                osDelay
 .text.vApplicationGetIdleTaskMemory
                0x00000000080065f4       0x1c build/cmsis_os2.o
                0x00000000080065f4                vApplicationGetIdleTaskMemory
 .text.vApplicationGetTimerTaskMemory
                0x0000000008006610       0x20 build/cmsis_os2.o
                0x0000000008006610                vApplicationGetTimerTaskMemory
 .text.prvInsertBlockIntoFreeList
                0x0000000008006630       0x60 build/heap_4.o
 .text.pvPortMalloc
                0x0000000008006690      0x120 build/heap_4.o
                0x0000000008006690                pvPortMalloc
 .text.vPortFree
                0x00000000080067b0       0x70 build/heap_4.o
                0x00000000080067b0                vPortFree
 .text.prvPortStartFirstTask
                0x0000000008006820       0x28 build/port.o
 .text.vPortEnableVFP
                0x0000000008006848       0x14 build/port.o
 .text.prvTaskExitError
                0x000000000800685c       0x40 build/port.o
 .text.pxPortInitialiseStack
                0x000000000800689c       0x30 build/port.o
                0x000000000800689c                pxPortInitialiseStack
 *fill*         0x00000000080068cc        0x4 
 .text.SVC_Handler
                0x00000000080068d0       0x24 build/port.o
                0x00000000080068d0                SVC_Handler
 .text.vPortEnterCritical
                0x00000000080068f4       0x44 build/port.o
                0x00000000080068f4                vPortEnterCritical
 .text.vPortExitCritical
                0x0000000008006938       0x28 build/port.o
                0x0000000008006938                vPortExitCritical
 .text.PendSV_Handler
                0x0000000008006960       0x64 build/port.o
                0x0000000008006960                PendSV_Handler
 .text.SysTick_Handler
                0x00000000080069c4       0x2c build/port.o
                0x00000000080069c4                SysTick_Handler
 .text.vPortSetupTimerInterrupt
                0x00000000080069f0       0x3c build/port.o
                0x00000000080069f0                vPortSetupTimerInterrupt
 .text.xPortStartScheduler
                0x0000000008006a2c      0x10c build/port.o
                0x0000000008006a2c                xPortStartScheduler
 .text.vPortValidateInterruptPriority
                0x0000000008006b38       0x5c build/port.o
                0x0000000008006b38                vPortValidateInterruptPriority
 .text.Reset_Handler
                0x0000000008006b94       0x50 build/startup_stm32g474xx.o
                0x0000000008006b94                Reset_Handler
 .text.Default_Handler
                0x0000000008006be4        0x2 build/startup_stm32g474xx.o
                0x0000000008006be4                RTC_Alarm_IRQHandler
                0x0000000008006be4                EXTI2_IRQHandler
                0x0000000008006be4                TIM8_TRG_COM_IRQHandler
                0x0000000008006be4                TIM8_CC_IRQHandler
                0x0000000008006be4                HRTIM1_Master_IRQHandler
                0x0000000008006be4                SPI4_IRQHandler
                0x0000000008006be4                FDCAN3_IT0_IRQHandler
                0x0000000008006be4                TIM1_CC_IRQHandler
                0x0000000008006be4                HRTIM1_FLT_IRQHandler
                0x0000000008006be4                HRTIM1_TIMF_IRQHandler
                0x0000000008006be4                USB_HP_IRQHandler
                0x0000000008006be4                CORDIC_IRQHandler
                0x0000000008006be4                HRTIM1_TIMD_IRQHandler
                0x0000000008006be4                DMA2_Channel8_IRQHandler
                0x0000000008006be4                EXTI3_IRQHandler
                0x0000000008006be4                I2C3_ER_IRQHandler
                0x0000000008006be4                EXTI0_IRQHandler
                0x0000000008006be4                I2C2_EV_IRQHandler
                0x0000000008006be4                FPU_IRQHandler
                0x0000000008006be4                FDCAN1_IT1_IRQHandler
                0x0000000008006be4                TIM1_UP_TIM16_IRQHandler
                0x0000000008006be4                ADC1_2_IRQHandler
                0x0000000008006be4                HRTIM1_TIME_IRQHandler
                0x0000000008006be4                SPI1_IRQHandler
                0x0000000008006be4                HRTIM1_TIMC_IRQHandler
                0x0000000008006be4                TIM8_UP_IRQHandler
                0x0000000008006be4                DMA2_Channel2_IRQHandler
                0x0000000008006be4                DMA1_Channel4_IRQHandler
                0x0000000008006be4                TIM20_TRG_COM_IRQHandler
                0x0000000008006be4                USART3_IRQHandler
                0x0000000008006be4                DMA1_Channel7_IRQHandler
                0x0000000008006be4                UART5_IRQHandler
                0x0000000008006be4                ADC3_IRQHandler
                0x0000000008006be4                TIM4_IRQHandler
                0x0000000008006be4                DMA2_Channel1_IRQHandler
                0x0000000008006be4                QUADSPI_IRQHandler
                0x0000000008006be4                I2C1_EV_IRQHandler
                0x0000000008006be4                DMA1_Channel6_IRQHandler
                0x0000000008006be4                UART4_IRQHandler
                0x0000000008006be4                DMA2_Channel4_IRQHandler
                0x0000000008006be4                TIM3_IRQHandler
                0x0000000008006be4                RCC_IRQHandler
                0x0000000008006be4                TIM20_UP_IRQHandler
                0x0000000008006be4                Default_Handler
                0x0000000008006be4                DMA2_Channel7_IRQHandler
                0x0000000008006be4                RTC_TAMP_LSECSS_IRQHandler
                0x0000000008006be4                FMAC_IRQHandler
                0x0000000008006be4                EXTI15_10_IRQHandler
                0x0000000008006be4                DMA1_Channel8_IRQHandler
                0x0000000008006be4                HRTIM1_TIMA_IRQHandler
                0x0000000008006be4                TIM7_DAC_IRQHandler
                0x0000000008006be4                FDCAN3_IT1_IRQHandler
                0x0000000008006be4                TIM5_IRQHandler
                0x0000000008006be4                UCPD1_IRQHandler
                0x0000000008006be4                I2C3_EV_IRQHandler
                0x0000000008006be4                EXTI9_5_IRQHandler
                0x0000000008006be4                RTC_WKUP_IRQHandler
                0x0000000008006be4                PVD_PVM_IRQHandler
                0x0000000008006be4                SPI2_IRQHandler
                0x0000000008006be4                ADC5_IRQHandler
                0x0000000008006be4                DMA2_Channel5_IRQHandler
                0x0000000008006be4                CRS_IRQHandler
                0x0000000008006be4                DMA1_Channel5_IRQHandler
                0x0000000008006be4                USB_LP_IRQHandler
                0x0000000008006be4                EXTI4_IRQHandler
                0x0000000008006be4                RNG_IRQHandler
                0x0000000008006be4                HRTIM1_TIMB_IRQHandler
                0x0000000008006be4                TIM1_TRG_COM_TIM17_IRQHandler
                0x0000000008006be4                FDCAN2_IT1_IRQHandler
                0x0000000008006be4                DMA1_Channel3_IRQHandler
                0x0000000008006be4                ADC4_IRQHandler
                0x0000000008006be4                WWDG_IRQHandler
                0x0000000008006be4                I2C4_EV_IRQHandler
                0x0000000008006be4                FDCAN2_IT0_IRQHandler
                0x0000000008006be4                LPUART1_IRQHandler
                0x0000000008006be4                DMA2_Channel6_IRQHandler
                0x0000000008006be4                FDCAN1_IT0_IRQHandler
                0x0000000008006be4                TIM2_IRQHandler
                0x0000000008006be4                COMP7_IRQHandler
                0x0000000008006be4                COMP1_2_3_IRQHandler
                0x0000000008006be4                EXTI1_IRQHandler
                0x0000000008006be4                USART2_IRQHandler
                0x0000000008006be4                COMP4_5_6_IRQHandler
                0x0000000008006be4                TIM20_BRK_IRQHandler
                0x0000000008006be4                I2C2_ER_IRQHandler
                0x0000000008006be4                TIM8_BRK_IRQHandler
                0x0000000008006be4                FLASH_IRQHandler
                0x0000000008006be4                TIM20_CC_IRQHandler
                0x0000000008006be4                USART1_IRQHandler
                0x0000000008006be4                SPI3_IRQHandler
                0x0000000008006be4                I2C1_ER_IRQHandler
                0x0000000008006be4                FMC_IRQHandler
                0x0000000008006be4                LPTIM1_IRQHandler
                0x0000000008006be4                DMAMUX_OVR_IRQHandler
                0x0000000008006be4                I2C4_ER_IRQHandler
                0x0000000008006be4                USBWakeUp_IRQHandler
                0x0000000008006be4                SAI1_IRQHandler
                0x0000000008006be4                DMA2_Channel3_IRQHandler
                0x0000000008006be4                TIM1_BRK_TIM15_IRQHandler
 *fill*         0x0000000008006be6        0x2 
 .text.startup  0x0000000008006be8       0x14 /usr/lib/gcc/arm-none-eabi/9.2.1/../../../arm-none-eabi/lib/thumb/v7e-m+fp/hard/libc.a(lib_a-__call_atexit.o)
 *(.glue_7)
 .glue_7        0x0000000008006bfc        0x0 linker stubs
 *(.glue_7t)
 .glue_7t       0x0000000008006bfc        0x0 linker stubs
 *(.eh_frame)
 .eh_frame      0x0000000008006bfc        0x0 /usr/lib/gcc/arm-none-eabi/9.2.1/thumb/v7e-m+fp/hard/crtbegin.o
 *(.init)
 .init          0x0000000008006bfc        0x4 /usr/lib/gcc/arm-none-eabi/9.2.1/thumb/v7e-m+fp/hard/crti.o
                0x0000000008006bfc                _init
 .init          0x0000000008006c00        0x8 /usr/lib/gcc/arm-none-eabi/9.2.1/thumb/v7e-m+fp/hard/crtn.o
 *(.fini)
 .fini          0x0000000008006c08        0x4 /usr/lib/gcc/arm-none-eabi/9.2.1/thumb/v7e-m+fp/hard/crti.o
                0x0000000008006c08                _fini
 .fini          0x0000000008006c0c        0x8 /usr/lib/gcc/arm-none-eabi/9.2.1/thumb/v7e-m+fp/hard/crtn.o
                0x0000000008006c14                . = ALIGN (0x4)
                0x0000000008006c14                _etext = .

.vfp11_veneer   0x0000000008006c14        0x0
 .vfp11_veneer  0x0000000008006c14        0x0 linker stubs

.v4_bx          0x0000000008006c14        0x0
 .v4_bx         0x0000000008006c14        0x0 linker stubs

.iplt           0x0000000008006c14        0x0
 .iplt          0x0000000008006c14        0x0 /usr/lib/gcc/arm-none-eabi/9.2.1/thumb/v7e-m+fp/hard/crtbegin.o

.rodata         0x0000000008006c14       0xa0
                0x0000000008006c14                . = ALIGN (0x4)
 *(.rodata)
 .rodata        0x0000000008006c14        0x4 /usr/lib/gcc/arm-none-eabi/9.2.1/../../../arm-none-eabi/lib/thumb/v7e-m+fp/hard/libc.a(lib_a-impure.o)
                0x0000000008006c14                _global_impure_ptr
 *(.rodata*)
 .rodata.StartDefaultTask.str1.4
                0x0000000008006c18        0xa build/app_freertos.o
 *fill*         0x0000000008006c22        0x2 
 .rodata.str1.4
                0x0000000008006c24        0xc build/app_freertos.o
 .rodata.defaultTask_attributes
                0x0000000008006c30       0x24 build/app_freertos.o
                0x0000000008006c30                defaultTask_attributes
 .rodata.USART_PRESCALER_TAB
                0x0000000008006c54       0x30 build/stm32g4xx_ll_usart.o
 .rodata.AHBPrescTable
                0x0000000008006c84       0x10 build/system_stm32g4xx.o
                0x0000000008006c84                AHBPrescTable
 .rodata.APBPrescTable
                0x0000000008006c94        0x8 build/system_stm32g4xx.o
                0x0000000008006c94                APBPrescTable
 .rodata.vTaskStartScheduler.str1.4
                0x0000000008006c9c        0x5 build/tasks.o
 *fill*         0x0000000008006ca1        0x3 
 .rodata.prvCheckForValidListAndQueue.str1.4
                0x0000000008006ca4        0x5 build/timers.o
 *fill*         0x0000000008006ca9        0x3 
 .rodata.xTimerCreateTimerTask.str1.4
                0x0000000008006cac        0x8 build/timers.o
                0x0000000008006cb4                . = ALIGN (0x4)

.ARM.extab      0x0000000008006cb4       0x24
 *(.ARM.extab* .gnu.linkonce.armextab.*)
 .ARM.extab.text.startup.main
                0x0000000008006cb4        0xc build/main.o
 .ARM.extab     0x0000000008006cc0       0x18 /usr/lib/gcc/arm-none-eabi/9.2.1/thumb/v7e-m+fp/hard/libgcc.a(pr-support.o)

.ARM            0x0000000008006cd8       0xe0
                0x0000000008006cd8                __exidx_start = .
 *(.ARM.exidx*)
 .ARM.exidx.text.SystemClock_Config
                0x0000000008006d90        0x8 build/main.o
 .ARM.exidx.text.startup.main
                0x0000000008006d98        0x8 build/main.o
 .ARM.exidx.text.HAL_TIM_PeriodElapsedCallback
                0x0000000008006da0        0x8 build/main.o
 .ARM.exidx.text.Error_Handler
                0x0000000008006da8        0x0 build/main.o
                                          0x8 (size before relaxing)
 .ARM.exidx.text.comms_thread_entry
                0x0000000008006da8       0x10 build/SerialHandler.o
                                          0x8 (size before relaxing)
 .ARM.exidx     0x0000000008006cd8       0x80 /usr/lib/gcc/arm-none-eabi/9.2.1/thumb/v7e-m+fp/hard/libgcc.a(unwind-arm.o)
                                         0xd8 (size before relaxing)
 .ARM.exidx     0x0000000008006d58       0x38 /usr/lib/gcc/arm-none-eabi/9.2.1/thumb/v7e-m+fp/hard/libgcc.a(pr-support.o)
                0x0000000008006db8                __exidx_end = .

.rel.dyn        0x0000000008006db8        0x0
 .rel.iplt      0x0000000008006db8        0x0 /usr/lib/gcc/arm-none-eabi/9.2.1/thumb/v7e-m+fp/hard/crtbegin.o

.preinit_array  0x0000000008006db8        0x0
                0x0000000008006db8                PROVIDE (__preinit_array_start = .)
 *(.preinit_array*)
                0x0000000008006db8                PROVIDE (__preinit_array_end = .)

.init_array     0x0000000008006db8        0x8
                0x0000000008006db8                PROVIDE (__init_array_start = .)
 *(SORT_BY_NAME(.init_array.*))
 .init_array.00000
                0x0000000008006db8        0x4 /usr/lib/gcc/arm-none-eabi/9.2.1/../../../arm-none-eabi/lib/thumb/v7e-m+fp/hard/libc.a(lib_a-__call_atexit.o)
 *(.init_array*)
 .init_array    0x0000000008006dbc        0x4 /usr/lib/gcc/arm-none-eabi/9.2.1/thumb/v7e-m+fp/hard/crtbegin.o
                0x0000000008006dc0                PROVIDE (__init_array_end = .)

.fini_array     0x0000000008006dc0        0x4
                0x0000000008006dc0                PROVIDE (__fini_array_start = .)
 *(SORT_BY_NAME(.fini_array.*))
 *(.fini_array*)
 .fini_array    0x0000000008006dc0        0x4 /usr/lib/gcc/arm-none-eabi/9.2.1/thumb/v7e-m+fp/hard/crtbegin.o
                0x0000000008006dc4                PROVIDE (__fini_array_end = .)
                0x0000000008006dc4                _sidata = LOADADDR (.data)

.data           0x0000000020000000      0x850 load address 0x0000000008006dc4
                0x0000000020000000                . = ALIGN (0x4)
                0x0000000020000000                _sdata = .
 *(.data)
 .data          0x0000000020000000      0x430 /usr/lib/gcc/arm-none-eabi/9.2.1/../../../arm-none-eabi/lib/thumb/v7e-m+fp/hard/libc.a(lib_a-impure.o)
                0x0000000020000000                _impure_ptr
 .data          0x0000000020000430      0x410 /usr/lib/gcc/arm-none-eabi/9.2.1/../../../arm-none-eabi/lib/thumb/v7e-m+fp/hard/libc.a(lib_a-mallocr.o)
                0x0000000020000430                __malloc_av_
                0x0000000020000838                __malloc_sbrk_base
                0x000000002000083c                __malloc_trim_threshold
 *(.data*)
 .data.uwTickFreq
                0x0000000020000840        0x4 build/stm32g4xx_hal.o
                0x0000000020000840                uwTickFreq
 .data.uwTickPrio
                0x0000000020000844        0x4 build/stm32g4xx_hal.o
                0x0000000020000844                uwTickPrio
 .data.SystemCoreClock
                0x0000000020000848        0x4 build/system_stm32g4xx.o
                0x0000000020000848                SystemCoreClock
 .data.uxCriticalNesting
                0x000000002000084c        0x4 build/port.o
                0x0000000020000850                . = ALIGN (0x4)
                0x0000000020000850                _edata = .

.tm_clone_table
                0x0000000020000850        0x0 load address 0x0000000008007614
 .tm_clone_table
                0x0000000020000850        0x0 /usr/lib/gcc/arm-none-eabi/9.2.1/thumb/v7e-m+fp/hard/crtbegin.o
 .tm_clone_table
                0x0000000020000850        0x0 /usr/lib/gcc/arm-none-eabi/9.2.1/thumb/v7e-m+fp/hard/crtend.o

.igot.plt       0x0000000020000850        0x0 load address 0x0000000008007614
 .igot.plt      0x0000000020000850        0x0 /usr/lib/gcc/arm-none-eabi/9.2.1/thumb/v7e-m+fp/hard/crtbegin.o
                0x0000000020000850                . = ALIGN (0x4)

.bss            0x0000000020000850     0x1de0 load address 0x0000000008007614
                0x0000000020000850                _sbss = .
                0x0000000020000850                __bss_start__ = _sbss
 *(.bss)
 .bss           0x0000000020000850       0x1c /usr/lib/gcc/arm-none-eabi/9.2.1/thumb/v7e-m+fp/hard/crtbegin.o
 .bss           0x000000002000086c       0x34 /usr/lib/gcc/arm-none-eabi/9.2.1/../../../arm-none-eabi/lib/thumb/v7e-m+fp/hard/libc.a(lib_a-mallocr.o)
                0x000000002000086c                __malloc_top_pad
                0x0000000020000870                __malloc_current_mallinfo
                0x0000000020000898                __malloc_max_sbrked_mem
                0x000000002000089c                __malloc_max_total_mem
 .bss           0x00000000200008a0        0x4 /usr/lib/gcc/arm-none-eabi/9.2.1/../../../arm-none-eabi/lib/thumb/v7e-m+fp/hard/libnosys.a(sbrk.o)
 *(.bss*)
 .bss.HAL_RCC_ADC12_CLK_ENABLED
                0x00000000200008a4        0x4 build/adc.o
 .bss.HAL_RCC_ADC345_CLK_ENABLED
                0x00000000200008a8        0x4 build/adc.o
 .bss.pxCurrentTCB
                0x00000000200008ac        0x4 build/tasks.o
                0x00000000200008ac                pxCurrentTCB
 .bss.pxDelayedTaskList
                0x00000000200008b0        0x4 build/tasks.o
 .bss.pxOverflowDelayedTaskList
                0x00000000200008b4        0x4 build/tasks.o
 .bss.pxReadyTasksLists
                0x00000000200008b8      0x460 build/tasks.o
 .bss.uxCurrentNumberOfTasks
                0x0000000020000d18        0x4 build/tasks.o
 .bss.uxDeletedTasksWaitingCleanUp
                0x0000000020000d1c        0x4 build/tasks.o
 .bss.uxPendedTicks
                0x0000000020000d20        0x4 build/tasks.o
 .bss.uxSchedulerSuspended
                0x0000000020000d24        0x4 build/tasks.o
 .bss.uxTaskNumber
                0x0000000020000d28        0x4 build/tasks.o
 .bss.uxTopReadyPriority
                0x0000000020000d2c        0x4 build/tasks.o
 .bss.xDelayedTaskList1
                0x0000000020000d30       0x14 build/tasks.o
 .bss.xDelayedTaskList2
                0x0000000020000d44       0x14 build/tasks.o
 .bss.xNextTaskUnblockTime
                0x0000000020000d58        0x4 build/tasks.o
 .bss.xNumOfOverflows
                0x0000000020000d5c        0x4 build/tasks.o
 .bss.xPendingReadyList
                0x0000000020000d60       0x14 build/tasks.o
 .bss.xSchedulerRunning
                0x0000000020000d74        0x4 build/tasks.o
 .bss.xSuspendedTaskList
                0x0000000020000d78       0x14 build/tasks.o
 .bss.xTasksWaitingTermination
                0x0000000020000d8c       0x14 build/tasks.o
 .bss.xTickCount
                0x0000000020000da0        0x4 build/tasks.o
 .bss.xYieldPending
                0x0000000020000da4        0x4 build/tasks.o
 .bss.pxCurrentTimerList
                0x0000000020000da8        0x4 build/timers.o
 .bss.pxOverflowTimerList
                0x0000000020000dac        0x4 build/timers.o
 .bss.ucStaticTimerQueueStorage.6914
                0x0000000020000db0       0xa0 build/timers.o
 .bss.xActiveTimerList1
                0x0000000020000e50       0x14 build/timers.o
 .bss.xActiveTimerList2
                0x0000000020000e64       0x14 build/timers.o
 .bss.xLastTime.6863
                0x0000000020000e78        0x4 build/timers.o
 .bss.xStaticTimerQueue.6913
                0x0000000020000e7c       0x50 build/timers.o
 .bss.xTimerQueue
                0x0000000020000ecc        0x4 build/timers.o
 .bss.xTimerTaskHandle
                0x0000000020000ed0        0x4 build/timers.o
 .bss.Idle_Stack
                0x0000000020000ed4      0x200 build/cmsis_os2.o
 .bss.Idle_TCB  0x00000000200010d4       0x5c build/cmsis_os2.o
 .bss.KernelState
                0x0000000020001130        0x4 build/cmsis_os2.o
 .bss.Timer_Stack
                0x0000000020001134      0x400 build/cmsis_os2.o
 .bss.Timer_TCB
                0x0000000020001534       0x5c build/cmsis_os2.o
 .bss.pxEnd     0x0000000020001590        0x4 build/heap_4.o
 .bss.ucHeap    0x0000000020001594      0xc00 build/heap_4.o
 .bss.xBlockAllocatedBit
                0x0000000020002194        0x4 build/heap_4.o
 .bss.xFreeBytesRemaining
                0x0000000020002198        0x4 build/heap_4.o
 .bss.xMinimumEverFreeBytesRemaining
                0x000000002000219c        0x4 build/heap_4.o
 .bss.xStart    0x00000000200021a0        0x8 build/heap_4.o
 .bss.ucMaxSysCallPriority
                0x00000000200021a8        0x1 build/port.o
 *fill*         0x00000000200021a9        0x3 
 .bss.ulMaxPRIGROUPValue
                0x00000000200021ac        0x4 build/port.o
 *(COMMON)
 COMMON         0x00000000200021b0        0xc build/app_freertos.o
                0x00000000200021b0                defaultTaskHandle
                0x00000000200021b4                controlTaskHandle
                0x00000000200021b8                commsTaskHandle
 COMMON         0x00000000200021bc      0x21c build/adc.o
                0x00000000200021bc                hadc2
                0x0000000020002228                hadc5
                0x0000000020002294                hadc1
                0x0000000020002300                hadc3
                0x000000002000236c                hadc4
 COMMON         0x00000000200023d8       0x64 build/fdcan.o
                0x00000000200023d8                hfdcan3
 COMMON         0x000000002000243c       0xc8 build/spi.o
                0x000000002000243c                hspi2
                0x00000000200024a0                hspi1
 COMMON         0x0000000020002504       0x98 build/tim.o
                0x0000000020002504                htim8
                0x0000000020002550                htim2
 COMMON         0x000000002000259c       0x4c build/stm32g4xx_hal_timebase_tim.o
                0x000000002000259c                htim6
 COMMON         0x00000000200025e8        0x4 build/stm32g4xx_hal.o
                0x00000000200025e8                uwTick
 COMMON         0x00000000200025ec       0x40 build/queue.o
                0x00000000200025ec                xQueueRegistry
 COMMON         0x000000002000262c        0x4 /usr/lib/gcc/arm-none-eabi/9.2.1/../../../arm-none-eabi/lib/thumb/v7e-m+fp/hard/libc.a(lib_a-reent.o)
                0x000000002000262c                errno
                0x0000000020002630                . = ALIGN (0x4)
                0x0000000020002630                _ebss = .
                0x0000000020002630                __bss_end__ = _ebss

._user_heap_stack
                0x0000000020002630      0x600 load address 0x0000000008007614
                0x0000000020002630                . = ALIGN (0x8)
                0x0000000020002630                PROVIDE (end = .)
                [!provide]                        PROVIDE (_end = .)
                0x0000000020002830                . = (. + _Min_Heap_Size)
 *fill*         0x0000000020002630      0x200 
                0x0000000020002c30                . = (. + _Min_Stack_Size)
 *fill*         0x0000000020002830      0x400 
                0x0000000020002c30                . = ALIGN (0x8)

/DISCARD/
 libc.a(*)
 libm.a(*)
 libgcc.a(*)

.ARM.attributes
                0x0000000000000000       0x30
 *(.ARM.attributes)
 .ARM.attributes
                0x0000000000000000       0x1e /usr/lib/gcc/arm-none-eabi/9.2.1/thumb/v7e-m+fp/hard/crti.o
 .ARM.attributes
                0x000000000000001e       0x34 /usr/lib/gcc/arm-none-eabi/9.2.1/thumb/v7e-m+fp/hard/crtbegin.o
 .ARM.attributes
                0x0000000000000052       0x34 build/main.o
 .ARM.attributes
                0x0000000000000086       0x34 build/SerialHandler.o
 .ARM.attributes
                0x00000000000000ba       0x34 build/gpio.o
 .ARM.attributes
                0x00000000000000ee       0x34 build/app_freertos.o
 .ARM.attributes
                0x0000000000000122       0x34 build/adc.o
 .ARM.attributes
                0x0000000000000156       0x34 build/cordic.o
 .ARM.attributes
                0x000000000000018a       0x34 build/dma.o
 .ARM.attributes
                0x00000000000001be       0x34 build/fdcan.o
 .ARM.attributes
                0x00000000000001f2       0x34 build/fmac.o
 .ARM.attributes
                0x0000000000000226       0x34 build/spi.o
 .ARM.attributes
                0x000000000000025a       0x34 build/tim.o
 .ARM.attributes
                0x000000000000028e       0x34 build/usart.o
 .ARM.attributes
                0x00000000000002c2       0x34 build/stm32g4xx_it.o
 .ARM.attributes
                0x00000000000002f6       0x34 build/stm32g4xx_hal_msp.o
 .ARM.attributes
                0x000000000000032a       0x34 build/stm32g4xx_hal_timebase_tim.o
 .ARM.attributes
                0x000000000000035e       0x34 build/stm32g4xx_ll_utils.o
 .ARM.attributes
                0x0000000000000392       0x34 build/stm32g4xx_ll_gpio.o
 .ARM.attributes
                0x00000000000003c6       0x34 build/stm32g4xx_hal_adc.o
 .ARM.attributes
                0x00000000000003fa       0x34 build/stm32g4xx_hal_adc_ex.o
 .ARM.attributes
                0x000000000000042e       0x34 build/stm32g4xx_hal_gpio.o
 .ARM.attributes
                0x0000000000000462       0x34 build/stm32g4xx_hal.o
 .ARM.attributes
                0x0000000000000496       0x34 build/stm32g4xx_hal_rcc.o
 .ARM.attributes
                0x00000000000004ca       0x34 build/stm32g4xx_hal_pwr_ex.o
 .ARM.attributes
                0x00000000000004fe       0x34 build/stm32g4xx_hal_cortex.o
 .ARM.attributes
                0x0000000000000532       0x34 build/stm32g4xx_hal_fdcan.o
 .ARM.attributes
                0x0000000000000566       0x34 build/stm32g4xx_hal_spi.o
 .ARM.attributes
                0x000000000000059a       0x34 build/stm32g4xx_hal_tim.o
 .ARM.attributes
                0x00000000000005ce       0x34 build/stm32g4xx_hal_tim_ex.o
 .ARM.attributes
                0x0000000000000602       0x34 build/stm32g4xx_ll_usart.o
 .ARM.attributes
                0x0000000000000636       0x34 build/stm32g4xx_ll_rcc.o
 .ARM.attributes
                0x000000000000066a       0x34 build/system_stm32g4xx.o
 .ARM.attributes
                0x000000000000069e       0x34 build/list.o
 .ARM.attributes
                0x00000000000006d2       0x34 build/queue.o
 .ARM.attributes
                0x0000000000000706       0x34 build/tasks.o
 .ARM.attributes
                0x000000000000073a       0x34 build/timers.o
 .ARM.attributes
                0x000000000000076e       0x34 build/cmsis_os2.o
 .ARM.attributes
                0x00000000000007a2       0x34 build/heap_4.o
 .ARM.attributes
                0x00000000000007d6       0x34 build/port.o
 .ARM.attributes
                0x000000000000080a       0x21 build/startup_stm32g474xx.o
 .ARM.attributes
                0x000000000000082b       0x34 /usr/lib/gcc/arm-none-eabi/9.2.1/../../../arm-none-eabi/lib/thumb/v7e-m+fp/hard/libc.a(lib_a-atexit.o)
 .ARM.attributes
                0x000000000000085f       0x34 /usr/lib/gcc/arm-none-eabi/9.2.1/../../../arm-none-eabi/lib/thumb/v7e-m+fp/hard/libc.a(lib_a-fini.o)
 .ARM.attributes
                0x0000000000000893       0x32 /usr/lib/gcc/arm-none-eabi/9.2.1/../../../arm-none-eabi/lib/thumb/v7e-m+fp/hard/libc.a(lib_a-impure.o)
 .ARM.attributes
                0x00000000000008c5       0x34 /usr/lib/gcc/arm-none-eabi/9.2.1/../../../arm-none-eabi/lib/thumb/v7e-m+fp/hard/libc.a(lib_a-init.o)
 .ARM.attributes
                0x00000000000008f9       0x1c /usr/lib/gcc/arm-none-eabi/9.2.1/../../../arm-none-eabi/lib/thumb/v7e-m+fp/hard/libc.a(lib_a-memcpy.o)
 .ARM.attributes
                0x0000000000000915       0x34 /usr/lib/gcc/arm-none-eabi/9.2.1/../../../arm-none-eabi/lib/thumb/v7e-m+fp/hard/libc.a(lib_a-memset.o)
 .ARM.attributes
                0x0000000000000949       0x34 /usr/lib/gcc/arm-none-eabi/9.2.1/../../../arm-none-eabi/lib/thumb/v7e-m+fp/hard/libc.a(lib_a-__atexit.o)
 .ARM.attributes
                0x000000000000097d       0x34 /usr/lib/gcc/arm-none-eabi/9.2.1/../../../arm-none-eabi/lib/thumb/v7e-m+fp/hard/libc.a(lib_a-__call_atexit.o)
 .ARM.attributes
                0x00000000000009b1       0x32 /usr/lib/gcc/arm-none-eabi/9.2.1/thumb/v7e-m+fp/hard/crtend.o
 .ARM.attributes
                0x00000000000009e3       0x1e /usr/lib/gcc/arm-none-eabi/9.2.1/thumb/v7e-m+fp/hard/crtn.o
OUTPUT(build/nomad_bldc_fw_g4.elf elf32-littlearm)
LOAD linker stubs
LOAD /usr/lib/gcc/arm-none-eabi/9.2.1/../../../arm-none-eabi/lib/thumb/v7e-m+fp/hard/libc.a
LOAD /usr/lib/gcc/arm-none-eabi/9.2.1/../../../arm-none-eabi/lib/thumb/v7e-m+fp/hard/libm.a
LOAD /usr/lib/gcc/arm-none-eabi/9.2.1/thumb/v7e-m+fp/hard/libgcc.a

.comment        0x0000000000000000       0xa7
 .comment       0x0000000000000000       0x59 /usr/lib/gcc/arm-none-eabi/9.2.1/thumb/v7e-m+fp/hard/crtbegin.o
                                         0x5a (size before relaxing)
 .comment       0x0000000000000059       0x5a build/main.o
 .comment       0x0000000000000059       0x5a build/SerialHandler.o
 .comment       0x0000000000000059       0x5a build/gpio.o
 .comment       0x0000000000000059       0x5a build/app_freertos.o
 .comment       0x0000000000000059       0x5a build/adc.o
 .comment       0x0000000000000059       0x5a build/cordic.o
 .comment       0x0000000000000059       0x5a build/dma.o
 .comment       0x0000000000000059       0x5a build/fdcan.o
 .comment       0x0000000000000059       0x5a build/fmac.o
 .comment       0x0000000000000059       0x5a build/spi.o
 .comment       0x0000000000000059       0x5a build/tim.o
 .comment       0x0000000000000059       0x5a build/usart.o
 .comment       0x0000000000000059       0x5a build/stm32g4xx_it.o
 .comment       0x0000000000000059       0x5a build/stm32g4xx_hal_msp.o
 .comment       0x0000000000000059       0x5a build/stm32g4xx_hal_timebase_tim.o
 .comment       0x0000000000000059       0x5a build/stm32g4xx_ll_utils.o
 .comment       0x0000000000000059       0x5a build/stm32g4xx_ll_gpio.o
 .comment       0x0000000000000059       0x5a build/stm32g4xx_hal_adc.o
 .comment       0x0000000000000059       0x5a build/stm32g4xx_hal_adc_ex.o
 .comment       0x0000000000000059       0x5a build/stm32g4xx_hal_gpio.o
 .comment       0x0000000000000059       0x5a build/stm32g4xx_hal.o
 .comment       0x0000000000000059       0x5a build/stm32g4xx_hal_rcc.o
 .comment       0x0000000000000059       0x5a build/stm32g4xx_hal_pwr_ex.o
 .comment       0x0000000000000059       0x5a build/stm32g4xx_hal_cortex.o
 .comment       0x0000000000000059       0x5a build/stm32g4xx_hal_fdcan.o
 .comment       0x0000000000000059       0x5a build/stm32g4xx_hal_spi.o
 .comment       0x0000000000000059       0x5a build/stm32g4xx_hal_tim.o
 .comment       0x0000000000000059       0x5a build/stm32g4xx_hal_tim_ex.o
 .comment       0x0000000000000059       0x5a build/stm32g4xx_ll_usart.o
 .comment       0x0000000000000059       0x5a build/stm32g4xx_ll_rcc.o
 .comment       0x0000000000000059       0x5a build/system_stm32g4xx.o
 .comment       0x0000000000000059       0x5a build/list.o
 .comment       0x0000000000000059       0x5a build/queue.o
 .comment       0x0000000000000059       0x5a build/tasks.o
 .comment       0x0000000000000059       0x5a build/timers.o
 .comment       0x0000000000000059       0x5a build/cmsis_os2.o
 .comment       0x0000000000000059       0x5a build/heap_4.o
 .comment       0x0000000000000059       0x5a build/port.o
 .comment       0x0000000000000059       0x4e /usr/lib/gcc/arm-none-eabi/9.2.1/../../../arm-none-eabi/lib/thumb/v7e-m+fp/hard/libc.a(lib_a-atexit.o)
                                         0x4f (size before relaxing)
 .comment       0x00000000000000a7       0x4f /usr/lib/gcc/arm-none-eabi/9.2.1/../../../arm-none-eabi/lib/thumb/v7e-m+fp/hard/libc.a(lib_a-fini.o)
 .comment       0x00000000000000a7       0x4f /usr/lib/gcc/arm-none-eabi/9.2.1/../../../arm-none-eabi/lib/thumb/v7e-m+fp/hard/libc.a(lib_a-impure.o)
 .comment       0x00000000000000a7       0x4f /usr/lib/gcc/arm-none-eabi/9.2.1/../../../arm-none-eabi/lib/thumb/v7e-m+fp/hard/libc.a(lib_a-init.o)
 .comment       0x00000000000000a7       0x4f /usr/lib/gcc/arm-none-eabi/9.2.1/../../../arm-none-eabi/lib/thumb/v7e-m+fp/hard/libc.a(lib_a-memset.o)
 .comment       0x00000000000000a7       0x4f /usr/lib/gcc/arm-none-eabi/9.2.1/../../../arm-none-eabi/lib/thumb/v7e-m+fp/hard/libc.a(lib_a-__atexit.o)
 .comment       0x00000000000000a7       0x4f /usr/lib/gcc/arm-none-eabi/9.2.1/../../../arm-none-eabi/lib/thumb/v7e-m+fp/hard/libc.a(lib_a-__call_atexit.o)
 .comment       0x00000000000000a7       0x5a /usr/lib/gcc/arm-none-eabi/9.2.1/thumb/v7e-m+fp/hard/crtend.o

.debug_info     0x0000000000000000    0x417a7
 .debug_info    0x0000000000000000     0x2733 build/main.o
 .debug_info    0x0000000000002733     0x2ba4 build/SerialHandler.o
 .debug_info    0x00000000000052d7      0x907 build/gpio.o
 .debug_info    0x0000000000005bde      0x644 build/app_freertos.o
 .debug_info    0x0000000000006222     0x1723 build/adc.o
 .debug_info    0x0000000000007945      0x5eb build/cordic.o
 .debug_info    0x0000000000007f30      0xdd3 build/dma.o
 .debug_info    0x0000000000008d03      0xdae build/fdcan.o
 .debug_info    0x0000000000009ab1      0x5eb build/fmac.o
 .debug_info    0x000000000000a09c     0x1008 build/spi.o
 .debug_info    0x000000000000b0a4     0x1698 build/tim.o
 .debug_info    0x000000000000c73c     0x1387 build/usart.o
 .debug_info    0x000000000000dac3      0xb86 build/stm32g4xx_it.o
 .debug_info    0x000000000000e649      0x5ea build/stm32g4xx_hal_msp.o
 .debug_info    0x000000000000ec33     0x11d7 build/stm32g4xx_hal_timebase_tim.o
 .debug_info    0x000000000000fe0a     0x14e0 build/stm32g4xx_ll_utils.o
 .debug_info    0x00000000000112ea     0x1066 build/stm32g4xx_ll_gpio.o
 .debug_info    0x0000000000012350     0x3a32 build/stm32g4xx_hal_adc.o
 .debug_info    0x0000000000015d82     0x3282 build/stm32g4xx_hal_adc_ex.o
 .debug_info    0x0000000000019004      0xafd build/stm32g4xx_hal_gpio.o
 .debug_info    0x0000000000019b01      0xf3f build/stm32g4xx_hal.o
 .debug_info    0x000000000001aa40     0x121d build/stm32g4xx_hal_rcc.o
 .debug_info    0x000000000001bc5d      0xcbd build/stm32g4xx_hal_pwr_ex.o
 .debug_info    0x000000000001c91a     0x1382 build/stm32g4xx_hal_cortex.o
 .debug_info    0x000000000001dc9c     0x20ef build/stm32g4xx_hal_fdcan.o
 .debug_info    0x000000000001fd8b     0x26cd build/stm32g4xx_hal_spi.o
 .debug_info    0x0000000000022458     0x4dec build/stm32g4xx_hal_tim.o
 .debug_info    0x0000000000027244     0x2811 build/stm32g4xx_hal_tim_ex.o
 .debug_info    0x0000000000029a55      0xdab build/stm32g4xx_ll_usart.o
 .debug_info    0x000000000002a800     0x18c9 build/stm32g4xx_ll_rcc.o
 .debug_info    0x000000000002c0c9      0x7b8 build/system_stm32g4xx.o
 .debug_info    0x000000000002c881      0xc8e build/list.o
 .debug_info    0x000000000002d50f     0x388c build/queue.o
 .debug_info    0x0000000000030d9b     0x4093 build/tasks.o
 .debug_info    0x0000000000034e2e     0x26c8 build/timers.o
 .debug_info    0x00000000000374f6     0x55f5 build/cmsis_os2.o
 .debug_info    0x000000000003caeb      0xe6e build/heap_4.o
 .debug_info    0x000000000003d959      0x5df build/port.o
 .debug_info    0x000000000003df38       0x22 build/startup_stm32g474xx.o
 .debug_info    0x000000000003df5a      0x995 /usr/lib/gcc/arm-none-eabi/9.2.1/../../../arm-none-eabi/lib/thumb/v7e-m+fp/hard/libc.a(lib_a-atexit.o)
 .debug_info    0x000000000003e8ef      0x102 /usr/lib/gcc/arm-none-eabi/9.2.1/../../../arm-none-eabi/lib/thumb/v7e-m+fp/hard/libc.a(lib_a-fini.o)
 .debug_info    0x000000000003e9f1      0x92a /usr/lib/gcc/arm-none-eabi/9.2.1/../../../arm-none-eabi/lib/thumb/v7e-m+fp/hard/libc.a(lib_a-impure.o)
 .debug_info    0x000000000003f31b      0x11a /usr/lib/gcc/arm-none-eabi/9.2.1/../../../arm-none-eabi/lib/thumb/v7e-m+fp/hard/libc.a(lib_a-init.o)
 .debug_info    0x000000000003f435       0x26 /usr/lib/gcc/arm-none-eabi/9.2.1/../../../arm-none-eabi/lib/thumb/v7e-m+fp/hard/libc.a(lib_a-memcpy.o)
 .debug_info    0x000000000003f45b      0xf21 /usr/lib/gcc/arm-none-eabi/9.2.1/../../../arm-none-eabi/lib/thumb/v7e-m+fp/hard/libc.a(lib_a-memset.o)
 .debug_info    0x000000000004037c      0x9d5 /usr/lib/gcc/arm-none-eabi/9.2.1/../../../arm-none-eabi/lib/thumb/v7e-m+fp/hard/libc.a(lib_a-__atexit.o)
 .debug_info    0x0000000000040d51      0xa56 /usr/lib/gcc/arm-none-eabi/9.2.1/../../../arm-none-eabi/lib/thumb/v7e-m+fp/hard/libc.a(lib_a-__call_atexit.o)

.debug_abbrev   0x0000000000000000     0x8055
 .debug_abbrev  0x0000000000000000      0x314 build/main.o
 .debug_abbrev  0x0000000000000314      0x5d0 build/SerialHandler.o
 .debug_abbrev  0x00000000000008e4      0x208 build/gpio.o
 .debug_abbrev  0x0000000000000aec      0x18e build/app_freertos.o
 .debug_abbrev  0x0000000000000c7a      0x284 build/adc.o
 .debug_abbrev  0x0000000000000efe      0x189 build/cordic.o
 .debug_abbrev  0x0000000000001087      0x273 build/dma.o
 .debug_abbrev  0x00000000000012fa      0x205 build/fdcan.o
 .debug_abbrev  0x00000000000014ff      0x189 build/fmac.o
 .debug_abbrev  0x0000000000001688      0x22c build/spi.o
 .debug_abbrev  0x00000000000018b4      0x276 build/tim.o
 .debug_abbrev  0x0000000000001b2a      0x244 build/usart.o
 .debug_abbrev  0x0000000000001d6e      0x1ed build/stm32g4xx_it.o
 .debug_abbrev  0x0000000000001f5b      0x171 build/stm32g4xx_hal_msp.o
 .debug_abbrev  0x00000000000020cc      0x229 build/stm32g4xx_hal_timebase_tim.o
 .debug_abbrev  0x00000000000022f5      0x38d build/stm32g4xx_ll_utils.o
 .debug_abbrev  0x0000000000002682      0x2b5 build/stm32g4xx_ll_gpio.o
 .debug_abbrev  0x0000000000002937      0x36c build/stm32g4xx_hal_adc.o
 .debug_abbrev  0x0000000000002ca3      0x3e0 build/stm32g4xx_hal_adc_ex.o
 .debug_abbrev  0x0000000000003083      0x24d build/stm32g4xx_hal_gpio.o
 .debug_abbrev  0x00000000000032d0      0x2fa build/stm32g4xx_hal.o
 .debug_abbrev  0x00000000000035ca      0x34e build/stm32g4xx_hal_rcc.o
 .debug_abbrev  0x0000000000003918      0x2ab build/stm32g4xx_hal_pwr_ex.o
 .debug_abbrev  0x0000000000003bc3      0x395 build/stm32g4xx_hal_cortex.o
 .debug_abbrev  0x0000000000003f58      0x2e8 build/stm32g4xx_hal_fdcan.o
 .debug_abbrev  0x0000000000004240      0x3a1 build/stm32g4xx_hal_spi.o
 .debug_abbrev  0x00000000000045e1      0x400 build/stm32g4xx_hal_tim.o
 .debug_abbrev  0x00000000000049e1      0x399 build/stm32g4xx_hal_tim_ex.o
 .debug_abbrev  0x0000000000004d7a      0x31c build/stm32g4xx_ll_usart.o
 .debug_abbrev  0x0000000000005096      0x3c2 build/stm32g4xx_ll_rcc.o
 .debug_abbrev  0x0000000000005458      0x16a build/system_stm32g4xx.o
 .debug_abbrev  0x00000000000055c2      0x245 build/list.o
 .debug_abbrev  0x0000000000005807      0x559 build/queue.o
 .debug_abbrev  0x0000000000005d60      0x5a6 build/tasks.o
 .debug_abbrev  0x0000000000006306      0x494 build/timers.o
 .debug_abbrev  0x000000000000679a      0x5a4 build/cmsis_os2.o
 .debug_abbrev  0x0000000000006d3e      0x38f build/heap_4.o
 .debug_abbrev  0x00000000000070cd      0x2c2 build/port.o
 .debug_abbrev  0x000000000000738f       0x12 build/startup_stm32g474xx.o
 .debug_abbrev  0x00000000000073a1      0x232 /usr/lib/gcc/arm-none-eabi/9.2.1/../../../arm-none-eabi/lib/thumb/v7e-m+fp/hard/libc.a(lib_a-atexit.o)
 .debug_abbrev  0x00000000000075d3       0xcf /usr/lib/gcc/arm-none-eabi/9.2.1/../../../arm-none-eabi/lib/thumb/v7e-m+fp/hard/libc.a(lib_a-fini.o)
 .debug_abbrev  0x00000000000076a2      0x1b8 /usr/lib/gcc/arm-none-eabi/9.2.1/../../../arm-none-eabi/lib/thumb/v7e-m+fp/hard/libc.a(lib_a-impure.o)
 .debug_abbrev  0x000000000000785a       0xcc /usr/lib/gcc/arm-none-eabi/9.2.1/../../../arm-none-eabi/lib/thumb/v7e-m+fp/hard/libc.a(lib_a-init.o)
 .debug_abbrev  0x0000000000007926       0x14 /usr/lib/gcc/arm-none-eabi/9.2.1/../../../arm-none-eabi/lib/thumb/v7e-m+fp/hard/libc.a(lib_a-memcpy.o)
 .debug_abbrev  0x000000000000793a      0x217 /usr/lib/gcc/arm-none-eabi/9.2.1/../../../arm-none-eabi/lib/thumb/v7e-m+fp/hard/libc.a(lib_a-memset.o)
 .debug_abbrev  0x0000000000007b51      0x252 /usr/lib/gcc/arm-none-eabi/9.2.1/../../../arm-none-eabi/lib/thumb/v7e-m+fp/hard/libc.a(lib_a-__atexit.o)
 .debug_abbrev  0x0000000000007da3      0x2b2 /usr/lib/gcc/arm-none-eabi/9.2.1/../../../arm-none-eabi/lib/thumb/v7e-m+fp/hard/libc.a(lib_a-__call_atexit.o)

.debug_loc      0x0000000000000000    0x26abc
 .debug_loc     0x0000000000000000      0x179 build/main.o
 .debug_loc     0x0000000000000179       0x84 build/SerialHandler.o
 .debug_loc     0x00000000000001fd      0x126 build/gpio.o
 .debug_loc     0x0000000000000323       0x71 build/app_freertos.o
 .debug_loc     0x0000000000000394      0x3b4 build/adc.o
 .debug_loc     0x0000000000000748       0x42 build/cordic.o
 .debug_loc     0x000000000000078a      0x108 build/dma.o
 .debug_loc     0x0000000000000892       0xc6 build/fdcan.o
 .debug_loc     0x0000000000000958       0x42 build/fmac.o
 .debug_loc     0x000000000000099a      0x188 build/spi.o
 .debug_loc     0x0000000000000b22      0x1ea build/tim.o
 .debug_loc     0x0000000000000d0c      0x6bc build/usart.o
 .debug_loc     0x00000000000013c8       0x2c build/stm32g4xx_hal_msp.o
 .debug_loc     0x00000000000013f4      0x106 build/stm32g4xx_hal_timebase_tim.o
 .debug_loc     0x00000000000014fa      0xb8d build/stm32g4xx_ll_utils.o
 .debug_loc     0x0000000000002087      0x8ad build/stm32g4xx_ll_gpio.o
 .debug_loc     0x0000000000002934     0x2e36 build/stm32g4xx_hal_adc.o
 .debug_loc     0x000000000000576a     0x2b32 build/stm32g4xx_hal_adc_ex.o
 .debug_loc     0x000000000000829c      0x4c4 build/stm32g4xx_hal_gpio.o
 .debug_loc     0x0000000000008760      0x31e build/stm32g4xx_hal.o
 .debug_loc     0x0000000000008a7e      0x92b build/stm32g4xx_hal_rcc.o
 .debug_loc     0x00000000000093a9      0x9ee build/stm32g4xx_hal_pwr_ex.o
 .debug_loc     0x0000000000009d97      0x8b9 build/stm32g4xx_hal_cortex.o
 .debug_loc     0x000000000000a650     0x1b37 build/stm32g4xx_hal_fdcan.o
 .debug_loc     0x000000000000c187     0x2848 build/stm32g4xx_hal_spi.o
 .debug_loc     0x000000000000e9cf     0x6997 build/stm32g4xx_hal_tim.o
 .debug_loc     0x0000000000015366     0x2cd2 build/stm32g4xx_hal_tim_ex.o
 .debug_loc     0x0000000000018038      0x6d7 build/stm32g4xx_ll_usart.o
 .debug_loc     0x000000000001870f      0xdd7 build/stm32g4xx_ll_rcc.o
 .debug_loc     0x00000000000194e6       0xbd build/system_stm32g4xx.o
 .debug_loc     0x00000000000195a3      0x14c build/list.o
 .debug_loc     0x00000000000196ef     0x2b22 build/queue.o
 .debug_loc     0x000000000001c211     0x3100 build/tasks.o
 .debug_loc     0x000000000001f311     0x176a build/timers.o
 .debug_loc     0x0000000000020a7b     0x5375 build/cmsis_os2.o
 .debug_loc     0x0000000000025df0      0x4ad build/heap_4.o
 .debug_loc     0x000000000002629d      0x218 build/port.o
 .debug_loc     0x00000000000264b5       0x32 /usr/lib/gcc/arm-none-eabi/9.2.1/../../../arm-none-eabi/lib/thumb/v7e-m+fp/hard/libc.a(lib_a-atexit.o)
 .debug_loc     0x00000000000264e7       0x68 /usr/lib/gcc/arm-none-eabi/9.2.1/../../../arm-none-eabi/lib/thumb/v7e-m+fp/hard/libc.a(lib_a-fini.o)
 .debug_loc     0x000000000002654f       0xba /usr/lib/gcc/arm-none-eabi/9.2.1/../../../arm-none-eabi/lib/thumb/v7e-m+fp/hard/libc.a(lib_a-init.o)
 .debug_loc     0x0000000000026609      0x231 /usr/lib/gcc/arm-none-eabi/9.2.1/../../../arm-none-eabi/lib/thumb/v7e-m+fp/hard/libc.a(lib_a-memset.o)
 .debug_loc     0x000000000002683a      0x138 /usr/lib/gcc/arm-none-eabi/9.2.1/../../../arm-none-eabi/lib/thumb/v7e-m+fp/hard/libc.a(lib_a-__atexit.o)
 .debug_loc     0x0000000000026972      0x14a /usr/lib/gcc/arm-none-eabi/9.2.1/../../../arm-none-eabi/lib/thumb/v7e-m+fp/hard/libc.a(lib_a-__call_atexit.o)

.debug_aranges  0x0000000000000000     0x19b0
 .debug_aranges
                0x0000000000000000       0x38 build/main.o
 .debug_aranges
                0x0000000000000038       0x20 build/SerialHandler.o
 .debug_aranges
                0x0000000000000058       0x20 build/gpio.o
 .debug_aranges
                0x0000000000000078       0x28 build/app_freertos.o
 .debug_aranges
                0x00000000000000a0       0x50 build/adc.o
 .debug_aranges
                0x00000000000000f0       0x20 build/cordic.o
 .debug_aranges
                0x0000000000000110       0x20 build/dma.o
 .debug_aranges
                0x0000000000000130       0x30 build/fdcan.o
 .debug_aranges
                0x0000000000000160       0x20 build/fmac.o
 .debug_aranges
                0x0000000000000180       0x38 build/spi.o
 .debug_aranges
                0x00000000000001b8       0x50 build/tim.o
 .debug_aranges
                0x0000000000000208       0x20 build/usart.o
 .debug_aranges
                0x0000000000000228       0x48 build/stm32g4xx_it.o
 .debug_aranges
                0x0000000000000270       0x20 build/stm32g4xx_hal_msp.o
 .debug_aranges
                0x0000000000000290       0x30 build/stm32g4xx_hal_timebase_tim.o
 .debug_aranges
                0x00000000000002c0       0x58 build/stm32g4xx_ll_utils.o
 .debug_aranges
                0x0000000000000318       0x30 build/stm32g4xx_ll_gpio.o
 .debug_aranges
                0x0000000000000348       0xe0 build/stm32g4xx_hal_adc.o
 .debug_aranges
                0x0000000000000428       0xd0 build/stm32g4xx_hal_adc_ex.o
 .debug_aranges
                0x00000000000004f8       0x58 build/stm32g4xx_hal_gpio.o
 .debug_aranges
                0x0000000000000550      0x128 build/stm32g4xx_hal.o
 .debug_aranges
                0x0000000000000678       0x90 build/stm32g4xx_hal_rcc.o
 .debug_aranges
                0x0000000000000708      0x128 build/stm32g4xx_hal_pwr_ex.o
 .debug_aranges
                0x0000000000000830       0xa8 build/stm32g4xx_hal_cortex.o
 .debug_aranges
                0x00000000000008d8      0x1a8 build/stm32g4xx_hal_fdcan.o
 .debug_aranges
                0x0000000000000a80      0x190 build/stm32g4xx_hal_spi.o
 .debug_aranges
                0x0000000000000c10      0x2a8 build/stm32g4xx_hal_tim.o
 .debug_aranges
                0x0000000000000eb8      0x1c0 build/stm32g4xx_hal_tim_ex.o
 .debug_aranges
                0x0000000000001078       0x40 build/stm32g4xx_ll_usart.o
 .debug_aranges
                0x00000000000010b8       0xb8 build/stm32g4xx_ll_rcc.o
 .debug_aranges
                0x0000000000001170       0x28 build/system_stm32g4xx.o
 .debug_aranges
                0x0000000000001198       0x40 build/list.o
 .debug_aranges
                0x00000000000011d8      0x138 build/queue.o
 .debug_aranges
                0x0000000000001310      0x1e0 build/tasks.o
 .debug_aranges
                0x00000000000014f0       0xc0 build/timers.o
 .debug_aranges
                0x00000000000015b0      0x210 build/cmsis_os2.o
 .debug_aranges
                0x00000000000017c0       0x48 build/heap_4.o
 .debug_aranges
                0x0000000000001808       0x80 build/port.o
 .debug_aranges
                0x0000000000001888       0x28 build/startup_stm32g474xx.o
 .debug_aranges
                0x00000000000018b0       0x20 /usr/lib/gcc/arm-none-eabi/9.2.1/../../../arm-none-eabi/lib/thumb/v7e-m+fp/hard/libc.a(lib_a-atexit.o)
 .debug_aranges
                0x00000000000018d0       0x20 /usr/lib/gcc/arm-none-eabi/9.2.1/../../../arm-none-eabi/lib/thumb/v7e-m+fp/hard/libc.a(lib_a-fini.o)
 .debug_aranges
                0x00000000000018f0       0x18 /usr/lib/gcc/arm-none-eabi/9.2.1/../../../arm-none-eabi/lib/thumb/v7e-m+fp/hard/libc.a(lib_a-impure.o)
 .debug_aranges
                0x0000000000001908       0x20 /usr/lib/gcc/arm-none-eabi/9.2.1/../../../arm-none-eabi/lib/thumb/v7e-m+fp/hard/libc.a(lib_a-init.o)
 .debug_aranges
                0x0000000000001928       0x20 /usr/lib/gcc/arm-none-eabi/9.2.1/../../../arm-none-eabi/lib/thumb/v7e-m+fp/hard/libc.a(lib_a-memcpy.o)
 .debug_aranges
                0x0000000000001948       0x20 /usr/lib/gcc/arm-none-eabi/9.2.1/../../../arm-none-eabi/lib/thumb/v7e-m+fp/hard/libc.a(lib_a-memset.o)
 .debug_aranges
                0x0000000000001968       0x20 /usr/lib/gcc/arm-none-eabi/9.2.1/../../../arm-none-eabi/lib/thumb/v7e-m+fp/hard/libc.a(lib_a-__atexit.o)
 .debug_aranges
                0x0000000000001988       0x28 /usr/lib/gcc/arm-none-eabi/9.2.1/../../../arm-none-eabi/lib/thumb/v7e-m+fp/hard/libc.a(lib_a-__call_atexit.o)

.debug_ranges   0x0000000000000000     0x45d0
 .debug_ranges  0x0000000000000000       0xe8 build/main.o
 .debug_ranges  0x00000000000000e8       0x28 build/SerialHandler.o
 .debug_ranges  0x0000000000000110       0xa8 build/gpio.o
 .debug_ranges  0x00000000000001b8       0x18 build/app_freertos.o
 .debug_ranges  0x00000000000001d0       0xd8 build/adc.o
 .debug_ranges  0x00000000000002a8       0x28 build/cordic.o
 .debug_ranges  0x00000000000002d0       0xb8 build/dma.o
 .debug_ranges  0x0000000000000388       0x58 build/fdcan.o
 .debug_ranges  0x00000000000003e0       0x28 build/fmac.o
 .debug_ranges  0x0000000000000408       0x80 build/spi.o
 .debug_ranges  0x0000000000000488       0xb8 build/tim.o
 .debug_ranges  0x0000000000000540      0x100 build/usart.o
 .debug_ranges  0x0000000000000640       0x38 build/stm32g4xx_it.o
 .debug_ranges  0x0000000000000678       0x28 build/stm32g4xx_hal_msp.o
 .debug_ranges  0x00000000000006a0       0x58 build/stm32g4xx_hal_timebase_tim.o
 .debug_ranges  0x00000000000006f8      0x248 build/stm32g4xx_ll_utils.o
 .debug_ranges  0x0000000000000940      0x1d8 build/stm32g4xx_ll_gpio.o
 .debug_ranges  0x0000000000000b18      0x830 build/stm32g4xx_hal_adc.o
 .debug_ranges  0x0000000000001348      0x648 build/stm32g4xx_hal_adc_ex.o
 .debug_ranges  0x0000000000001990       0x60 build/stm32g4xx_hal_gpio.o
 .debug_ranges  0x00000000000019f0      0x118 build/stm32g4xx_hal.o
 .debug_ranges  0x0000000000001b08      0x120 build/stm32g4xx_hal_rcc.o
 .debug_ranges  0x0000000000001c28      0x118 build/stm32g4xx_hal_pwr_ex.o
 .debug_ranges  0x0000000000001d40      0x1c0 build/stm32g4xx_hal_cortex.o
 .debug_ranges  0x0000000000001f00      0x200 build/stm32g4xx_hal_fdcan.o
 .debug_ranges  0x0000000000002100      0x2f0 build/stm32g4xx_hal_spi.o
 .debug_ranges  0x00000000000023f0      0x5f8 build/stm32g4xx_hal_tim.o
 .debug_ranges  0x00000000000029e8      0x248 build/stm32g4xx_hal_tim_ex.o
 .debug_ranges  0x0000000000002c30      0x100 build/stm32g4xx_ll_usart.o
 .debug_ranges  0x0000000000002d30      0x760 build/stm32g4xx_ll_rcc.o
 .debug_ranges  0x0000000000003490       0x18 build/system_stm32g4xx.o
 .debug_ranges  0x00000000000034a8       0x30 build/list.o
 .debug_ranges  0x00000000000034d8      0x498 build/queue.o
 .debug_ranges  0x0000000000003970      0x478 build/tasks.o
 .debug_ranges  0x0000000000003de8      0x1b8 build/timers.o
 .debug_ranges  0x0000000000003fa0      0x4e8 build/cmsis_os2.o
 .debug_ranges  0x0000000000004488       0x38 build/heap_4.o
 .debug_ranges  0x00000000000044c0       0xb8 build/port.o
 .debug_ranges  0x0000000000004578       0x20 build/startup_stm32g474xx.o
 .debug_ranges  0x0000000000004598       0x38 /usr/lib/gcc/arm-none-eabi/9.2.1/../../../arm-none-eabi/lib/thumb/v7e-m+fp/hard/libc.a(lib_a-__call_atexit.o)

.debug_line     0x0000000000000000    0x24d52
 .debug_line    0x0000000000000000      0x621 build/main.o
 .debug_line    0x0000000000000621      0x4c6 build/SerialHandler.o
 .debug_line    0x0000000000000ae7      0x31d build/gpio.o
 .debug_line    0x0000000000000e04      0x249 build/app_freertos.o
 .debug_line    0x000000000000104d      0xa6b build/adc.o
 .debug_line    0x0000000000001ab8      0x1ca build/cordic.o
 .debug_line    0x0000000000001c82      0x2cc build/dma.o
 .debug_line    0x0000000000001f4e      0x2e6 build/fdcan.o
 .debug_line    0x0000000000002234      0x1c8 build/fmac.o
 .debug_line    0x00000000000023fc      0x443 build/spi.o
 .debug_line    0x000000000000283f      0x606 build/tim.o
 .debug_line    0x0000000000002e45      0x4f3 build/usart.o
 .debug_line    0x0000000000003338      0x25e build/stm32g4xx_it.o
 .debug_line    0x0000000000003596      0x1c3 build/stm32g4xx_hal_msp.o
 .debug_line    0x0000000000003759      0x2af build/stm32g4xx_hal_timebase_tim.o
 .debug_line    0x0000000000003a08      0xa4e build/stm32g4xx_ll_utils.o
 .debug_line    0x0000000000004456      0x71c build/stm32g4xx_ll_gpio.o
 .debug_line    0x0000000000004b72     0x2b7e build/stm32g4xx_hal_adc.o
 .debug_line    0x00000000000076f0     0x251d build/stm32g4xx_hal_adc_ex.o
 .debug_line    0x0000000000009c0d      0x72f build/stm32g4xx_hal_gpio.o
 .debug_line    0x000000000000a33c      0x644 build/stm32g4xx_hal.o
 .debug_line    0x000000000000a980      0xe6f build/stm32g4xx_hal_rcc.o
 .debug_line    0x000000000000b7ef      0xa1b build/stm32g4xx_hal_pwr_ex.o
 .debug_line    0x000000000000c20a      0x7b7 build/stm32g4xx_hal_cortex.o
 .debug_line    0x000000000000c9c1     0x18d0 build/stm32g4xx_hal_fdcan.o
 .debug_line    0x000000000000e291     0x2ad5 build/stm32g4xx_hal_spi.o
 .debug_line    0x0000000000010d66     0x5365 build/stm32g4xx_hal_tim.o
 .debug_line    0x00000000000160cb     0x2353 build/stm32g4xx_hal_tim_ex.o
 .debug_line    0x000000000001841e      0x5da build/stm32g4xx_ll_usart.o
 .debug_line    0x00000000000189f8     0x12ac build/stm32g4xx_ll_rcc.o
 .debug_line    0x0000000000019ca4      0x21b build/system_stm32g4xx.o
 .debug_line    0x0000000000019ebf      0x35b build/list.o
 .debug_line    0x000000000001a21a     0x25f4 build/queue.o
 .debug_line    0x000000000001c80e     0x304e build/tasks.o
 .debug_line    0x000000000001f85c      0xf85 build/timers.o
 .debug_line    0x00000000000207e1     0x2be8 build/cmsis_os2.o
 .debug_line    0x00000000000233c9      0x63b build/heap_4.o
 .debug_line    0x0000000000023a04      0x784 build/port.o
 .debug_line    0x0000000000024188       0x77 build/startup_stm32g474xx.o
 .debug_line    0x00000000000241ff      0x14a /usr/lib/gcc/arm-none-eabi/9.2.1/../../../arm-none-eabi/lib/thumb/v7e-m+fp/hard/libc.a(lib_a-atexit.o)
 .debug_line    0x0000000000024349       0xd7 /usr/lib/gcc/arm-none-eabi/9.2.1/../../../arm-none-eabi/lib/thumb/v7e-m+fp/hard/libc.a(lib_a-fini.o)
 .debug_line    0x0000000000024420       0xe3 /usr/lib/gcc/arm-none-eabi/9.2.1/../../../arm-none-eabi/lib/thumb/v7e-m+fp/hard/libc.a(lib_a-impure.o)
 .debug_line    0x0000000000024503      0x10d /usr/lib/gcc/arm-none-eabi/9.2.1/../../../arm-none-eabi/lib/thumb/v7e-m+fp/hard/libc.a(lib_a-init.o)
 .debug_line    0x0000000000024610       0xbe /usr/lib/gcc/arm-none-eabi/9.2.1/../../../arm-none-eabi/lib/thumb/v7e-m+fp/hard/libc.a(lib_a-memcpy.o)
 .debug_line    0x00000000000246ce      0x26b /usr/lib/gcc/arm-none-eabi/9.2.1/../../../arm-none-eabi/lib/thumb/v7e-m+fp/hard/libc.a(lib_a-memset.o)
 .debug_line    0x0000000000024939      0x1e1 /usr/lib/gcc/arm-none-eabi/9.2.1/../../../arm-none-eabi/lib/thumb/v7e-m+fp/hard/libc.a(lib_a-__atexit.o)
 .debug_line    0x0000000000024b1a      0x238 /usr/lib/gcc/arm-none-eabi/9.2.1/../../../arm-none-eabi/lib/thumb/v7e-m+fp/hard/libc.a(lib_a-__call_atexit.o)

.debug_str      0x0000000000000000     0xc445
 .debug_str     0x0000000000000000     0x1687 build/main.o
                                       0x1afa (size before relaxing)
 .debug_str     0x0000000000001687     0x1145 build/SerialHandler.o
                                       0x17cd (size before relaxing)
 .debug_str     0x00000000000027cc      0x13a build/gpio.o
                                        0x603 (size before relaxing)
 .debug_str     0x0000000000002906      0x511 build/app_freertos.o
                                        0x8fa (size before relaxing)
 .debug_str     0x0000000000002e17      0x12f build/adc.o
                                        0xce5 (size before relaxing)
 .debug_str     0x0000000000002f46       0x2b build/cordic.o
                                        0x55a (size before relaxing)
 .debug_str     0x0000000000002f71      0x753 build/dma.o
                                        0xcc2 (size before relaxing)
 .debug_str     0x00000000000036c4       0x52 build/fdcan.o
                                        0x944 (size before relaxing)
 .debug_str     0x0000000000003716       0x10 build/fmac.o
                                        0x556 (size before relaxing)
 .debug_str     0x0000000000003726       0x48 build/spi.o
                                        0xae3 (size before relaxing)
 .debug_str     0x000000000000376e      0x3e0 build/tim.o
                                        0xff8 (size before relaxing)
 .debug_str     0x0000000000003b4e      0x2ab build/usart.o
                                        0x941 (size before relaxing)
 .debug_str     0x0000000000003df9       0xdc build/stm32g4xx_it.o
                                        0xa72 (size before relaxing)
 .debug_str     0x0000000000003ed5       0x4a build/stm32g4xx_hal_msp.o
                                        0x562 (size before relaxing)
 .debug_str     0x0000000000003f1f      0x142 build/stm32g4xx_hal_timebase_tim.o
                                       0x128c (size before relaxing)
 .debug_str     0x0000000000004061      0x265 build/stm32g4xx_ll_utils.o
                                        0x9e7 (size before relaxing)
 .debug_str     0x00000000000042c6      0x126 build/stm32g4xx_ll_gpio.o
                                        0x6dc (size before relaxing)
 .debug_str     0x00000000000043ec      0xa0f build/stm32g4xx_hal_adc.o
                                       0x14b9 (size before relaxing)
 .debug_str     0x0000000000004dfb      0x5b1 build/stm32g4xx_hal_adc_ex.o
                                       0x1468 (size before relaxing)
 .debug_str     0x00000000000053ac      0x171 build/stm32g4xx_hal_gpio.o
                                        0x742 (size before relaxing)
 .debug_str     0x000000000000551d      0x3a4 build/stm32g4xx_hal.o
                                        0xfe9 (size before relaxing)
 .debug_str     0x00000000000058c1      0x28a build/stm32g4xx_hal_rcc.o
                                        0x9fc (size before relaxing)
 .debug_str     0x0000000000005b4b      0x48f build/stm32g4xx_hal_pwr_ex.o
                                        0x9cd (size before relaxing)
 .debug_str     0x0000000000005fda      0x35d build/stm32g4xx_hal_cortex.o
                                        0xf46 (size before relaxing)
 .debug_str     0x0000000000006337      0xbda build/stm32g4xx_hal_fdcan.o
                                       0x13d0 (size before relaxing)
 .debug_str     0x0000000000006f11      0x55d build/stm32g4xx_hal_spi.o
                                        0xe7e (size before relaxing)
 .debug_str     0x000000000000746e      0xd3b build/stm32g4xx_hal_tim.o
                                       0x1a23 (size before relaxing)
 .debug_str     0x00000000000081a9      0x836 build/stm32g4xx_hal_tim_ex.o
                                       0x16bb (size before relaxing)
 .debug_str     0x00000000000089df      0x224 build/stm32g4xx_ll_usart.o
                                        0x820 (size before relaxing)
 .debug_str     0x0000000000008c03      0x603 build/stm32g4xx_ll_rcc.o
                                        0xc0a (size before relaxing)
 .debug_str     0x0000000000009206       0x3d build/system_stm32g4xx.o
                                        0x596 (size before relaxing)
 .debug_str     0x0000000000009243      0x14d build/list.o
                                        0x709 (size before relaxing)
 .debug_str     0x0000000000009390      0xa00 build/queue.o
                                       0x10f2 (size before relaxing)
 .debug_str     0x0000000000009d90      0xc50 build/tasks.o
                                       0x1694 (size before relaxing)
 .debug_str     0x000000000000a9e0      0x5ba build/timers.o
                                       0x1027 (size before relaxing)
 .debug_str     0x000000000000af9a      0xa5a build/cmsis_os2.o
                                       0x1d22 (size before relaxing)
 .debug_str     0x000000000000b9f4      0x1d5 build/heap_4.o
                                        0x7e8 (size before relaxing)
 .debug_str     0x000000000000bbc9      0x18d build/port.o
                                        0x482 (size before relaxing)
 .debug_str     0x000000000000bd56       0x22 build/startup_stm32g474xx.o
                                         0x5f (size before relaxing)
 .debug_str     0x000000000000bd78      0x166 /usr/lib/gcc/arm-none-eabi/9.2.1/../../../arm-none-eabi/lib/thumb/v7e-m+fp/hard/libc.a(lib_a-atexit.o)
                                        0x5eb (size before relaxing)
 .debug_str     0x000000000000bede       0xc1 /usr/lib/gcc/arm-none-eabi/9.2.1/../../../arm-none-eabi/lib/thumb/v7e-m+fp/hard/libc.a(lib_a-fini.o)
                                        0x1fa (size before relaxing)
 .debug_str     0x000000000000bf9f       0x9b /usr/lib/gcc/arm-none-eabi/9.2.1/../../../arm-none-eabi/lib/thumb/v7e-m+fp/hard/libc.a(lib_a-impure.o)
                                        0x5a0 (size before relaxing)
 .debug_str     0x000000000000c03a       0x96 /usr/lib/gcc/arm-none-eabi/9.2.1/../../../arm-none-eabi/lib/thumb/v7e-m+fp/hard/libc.a(lib_a-init.o)
                                        0x224 (size before relaxing)
 .debug_str     0x000000000000c0d0       0xa5 /usr/lib/gcc/arm-none-eabi/9.2.1/../../../arm-none-eabi/lib/thumb/v7e-m+fp/hard/libc.a(lib_a-memcpy.o)
                                         0xb1 (size before relaxing)
 .debug_str     0x000000000000c175      0x20d /usr/lib/gcc/arm-none-eabi/9.2.1/../../../arm-none-eabi/lib/thumb/v7e-m+fp/hard/libc.a(lib_a-memset.o)
                                        0x8cd (size before relaxing)
 .debug_str     0x000000000000c382       0x4f /usr/lib/gcc/arm-none-eabi/9.2.1/../../../arm-none-eabi/lib/thumb/v7e-m+fp/hard/libc.a(lib_a-__atexit.o)
                                        0x609 (size before relaxing)
 .debug_str     0x000000000000c3d1       0x74 /usr/lib/gcc/arm-none-eabi/9.2.1/../../../arm-none-eabi/lib/thumb/v7e-m+fp/hard/libc.a(lib_a-__call_atexit.o)
                                        0x61c (size before relaxing)

.debug_frame    0x0000000000000000     0x5130
 .debug_frame   0x0000000000000000       0x60 build/main.o
 .debug_frame   0x0000000000000060       0x2c build/SerialHandler.o
 .debug_frame   0x000000000000008c       0x38 build/gpio.o
 .debug_frame   0x00000000000000c4       0x40 build/app_freertos.o
 .debug_frame   0x0000000000000104      0x124 build/adc.o
 .debug_frame   0x0000000000000228       0x28 build/cordic.o
 .debug_frame   0x0000000000000250       0x28 build/dma.o
 .debug_frame   0x0000000000000278       0x64 build/fdcan.o
 .debug_frame   0x00000000000002dc       0x28 build/fmac.o
 .debug_frame   0x0000000000000304       0xac build/spi.o
 .debug_frame   0x00000000000003b0       0xe8 build/tim.o
 .debug_frame   0x0000000000000498       0x38 build/usart.o
 .debug_frame   0x00000000000004d0       0xa0 build/stm32g4xx_it.o
 .debug_frame   0x0000000000000570       0x28 build/stm32g4xx_hal_msp.o
 .debug_frame   0x0000000000000598       0x54 build/stm32g4xx_hal_timebase_tim.o
 .debug_frame   0x00000000000005ec       0xec build/stm32g4xx_ll_utils.o
 .debug_frame   0x00000000000006d8       0x58 build/stm32g4xx_ll_gpio.o
 .debug_frame   0x0000000000000730      0x33c build/stm32g4xx_hal_adc.o
 .debug_frame   0x0000000000000a6c      0x340 build/stm32g4xx_hal_adc_ex.o
 .debug_frame   0x0000000000000dac       0xec build/stm32g4xx_hal_gpio.o
 .debug_frame   0x0000000000000e98      0x280 build/stm32g4xx_hal.o
 .debug_frame   0x0000000000001118      0x1b8 build/stm32g4xx_hal_rcc.o
 .debug_frame   0x00000000000012d0      0x284 build/stm32g4xx_hal_pwr_ex.o
 .debug_frame   0x0000000000001554      0x184 build/stm32g4xx_hal_cortex.o
 .debug_frame   0x00000000000016d8      0x534 build/stm32g4xx_hal_fdcan.o
 .debug_frame   0x0000000000001c0c      0x664 build/stm32g4xx_hal_spi.o
 .debug_frame   0x0000000000002270      0xc54 build/stm32g4xx_hal_tim.o
 .debug_frame   0x0000000000002ec4      0x660 build/stm32g4xx_hal_tim_ex.o
 .debug_frame   0x0000000000003524       0x90 build/stm32g4xx_ll_usart.o
 .debug_frame   0x00000000000035b4      0x210 build/stm32g4xx_ll_rcc.o
 .debug_frame   0x00000000000037c4       0x30 build/system_stm32g4xx.o
 .debug_frame   0x00000000000037f4       0x88 build/list.o
 .debug_frame   0x000000000000387c      0x478 build/queue.o
 .debug_frame   0x0000000000003cf4      0x718 build/tasks.o
 .debug_frame   0x000000000000440c      0x2b8 build/timers.o
 .debug_frame   0x00000000000046c4      0x760 build/cmsis_os2.o
 .debug_frame   0x0000000000004e24       0xa8 build/heap_4.o
 .debug_frame   0x0000000000004ecc      0x124 build/port.o
 .debug_frame   0x0000000000004ff0       0x20 /usr/lib/gcc/arm-none-eabi/9.2.1/../../../arm-none-eabi/lib/thumb/v7e-m+fp/hard/libc.a(lib_a-atexit.o)
 .debug_frame   0x0000000000005010       0x34 /usr/lib/gcc/arm-none-eabi/9.2.1/../../../arm-none-eabi/lib/thumb/v7e-m+fp/hard/libc.a(lib_a-fini.o)
 .debug_frame   0x0000000000005044       0x2c /usr/lib/gcc/arm-none-eabi/9.2.1/../../../arm-none-eabi/lib/thumb/v7e-m+fp/hard/libc.a(lib_a-init.o)
 .debug_frame   0x0000000000005070       0x38 /usr/lib/gcc/arm-none-eabi/9.2.1/../../../arm-none-eabi/lib/thumb/v7e-m+fp/hard/libc.a(lib_a-memset.o)
 .debug_frame   0x00000000000050a8       0x38 /usr/lib/gcc/arm-none-eabi/9.2.1/../../../arm-none-eabi/lib/thumb/v7e-m+fp/hard/libc.a(lib_a-__atexit.o)
 .debug_frame   0x00000000000050e0       0x50 /usr/lib/gcc/arm-none-eabi/9.2.1/../../../arm-none-eabi/lib/thumb/v7e-m+fp/hard/libc.a(lib_a-__call_atexit.o)

.stabstr        0x0000000000000000       0x76
 .stabstr       0x0000000000000000       0x76 /usr/lib/gcc/arm-none-eabi/9.2.1/../../../arm-none-eabi/lib/thumb/v7e-m+fp/hard/libnosys.a(getpid.o)

Cross Reference Table

Symbol                                            File
ADC1_2_IRQHandler                                 build/startup_stm32g474xx.o
ADC3_IRQHandler                                   build/startup_stm32g474xx.o
ADC4_IRQHandler                                   build/startup_stm32g474xx.o
ADC5_IRQHandler                                   build/startup_stm32g474xx.o
ADC_ConversionStop                                build/stm32g4xx_hal_adc.o
                                                  build/stm32g4xx_hal_adc_ex.o
ADC_DMAConvCplt                                   build/stm32g4xx_hal_adc.o
                                                  build/stm32g4xx_hal_adc_ex.o
ADC_DMAError                                      build/stm32g4xx_hal_adc.o
                                                  build/stm32g4xx_hal_adc_ex.o
ADC_DMAHalfConvCplt                               build/stm32g4xx_hal_adc.o
                                                  build/stm32g4xx_hal_adc_ex.o
ADC_Disable                                       build/stm32g4xx_hal_adc.o
                                                  build/stm32g4xx_hal_adc_ex.o
ADC_Enable                                        build/stm32g4xx_hal_adc.o
                                                  build/stm32g4xx_hal_adc_ex.o
AHBPrescTable                                     build/system_stm32g4xx.o
                                                  build/stm32g4xx_ll_rcc.o
                                                  build/stm32g4xx_hal_rcc.o
                                                  build/stm32g4xx_ll_utils.o
APBPrescTable                                     build/system_stm32g4xx.o
                                                  build/stm32g4xx_ll_rcc.o
                                                  build/stm32g4xx_hal_rcc.o
BusFault_Handler                                  build/stm32g4xx_it.o
COMP1_2_3_IRQHandler                              build/startup_stm32g474xx.o
COMP4_5_6_IRQHandler                              build/startup_stm32g474xx.o
COMP7_IRQHandler                                  build/startup_stm32g474xx.o
CORDIC_IRQHandler                                 build/startup_stm32g474xx.o
CRS_IRQHandler                                    build/startup_stm32g474xx.o
DMA1_Channel1_IRQHandler                          build/stm32g4xx_it.o
DMA1_Channel2_IRQHandler                          build/stm32g4xx_it.o
DMA1_Channel3_IRQHandler                          build/startup_stm32g474xx.o
DMA1_Channel4_IRQHandler                          build/startup_stm32g474xx.o
DMA1_Channel5_IRQHandler                          build/startup_stm32g474xx.o
DMA1_Channel6_IRQHandler                          build/startup_stm32g474xx.o
DMA1_Channel7_IRQHandler                          build/startup_stm32g474xx.o
DMA1_Channel8_IRQHandler                          build/startup_stm32g474xx.o
DMA2_Channel1_IRQHandler                          build/startup_stm32g474xx.o
DMA2_Channel2_IRQHandler                          build/startup_stm32g474xx.o
DMA2_Channel3_IRQHandler                          build/startup_stm32g474xx.o
DMA2_Channel4_IRQHandler                          build/startup_stm32g474xx.o
DMA2_Channel5_IRQHandler                          build/startup_stm32g474xx.o
DMA2_Channel6_IRQHandler                          build/startup_stm32g474xx.o
DMA2_Channel7_IRQHandler                          build/startup_stm32g474xx.o
DMA2_Channel8_IRQHandler                          build/startup_stm32g474xx.o
DMAMUX_OVR_IRQHandler                             build/startup_stm32g474xx.o
DebugMon_Handler                                  build/stm32g4xx_it.o
Default_Handler                                   build/startup_stm32g474xx.o
EXTI0_IRQHandler                                  build/startup_stm32g474xx.o
EXTI15_10_IRQHandler                              build/startup_stm32g474xx.o
EXTI1_IRQHandler                                  build/startup_stm32g474xx.o
EXTI2_IRQHandler                                  build/startup_stm32g474xx.o
EXTI3_IRQHandler                                  build/startup_stm32g474xx.o
EXTI4_IRQHandler                                  build/startup_stm32g474xx.o
EXTI9_5_IRQHandler                                build/startup_stm32g474xx.o
Error_Handler                                     build/main.o
                                                  build/tim.o
                                                  build/spi.o
                                                  build/fdcan.o
                                                  build/adc.o
FDCAN1_IT0_IRQHandler                             build/startup_stm32g474xx.o
FDCAN1_IT1_IRQHandler                             build/startup_stm32g474xx.o
FDCAN2_IT0_IRQHandler                             build/startup_stm32g474xx.o
FDCAN2_IT1_IRQHandler                             build/startup_stm32g474xx.o
FDCAN3_IT0_IRQHandler                             build/startup_stm32g474xx.o
FDCAN3_IT1_IRQHandler                             build/startup_stm32g474xx.o
FLASH_FlushCaches                                 build/stm32g4xx_hal_flash_ex.o
                                                  build/stm32g4xx_hal_flash.o
FLASH_IRQHandler                                  build/startup_stm32g474xx.o
FLASH_PageErase                                   build/stm32g4xx_hal_flash_ex.o
                                                  build/stm32g4xx_hal_flash.o
FLASH_WaitForLastOperation                        build/stm32g4xx_hal_flash.o
                                                  build/stm32g4xx_hal_flash_ex.o
FMAC_IRQHandler                                   build/startup_stm32g474xx.o
FMC_IRQHandler                                    build/startup_stm32g474xx.o
FPU_IRQHandler                                    build/startup_stm32g474xx.o
HAL_ADCEx_Calibration_GetValue                    build/stm32g4xx_hal_adc_ex.o
HAL_ADCEx_Calibration_SetValue                    build/stm32g4xx_hal_adc_ex.o
HAL_ADCEx_Calibration_Start                       build/stm32g4xx_hal_adc_ex.o
HAL_ADCEx_DisableInjectedQueue                    build/stm32g4xx_hal_adc_ex.o
HAL_ADCEx_DisableVoltageRegulator                 build/stm32g4xx_hal_adc_ex.o
HAL_ADCEx_EnableInjectedQueue                     build/stm32g4xx_hal_adc_ex.o
HAL_ADCEx_EndOfSamplingCallback                   build/stm32g4xx_hal_adc_ex.o
                                                  build/stm32g4xx_hal_adc.o
HAL_ADCEx_EnterADCDeepPowerDownMode               build/stm32g4xx_hal_adc_ex.o
HAL_ADCEx_InjectedConfigChannel                   build/stm32g4xx_hal_adc_ex.o
HAL_ADCEx_InjectedConvCpltCallback                build/stm32g4xx_hal_adc_ex.o
                                                  build/stm32g4xx_hal_adc.o
HAL_ADCEx_InjectedGetValue                        build/stm32g4xx_hal_adc_ex.o
HAL_ADCEx_InjectedPollForConversion               build/stm32g4xx_hal_adc_ex.o
HAL_ADCEx_InjectedQueueOverflowCallback           build/stm32g4xx_hal_adc_ex.o
                                                  build/stm32g4xx_hal_adc.o
HAL_ADCEx_InjectedStart                           build/stm32g4xx_hal_adc_ex.o
HAL_ADCEx_InjectedStart_IT                        build/stm32g4xx_hal_adc_ex.o
HAL_ADCEx_InjectedStop                            build/stm32g4xx_hal_adc_ex.o
HAL_ADCEx_InjectedStop_IT                         build/stm32g4xx_hal_adc_ex.o
HAL_ADCEx_LevelOutOfWindow2Callback               build/stm32g4xx_hal_adc_ex.o
                                                  build/stm32g4xx_hal_adc.o
HAL_ADCEx_LevelOutOfWindow3Callback               build/stm32g4xx_hal_adc_ex.o
                                                  build/stm32g4xx_hal_adc.o
HAL_ADCEx_MultiModeConfigChannel                  build/stm32g4xx_hal_adc_ex.o
                                                  build/adc.o
HAL_ADCEx_MultiModeGetValue                       build/stm32g4xx_hal_adc_ex.o
HAL_ADCEx_MultiModeStart_DMA                      build/stm32g4xx_hal_adc_ex.o
HAL_ADCEx_MultiModeStop_DMA                       build/stm32g4xx_hal_adc_ex.o
HAL_ADCEx_RegularMultiModeStop_DMA                build/stm32g4xx_hal_adc_ex.o
HAL_ADCEx_RegularStop                             build/stm32g4xx_hal_adc_ex.o
HAL_ADCEx_RegularStop_DMA                         build/stm32g4xx_hal_adc_ex.o
HAL_ADCEx_RegularStop_IT                          build/stm32g4xx_hal_adc_ex.o
HAL_ADC_AnalogWDGConfig                           build/stm32g4xx_hal_adc.o
HAL_ADC_ConfigChannel                             build/stm32g4xx_hal_adc.o
                                                  build/adc.o
HAL_ADC_ConvCpltCallback                          build/stm32g4xx_hal_adc.o
HAL_ADC_ConvHalfCpltCallback                      build/stm32g4xx_hal_adc.o
HAL_ADC_DeInit                                    build/stm32g4xx_hal_adc.o
HAL_ADC_ErrorCallback                             build/stm32g4xx_hal_adc.o
HAL_ADC_GetError                                  build/stm32g4xx_hal_adc.o
HAL_ADC_GetState                                  build/stm32g4xx_hal_adc.o
HAL_ADC_GetValue                                  build/stm32g4xx_hal_adc.o
HAL_ADC_IRQHandler                                build/stm32g4xx_hal_adc.o
HAL_ADC_Init                                      build/stm32g4xx_hal_adc.o
                                                  build/adc.o
HAL_ADC_LevelOutOfWindowCallback                  build/stm32g4xx_hal_adc.o
HAL_ADC_MspDeInit                                 build/adc.o
HAL_ADC_MspInit                                   build/adc.o
HAL_ADC_PollForConversion                         build/stm32g4xx_hal_adc.o
HAL_ADC_PollForEvent                              build/stm32g4xx_hal_adc.o
HAL_ADC_Start                                     build/stm32g4xx_hal_adc.o
HAL_ADC_StartSampling                             build/stm32g4xx_hal_adc.o
HAL_ADC_Start_DMA                                 build/stm32g4xx_hal_adc.o
HAL_ADC_Start_IT                                  build/stm32g4xx_hal_adc.o
HAL_ADC_Stop                                      build/stm32g4xx_hal_adc.o
HAL_ADC_StopSampling                              build/stm32g4xx_hal_adc.o
HAL_ADC_Stop_DMA                                  build/stm32g4xx_hal_adc.o
HAL_ADC_Stop_IT                                   build/stm32g4xx_hal_adc.o
HAL_DBGMCU_DisableDBGSleepMode                    build/stm32g4xx_hal.o
HAL_DBGMCU_DisableDBGStandbyMode                  build/stm32g4xx_hal.o
HAL_DBGMCU_DisableDBGStopMode                     build/stm32g4xx_hal.o
HAL_DBGMCU_EnableDBGSleepMode                     build/stm32g4xx_hal.o
HAL_DBGMCU_EnableDBGStandbyMode                   build/stm32g4xx_hal.o
HAL_DBGMCU_EnableDBGStopMode                      build/stm32g4xx_hal.o
HAL_DMAEx_ConfigMuxRequestGenerator               build/stm32g4xx_hal_dma_ex.o
HAL_DMAEx_ConfigMuxSync                           build/stm32g4xx_hal_dma_ex.o
HAL_DMAEx_DisableMuxRequestGenerator              build/stm32g4xx_hal_dma_ex.o
HAL_DMAEx_EnableMuxRequestGenerator               build/stm32g4xx_hal_dma_ex.o
HAL_DMAEx_MUX_IRQHandler                          build/stm32g4xx_hal_dma_ex.o
HAL_DMA_Abort                                     build/stm32g4xx_hal_dma.o
                                                  build/stm32g4xx_hal_spi.o
                                                  build/stm32g4xx_hal_adc_ex.o
                                                  build/stm32g4xx_hal_adc.o
HAL_DMA_Abort_IT                                  build/stm32g4xx_hal_dma.o
                                                  build/stm32g4xx_hal_tim_ex.o
                                                  build/stm32g4xx_hal_tim.o
                                                  build/stm32g4xx_hal_spi.o
HAL_DMA_DeInit                                    build/stm32g4xx_hal_dma.o
HAL_DMA_GetError                                  build/stm32g4xx_hal_dma.o
HAL_DMA_GetState                                  build/stm32g4xx_hal_dma.o
HAL_DMA_IRQHandler                                build/stm32g4xx_hal_dma.o
HAL_DMA_Init                                      build/stm32g4xx_hal_dma.o
HAL_DMA_PollForTransfer                           build/stm32g4xx_hal_dma.o
HAL_DMA_RegisterCallback                          build/stm32g4xx_hal_dma.o
HAL_DMA_Start                                     build/stm32g4xx_hal_dma.o
HAL_DMA_Start_IT                                  build/stm32g4xx_hal_dma.o
                                                  build/stm32g4xx_hal_tim_ex.o
                                                  build/stm32g4xx_hal_tim.o
                                                  build/stm32g4xx_hal_spi.o
                                                  build/stm32g4xx_hal_adc_ex.o
                                                  build/stm32g4xx_hal_adc.o
HAL_DMA_UnRegisterCallback                        build/stm32g4xx_hal_dma.o
HAL_DeInit                                        build/stm32g4xx_hal.o
HAL_Delay                                         build/stm32g4xx_hal.o
HAL_EXTI_ClearConfigLine                          build/stm32g4xx_hal_exti.o
HAL_EXTI_ClearPending                             build/stm32g4xx_hal_exti.o
HAL_EXTI_GenerateSWI                              build/stm32g4xx_hal_exti.o
HAL_EXTI_GetConfigLine                            build/stm32g4xx_hal_exti.o
HAL_EXTI_GetHandle                                build/stm32g4xx_hal_exti.o
HAL_EXTI_GetPending                               build/stm32g4xx_hal_exti.o
HAL_EXTI_IRQHandler                               build/stm32g4xx_hal_exti.o
HAL_EXTI_RegisterCallback                         build/stm32g4xx_hal_exti.o
HAL_EXTI_SetConfigLine                            build/stm32g4xx_hal_exti.o
HAL_FDCAN_AbortTxRequest                          build/stm32g4xx_hal_fdcan.o
HAL_FDCAN_ActivateNotification                    build/stm32g4xx_hal_fdcan.o
HAL_FDCAN_AddMessageToTxFifoQ                     build/stm32g4xx_hal_fdcan.o
HAL_FDCAN_ConfigExtendedIdMask                    build/stm32g4xx_hal_fdcan.o
HAL_FDCAN_ConfigFilter                            build/stm32g4xx_hal_fdcan.o
HAL_FDCAN_ConfigGlobalFilter                      build/stm32g4xx_hal_fdcan.o
HAL_FDCAN_ConfigInterruptLines                    build/stm32g4xx_hal_fdcan.o
HAL_FDCAN_ConfigRamWatchdog                       build/stm32g4xx_hal_fdcan.o
HAL_FDCAN_ConfigRxFifoOverwrite                   build/stm32g4xx_hal_fdcan.o
HAL_FDCAN_ConfigTimeoutCounter                    build/stm32g4xx_hal_fdcan.o
HAL_FDCAN_ConfigTimestampCounter                  build/stm32g4xx_hal_fdcan.o
HAL_FDCAN_ConfigTxDelayCompensation               build/stm32g4xx_hal_fdcan.o
HAL_FDCAN_DeInit                                  build/stm32g4xx_hal_fdcan.o
HAL_FDCAN_DeactivateNotification                  build/stm32g4xx_hal_fdcan.o
HAL_FDCAN_DisableEdgeFiltering                    build/stm32g4xx_hal_fdcan.o
HAL_FDCAN_DisableISOMode                          build/stm32g4xx_hal_fdcan.o
HAL_FDCAN_DisableTimeoutCounter                   build/stm32g4xx_hal_fdcan.o
HAL_FDCAN_DisableTimestampCounter                 build/stm32g4xx_hal_fdcan.o
HAL_FDCAN_DisableTxDelayCompensation              build/stm32g4xx_hal_fdcan.o
HAL_FDCAN_EnableEdgeFiltering                     build/stm32g4xx_hal_fdcan.o
HAL_FDCAN_EnableISOMode                           build/stm32g4xx_hal_fdcan.o
HAL_FDCAN_EnableTimeoutCounter                    build/stm32g4xx_hal_fdcan.o
HAL_FDCAN_EnableTimestampCounter                  build/stm32g4xx_hal_fdcan.o
HAL_FDCAN_EnableTxDelayCompensation               build/stm32g4xx_hal_fdcan.o
HAL_FDCAN_EnterPowerDownMode                      build/stm32g4xx_hal_fdcan.o
HAL_FDCAN_ErrorCallback                           build/stm32g4xx_hal_fdcan.o
HAL_FDCAN_ErrorStatusCallback                     build/stm32g4xx_hal_fdcan.o
HAL_FDCAN_ExitPowerDownMode                       build/stm32g4xx_hal_fdcan.o
HAL_FDCAN_ExitRestrictedOperationMode             build/stm32g4xx_hal_fdcan.o
HAL_FDCAN_GetError                                build/stm32g4xx_hal_fdcan.o
HAL_FDCAN_GetErrorCounters                        build/stm32g4xx_hal_fdcan.o
HAL_FDCAN_GetHighPriorityMessageStatus            build/stm32g4xx_hal_fdcan.o
HAL_FDCAN_GetLatestTxFifoQRequestBuffer           build/stm32g4xx_hal_fdcan.o
HAL_FDCAN_GetProtocolStatus                       build/stm32g4xx_hal_fdcan.o
HAL_FDCAN_GetRxFifoFillLevel                      build/stm32g4xx_hal_fdcan.o
HAL_FDCAN_GetRxMessage                            build/stm32g4xx_hal_fdcan.o
HAL_FDCAN_GetState                                build/stm32g4xx_hal_fdcan.o
HAL_FDCAN_GetTimeoutCounter                       build/stm32g4xx_hal_fdcan.o
HAL_FDCAN_GetTimestampCounter                     build/stm32g4xx_hal_fdcan.o
HAL_FDCAN_GetTxEvent                              build/stm32g4xx_hal_fdcan.o
HAL_FDCAN_GetTxFifoFreeLevel                      build/stm32g4xx_hal_fdcan.o
HAL_FDCAN_HighPriorityMessageCallback             build/stm32g4xx_hal_fdcan.o
HAL_FDCAN_IRQHandler                              build/stm32g4xx_hal_fdcan.o
HAL_FDCAN_Init                                    build/stm32g4xx_hal_fdcan.o
                                                  build/fdcan.o
HAL_FDCAN_IsRestrictedOperationMode               build/stm32g4xx_hal_fdcan.o
HAL_FDCAN_IsTxBufferMessagePending                build/stm32g4xx_hal_fdcan.o
HAL_FDCAN_MspDeInit                               build/fdcan.o
HAL_FDCAN_MspInit                                 build/fdcan.o
HAL_FDCAN_ResetTimeoutCounter                     build/stm32g4xx_hal_fdcan.o
HAL_FDCAN_ResetTimestampCounter                   build/stm32g4xx_hal_fdcan.o
HAL_FDCAN_RxFifo0Callback                         build/stm32g4xx_hal_fdcan.o
HAL_FDCAN_RxFifo1Callback                         build/stm32g4xx_hal_fdcan.o
HAL_FDCAN_Start                                   build/stm32g4xx_hal_fdcan.o
HAL_FDCAN_Stop                                    build/stm32g4xx_hal_fdcan.o
HAL_FDCAN_TimeoutOccurredCallback                 build/stm32g4xx_hal_fdcan.o
HAL_FDCAN_TimestampWraparoundCallback             build/stm32g4xx_hal_fdcan.o
HAL_FDCAN_TxBufferAbortCallback                   build/stm32g4xx_hal_fdcan.o
HAL_FDCAN_TxBufferCompleteCallback                build/stm32g4xx_hal_fdcan.o
HAL_FDCAN_TxEventFifoCallback                     build/stm32g4xx_hal_fdcan.o
HAL_FDCAN_TxFifoEmptyCallback                     build/stm32g4xx_hal_fdcan.o
HAL_FLASHEx_DisableDebugger                       build/stm32g4xx_hal_flash_ex.o
HAL_FLASHEx_DisableRunPowerDown                   build/stm32g4xx_hal_flash_ramfunc.o
HAL_FLASHEx_EnableDebugger                        build/stm32g4xx_hal_flash_ex.o
HAL_FLASHEx_EnableRunPowerDown                    build/stm32g4xx_hal_flash_ramfunc.o
HAL_FLASHEx_EnableSecMemProtection                build/stm32g4xx_hal_flash_ex.o
HAL_FLASHEx_Erase                                 build/stm32g4xx_hal_flash_ex.o
HAL_FLASHEx_Erase_IT                              build/stm32g4xx_hal_flash_ex.o
HAL_FLASHEx_OBGetConfig                           build/stm32g4xx_hal_flash_ex.o
HAL_FLASHEx_OBProgram                             build/stm32g4xx_hal_flash_ex.o
HAL_FLASHEx_OB_DBankConfig                        build/stm32g4xx_hal_flash_ramfunc.o
HAL_FLASH_EndOfOperationCallback                  build/stm32g4xx_hal_flash.o
HAL_FLASH_GetError                                build/stm32g4xx_hal_flash.o
HAL_FLASH_IRQHandler                              build/stm32g4xx_hal_flash.o
HAL_FLASH_Lock                                    build/stm32g4xx_hal_flash.o
HAL_FLASH_OB_Launch                               build/stm32g4xx_hal_flash.o
HAL_FLASH_OB_Lock                                 build/stm32g4xx_hal_flash.o
HAL_FLASH_OB_Unlock                               build/stm32g4xx_hal_flash.o
HAL_FLASH_OperationErrorCallback                  build/stm32g4xx_hal_flash.o
HAL_FLASH_Program                                 build/stm32g4xx_hal_flash.o
HAL_FLASH_Program_IT                              build/stm32g4xx_hal_flash.o
HAL_FLASH_Unlock                                  build/stm32g4xx_hal_flash.o
HAL_GPIO_DeInit                                   build/stm32g4xx_hal_gpio.o
                                                  build/tim.o
                                                  build/spi.o
                                                  build/fdcan.o
                                                  build/adc.o
HAL_GPIO_EXTI_Callback                            build/stm32g4xx_hal_gpio.o
HAL_GPIO_EXTI_IRQHandler                          build/stm32g4xx_hal_gpio.o
HAL_GPIO_Init                                     build/stm32g4xx_hal_gpio.o
                                                  build/stm32g4xx_hal_rcc_ex.o
                                                  build/stm32g4xx_hal_rcc.o
                                                  build/tim.o
                                                  build/spi.o
                                                  build/fdcan.o
                                                  build/adc.o
HAL_GPIO_LockPin                                  build/stm32g4xx_hal_gpio.o
HAL_GPIO_ReadPin                                  build/stm32g4xx_hal_gpio.o
HAL_GPIO_TogglePin                                build/stm32g4xx_hal_gpio.o
HAL_GPIO_WritePin                                 build/stm32g4xx_hal_gpio.o
HAL_GetDEVID                                      build/stm32g4xx_hal.o
HAL_GetHalVersion                                 build/stm32g4xx_hal.o
HAL_GetREVID                                      build/stm32g4xx_hal.o
HAL_GetTick                                       build/stm32g4xx_hal.o
                                                  build/stm32g4xx_hal_tim_ex.o
                                                  build/stm32g4xx_hal_spi.o
                                                  build/stm32g4xx_hal_fdcan.o
                                                  build/stm32g4xx_hal_dma.o
                                                  build/stm32g4xx_hal_flash.o
                                                  build/stm32g4xx_hal_rcc_ex.o
                                                  build/stm32g4xx_hal_rcc.o
                                                  build/stm32g4xx_hal_adc_ex.o
                                                  build/stm32g4xx_hal_adc.o
HAL_GetTickFreq                                   build/stm32g4xx_hal.o
HAL_GetTickPrio                                   build/stm32g4xx_hal.o
HAL_IncTick                                       build/stm32g4xx_hal.o
                                                  build/main.o
HAL_Init                                          build/stm32g4xx_hal.o
                                                  build/main.o
HAL_InitTick                                      build/stm32g4xx_hal_timebase_tim.o
                                                  build/stm32g4xx_hal_rcc.o
                                                  build/main.o
HAL_MPU_ConfigRegion                              build/stm32g4xx_hal_cortex.o
HAL_MPU_Disable                                   build/stm32g4xx_hal_cortex.o
HAL_MPU_Enable                                    build/stm32g4xx_hal_cortex.o
HAL_MspDeInit                                     build/stm32g4xx_hal.o
HAL_MspInit                                       build/stm32g4xx_hal_msp.o
HAL_NVIC_ClearPendingIRQ                          build/stm32g4xx_hal_cortex.o
HAL_NVIC_DisableIRQ                               build/stm32g4xx_hal_cortex.o
HAL_NVIC_EnableIRQ                                build/stm32g4xx_hal_cortex.o
                                                  build/stm32g4xx_hal_timebase_tim.o
HAL_NVIC_GetActive                                build/stm32g4xx_hal_cortex.o
HAL_NVIC_GetPendingIRQ                            build/stm32g4xx_hal_cortex.o
HAL_NVIC_GetPriority                              build/stm32g4xx_hal_cortex.o
HAL_NVIC_GetPriorityGrouping                      build/stm32g4xx_hal_cortex.o
HAL_NVIC_SetPendingIRQ                            build/stm32g4xx_hal_cortex.o
HAL_NVIC_SetPriority                              build/stm32g4xx_hal_cortex.o
                                                  build/stm32g4xx_hal.o
                                                  build/stm32g4xx_hal_timebase_tim.o
HAL_NVIC_SetPriorityGrouping                      build/stm32g4xx_hal_cortex.o
                                                  build/stm32g4xx_hal.o
HAL_NVIC_SystemReset                              build/stm32g4xx_hal_cortex.o
HAL_PWREx_ConfigPVM                               build/stm32g4xx_hal_pwr_ex.o
HAL_PWREx_ControlVoltageScaling                   build/stm32g4xx_hal_pwr_ex.o
HAL_PWREx_DisableBatteryCharging                  build/stm32g4xx_hal_pwr_ex.o
HAL_PWREx_DisableGPIOPullDown                     build/stm32g4xx_hal_pwr_ex.o
HAL_PWREx_DisableGPIOPullUp                       build/stm32g4xx_hal_pwr_ex.o
HAL_PWREx_DisableInternalWakeUpLine               build/stm32g4xx_hal_pwr_ex.o
HAL_PWREx_DisableLowPowerRunMode                  build/stm32g4xx_hal_pwr_ex.o
                                                  build/stm32g4xx_hal_pwr.o
HAL_PWREx_DisablePVM1                             build/stm32g4xx_hal_pwr_ex.o
HAL_PWREx_DisablePVM2                             build/stm32g4xx_hal_pwr_ex.o
HAL_PWREx_DisablePVM3                             build/stm32g4xx_hal_pwr_ex.o
HAL_PWREx_DisablePVM4                             build/stm32g4xx_hal_pwr_ex.o
HAL_PWREx_DisablePullUpPullDownConfig             build/stm32g4xx_hal_pwr_ex.o
HAL_PWREx_DisableSRAM2ContentRetention            build/stm32g4xx_hal_pwr_ex.o
HAL_PWREx_DisableUCPDDeadBattery                  build/stm32g4xx_hal_pwr_ex.o
                                                  build/stm32g4xx_hal_msp.o
HAL_PWREx_DisableUCPDStandbyMode                  build/stm32g4xx_hal_pwr_ex.o
HAL_PWREx_EnableBatteryCharging                   build/stm32g4xx_hal_pwr_ex.o
HAL_PWREx_EnableGPIOPullDown                      build/stm32g4xx_hal_pwr_ex.o
HAL_PWREx_EnableGPIOPullUp                        build/stm32g4xx_hal_pwr_ex.o
HAL_PWREx_EnableInternalWakeUpLine                build/stm32g4xx_hal_pwr_ex.o
HAL_PWREx_EnableLowPowerRunMode                   build/stm32g4xx_hal_pwr_ex.o
                                                  build/stm32g4xx_hal_pwr.o
HAL_PWREx_EnablePVM1                              build/stm32g4xx_hal_pwr_ex.o
HAL_PWREx_EnablePVM2                              build/stm32g4xx_hal_pwr_ex.o
HAL_PWREx_EnablePVM3                              build/stm32g4xx_hal_pwr_ex.o
HAL_PWREx_EnablePVM4                              build/stm32g4xx_hal_pwr_ex.o
HAL_PWREx_EnablePullUpPullDownConfig              build/stm32g4xx_hal_pwr_ex.o
HAL_PWREx_EnableSRAM2ContentRetention             build/stm32g4xx_hal_pwr_ex.o
HAL_PWREx_EnableUCPDDeadBattery                   build/stm32g4xx_hal_pwr_ex.o
HAL_PWREx_EnableUCPDStandbyMode                   build/stm32g4xx_hal_pwr_ex.o
HAL_PWREx_EnterSHUTDOWNMode                       build/stm32g4xx_hal_pwr_ex.o
HAL_PWREx_EnterSTOP0Mode                          build/stm32g4xx_hal_pwr_ex.o
                                                  build/stm32g4xx_hal_pwr.o
HAL_PWREx_EnterSTOP1Mode                          build/stm32g4xx_hal_pwr_ex.o
                                                  build/stm32g4xx_hal_pwr.o
HAL_PWREx_GetVoltageRange                         build/stm32g4xx_hal_pwr_ex.o
HAL_PWREx_PVD_PVM_IRQHandler                      build/stm32g4xx_hal_pwr_ex.o
HAL_PWREx_PVM1Callback                            build/stm32g4xx_hal_pwr_ex.o
HAL_PWREx_PVM2Callback                            build/stm32g4xx_hal_pwr_ex.o
HAL_PWREx_PVM3Callback                            build/stm32g4xx_hal_pwr_ex.o
HAL_PWREx_PVM4Callback                            build/stm32g4xx_hal_pwr_ex.o
HAL_PWR_ConfigPVD                                 build/stm32g4xx_hal_pwr.o
HAL_PWR_DeInit                                    build/stm32g4xx_hal_pwr.o
HAL_PWR_DisableBkUpAccess                         build/stm32g4xx_hal_pwr.o
                                                  build/stm32g4xx_hal_rcc_ex.o
HAL_PWR_DisablePVD                                build/stm32g4xx_hal_pwr.o
HAL_PWR_DisableSEVOnPend                          build/stm32g4xx_hal_pwr.o
HAL_PWR_DisableSleepOnExit                        build/stm32g4xx_hal_pwr.o
HAL_PWR_DisableWakeUpPin                          build/stm32g4xx_hal_pwr.o
HAL_PWR_EnableBkUpAccess                          build/stm32g4xx_hal_pwr.o
                                                  build/stm32g4xx_hal_rcc_ex.o
HAL_PWR_EnablePVD                                 build/stm32g4xx_hal_pwr.o
HAL_PWR_EnableSEVOnPend                           build/stm32g4xx_hal_pwr.o
HAL_PWR_EnableSleepOnExit                         build/stm32g4xx_hal_pwr.o
HAL_PWR_EnableWakeUpPin                           build/stm32g4xx_hal_pwr.o
HAL_PWR_EnterSLEEPMode                            build/stm32g4xx_hal_pwr.o
HAL_PWR_EnterSTANDBYMode                          build/stm32g4xx_hal_pwr.o
HAL_PWR_EnterSTOPMode                             build/stm32g4xx_hal_pwr.o
HAL_PWR_PVDCallback                               build/stm32g4xx_hal_pwr.o
                                                  build/stm32g4xx_hal_pwr_ex.o
HAL_RCCEx_CRSConfig                               build/stm32g4xx_hal_rcc_ex.o
HAL_RCCEx_CRSGetSynchronizationInfo               build/stm32g4xx_hal_rcc_ex.o
HAL_RCCEx_CRSSoftwareSynchronizationGenerate      build/stm32g4xx_hal_rcc_ex.o
HAL_RCCEx_CRSWaitSynchronization                  build/stm32g4xx_hal_rcc_ex.o
HAL_RCCEx_CRS_ErrorCallback                       build/stm32g4xx_hal_rcc_ex.o
HAL_RCCEx_CRS_ExpectedSyncCallback                build/stm32g4xx_hal_rcc_ex.o
HAL_RCCEx_CRS_IRQHandler                          build/stm32g4xx_hal_rcc_ex.o
HAL_RCCEx_CRS_SyncOkCallback                      build/stm32g4xx_hal_rcc_ex.o
HAL_RCCEx_CRS_SyncWarnCallback                    build/stm32g4xx_hal_rcc_ex.o
HAL_RCCEx_DisableLSCO                             build/stm32g4xx_hal_rcc_ex.o
HAL_RCCEx_DisableLSECSS                           build/stm32g4xx_hal_rcc_ex.o
HAL_RCCEx_EnableLSCO                              build/stm32g4xx_hal_rcc_ex.o
HAL_RCCEx_EnableLSECSS                            build/stm32g4xx_hal_rcc_ex.o
HAL_RCCEx_EnableLSECSS_IT                         build/stm32g4xx_hal_rcc_ex.o
HAL_RCCEx_GetPeriphCLKConfig                      build/stm32g4xx_hal_rcc_ex.o
HAL_RCCEx_GetPeriphCLKFreq                        build/stm32g4xx_hal_rcc_ex.o
HAL_RCCEx_LSECSS_Callback                         build/stm32g4xx_hal_rcc_ex.o
HAL_RCCEx_LSECSS_IRQHandler                       build/stm32g4xx_hal_rcc_ex.o
HAL_RCCEx_PeriphCLKConfig                         build/stm32g4xx_hal_rcc_ex.o
HAL_RCC_CSSCallback                               build/stm32g4xx_hal_rcc.o
HAL_RCC_ClockConfig                               build/stm32g4xx_hal_rcc.o
HAL_RCC_DeInit                                    build/stm32g4xx_hal_rcc.o
HAL_RCC_DisableLSECSS                             build/stm32g4xx_hal_rcc.o
HAL_RCC_EnableCSS                                 build/stm32g4xx_hal_rcc.o
HAL_RCC_EnableLSECSS                              build/stm32g4xx_hal_rcc.o
HAL_RCC_GetClockConfig                            build/stm32g4xx_hal_rcc.o
                                                  build/stm32g4xx_hal_timebase_tim.o
HAL_RCC_GetHCLKFreq                               build/stm32g4xx_hal_rcc.o
HAL_RCC_GetOscConfig                              build/stm32g4xx_hal_rcc.o
HAL_RCC_GetPCLK1Freq                              build/stm32g4xx_hal_rcc.o
                                                  build/stm32g4xx_hal_rcc_ex.o
                                                  build/stm32g4xx_hal_timebase_tim.o
HAL_RCC_GetPCLK2Freq                              build/stm32g4xx_hal_rcc.o
                                                  build/stm32g4xx_hal_rcc_ex.o
HAL_RCC_GetSysClockFreq                           build/stm32g4xx_hal_rcc.o
                                                  build/stm32g4xx_hal_rcc_ex.o
HAL_RCC_MCOConfig                                 build/stm32g4xx_hal_rcc.o
HAL_RCC_NMI_IRQHandler                            build/stm32g4xx_hal_rcc.o
HAL_RCC_OscConfig                                 build/stm32g4xx_hal_rcc.o
HAL_ResumeTick                                    build/stm32g4xx_hal_timebase_tim.o
HAL_SPIEx_FlushRxFifo                             build/stm32g4xx_hal_spi_ex.o
HAL_SPI_Abort                                     build/stm32g4xx_hal_spi.o
HAL_SPI_AbortCpltCallback                         build/stm32g4xx_hal_spi.o
HAL_SPI_Abort_IT                                  build/stm32g4xx_hal_spi.o
HAL_SPI_DMAPause                                  build/stm32g4xx_hal_spi.o
HAL_SPI_DMAResume                                 build/stm32g4xx_hal_spi.o
HAL_SPI_DMAStop                                   build/stm32g4xx_hal_spi.o
HAL_SPI_DeInit                                    build/stm32g4xx_hal_spi.o
HAL_SPI_ErrorCallback                             build/stm32g4xx_hal_spi.o
HAL_SPI_GetError                                  build/stm32g4xx_hal_spi.o
HAL_SPI_GetState                                  build/stm32g4xx_hal_spi.o
HAL_SPI_IRQHandler                                build/stm32g4xx_hal_spi.o
HAL_SPI_Init                                      build/stm32g4xx_hal_spi.o
                                                  build/spi.o
HAL_SPI_MspDeInit                                 build/spi.o
HAL_SPI_MspInit                                   build/spi.o
HAL_SPI_Receive                                   build/stm32g4xx_hal_spi.o
HAL_SPI_Receive_DMA                               build/stm32g4xx_hal_spi.o
HAL_SPI_Receive_IT                                build/stm32g4xx_hal_spi.o
HAL_SPI_RxCpltCallback                            build/stm32g4xx_hal_spi.o
HAL_SPI_RxHalfCpltCallback                        build/stm32g4xx_hal_spi.o
HAL_SPI_Transmit                                  build/stm32g4xx_hal_spi.o
HAL_SPI_TransmitReceive                           build/stm32g4xx_hal_spi.o
HAL_SPI_TransmitReceive_DMA                       build/stm32g4xx_hal_spi.o
HAL_SPI_TransmitReceive_IT                        build/stm32g4xx_hal_spi.o
HAL_SPI_Transmit_DMA                              build/stm32g4xx_hal_spi.o
HAL_SPI_Transmit_IT                               build/stm32g4xx_hal_spi.o
HAL_SPI_TxCpltCallback                            build/stm32g4xx_hal_spi.o
HAL_SPI_TxHalfCpltCallback                        build/stm32g4xx_hal_spi.o
HAL_SPI_TxRxCpltCallback                          build/stm32g4xx_hal_spi.o
HAL_SPI_TxRxHalfCpltCallback                      build/stm32g4xx_hal_spi.o
HAL_SYSCFG_CCMSRAMErase                           build/stm32g4xx_hal.o
HAL_SYSCFG_CCMSRAM_WriteProtectionEnable          build/stm32g4xx_hal.o
HAL_SYSCFG_DisableIOSwitchBooster                 build/stm32g4xx_hal.o
HAL_SYSCFG_DisableIOSwitchVDD                     build/stm32g4xx_hal.o
HAL_SYSCFG_DisableMemorySwappingBank              build/stm32g4xx_hal.o
HAL_SYSCFG_DisableVREFBUF                         build/stm32g4xx_hal.o
HAL_SYSCFG_EnableIOSwitchBooster                  build/stm32g4xx_hal.o
HAL_SYSCFG_EnableIOSwitchVDD                      build/stm32g4xx_hal.o
HAL_SYSCFG_EnableMemorySwappingBank               build/stm32g4xx_hal.o
HAL_SYSCFG_EnableVREFBUF                          build/stm32g4xx_hal.o
HAL_SYSCFG_VREFBUF_HighImpedanceConfig            build/stm32g4xx_hal.o
HAL_SYSCFG_VREFBUF_TrimmingConfig                 build/stm32g4xx_hal.o
HAL_SYSCFG_VREFBUF_VoltageScalingConfig           build/stm32g4xx_hal.o
HAL_SYSTICK_CLKSourceConfig                       build/stm32g4xx_hal_cortex.o
HAL_SYSTICK_Callback                              build/stm32g4xx_hal_cortex.o
HAL_SYSTICK_Config                                build/stm32g4xx_hal_cortex.o
                                                  build/stm32g4xx_hal.o
HAL_SYSTICK_IRQHandler                            build/stm32g4xx_hal_cortex.o
HAL_SetTickFreq                                   build/stm32g4xx_hal.o
HAL_SuspendTick                                   build/stm32g4xx_hal_timebase_tim.o
HAL_TIMEx_Break2Callback                          build/stm32g4xx_hal_tim_ex.o
                                                  build/stm32g4xx_hal_tim.o
HAL_TIMEx_BreakCallback                           build/stm32g4xx_hal_tim_ex.o
                                                  build/stm32g4xx_hal_tim.o
HAL_TIMEx_CommutCallback                          build/stm32g4xx_hal_tim_ex.o
                                                  build/stm32g4xx_hal_tim.o
HAL_TIMEx_CommutHalfCpltCallback                  build/stm32g4xx_hal_tim_ex.o
HAL_TIMEx_ConfigAsymmetricalDeadTime              build/stm32g4xx_hal_tim_ex.o
HAL_TIMEx_ConfigBreakDeadTime                     build/stm32g4xx_hal_tim_ex.o
                                                  build/tim.o
HAL_TIMEx_ConfigBreakInput                        build/stm32g4xx_hal_tim_ex.o
HAL_TIMEx_ConfigCommutEvent                       build/stm32g4xx_hal_tim_ex.o
HAL_TIMEx_ConfigCommutEvent_DMA                   build/stm32g4xx_hal_tim_ex.o
HAL_TIMEx_ConfigCommutEvent_IT                    build/stm32g4xx_hal_tim_ex.o
HAL_TIMEx_ConfigDeadTime                          build/stm32g4xx_hal_tim_ex.o
HAL_TIMEx_ConfigEncoderIndex                      build/stm32g4xx_hal_tim_ex.o
HAL_TIMEx_ConfigSlaveModePreload                  build/stm32g4xx_hal_tim_ex.o
HAL_TIMEx_DirectionChangeCallback                 build/stm32g4xx_hal_tim_ex.o
                                                  build/stm32g4xx_hal_tim.o
HAL_TIMEx_DisableAsymmetricalDeadTime             build/stm32g4xx_hal_tim_ex.o
HAL_TIMEx_DisableDeadTimePreload                  build/stm32g4xx_hal_tim_ex.o
HAL_TIMEx_DisableEncoderFirstIndex                build/stm32g4xx_hal_tim_ex.o
HAL_TIMEx_DisableEncoderIndex                     build/stm32g4xx_hal_tim_ex.o
HAL_TIMEx_DisableSlaveModePreload                 build/stm32g4xx_hal_tim_ex.o
HAL_TIMEx_DisarmBreakInput                        build/stm32g4xx_hal_tim_ex.o
HAL_TIMEx_DitheringDisable                        build/stm32g4xx_hal_tim_ex.o
HAL_TIMEx_DitheringEnable                         build/stm32g4xx_hal_tim_ex.o
HAL_TIMEx_EnableAsymmetricalDeadTime              build/stm32g4xx_hal_tim_ex.o
HAL_TIMEx_EnableDeadTimePreload                   build/stm32g4xx_hal_tim_ex.o
HAL_TIMEx_EnableEncoderFirstIndex                 build/stm32g4xx_hal_tim_ex.o
HAL_TIMEx_EnableEncoderIndex                      build/stm32g4xx_hal_tim_ex.o
HAL_TIMEx_EnableSlaveModePreload                  build/stm32g4xx_hal_tim_ex.o
HAL_TIMEx_EncoderIndexCallback                    build/stm32g4xx_hal_tim_ex.o
                                                  build/stm32g4xx_hal_tim.o
HAL_TIMEx_GetChannelNState                        build/stm32g4xx_hal_tim_ex.o
HAL_TIMEx_GroupChannel5                           build/stm32g4xx_hal_tim_ex.o
HAL_TIMEx_HallSensor_DeInit                       build/stm32g4xx_hal_tim_ex.o
HAL_TIMEx_HallSensor_GetState                     build/stm32g4xx_hal_tim_ex.o
HAL_TIMEx_HallSensor_Init                         build/stm32g4xx_hal_tim_ex.o
HAL_TIMEx_HallSensor_MspDeInit                    build/stm32g4xx_hal_tim_ex.o
HAL_TIMEx_HallSensor_MspInit                      build/stm32g4xx_hal_tim_ex.o
HAL_TIMEx_HallSensor_Start                        build/stm32g4xx_hal_tim_ex.o
HAL_TIMEx_HallSensor_Start_DMA                    build/stm32g4xx_hal_tim_ex.o
HAL_TIMEx_HallSensor_Start_IT                     build/stm32g4xx_hal_tim_ex.o
HAL_TIMEx_HallSensor_Stop                         build/stm32g4xx_hal_tim_ex.o
HAL_TIMEx_HallSensor_Stop_DMA                     build/stm32g4xx_hal_tim_ex.o
HAL_TIMEx_HallSensor_Stop_IT                      build/stm32g4xx_hal_tim_ex.o
HAL_TIMEx_IndexErrorCallback                      build/stm32g4xx_hal_tim_ex.o
                                                  build/stm32g4xx_hal_tim.o
HAL_TIMEx_MasterConfigSynchronization             build/stm32g4xx_hal_tim_ex.o
                                                  build/tim.o
HAL_TIMEx_OCN_Start                               build/stm32g4xx_hal_tim_ex.o
HAL_TIMEx_OCN_Start_DMA                           build/stm32g4xx_hal_tim_ex.o
HAL_TIMEx_OCN_Start_IT                            build/stm32g4xx_hal_tim_ex.o
HAL_TIMEx_OCN_Stop                                build/stm32g4xx_hal_tim_ex.o
HAL_TIMEx_OCN_Stop_DMA                            build/stm32g4xx_hal_tim_ex.o
HAL_TIMEx_OCN_Stop_IT                             build/stm32g4xx_hal_tim_ex.o
HAL_TIMEx_OC_ConfigPulseOnCompare                 build/stm32g4xx_hal_tim_ex.o
HAL_TIMEx_OnePulseN_Start                         build/stm32g4xx_hal_tim_ex.o
HAL_TIMEx_OnePulseN_Start_IT                      build/stm32g4xx_hal_tim_ex.o
HAL_TIMEx_OnePulseN_Stop                          build/stm32g4xx_hal_tim_ex.o
HAL_TIMEx_OnePulseN_Stop_IT                       build/stm32g4xx_hal_tim_ex.o
HAL_TIMEx_PWMN_Start                              build/stm32g4xx_hal_tim_ex.o
HAL_TIMEx_PWMN_Start_DMA                          build/stm32g4xx_hal_tim_ex.o
HAL_TIMEx_PWMN_Start_IT                           build/stm32g4xx_hal_tim_ex.o
HAL_TIMEx_PWMN_Stop                               build/stm32g4xx_hal_tim_ex.o
HAL_TIMEx_PWMN_Stop_DMA                           build/stm32g4xx_hal_tim_ex.o
HAL_TIMEx_PWMN_Stop_IT                            build/stm32g4xx_hal_tim_ex.o
HAL_TIMEx_ReArmBreakInput                         build/stm32g4xx_hal_tim_ex.o
HAL_TIMEx_RemapConfig                             build/stm32g4xx_hal_tim_ex.o
HAL_TIMEx_TISelection                             build/stm32g4xx_hal_tim_ex.o
HAL_TIMEx_TransitionErrorCallback                 build/stm32g4xx_hal_tim_ex.o
                                                  build/stm32g4xx_hal_tim.o
HAL_TIM_Base_DeInit                               build/stm32g4xx_hal_tim.o
HAL_TIM_Base_GetState                             build/stm32g4xx_hal_tim.o
HAL_TIM_Base_Init                                 build/stm32g4xx_hal_tim.o
                                                  build/stm32g4xx_hal_timebase_tim.o
                                                  build/tim.o
HAL_TIM_Base_MspDeInit                            build/tim.o
HAL_TIM_Base_MspInit                              build/tim.o
HAL_TIM_Base_Start                                build/stm32g4xx_hal_tim.o
HAL_TIM_Base_Start_DMA                            build/stm32g4xx_hal_tim.o
HAL_TIM_Base_Start_IT                             build/stm32g4xx_hal_tim.o
                                                  build/stm32g4xx_hal_timebase_tim.o
HAL_TIM_Base_Stop                                 build/stm32g4xx_hal_tim.o
HAL_TIM_Base_Stop_DMA                             build/stm32g4xx_hal_tim.o
HAL_TIM_Base_Stop_IT                              build/stm32g4xx_hal_tim.o
HAL_TIM_ConfigClockSource                         build/stm32g4xx_hal_tim.o
                                                  build/tim.o
HAL_TIM_ConfigOCrefClear                          build/stm32g4xx_hal_tim.o
HAL_TIM_ConfigTI1Input                            build/stm32g4xx_hal_tim.o
HAL_TIM_DMABurstState                             build/stm32g4xx_hal_tim.o
HAL_TIM_DMABurst_MultiReadStart                   build/stm32g4xx_hal_tim.o
HAL_TIM_DMABurst_MultiWriteStart                  build/stm32g4xx_hal_tim.o
HAL_TIM_DMABurst_ReadStart                        build/stm32g4xx_hal_tim.o
HAL_TIM_DMABurst_ReadStop                         build/stm32g4xx_hal_tim.o
HAL_TIM_DMABurst_WriteStart                       build/stm32g4xx_hal_tim.o
HAL_TIM_DMABurst_WriteStop                        build/stm32g4xx_hal_tim.o
HAL_TIM_Encoder_DeInit                            build/stm32g4xx_hal_tim.o
HAL_TIM_Encoder_GetState                          build/stm32g4xx_hal_tim.o
HAL_TIM_Encoder_Init                              build/stm32g4xx_hal_tim.o
                                                  build/tim.o
HAL_TIM_Encoder_MspDeInit                         build/tim.o
HAL_TIM_Encoder_MspInit                           build/tim.o
HAL_TIM_Encoder_Start                             build/stm32g4xx_hal_tim.o
HAL_TIM_Encoder_Start_DMA                         build/stm32g4xx_hal_tim.o
HAL_TIM_Encoder_Start_IT                          build/stm32g4xx_hal_tim.o
HAL_TIM_Encoder_Stop                              build/stm32g4xx_hal_tim.o
HAL_TIM_Encoder_Stop_DMA                          build/stm32g4xx_hal_tim.o
HAL_TIM_Encoder_Stop_IT                           build/stm32g4xx_hal_tim.o
HAL_TIM_ErrorCallback                             build/stm32g4xx_hal_tim.o
                                                  build/stm32g4xx_hal_tim_ex.o
HAL_TIM_GenerateEvent                             build/stm32g4xx_hal_tim.o
HAL_TIM_GetActiveChannel                          build/stm32g4xx_hal_tim.o
HAL_TIM_GetChannelState                           build/stm32g4xx_hal_tim.o
HAL_TIM_IC_CaptureCallback                        build/stm32g4xx_hal_tim.o
HAL_TIM_IC_CaptureHalfCpltCallback                build/stm32g4xx_hal_tim.o
HAL_TIM_IC_ConfigChannel                          build/stm32g4xx_hal_tim.o
HAL_TIM_IC_DeInit                                 build/stm32g4xx_hal_tim.o
HAL_TIM_IC_GetState                               build/stm32g4xx_hal_tim.o
HAL_TIM_IC_Init                                   build/stm32g4xx_hal_tim.o
HAL_TIM_IC_MspDeInit                              build/stm32g4xx_hal_tim.o
HAL_TIM_IC_MspInit                                build/stm32g4xx_hal_tim.o
HAL_TIM_IC_Start                                  build/stm32g4xx_hal_tim.o
HAL_TIM_IC_Start_DMA                              build/stm32g4xx_hal_tim.o
HAL_TIM_IC_Start_IT                               build/stm32g4xx_hal_tim.o
HAL_TIM_IC_Stop                                   build/stm32g4xx_hal_tim.o
HAL_TIM_IC_Stop_DMA                               build/stm32g4xx_hal_tim.o
HAL_TIM_IC_Stop_IT                                build/stm32g4xx_hal_tim.o
HAL_TIM_IRQHandler                                build/stm32g4xx_hal_tim.o
                                                  build/stm32g4xx_it.o
HAL_TIM_MspPostInit                               build/tim.o
HAL_TIM_OC_ConfigChannel                          build/stm32g4xx_hal_tim.o
                                                  build/tim.o
HAL_TIM_OC_DeInit                                 build/stm32g4xx_hal_tim.o
HAL_TIM_OC_DelayElapsedCallback                   build/stm32g4xx_hal_tim.o
HAL_TIM_OC_GetState                               build/stm32g4xx_hal_tim.o
HAL_TIM_OC_Init                                   build/stm32g4xx_hal_tim.o
                                                  build/tim.o
HAL_TIM_OC_MspDeInit                              build/stm32g4xx_hal_tim.o
HAL_TIM_OC_MspInit                                build/stm32g4xx_hal_tim.o
HAL_TIM_OC_Start                                  build/stm32g4xx_hal_tim.o
HAL_TIM_OC_Start_DMA                              build/stm32g4xx_hal_tim.o
HAL_TIM_OC_Start_IT                               build/stm32g4xx_hal_tim.o
HAL_TIM_OC_Stop                                   build/stm32g4xx_hal_tim.o
HAL_TIM_OC_Stop_DMA                               build/stm32g4xx_hal_tim.o
HAL_TIM_OC_Stop_IT                                build/stm32g4xx_hal_tim.o
HAL_TIM_OnePulse_ConfigChannel                    build/stm32g4xx_hal_tim.o
HAL_TIM_OnePulse_DeInit                           build/stm32g4xx_hal_tim.o
HAL_TIM_OnePulse_GetState                         build/stm32g4xx_hal_tim.o
HAL_TIM_OnePulse_Init                             build/stm32g4xx_hal_tim.o
HAL_TIM_OnePulse_MspDeInit                        build/stm32g4xx_hal_tim.o
HAL_TIM_OnePulse_MspInit                          build/stm32g4xx_hal_tim.o
HAL_TIM_OnePulse_Start                            build/stm32g4xx_hal_tim.o
HAL_TIM_OnePulse_Start_IT                         build/stm32g4xx_hal_tim.o
HAL_TIM_OnePulse_Stop                             build/stm32g4xx_hal_tim.o
HAL_TIM_OnePulse_Stop_IT                          build/stm32g4xx_hal_tim.o
HAL_TIM_PWM_ConfigChannel                         build/stm32g4xx_hal_tim.o
                                                  build/tim.o
HAL_TIM_PWM_DeInit                                build/stm32g4xx_hal_tim.o
HAL_TIM_PWM_GetState                              build/stm32g4xx_hal_tim.o
HAL_TIM_PWM_Init                                  build/stm32g4xx_hal_tim.o
                                                  build/tim.o
HAL_TIM_PWM_MspDeInit                             build/stm32g4xx_hal_tim.o
HAL_TIM_PWM_MspInit                               build/stm32g4xx_hal_tim.o
HAL_TIM_PWM_PulseFinishedCallback                 build/stm32g4xx_hal_tim.o
                                                  build/stm32g4xx_hal_tim_ex.o
HAL_TIM_PWM_PulseFinishedHalfCpltCallback         build/stm32g4xx_hal_tim.o
HAL_TIM_PWM_Start                                 build/stm32g4xx_hal_tim.o
HAL_TIM_PWM_Start_DMA                             build/stm32g4xx_hal_tim.o
HAL_TIM_PWM_Start_IT                              build/stm32g4xx_hal_tim.o
HAL_TIM_PWM_Stop                                  build/stm32g4xx_hal_tim.o
HAL_TIM_PWM_Stop_DMA                              build/stm32g4xx_hal_tim.o
HAL_TIM_PWM_Stop_IT                               build/stm32g4xx_hal_tim.o
HAL_TIM_PeriodElapsedCallback                     build/main.o
HAL_TIM_PeriodElapsedHalfCpltCallback             build/stm32g4xx_hal_tim.o
HAL_TIM_ReadCapturedValue                         build/stm32g4xx_hal_tim.o
HAL_TIM_SlaveConfigSynchro                        build/stm32g4xx_hal_tim.o
HAL_TIM_SlaveConfigSynchro_IT                     build/stm32g4xx_hal_tim.o
HAL_TIM_TriggerCallback                           build/stm32g4xx_hal_tim.o
HAL_TIM_TriggerHalfCpltCallback                   build/stm32g4xx_hal_tim.o
HRTIM1_FLT_IRQHandler                             build/startup_stm32g474xx.o
HRTIM1_Master_IRQHandler                          build/startup_stm32g474xx.o
HRTIM1_TIMA_IRQHandler                            build/startup_stm32g474xx.o
HRTIM1_TIMB_IRQHandler                            build/startup_stm32g474xx.o
HRTIM1_TIMC_IRQHandler                            build/startup_stm32g474xx.o
HRTIM1_TIMD_IRQHandler                            build/startup_stm32g474xx.o
HRTIM1_TIME_IRQHandler                            build/startup_stm32g474xx.o
HRTIM1_TIMF_IRQHandler                            build/startup_stm32g474xx.o
HardFault_Handler                                 build/stm32g4xx_it.o
I2C1_ER_IRQHandler                                build/startup_stm32g474xx.o
I2C1_EV_IRQHandler                                build/startup_stm32g474xx.o
I2C2_ER_IRQHandler                                build/startup_stm32g474xx.o
I2C2_EV_IRQHandler                                build/startup_stm32g474xx.o
I2C3_ER_IRQHandler                                build/startup_stm32g474xx.o
I2C3_EV_IRQHandler                                build/startup_stm32g474xx.o
I2C4_ER_IRQHandler                                build/startup_stm32g474xx.o
I2C4_EV_IRQHandler                                build/startup_stm32g474xx.o
LL_ADC_CommonDeInit                               build/stm32g4xx_ll_adc.o
LL_ADC_CommonInit                                 build/stm32g4xx_ll_adc.o
LL_ADC_CommonStructInit                           build/stm32g4xx_ll_adc.o
LL_ADC_DeInit                                     build/stm32g4xx_ll_adc.o
LL_ADC_INJ_Init                                   build/stm32g4xx_ll_adc.o
LL_ADC_INJ_StructInit                             build/stm32g4xx_ll_adc.o
LL_ADC_Init                                       build/stm32g4xx_ll_adc.o
LL_ADC_REG_Init                                   build/stm32g4xx_ll_adc.o
LL_ADC_REG_StructInit                             build/stm32g4xx_ll_adc.o
LL_ADC_StructInit                                 build/stm32g4xx_ll_adc.o
LL_CORDIC_DeInit                                  build/stm32g4xx_ll_cordic.o
LL_DMA_DeInit                                     build/stm32g4xx_ll_dma.o
LL_DMA_Init                                       build/stm32g4xx_ll_dma.o
LL_DMA_StructInit                                 build/stm32g4xx_ll_dma.o
LL_EXTI_DeInit                                    build/stm32g4xx_ll_exti.o
LL_EXTI_Init                                      build/stm32g4xx_ll_exti.o
LL_EXTI_StructInit                                build/stm32g4xx_ll_exti.o
LL_FMAC_DeInit                                    build/stm32g4xx_ll_fmac.o
LL_FMAC_Init                                      build/stm32g4xx_ll_fmac.o
LL_GPIO_DeInit                                    build/stm32g4xx_ll_gpio.o
LL_GPIO_Init                                      build/stm32g4xx_ll_gpio.o
                                                  build/usart.o
                                                  build/gpio.o
LL_GPIO_StructInit                                build/stm32g4xx_ll_gpio.o
LL_Init1msTick                                    build/stm32g4xx_ll_utils.o
LL_PLL_ConfigSystemClock_HSE                      build/stm32g4xx_ll_utils.o
LL_PLL_ConfigSystemClock_HSI                      build/stm32g4xx_ll_utils.o
LL_RCC_DeInit                                     build/stm32g4xx_ll_rcc.o
LL_RCC_GetADCClockFreq                            build/stm32g4xx_ll_rcc.o
LL_RCC_GetFDCANClockFreq                          build/stm32g4xx_ll_rcc.o
LL_RCC_GetI2CClockFreq                            build/stm32g4xx_ll_rcc.o
LL_RCC_GetI2SClockFreq                            build/stm32g4xx_ll_rcc.o
LL_RCC_GetLPTIMClockFreq                          build/stm32g4xx_ll_rcc.o
LL_RCC_GetLPUARTClockFreq                         build/stm32g4xx_ll_rcc.o
LL_RCC_GetQUADSPIClockFreq                        build/stm32g4xx_ll_rcc.o
LL_RCC_GetRNGClockFreq                            build/stm32g4xx_ll_rcc.o
LL_RCC_GetSAIClockFreq                            build/stm32g4xx_ll_rcc.o
LL_RCC_GetSystemClocksFreq                        build/stm32g4xx_ll_rcc.o
LL_RCC_GetUARTClockFreq                           build/stm32g4xx_ll_rcc.o
                                                  build/stm32g4xx_ll_usart.o
LL_RCC_GetUSARTClockFreq                          build/stm32g4xx_ll_rcc.o
                                                  build/stm32g4xx_ll_usart.o
LL_RCC_GetUSBClockFreq                            build/stm32g4xx_ll_rcc.o
LL_SetFlashLatency                                build/stm32g4xx_ll_utils.o
LL_SetSystemCoreClock                             build/stm32g4xx_ll_utils.o
                                                  build/main.o
LL_USART_ClockInit                                build/stm32g4xx_ll_usart.o
LL_USART_ClockStructInit                          build/stm32g4xx_ll_usart.o
LL_USART_DeInit                                   build/stm32g4xx_ll_usart.o
LL_USART_Init                                     build/stm32g4xx_ll_usart.o
                                                  build/usart.o
LL_USART_StructInit                               build/stm32g4xx_ll_usart.o
LL_mDelay                                         build/stm32g4xx_ll_utils.o
LPTIM1_IRQHandler                                 build/startup_stm32g474xx.o
LPUART1_IRQHandler                                build/startup_stm32g474xx.o
MX_ADC1_Init                                      build/adc.o
                                                  build/main.o
MX_ADC2_Init                                      build/adc.o
                                                  build/main.o
MX_ADC3_Init                                      build/adc.o
                                                  build/main.o
MX_ADC4_Init                                      build/adc.o
                                                  build/main.o
MX_ADC5_Init                                      build/adc.o
                                                  build/main.o
MX_CORDIC_Init                                    build/cordic.o
                                                  build/main.o
MX_DMA_Init                                       build/dma.o
                                                  build/main.o
MX_FDCAN3_Init                                    build/fdcan.o
                                                  build/main.o
MX_FMAC_Init                                      build/fmac.o
                                                  build/main.o
MX_FREERTOS_Init                                  build/app_freertos.o
                                                  build/main.o
MX_GPIO_Init                                      build/gpio.o
                                                  build/main.o
MX_SPI1_Init                                      build/spi.o
                                                  build/main.o
MX_SPI2_Init                                      build/spi.o
                                                  build/main.o
MX_TIM2_Init                                      build/tim.o
                                                  build/main.o
MX_TIM8_Init                                      build/tim.o
                                                  build/main.o
MX_USART2_UART_Init                               build/usart.o
                                                  build/main.o
MemManage_Handler                                 build/stm32g4xx_it.o
NMI_Handler                                       build/stm32g4xx_it.o
PVD_PVM_IRQHandler                                build/startup_stm32g474xx.o
PendSV_Handler                                    build/port.o
QUADSPI_IRQHandler                                build/startup_stm32g474xx.o
RCC_GetHCLKClockFreq                              build/stm32g4xx_ll_rcc.o
RCC_GetPCLK1ClockFreq                             build/stm32g4xx_ll_rcc.o
RCC_GetPCLK2ClockFreq                             build/stm32g4xx_ll_rcc.o
RCC_GetSystemClockFreq                            build/stm32g4xx_ll_rcc.o
RCC_IRQHandler                                    build/startup_stm32g474xx.o
RCC_PLL_GetFreqDomain_48M                         build/stm32g4xx_ll_rcc.o
RCC_PLL_GetFreqDomain_ADC                         build/stm32g4xx_ll_rcc.o
RCC_PLL_GetFreqDomain_SYS                         build/stm32g4xx_ll_rcc.o
RNG_IRQHandler                                    build/startup_stm32g474xx.o
RTC_Alarm_IRQHandler                              build/startup_stm32g474xx.o
RTC_TAMP_LSECSS_IRQHandler                        build/startup_stm32g474xx.o
RTC_WKUP_IRQHandler                               build/startup_stm32g474xx.o
Reset_Handler                                     build/startup_stm32g474xx.o
SAI1_IRQHandler                                   build/startup_stm32g474xx.o
SPI1_IRQHandler                                   build/startup_stm32g474xx.o
SPI2_IRQHandler                                   build/startup_stm32g474xx.o
SPI3_IRQHandler                                   build/startup_stm32g474xx.o
SPI4_IRQHandler                                   build/startup_stm32g474xx.o
SVC_Handler                                       build/port.o
StartDefaultTask                                  build/app_freertos.o
SysTick_Handler                                   build/port.o
SystemClock_Config                                build/main.o
SystemCoreClock                                   build/system_stm32g4xx.o
                                                  build/port.o
                                                  build/cmsis_os2.o
                                                  build/stm32g4xx_hal_spi.o
                                                  build/stm32g4xx_hal_pwr_ex.o
                                                  build/stm32g4xx_hal_flash_ramfunc.o
                                                  build/stm32g4xx_hal_rcc.o
                                                  build/stm32g4xx_hal.o
                                                  build/stm32g4xx_hal_adc_ex.o
                                                  build/stm32g4xx_hal_adc.o
                                                  build/stm32g4xx_ll_utils.o
SystemCoreClockUpdate                             build/system_stm32g4xx.o
SystemInit                                        build/system_stm32g4xx.o
                                                  build/startup_stm32g474xx.o
TIM1_BRK_TIM15_IRQHandler                         build/startup_stm32g474xx.o
TIM1_CC_IRQHandler                                build/startup_stm32g474xx.o
TIM1_TRG_COM_TIM17_IRQHandler                     build/startup_stm32g474xx.o
TIM1_UP_TIM16_IRQHandler                          build/startup_stm32g474xx.o
TIM20_BRK_IRQHandler                              build/startup_stm32g474xx.o
TIM20_CC_IRQHandler                               build/startup_stm32g474xx.o
TIM20_TRG_COM_IRQHandler                          build/startup_stm32g474xx.o
TIM20_UP_IRQHandler                               build/startup_stm32g474xx.o
TIM2_IRQHandler                                   build/startup_stm32g474xx.o
TIM3_IRQHandler                                   build/startup_stm32g474xx.o
TIM4_IRQHandler                                   build/startup_stm32g474xx.o
TIM5_IRQHandler                                   build/startup_stm32g474xx.o
TIM6_DAC_IRQHandler                               build/stm32g4xx_it.o
TIM7_DAC_IRQHandler                               build/startup_stm32g474xx.o
TIM8_BRK_IRQHandler                               build/startup_stm32g474xx.o
TIM8_CC_IRQHandler                                build/startup_stm32g474xx.o
TIM8_TRG_COM_IRQHandler                           build/startup_stm32g474xx.o
TIM8_UP_IRQHandler                                build/startup_stm32g474xx.o
TIMEx_DMACommutationCplt                          build/stm32g4xx_hal_tim_ex.o
                                                  build/stm32g4xx_hal_tim.o
TIMEx_DMACommutationHalfCplt                      build/stm32g4xx_hal_tim_ex.o
                                                  build/stm32g4xx_hal_tim.o
TIM_Base_SetConfig                                build/stm32g4xx_hal_tim.o
                                                  build/stm32g4xx_hal_tim_ex.o
TIM_CCxChannelCmd                                 build/stm32g4xx_hal_tim.o
                                                  build/stm32g4xx_hal_tim_ex.o
TIM_DMACaptureCplt                                build/stm32g4xx_hal_tim.o
                                                  build/stm32g4xx_hal_tim_ex.o
TIM_DMACaptureHalfCplt                            build/stm32g4xx_hal_tim.o
                                                  build/stm32g4xx_hal_tim_ex.o
TIM_DMADelayPulseHalfCplt                         build/stm32g4xx_hal_tim.o
                                                  build/stm32g4xx_hal_tim_ex.o
TIM_DMAError                                      build/stm32g4xx_hal_tim.o
                                                  build/stm32g4xx_hal_tim_ex.o
TIM_ETR_SetConfig                                 build/stm32g4xx_hal_tim.o
                                                  build/stm32g4xx_hal_tim_ex.o
TIM_OC2_SetConfig                                 build/stm32g4xx_hal_tim.o
                                                  build/stm32g4xx_hal_tim_ex.o
TIM_TI1_SetConfig                                 build/stm32g4xx_hal_tim.o
                                                  build/stm32g4xx_hal_tim_ex.o
UART4_IRQHandler                                  build/startup_stm32g474xx.o
UART5_IRQHandler                                  build/startup_stm32g474xx.o
UCPD1_IRQHandler                                  build/startup_stm32g474xx.o
USART1_IRQHandler                                 build/startup_stm32g474xx.o
USART2_IRQHandler                                 build/startup_stm32g474xx.o
USART3_IRQHandler                                 build/startup_stm32g474xx.o
USBWakeUp_IRQHandler                              build/startup_stm32g474xx.o
USB_HP_IRQHandler                                 build/startup_stm32g474xx.o
USB_LP_IRQHandler                                 build/startup_stm32g474xx.o
UsageFault_Handler                                build/stm32g4xx_it.o
WWDG_IRQHandler                                   build/startup_stm32g474xx.o
_ITM_deregisterTMCloneTable                       /usr/lib/gcc/arm-none-eabi/9.2.1/thumb/v7e-m+fp/hard/crtbegin.o
_ITM_registerTMCloneTable                         /usr/lib/gcc/arm-none-eabi/9.2.1/thumb/v7e-m+fp/hard/crtbegin.o
_Unwind_Backtrace                                 /usr/lib/gcc/arm-none-eabi/9.2.1/thumb/v7e-m+fp/hard/libgcc.a(libunwind.o)
_Unwind_Complete                                  /usr/lib/gcc/arm-none-eabi/9.2.1/thumb/v7e-m+fp/hard/libgcc.a(unwind-arm.o)
_Unwind_DeleteException                           /usr/lib/gcc/arm-none-eabi/9.2.1/thumb/v7e-m+fp/hard/libgcc.a(unwind-arm.o)
_Unwind_ForcedUnwind                              /usr/lib/gcc/arm-none-eabi/9.2.1/thumb/v7e-m+fp/hard/libgcc.a(libunwind.o)
_Unwind_GetCFA                                    /usr/lib/gcc/arm-none-eabi/9.2.1/thumb/v7e-m+fp/hard/libgcc.a(unwind-arm.o)
_Unwind_GetDataRelBase                            /usr/lib/gcc/arm-none-eabi/9.2.1/thumb/v7e-m+fp/hard/libgcc.a(pr-support.o)
_Unwind_GetLanguageSpecificData                   /usr/lib/gcc/arm-none-eabi/9.2.1/thumb/v7e-m+fp/hard/libgcc.a(pr-support.o)
_Unwind_GetRegionStart                            /usr/lib/gcc/arm-none-eabi/9.2.1/thumb/v7e-m+fp/hard/libgcc.a(pr-support.o)
_Unwind_GetTextRelBase                            /usr/lib/gcc/arm-none-eabi/9.2.1/thumb/v7e-m+fp/hard/libgcc.a(pr-support.o)
_Unwind_RaiseException                            /usr/lib/gcc/arm-none-eabi/9.2.1/thumb/v7e-m+fp/hard/libgcc.a(libunwind.o)
_Unwind_Resume                                    /usr/lib/gcc/arm-none-eabi/9.2.1/thumb/v7e-m+fp/hard/libgcc.a(libunwind.o)
_Unwind_Resume_or_Rethrow                         /usr/lib/gcc/arm-none-eabi/9.2.1/thumb/v7e-m+fp/hard/libgcc.a(libunwind.o)
_Unwind_VRS_Get                                   /usr/lib/gcc/arm-none-eabi/9.2.1/thumb/v7e-m+fp/hard/libgcc.a(unwind-arm.o)
                                                  /usr/lib/gcc/arm-none-eabi/9.2.1/thumb/v7e-m+fp/hard/libgcc.a(pr-support.o)
_Unwind_VRS_Pop                                   /usr/lib/gcc/arm-none-eabi/9.2.1/thumb/v7e-m+fp/hard/libgcc.a(unwind-arm.o)
                                                  /usr/lib/gcc/arm-none-eabi/9.2.1/thumb/v7e-m+fp/hard/libgcc.a(pr-support.o)
_Unwind_VRS_Set                                   /usr/lib/gcc/arm-none-eabi/9.2.1/thumb/v7e-m+fp/hard/libgcc.a(unwind-arm.o)
                                                  /usr/lib/gcc/arm-none-eabi/9.2.1/thumb/v7e-m+fp/hard/libgcc.a(pr-support.o)
__TMC_END__                                       /usr/lib/gcc/arm-none-eabi/9.2.1/thumb/v7e-m+fp/hard/crtend.o
                                                  /usr/lib/gcc/arm-none-eabi/9.2.1/thumb/v7e-m+fp/hard/crtbegin.o
___Unwind_Backtrace                               /usr/lib/gcc/arm-none-eabi/9.2.1/thumb/v7e-m+fp/hard/libgcc.a(libunwind.o)
___Unwind_ForcedUnwind                            /usr/lib/gcc/arm-none-eabi/9.2.1/thumb/v7e-m+fp/hard/libgcc.a(libunwind.o)
___Unwind_RaiseException                          /usr/lib/gcc/arm-none-eabi/9.2.1/thumb/v7e-m+fp/hard/libgcc.a(libunwind.o)
___Unwind_Resume                                  /usr/lib/gcc/arm-none-eabi/9.2.1/thumb/v7e-m+fp/hard/libgcc.a(libunwind.o)
___Unwind_Resume_or_Rethrow                       /usr/lib/gcc/arm-none-eabi/9.2.1/thumb/v7e-m+fp/hard/libgcc.a(libunwind.o)
__aeabi_unwind_cpp_pr0                            /usr/lib/gcc/arm-none-eabi/9.2.1/thumb/v7e-m+fp/hard/libgcc.a(unwind-arm.o)
                                                  /usr/lib/gcc/arm-none-eabi/9.2.1/thumb/v7e-m+fp/hard/libgcc.a(pr-support.o)
                                                  build/SerialHandler.o
                                                  build/main.o
__aeabi_unwind_cpp_pr1                            /usr/lib/gcc/arm-none-eabi/9.2.1/thumb/v7e-m+fp/hard/libgcc.a(unwind-arm.o)
                                                  /usr/lib/gcc/arm-none-eabi/9.2.1/thumb/v7e-m+fp/hard/libgcc.a(pr-support.o)
                                                  build/main.o
__aeabi_unwind_cpp_pr2                            /usr/lib/gcc/arm-none-eabi/9.2.1/thumb/v7e-m+fp/hard/libgcc.a(unwind-arm.o)
__bss_end__                                       /usr/lib/gcc/arm-none-eabi/9.2.1/../../../arm-none-eabi/lib/thumb/v7e-m+fp/hard/crt0.o
__bss_start__                                     /usr/lib/gcc/arm-none-eabi/9.2.1/../../../arm-none-eabi/lib/thumb/v7e-m+fp/hard/crt0.o
__call_exitprocs                                  /usr/lib/gcc/arm-none-eabi/9.2.1/../../../arm-none-eabi/lib/thumb/v7e-m+fp/hard/libc.a(lib_a-__call_atexit.o)
                                                  /usr/lib/gcc/arm-none-eabi/9.2.1/../../../arm-none-eabi/lib/thumb/v7e-m+fp/hard/libc.a(lib_a-exit.o)
__cxa_begin_cleanup                               /usr/lib/gcc/arm-none-eabi/9.2.1/thumb/v7e-m+fp/hard/libgcc.a(unwind-arm.o)
__cxa_call_unexpected                             /usr/lib/gcc/arm-none-eabi/9.2.1/thumb/v7e-m+fp/hard/libgcc.a(unwind-arm.o)
__cxa_type_match                                  /usr/lib/gcc/arm-none-eabi/9.2.1/thumb/v7e-m+fp/hard/libgcc.a(unwind-arm.o)
__deregister_frame_info                           /usr/lib/gcc/arm-none-eabi/9.2.1/thumb/v7e-m+fp/hard/crtbegin.o
__dso_handle                                      /usr/lib/gcc/arm-none-eabi/9.2.1/thumb/v7e-m+fp/hard/crtbegin.o
__exidx_end                                       /usr/lib/gcc/arm-none-eabi/9.2.1/thumb/v7e-m+fp/hard/libgcc.a(unwind-arm.o)
__exidx_start                                     /usr/lib/gcc/arm-none-eabi/9.2.1/thumb/v7e-m+fp/hard/libgcc.a(unwind-arm.o)
__fini_array_end                                  /usr/lib/gcc/arm-none-eabi/9.2.1/../../../arm-none-eabi/lib/thumb/v7e-m+fp/hard/libc.a(lib_a-fini.o)
__fini_array_start                                /usr/lib/gcc/arm-none-eabi/9.2.1/../../../arm-none-eabi/lib/thumb/v7e-m+fp/hard/libc.a(lib_a-fini.o)
__gnu_Unwind_Backtrace                            /usr/lib/gcc/arm-none-eabi/9.2.1/thumb/v7e-m+fp/hard/libgcc.a(unwind-arm.o)
                                                  /usr/lib/gcc/arm-none-eabi/9.2.1/thumb/v7e-m+fp/hard/libgcc.a(libunwind.o)
__gnu_Unwind_Find_exidx                           /usr/lib/gcc/arm-none-eabi/9.2.1/thumb/v7e-m+fp/hard/libgcc.a(unwind-arm.o)
__gnu_Unwind_ForcedUnwind                         /usr/lib/gcc/arm-none-eabi/9.2.1/thumb/v7e-m+fp/hard/libgcc.a(unwind-arm.o)
                                                  /usr/lib/gcc/arm-none-eabi/9.2.1/thumb/v7e-m+fp/hard/libgcc.a(libunwind.o)
__gnu_Unwind_RaiseException                       /usr/lib/gcc/arm-none-eabi/9.2.1/thumb/v7e-m+fp/hard/libgcc.a(unwind-arm.o)
                                                  /usr/lib/gcc/arm-none-eabi/9.2.1/thumb/v7e-m+fp/hard/libgcc.a(libunwind.o)
__gnu_Unwind_Restore_VFP                          /usr/lib/gcc/arm-none-eabi/9.2.1/thumb/v7e-m+fp/hard/libgcc.a(libunwind.o)
                                                  /usr/lib/gcc/arm-none-eabi/9.2.1/thumb/v7e-m+fp/hard/libgcc.a(unwind-arm.o)
__gnu_Unwind_Restore_VFP_D                        /usr/lib/gcc/arm-none-eabi/9.2.1/thumb/v7e-m+fp/hard/libgcc.a(libunwind.o)
                                                  /usr/lib/gcc/arm-none-eabi/9.2.1/thumb/v7e-m+fp/hard/libgcc.a(unwind-arm.o)
__gnu_Unwind_Restore_VFP_D_16_to_31               /usr/lib/gcc/arm-none-eabi/9.2.1/thumb/v7e-m+fp/hard/libgcc.a(libunwind.o)
                                                  /usr/lib/gcc/arm-none-eabi/9.2.1/thumb/v7e-m+fp/hard/libgcc.a(unwind-arm.o)
__gnu_Unwind_Restore_WMMXC                        /usr/lib/gcc/arm-none-eabi/9.2.1/thumb/v7e-m+fp/hard/libgcc.a(libunwind.o)
                                                  /usr/lib/gcc/arm-none-eabi/9.2.1/thumb/v7e-m+fp/hard/libgcc.a(unwind-arm.o)
__gnu_Unwind_Restore_WMMXD                        /usr/lib/gcc/arm-none-eabi/9.2.1/thumb/v7e-m+fp/hard/libgcc.a(libunwind.o)
                                                  /usr/lib/gcc/arm-none-eabi/9.2.1/thumb/v7e-m+fp/hard/libgcc.a(unwind-arm.o)
__gnu_Unwind_Resume                               /usr/lib/gcc/arm-none-eabi/9.2.1/thumb/v7e-m+fp/hard/libgcc.a(unwind-arm.o)
                                                  /usr/lib/gcc/arm-none-eabi/9.2.1/thumb/v7e-m+fp/hard/libgcc.a(libunwind.o)
__gnu_Unwind_Resume_or_Rethrow                    /usr/lib/gcc/arm-none-eabi/9.2.1/thumb/v7e-m+fp/hard/libgcc.a(unwind-arm.o)
                                                  /usr/lib/gcc/arm-none-eabi/9.2.1/thumb/v7e-m+fp/hard/libgcc.a(libunwind.o)
__gnu_Unwind_Save_VFP                             /usr/lib/gcc/arm-none-eabi/9.2.1/thumb/v7e-m+fp/hard/libgcc.a(libunwind.o)
                                                  /usr/lib/gcc/arm-none-eabi/9.2.1/thumb/v7e-m+fp/hard/libgcc.a(unwind-arm.o)
__gnu_Unwind_Save_VFP_D                           /usr/lib/gcc/arm-none-eabi/9.2.1/thumb/v7e-m+fp/hard/libgcc.a(libunwind.o)
                                                  /usr/lib/gcc/arm-none-eabi/9.2.1/thumb/v7e-m+fp/hard/libgcc.a(unwind-arm.o)
__gnu_Unwind_Save_VFP_D_16_to_31                  /usr/lib/gcc/arm-none-eabi/9.2.1/thumb/v7e-m+fp/hard/libgcc.a(libunwind.o)
                                                  /usr/lib/gcc/arm-none-eabi/9.2.1/thumb/v7e-m+fp/hard/libgcc.a(unwind-arm.o)
__gnu_Unwind_Save_WMMXC                           /usr/lib/gcc/arm-none-eabi/9.2.1/thumb/v7e-m+fp/hard/libgcc.a(libunwind.o)
                                                  /usr/lib/gcc/arm-none-eabi/9.2.1/thumb/v7e-m+fp/hard/libgcc.a(unwind-arm.o)
__gnu_Unwind_Save_WMMXD                           /usr/lib/gcc/arm-none-eabi/9.2.1/thumb/v7e-m+fp/hard/libgcc.a(libunwind.o)
                                                  /usr/lib/gcc/arm-none-eabi/9.2.1/thumb/v7e-m+fp/hard/libgcc.a(unwind-arm.o)
__gnu_unwind_execute                              /usr/lib/gcc/arm-none-eabi/9.2.1/thumb/v7e-m+fp/hard/libgcc.a(pr-support.o)
                                                  /usr/lib/gcc/arm-none-eabi/9.2.1/thumb/v7e-m+fp/hard/libgcc.a(unwind-arm.o)
__gnu_unwind_frame                                /usr/lib/gcc/arm-none-eabi/9.2.1/thumb/v7e-m+fp/hard/libgcc.a(pr-support.o)
__init_array_end                                  /usr/lib/gcc/arm-none-eabi/9.2.1/../../../arm-none-eabi/lib/thumb/v7e-m+fp/hard/libc.a(lib_a-init.o)
__init_array_start                                /usr/lib/gcc/arm-none-eabi/9.2.1/../../../arm-none-eabi/lib/thumb/v7e-m+fp/hard/libc.a(lib_a-init.o)
__libc_fini                                       /usr/lib/gcc/arm-none-eabi/9.2.1/../../../arm-none-eabi/lib/thumb/v7e-m+fp/hard/libc.a(lib_a-__call_atexit.o)
__libc_fini_array                                 /usr/lib/gcc/arm-none-eabi/9.2.1/../../../arm-none-eabi/lib/thumb/v7e-m+fp/hard/libc.a(lib_a-fini.o)
                                                  /usr/lib/gcc/arm-none-eabi/9.2.1/../../../arm-none-eabi/lib/thumb/v7e-m+fp/hard/libc.a(lib_a-__call_atexit.o)
                                                  /usr/lib/gcc/arm-none-eabi/9.2.1/../../../arm-none-eabi/lib/thumb/v7e-m+fp/hard/crt0.o
__libc_init_array                                 /usr/lib/gcc/arm-none-eabi/9.2.1/../../../arm-none-eabi/lib/thumb/v7e-m+fp/hard/libc.a(lib_a-init.o)
                                                  build/startup_stm32g474xx.o
                                                  /usr/lib/gcc/arm-none-eabi/9.2.1/../../../arm-none-eabi/lib/thumb/v7e-m+fp/hard/crt0.o
__malloc_av_                                      /usr/lib/gcc/arm-none-eabi/9.2.1/../../../arm-none-eabi/lib/thumb/v7e-m+fp/hard/libc.a(lib_a-mallocr.o)
                                                  /usr/lib/gcc/arm-none-eabi/9.2.1/../../../arm-none-eabi/lib/thumb/v7e-m+fp/hard/libc.a(lib_a-freer.o)
__malloc_current_mallinfo                         /usr/lib/gcc/arm-none-eabi/9.2.1/../../../arm-none-eabi/lib/thumb/v7e-m+fp/hard/libc.a(lib_a-mallocr.o)
                                                  /usr/lib/gcc/arm-none-eabi/9.2.1/../../../arm-none-eabi/lib/thumb/v7e-m+fp/hard/libc.a(lib_a-freer.o)
__malloc_lock                                     /usr/lib/gcc/arm-none-eabi/9.2.1/../../../arm-none-eabi/lib/thumb/v7e-m+fp/hard/libc.a(lib_a-mlock.o)
                                                  /usr/lib/gcc/arm-none-eabi/9.2.1/../../../arm-none-eabi/lib/thumb/v7e-m+fp/hard/libc.a(lib_a-freer.o)
                                                  /usr/lib/gcc/arm-none-eabi/9.2.1/../../../arm-none-eabi/lib/thumb/v7e-m+fp/hard/libc.a(lib_a-mallocr.o)
__malloc_max_sbrked_mem                           /usr/lib/gcc/arm-none-eabi/9.2.1/../../../arm-none-eabi/lib/thumb/v7e-m+fp/hard/libc.a(lib_a-mallocr.o)
__malloc_max_total_mem                            /usr/lib/gcc/arm-none-eabi/9.2.1/../../../arm-none-eabi/lib/thumb/v7e-m+fp/hard/libc.a(lib_a-mallocr.o)
__malloc_sbrk_base                                /usr/lib/gcc/arm-none-eabi/9.2.1/../../../arm-none-eabi/lib/thumb/v7e-m+fp/hard/libc.a(lib_a-mallocr.o)
                                                  /usr/lib/gcc/arm-none-eabi/9.2.1/../../../arm-none-eabi/lib/thumb/v7e-m+fp/hard/libc.a(lib_a-freer.o)
__malloc_top_pad                                  /usr/lib/gcc/arm-none-eabi/9.2.1/../../../arm-none-eabi/lib/thumb/v7e-m+fp/hard/libc.a(lib_a-mallocr.o)
                                                  /usr/lib/gcc/arm-none-eabi/9.2.1/../../../arm-none-eabi/lib/thumb/v7e-m+fp/hard/libc.a(lib_a-freer.o)
__malloc_trim_threshold                           /usr/lib/gcc/arm-none-eabi/9.2.1/../../../arm-none-eabi/lib/thumb/v7e-m+fp/hard/libc.a(lib_a-mallocr.o)
                                                  /usr/lib/gcc/arm-none-eabi/9.2.1/../../../arm-none-eabi/lib/thumb/v7e-m+fp/hard/libc.a(lib_a-freer.o)
__malloc_unlock                                   /usr/lib/gcc/arm-none-eabi/9.2.1/../../../arm-none-eabi/lib/thumb/v7e-m+fp/hard/libc.a(lib_a-mlock.o)
                                                  /usr/lib/gcc/arm-none-eabi/9.2.1/../../../arm-none-eabi/lib/thumb/v7e-m+fp/hard/libc.a(lib_a-freer.o)
                                                  /usr/lib/gcc/arm-none-eabi/9.2.1/../../../arm-none-eabi/lib/thumb/v7e-m+fp/hard/libc.a(lib_a-mallocr.o)
__preinit_array_end                               /usr/lib/gcc/arm-none-eabi/9.2.1/../../../arm-none-eabi/lib/thumb/v7e-m+fp/hard/libc.a(lib_a-init.o)
__preinit_array_start                             /usr/lib/gcc/arm-none-eabi/9.2.1/../../../arm-none-eabi/lib/thumb/v7e-m+fp/hard/libc.a(lib_a-init.o)
__register_exitproc                               /usr/lib/gcc/arm-none-eabi/9.2.1/../../../arm-none-eabi/lib/thumb/v7e-m+fp/hard/libc.a(lib_a-__atexit.o)
                                                  /usr/lib/gcc/arm-none-eabi/9.2.1/../../../arm-none-eabi/lib/thumb/v7e-m+fp/hard/libc.a(lib_a-atexit.o)
__register_frame_info                             /usr/lib/gcc/arm-none-eabi/9.2.1/thumb/v7e-m+fp/hard/crtbegin.o
__restore_core_regs                               /usr/lib/gcc/arm-none-eabi/9.2.1/thumb/v7e-m+fp/hard/libgcc.a(libunwind.o)
__sigtramp                                        /usr/lib/gcc/arm-none-eabi/9.2.1/../../../arm-none-eabi/lib/thumb/v7e-m+fp/hard/libc.a(lib_a-signal.o)
__sigtramp_r                                      /usr/lib/gcc/arm-none-eabi/9.2.1/../../../arm-none-eabi/lib/thumb/v7e-m+fp/hard/libc.a(lib_a-signal.o)
__stack                                           /usr/lib/gcc/arm-none-eabi/9.2.1/../../../arm-none-eabi/lib/thumb/v7e-m+fp/hard/crt0.o
_ebss                                             build/startup_stm32g474xx.o
_edata                                            build/startup_stm32g474xx.o
_estack                                           build/startup_stm32g474xx.o
_exit                                             /usr/lib/gcc/arm-none-eabi/9.2.1/../../../arm-none-eabi/lib/thumb/v7e-m+fp/hard/libnosys.a(_exit.o)
                                                  /usr/lib/gcc/arm-none-eabi/9.2.1/../../../arm-none-eabi/lib/thumb/v7e-m+fp/hard/libc.a(lib_a-abort.o)
                                                  /usr/lib/gcc/arm-none-eabi/9.2.1/../../../arm-none-eabi/lib/thumb/v7e-m+fp/hard/libc.a(lib_a-exit.o)
_fini                                             /usr/lib/gcc/arm-none-eabi/9.2.1/thumb/v7e-m+fp/hard/crti.o
                                                  /usr/lib/gcc/arm-none-eabi/9.2.1/../../../arm-none-eabi/lib/thumb/v7e-m+fp/hard/libc.a(lib_a-fini.o)
_free_r                                           /usr/lib/gcc/arm-none-eabi/9.2.1/../../../arm-none-eabi/lib/thumb/v7e-m+fp/hard/libc.a(lib_a-freer.o)
                                                  /usr/lib/gcc/arm-none-eabi/9.2.1/../../../arm-none-eabi/lib/thumb/v7e-m+fp/hard/libc.a(lib_a-reent.o)
                                                  /usr/lib/gcc/arm-none-eabi/9.2.1/../../../arm-none-eabi/lib/thumb/v7e-m+fp/hard/libc.a(lib_a-mallocr.o)
_getpid                                           /usr/lib/gcc/arm-none-eabi/9.2.1/../../../arm-none-eabi/lib/thumb/v7e-m+fp/hard/libnosys.a(getpid.o)
                                                  /usr/lib/gcc/arm-none-eabi/9.2.1/../../../arm-none-eabi/lib/thumb/v7e-m+fp/hard/libc.a(lib_a-signalr.o)
_getpid_r                                         /usr/lib/gcc/arm-none-eabi/9.2.1/../../../arm-none-eabi/lib/thumb/v7e-m+fp/hard/libc.a(lib_a-signalr.o)
                                                  /usr/lib/gcc/arm-none-eabi/9.2.1/../../../arm-none-eabi/lib/thumb/v7e-m+fp/hard/libc.a(lib_a-signal.o)
_global_impure_ptr                                /usr/lib/gcc/arm-none-eabi/9.2.1/../../../arm-none-eabi/lib/thumb/v7e-m+fp/hard/libc.a(lib_a-impure.o)
                                                  /usr/lib/gcc/arm-none-eabi/9.2.1/../../../arm-none-eabi/lib/thumb/v7e-m+fp/hard/libc.a(lib_a-__call_atexit.o)
                                                  /usr/lib/gcc/arm-none-eabi/9.2.1/../../../arm-none-eabi/lib/thumb/v7e-m+fp/hard/libc.a(lib_a-__atexit.o)
                                                  /usr/lib/gcc/arm-none-eabi/9.2.1/../../../arm-none-eabi/lib/thumb/v7e-m+fp/hard/libc.a(lib_a-exit.o)
_impure_ptr                                       /usr/lib/gcc/arm-none-eabi/9.2.1/../../../arm-none-eabi/lib/thumb/v7e-m+fp/hard/libc.a(lib_a-impure.o)
                                                  /usr/lib/gcc/arm-none-eabi/9.2.1/../../../arm-none-eabi/lib/thumb/v7e-m+fp/hard/libc.a(lib_a-reent.o)
                                                  /usr/lib/gcc/arm-none-eabi/9.2.1/../../../arm-none-eabi/lib/thumb/v7e-m+fp/hard/libc.a(lib_a-signal.o)
_init                                             /usr/lib/gcc/arm-none-eabi/9.2.1/thumb/v7e-m+fp/hard/crti.o
                                                  /usr/lib/gcc/arm-none-eabi/9.2.1/../../../arm-none-eabi/lib/thumb/v7e-m+fp/hard/libc.a(lib_a-init.o)
_init_signal                                      /usr/lib/gcc/arm-none-eabi/9.2.1/../../../arm-none-eabi/lib/thumb/v7e-m+fp/hard/libc.a(lib_a-signal.o)
_init_signal_r                                    /usr/lib/gcc/arm-none-eabi/9.2.1/../../../arm-none-eabi/lib/thumb/v7e-m+fp/hard/libc.a(lib_a-signal.o)
_kill                                             /usr/lib/gcc/arm-none-eabi/9.2.1/../../../arm-none-eabi/lib/thumb/v7e-m+fp/hard/libnosys.a(kill.o)
                                                  /usr/lib/gcc/arm-none-eabi/9.2.1/../../../arm-none-eabi/lib/thumb/v7e-m+fp/hard/libc.a(lib_a-signalr.o)
_kill_r                                           /usr/lib/gcc/arm-none-eabi/9.2.1/../../../arm-none-eabi/lib/thumb/v7e-m+fp/hard/libc.a(lib_a-signalr.o)
                                                  /usr/lib/gcc/arm-none-eabi/9.2.1/../../../arm-none-eabi/lib/thumb/v7e-m+fp/hard/libc.a(lib_a-signal.o)
_mainCRTStartup                                   /usr/lib/gcc/arm-none-eabi/9.2.1/../../../arm-none-eabi/lib/thumb/v7e-m+fp/hard/crt0.o
_malloc_r                                         /usr/lib/gcc/arm-none-eabi/9.2.1/../../../arm-none-eabi/lib/thumb/v7e-m+fp/hard/libc.a(lib_a-mallocr.o)
                                                  /usr/lib/gcc/arm-none-eabi/9.2.1/../../../arm-none-eabi/lib/thumb/v7e-m+fp/hard/libc.a(lib_a-signal.o)
_malloc_trim_r                                    /usr/lib/gcc/arm-none-eabi/9.2.1/../../../arm-none-eabi/lib/thumb/v7e-m+fp/hard/libc.a(lib_a-freer.o)
_raise_r                                          /usr/lib/gcc/arm-none-eabi/9.2.1/../../../arm-none-eabi/lib/thumb/v7e-m+fp/hard/libc.a(lib_a-signal.o)
_reclaim_reent                                    /usr/lib/gcc/arm-none-eabi/9.2.1/../../../arm-none-eabi/lib/thumb/v7e-m+fp/hard/libc.a(lib_a-reent.o)
_sbrk                                             /usr/lib/gcc/arm-none-eabi/9.2.1/../../../arm-none-eabi/lib/thumb/v7e-m+fp/hard/libnosys.a(sbrk.o)
                                                  /usr/lib/gcc/arm-none-eabi/9.2.1/../../../arm-none-eabi/lib/thumb/v7e-m+fp/hard/libc.a(lib_a-sbrkr.o)
_sbrk_r                                           /usr/lib/gcc/arm-none-eabi/9.2.1/../../../arm-none-eabi/lib/thumb/v7e-m+fp/hard/libc.a(lib_a-sbrkr.o)
                                                  /usr/lib/gcc/arm-none-eabi/9.2.1/../../../arm-none-eabi/lib/thumb/v7e-m+fp/hard/libc.a(lib_a-freer.o)
                                                  /usr/lib/gcc/arm-none-eabi/9.2.1/../../../arm-none-eabi/lib/thumb/v7e-m+fp/hard/libc.a(lib_a-mallocr.o)
_sbss                                             build/startup_stm32g474xx.o
_sdata                                            build/startup_stm32g474xx.o
_sidata                                           build/startup_stm32g474xx.o
_signal_r                                         /usr/lib/gcc/arm-none-eabi/9.2.1/../../../arm-none-eabi/lib/thumb/v7e-m+fp/hard/libc.a(lib_a-signal.o)
_stack_init                                       /usr/lib/gcc/arm-none-eabi/9.2.1/../../../arm-none-eabi/lib/thumb/v7e-m+fp/hard/crt0.o
_start                                            /usr/lib/gcc/arm-none-eabi/9.2.1/../../../arm-none-eabi/lib/thumb/v7e-m+fp/hard/crt0.o
abort                                             /usr/lib/gcc/arm-none-eabi/9.2.1/../../../arm-none-eabi/lib/thumb/v7e-m+fp/hard/libc.a(lib_a-abort.o)
                                                  /usr/lib/gcc/arm-none-eabi/9.2.1/thumb/v7e-m+fp/hard/libgcc.a(pr-support.o)
                                                  /usr/lib/gcc/arm-none-eabi/9.2.1/thumb/v7e-m+fp/hard/libgcc.a(unwind-arm.o)
atexit                                            /usr/lib/gcc/arm-none-eabi/9.2.1/../../../arm-none-eabi/lib/thumb/v7e-m+fp/hard/libc.a(lib_a-atexit.o)
                                                  /usr/lib/gcc/arm-none-eabi/9.2.1/../../../arm-none-eabi/lib/thumb/v7e-m+fp/hard/libc.a(lib_a-__call_atexit.o)
                                                  /usr/lib/gcc/arm-none-eabi/9.2.1/../../../arm-none-eabi/lib/thumb/v7e-m+fp/hard/crt0.o
cleanup_glue                                      /usr/lib/gcc/arm-none-eabi/9.2.1/../../../arm-none-eabi/lib/thumb/v7e-m+fp/hard/libc.a(lib_a-reent.o)
commsTaskHandle                                   build/app_freertos.o
comms_thread_entry                                build/SerialHandler.o
                                                  build/app_freertos.o
controlTaskHandle                                 build/app_freertos.o
defaultTaskHandle                                 build/app_freertos.o
defaultTask_attributes                            build/app_freertos.o
eTaskGetState                                     build/tasks.o
                                                  build/cmsis_os2.o
end                                               /usr/lib/gcc/arm-none-eabi/9.2.1/../../../arm-none-eabi/lib/thumb/v7e-m+fp/hard/libnosys.a(sbrk.o)
errno                                             /usr/lib/gcc/arm-none-eabi/9.2.1/../../../arm-none-eabi/lib/thumb/v7e-m+fp/hard/libc.a(lib_a-reent.o)
                                                  /usr/lib/gcc/arm-none-eabi/9.2.1/../../../arm-none-eabi/lib/thumb/v7e-m+fp/hard/libnosys.a(kill.o)
                                                  /usr/lib/gcc/arm-none-eabi/9.2.1/../../../arm-none-eabi/lib/thumb/v7e-m+fp/hard/libnosys.a(getpid.o)
                                                  /usr/lib/gcc/arm-none-eabi/9.2.1/../../../arm-none-eabi/lib/thumb/v7e-m+fp/hard/libc.a(lib_a-sbrkr.o)
                                                  /usr/lib/gcc/arm-none-eabi/9.2.1/../../../arm-none-eabi/lib/thumb/v7e-m+fp/hard/libc.a(lib_a-signalr.o)
exit                                              /usr/lib/gcc/arm-none-eabi/9.2.1/../../../arm-none-eabi/lib/thumb/v7e-m+fp/hard/libc.a(lib_a-exit.o)
                                                  /usr/lib/gcc/arm-none-eabi/9.2.1/../../../arm-none-eabi/lib/thumb/v7e-m+fp/hard/crt0.o
g_pfnVectors                                      build/startup_stm32g474xx.o
hadc1                                             build/adc.o
hadc2                                             build/adc.o
hadc3                                             build/adc.o
hadc4                                             build/adc.o
hadc5                                             build/adc.o
hardware_init_hook                                /usr/lib/gcc/arm-none-eabi/9.2.1/../../../arm-none-eabi/lib/thumb/v7e-m+fp/hard/crt0.o
hfdcan3                                           build/fdcan.o
hspi1                                             build/spi.o
hspi2                                             build/spi.o
htim2                                             build/tim.o
htim6                                             build/stm32g4xx_hal_timebase_tim.o
                                                  build/stm32g4xx_it.o
htim8                                             build/tim.o
main                                              build/main.o
                                                  build/startup_stm32g474xx.o
                                                  /usr/lib/gcc/arm-none-eabi/9.2.1/../../../arm-none-eabi/lib/thumb/v7e-m+fp/hard/crt0.o
memcpy                                            /usr/lib/gcc/arm-none-eabi/9.2.1/../../../arm-none-eabi/lib/thumb/v7e-m+fp/hard/libc.a(lib_a-memcpy.o)
                                                  /usr/lib/gcc/arm-none-eabi/9.2.1/thumb/v7e-m+fp/hard/libgcc.a(unwind-arm.o)
                                                  build/cmsis_os2.o
                                                  build/stream_buffer.o
                                                  build/queue.o
memset                                            /usr/lib/gcc/arm-none-eabi/9.2.1/../../../arm-none-eabi/lib/thumb/v7e-m+fp/hard/libc.a(lib_a-memset.o)
                                                  build/tasks.o
                                                  build/stream_buffer.o
                                                  build/usart.o
                                                  build/tim.o
                                                  build/adc.o
                                                  build/app_freertos.o
                                                  /usr/lib/gcc/arm-none-eabi/9.2.1/../../../arm-none-eabi/lib/thumb/v7e-m+fp/hard/crt0.o
osDelay                                           build/cmsis_os2.o
                                                  build/app_freertos.o
                                                  build/SerialHandler.o
osDelayUntil                                      build/cmsis_os2.o
osEventFlagsClear                                 build/cmsis_os2.o
osEventFlagsDelete                                build/cmsis_os2.o
osEventFlagsGet                                   build/cmsis_os2.o
osEventFlagsNew                                   build/cmsis_os2.o
osEventFlagsSet                                   build/cmsis_os2.o
osEventFlagsWait                                  build/cmsis_os2.o
osKernelGetInfo                                   build/cmsis_os2.o
osKernelGetState                                  build/cmsis_os2.o
osKernelGetSysTimerCount                          build/cmsis_os2.o
osKernelGetSysTimerFreq                           build/cmsis_os2.o
osKernelGetTickCount                              build/cmsis_os2.o
osKernelGetTickFreq                               build/cmsis_os2.o
osKernelInitialize                                build/cmsis_os2.o
                                                  build/main.o
osKernelLock                                      build/cmsis_os2.o
osKernelRestoreLock                               build/cmsis_os2.o
osKernelStart                                     build/cmsis_os2.o
                                                  build/main.o
osKernelUnlock                                    build/cmsis_os2.o
osMessageQueueDelete                              build/cmsis_os2.o
osMessageQueueGet                                 build/cmsis_os2.o
osMessageQueueGetCapacity                         build/cmsis_os2.o
osMessageQueueGetCount                            build/cmsis_os2.o
osMessageQueueGetMsgSize                          build/cmsis_os2.o
osMessageQueueGetSpace                            build/cmsis_os2.o
osMessageQueueNew                                 build/cmsis_os2.o
osMessageQueuePut                                 build/cmsis_os2.o
osMessageQueueReset                               build/cmsis_os2.o
osMutexAcquire                                    build/cmsis_os2.o
osMutexDelete                                     build/cmsis_os2.o
osMutexGetOwner                                   build/cmsis_os2.o
osMutexNew                                        build/cmsis_os2.o
osMutexRelease                                    build/cmsis_os2.o
osSemaphoreAcquire                                build/cmsis_os2.o
osSemaphoreDelete                                 build/cmsis_os2.o
osSemaphoreGetCount                               build/cmsis_os2.o
osSemaphoreNew                                    build/cmsis_os2.o
osSemaphoreRelease                                build/cmsis_os2.o
osThreadEnumerate                                 build/cmsis_os2.o
osThreadExit                                      build/cmsis_os2.o
osThreadFlagsClear                                build/cmsis_os2.o
osThreadFlagsGet                                  build/cmsis_os2.o
osThreadFlagsSet                                  build/cmsis_os2.o
osThreadFlagsWait                                 build/cmsis_os2.o
osThreadGetCount                                  build/cmsis_os2.o
osThreadGetId                                     build/cmsis_os2.o
osThreadGetName                                   build/cmsis_os2.o
osThreadGetPriority                               build/cmsis_os2.o
osThreadGetStackSpace                             build/cmsis_os2.o
osThreadGetState                                  build/cmsis_os2.o
osThreadNew                                       build/cmsis_os2.o
                                                  build/app_freertos.o
osThreadResume                                    build/cmsis_os2.o
osThreadSetPriority                               build/cmsis_os2.o
osThreadSuspend                                   build/cmsis_os2.o
osThreadTerminate                                 build/cmsis_os2.o
osThreadYield                                     build/cmsis_os2.o
osTimerDelete                                     build/cmsis_os2.o
osTimerGetName                                    build/cmsis_os2.o
osTimerIsRunning                                  build/cmsis_os2.o
osTimerNew                                        build/cmsis_os2.o
osTimerStart                                      build/cmsis_os2.o
osTimerStop                                       build/cmsis_os2.o
pFlash                                            build/stm32g4xx_hal_flash.o
                                                  build/stm32g4xx_hal_flash_ramfunc.o
                                                  build/stm32g4xx_hal_flash_ex.o
pcQueueGetName                                    build/queue.o
pcTaskGetName                                     build/tasks.o
                                                  build/cmsis_os2.o
pcTimerGetName                                    build/timers.o
                                                  build/cmsis_os2.o
pvPortMalloc                                      build/heap_4.o
                                                  build/cmsis_os2.o
                                                  build/timers.o
                                                  build/tasks.o
                                                  build/stream_buffer.o
                                                  build/queue.o
                                                  build/event_groups.o
pvTaskIncrementMutexHeldCount                     build/tasks.o
                                                  build/queue.o
pvTimerGetTimerID                                 build/timers.o
                                                  build/cmsis_os2.o
pxCurrentTCB                                      build/tasks.o
                                                  build/port.o
pxPortInitialiseStack                             build/port.o
                                                  build/tasks.o
raise                                             /usr/lib/gcc/arm-none-eabi/9.2.1/../../../arm-none-eabi/lib/thumb/v7e-m+fp/hard/libc.a(lib_a-signal.o)
                                                  /usr/lib/gcc/arm-none-eabi/9.2.1/../../../arm-none-eabi/lib/thumb/v7e-m+fp/hard/libc.a(lib_a-abort.o)
restore_core_regs                                 /usr/lib/gcc/arm-none-eabi/9.2.1/thumb/v7e-m+fp/hard/libgcc.a(libunwind.o)
                                                  /usr/lib/gcc/arm-none-eabi/9.2.1/thumb/v7e-m+fp/hard/libgcc.a(unwind-arm.o)
signal                                            /usr/lib/gcc/arm-none-eabi/9.2.1/../../../arm-none-eabi/lib/thumb/v7e-m+fp/hard/libc.a(lib_a-signal.o)
software_init_hook                                /usr/lib/gcc/arm-none-eabi/9.2.1/../../../arm-none-eabi/lib/thumb/v7e-m+fp/hard/crt0.o
ucQueueGetQueueType                               build/queue.o
ucStreamBufferGetStreamBufferType                 build/stream_buffer.o
ulTaskNotifyTake                                  build/tasks.o
uwTick                                            build/stm32g4xx_hal.o
uwTickFreq                                        build/stm32g4xx_hal.o
uwTickPrio                                        build/stm32g4xx_hal.o
                                                  build/stm32g4xx_hal_rcc.o
                                                  build/stm32g4xx_hal_timebase_tim.o
uxEventGroupGetNumber                             build/event_groups.o
uxListRemove                                      build/list.o
                                                  build/timers.o
                                                  build/tasks.o
uxQueueGetQueueNumber                             build/queue.o
uxQueueMessagesWaiting                            build/queue.o
                                                  build/cmsis_os2.o
uxQueueMessagesWaitingFromISR                     build/queue.o
                                                  build/cmsis_os2.o
uxQueueSpacesAvailable                            build/queue.o
                                                  build/cmsis_os2.o
uxStreamBufferGetStreamBufferNumber               build/stream_buffer.o
uxTaskGetNumberOfTasks                            build/tasks.o
                                                  build/cmsis_os2.o
uxTaskGetStackHighWaterMark                       build/tasks.o
                                                  build/cmsis_os2.o
uxTaskGetSystemState                              build/tasks.o
                                                  build/cmsis_os2.o
uxTaskGetTaskNumber                               build/tasks.o
uxTaskPriorityGet                                 build/tasks.o
                                                  build/cmsis_os2.o
uxTaskPriorityGetFromISR                          build/tasks.o
uxTaskResetEventItemValue                         build/tasks.o
                                                  build/event_groups.o
uxTimerGetTimerNumber                             build/timers.o
vApplicationGetIdleTaskMemory                     build/cmsis_os2.o
                                                  build/tasks.o
vApplicationGetTimerTaskMemory                    build/cmsis_os2.o
                                                  build/timers.o
vEventGroupClearBitsCallback                      build/event_groups.o
vEventGroupDelete                                 build/event_groups.o
                                                  build/cmsis_os2.o
vEventGroupSetBitsCallback                        build/event_groups.o
vEventGroupSetNumber                              build/event_groups.o
vListInitialise                                   build/list.o
                                                  build/timers.o
                                                  build/tasks.o
                                                  build/queue.o
                                                  build/event_groups.o
vListInitialiseItem                               build/list.o
                                                  build/timers.o
                                                  build/tasks.o
vListInsert                                       build/list.o
                                                  build/timers.o
                                                  build/tasks.o
vListInsertEnd                                    build/list.o
                                                  build/tasks.o
vPortEndScheduler                                 build/port.o
                                                  build/tasks.o
vPortEnterCritical                                build/port.o
                                                  build/timers.o
                                                  build/tasks.o
                                                  build/stream_buffer.o
                                                  build/queue.o
                                                  build/event_groups.o
vPortExitCritical                                 build/port.o
                                                  build/timers.o
                                                  build/tasks.o
                                                  build/stream_buffer.o
                                                  build/queue.o
                                                  build/event_groups.o
vPortFree                                         build/heap_4.o
                                                  build/cmsis_os2.o
                                                  build/timers.o
                                                  build/tasks.o
                                                  build/stream_buffer.o
                                                  build/queue.o
                                                  build/event_groups.o
vPortInitialiseBlocks                             build/heap_4.o
vPortSetupTimerInterrupt                          build/port.o
vPortValidateInterruptPriority                    build/port.o
                                                  build/tasks.o
                                                  build/queue.o
vQueueAddToRegistry                               build/queue.o
                                                  build/cmsis_os2.o
                                                  build/timers.o
vQueueDelete                                      build/queue.o
                                                  build/cmsis_os2.o
vQueueSetQueueNumber                              build/queue.o
vQueueUnregisterQueue                             build/queue.o
                                                  build/cmsis_os2.o
vQueueWaitForMessageRestricted                    build/queue.o
                                                  build/timers.o
vStreamBufferDelete                               build/stream_buffer.o
vStreamBufferSetStreamBufferNumber                build/stream_buffer.o
vTaskDelay                                        build/tasks.o
                                                  build/cmsis_os2.o
vTaskDelayUntil                                   build/tasks.o
                                                  build/cmsis_os2.o
vTaskDelete                                       build/tasks.o
                                                  build/cmsis_os2.o
vTaskEndScheduler                                 build/tasks.o
vTaskGetInfo                                      build/tasks.o
vTaskInternalSetTimeOutState                      build/tasks.o
                                                  build/queue.o
vTaskMissedYield                                  build/tasks.o
                                                  build/queue.o
vTaskNotifyGiveFromISR                            build/tasks.o
vTaskPlaceOnEventList                             build/tasks.o
                                                  build/queue.o
vTaskPlaceOnEventListRestricted                   build/tasks.o
                                                  build/queue.o
vTaskPlaceOnUnorderedEventList                    build/tasks.o
                                                  build/event_groups.o
vTaskPriorityDisinheritAfterTimeout               build/tasks.o
                                                  build/queue.o
vTaskPrioritySet                                  build/tasks.o
                                                  build/cmsis_os2.o
vTaskRemoveFromUnorderedEventList                 build/tasks.o
                                                  build/event_groups.o
vTaskResume                                       build/tasks.o
                                                  build/cmsis_os2.o
vTaskSetTaskNumber                                build/tasks.o
vTaskSetTimeOutState                              build/tasks.o
                                                  build/stream_buffer.o
vTaskStartScheduler                               build/tasks.o
                                                  build/cmsis_os2.o
vTaskSuspend                                      build/tasks.o
                                                  build/cmsis_os2.o
vTaskSuspendAll                                   build/tasks.o
                                                  build/heap_4.o
                                                  build/cmsis_os2.o
                                                  build/timers.o
                                                  build/stream_buffer.o
                                                  build/queue.o
                                                  build/event_groups.o
vTaskSwitchContext                                build/tasks.o
                                                  build/port.o
vTimerSetReloadMode                               build/timers.o
vTimerSetTimerID                                  build/timers.o
vTimerSetTimerNumber                              build/timers.o
xEventGroupClearBits                              build/event_groups.o
                                                  build/cmsis_os2.o
xEventGroupClearBitsFromISR                       build/event_groups.o
                                                  build/cmsis_os2.o
xEventGroupCreate                                 build/event_groups.o
                                                  build/cmsis_os2.o
xEventGroupCreateStatic                           build/event_groups.o
                                                  build/cmsis_os2.o
xEventGroupGetBitsFromISR                         build/event_groups.o
                                                  build/cmsis_os2.o
xEventGroupSetBits                                build/event_groups.o
                                                  build/cmsis_os2.o
xEventGroupSetBitsFromISR                         build/event_groups.o
                                                  build/cmsis_os2.o
xEventGroupSync                                   build/event_groups.o
xEventGroupWaitBits                               build/event_groups.o
                                                  build/cmsis_os2.o
xPortGetFreeHeapSize                              build/heap_4.o
xPortGetMinimumEverFreeHeapSize                   build/heap_4.o
xPortStartScheduler                               build/port.o
                                                  build/tasks.o
xQueueCreateCountingSemaphore                     build/queue.o
                                                  build/cmsis_os2.o
xQueueCreateCountingSemaphoreStatic               build/queue.o
                                                  build/cmsis_os2.o
xQueueCreateMutex                                 build/queue.o
                                                  build/cmsis_os2.o
xQueueCreateMutexStatic                           build/queue.o
                                                  build/cmsis_os2.o
xQueueGenericCreate                               build/queue.o
                                                  build/cmsis_os2.o
xQueueGenericCreateStatic                         build/queue.o
                                                  build/cmsis_os2.o
                                                  build/timers.o
xQueueGenericReset                                build/queue.o
                                                  build/cmsis_os2.o
xQueueGenericSend                                 build/queue.o
                                                  build/cmsis_os2.o
                                                  build/timers.o
xQueueGenericSendFromISR                          build/queue.o
                                                  build/cmsis_os2.o
                                                  build/timers.o
xQueueGetMutexHolder                              build/queue.o
                                                  build/cmsis_os2.o
xQueueGetMutexHolderFromISR                       build/queue.o
xQueueGiveFromISR                                 build/queue.o
                                                  build/cmsis_os2.o
xQueueGiveMutexRecursive                          build/queue.o
                                                  build/cmsis_os2.o
xQueueIsQueueEmptyFromISR                         build/queue.o
xQueueIsQueueFullFromISR                          build/queue.o
xQueuePeek                                        build/queue.o
xQueuePeekFromISR                                 build/queue.o
xQueueReceive                                     build/queue.o
                                                  build/cmsis_os2.o
                                                  build/timers.o
xQueueReceiveFromISR                              build/queue.o
                                                  build/cmsis_os2.o
xQueueRegistry                                    build/queue.o
xQueueSemaphoreTake                               build/queue.o
                                                  build/cmsis_os2.o
xQueueTakeMutexRecursive                          build/queue.o
                                                  build/cmsis_os2.o
xStreamBufferBytesAvailable                       build/stream_buffer.o
xStreamBufferGenericCreate                        build/stream_buffer.o
xStreamBufferGenericCreateStatic                  build/stream_buffer.o
xStreamBufferIsEmpty                              build/stream_buffer.o
xStreamBufferIsFull                               build/stream_buffer.o
xStreamBufferNextMessageLengthBytes               build/stream_buffer.o
xStreamBufferReceive                              build/stream_buffer.o
xStreamBufferReceiveCompletedFromISR              build/stream_buffer.o
xStreamBufferReceiveFromISR                       build/stream_buffer.o
xStreamBufferReset                                build/stream_buffer.o
xStreamBufferSend                                 build/stream_buffer.o
xStreamBufferSendCompletedFromISR                 build/stream_buffer.o
xStreamBufferSendFromISR                          build/stream_buffer.o
xStreamBufferSetTriggerLevel                      build/stream_buffer.o
xStreamBufferSpacesAvailable                      build/stream_buffer.o
xTaskCheckForTimeOut                              build/tasks.o
                                                  build/stream_buffer.o
                                                  build/queue.o
xTaskCreate                                       build/tasks.o
                                                  build/cmsis_os2.o
xTaskCreateStatic                                 build/tasks.o
                                                  build/cmsis_os2.o
                                                  build/timers.o
xTaskGenericNotify                                build/tasks.o
                                                  build/cmsis_os2.o
                                                  build/stream_buffer.o
xTaskGenericNotifyFromISR                         build/tasks.o
                                                  build/cmsis_os2.o
                                                  build/stream_buffer.o
xTaskGetCurrentTaskHandle                         build/tasks.o
                                                  build/cmsis_os2.o
                                                  build/stream_buffer.o
                                                  build/queue.o
xTaskGetSchedulerState                            build/tasks.o
                                                  build/cmsis_os2.o
                                                  build/timers.o
                                                  build/queue.o
                                                  build/event_groups.o
xTaskGetTickCount                                 build/tasks.o
                                                  build/cmsis_os2.o
                                                  build/timers.o
xTaskGetTickCountFromISR                          build/tasks.o
                                                  build/cmsis_os2.o
xTaskIncrementTick                                build/tasks.o
                                                  build/port.o
xTaskNotifyStateClear                             build/tasks.o
                                                  build/stream_buffer.o
xTaskNotifyWait                                   build/tasks.o
                                                  build/cmsis_os2.o
                                                  build/stream_buffer.o
xTaskPriorityDisinherit                           build/tasks.o
                                                  build/queue.o
xTaskPriorityInherit                              build/tasks.o
                                                  build/queue.o
xTaskRemoveFromEventList                          build/tasks.o
                                                  build/queue.o
xTaskResumeAll                                    build/tasks.o
                                                  build/heap_4.o
                                                  build/cmsis_os2.o
                                                  build/timers.o
                                                  build/stream_buffer.o
                                                  build/queue.o
                                                  build/event_groups.o
xTaskResumeFromISR                                build/tasks.o
xTimerCreate                                      build/timers.o
                                                  build/cmsis_os2.o
xTimerCreateStatic                                build/timers.o
                                                  build/cmsis_os2.o
xTimerCreateTimerTask                             build/timers.o
                                                  build/tasks.o
xTimerGenericCommand                              build/timers.o
                                                  build/cmsis_os2.o
xTimerGetExpiryTime                               build/timers.o
xTimerGetPeriod                                   build/timers.o
xTimerGetTimerDaemonTaskHandle                    build/timers.o
xTimerIsTimerActive                               build/timers.o
                                                  build/cmsis_os2.o
xTimerPendFunctionCall                            build/timers.o
xTimerPendFunctionCallFromISR                     build/timers.o
                                                  build/event_groups.o
