ARM GAS  /tmp/ccbR6ah2.s 			page 1


   1              		.cpu cortex-m4
   2              		.eabi_attribute 27, 1
   3              		.eabi_attribute 28, 1
   4              		.eabi_attribute 20, 1
   5              		.eabi_attribute 21, 1
   6              		.eabi_attribute 23, 3
   7              		.eabi_attribute 24, 1
   8              		.eabi_attribute 25, 1
   9              		.eabi_attribute 26, 1
  10              		.eabi_attribute 30, 2
  11              		.eabi_attribute 34, 1
  12              		.eabi_attribute 18, 4
  13              		.file	"stm32g4xx_hal_pwr_ex.c"
  14              		.text
  15              	.Ltext0:
  16              		.cfi_sections	.debug_frame
  17              		.section	.text.HAL_PWREx_GetVoltageRange,"ax",%progbits
  18              		.align	1
  19              		.p2align 2,,3
  20              		.global	HAL_PWREx_GetVoltageRange
  21              		.arch armv7e-m
  22              		.syntax unified
  23              		.thumb
  24              		.thumb_func
  25              		.fpu fpv4-sp-d16
  27              	HAL_PWREx_GetVoltageRange:
  28              	.LFB329:
  29              		.file 1 "Drivers/STM32G4xx_HAL_Driver/Src/stm32g4xx_hal_pwr_ex.c"
   1:Drivers/STM32G4xx_HAL_Driver/Src/stm32g4xx_hal_pwr_ex.c **** /**
   2:Drivers/STM32G4xx_HAL_Driver/Src/stm32g4xx_hal_pwr_ex.c ****   ******************************************************************************
   3:Drivers/STM32G4xx_HAL_Driver/Src/stm32g4xx_hal_pwr_ex.c ****   * @file    stm32g4xx_hal_pwr_ex.c
   4:Drivers/STM32G4xx_HAL_Driver/Src/stm32g4xx_hal_pwr_ex.c ****   * @author  MCD Application Team
   5:Drivers/STM32G4xx_HAL_Driver/Src/stm32g4xx_hal_pwr_ex.c ****   * @brief   Extended PWR HAL module driver.
   6:Drivers/STM32G4xx_HAL_Driver/Src/stm32g4xx_hal_pwr_ex.c ****   *          This file provides firmware functions to manage the following
   7:Drivers/STM32G4xx_HAL_Driver/Src/stm32g4xx_hal_pwr_ex.c ****   *          functionalities of the Power Controller (PWR) peripheral:
   8:Drivers/STM32G4xx_HAL_Driver/Src/stm32g4xx_hal_pwr_ex.c ****   *           + Extended Initialization and de-initialization functions
   9:Drivers/STM32G4xx_HAL_Driver/Src/stm32g4xx_hal_pwr_ex.c ****   *           + Extended Peripheral Control functions
  10:Drivers/STM32G4xx_HAL_Driver/Src/stm32g4xx_hal_pwr_ex.c ****   *
  11:Drivers/STM32G4xx_HAL_Driver/Src/stm32g4xx_hal_pwr_ex.c ****   ******************************************************************************
  12:Drivers/STM32G4xx_HAL_Driver/Src/stm32g4xx_hal_pwr_ex.c ****   * @attention
  13:Drivers/STM32G4xx_HAL_Driver/Src/stm32g4xx_hal_pwr_ex.c ****   *
  14:Drivers/STM32G4xx_HAL_Driver/Src/stm32g4xx_hal_pwr_ex.c ****   * <h2><center>&copy; Copyright (c) 2019 STMicroelectronics.
  15:Drivers/STM32G4xx_HAL_Driver/Src/stm32g4xx_hal_pwr_ex.c ****   * All rights reserved.</center></h2>
  16:Drivers/STM32G4xx_HAL_Driver/Src/stm32g4xx_hal_pwr_ex.c ****   *
  17:Drivers/STM32G4xx_HAL_Driver/Src/stm32g4xx_hal_pwr_ex.c ****   * This software component is licensed by ST under BSD 3-Clause license,
  18:Drivers/STM32G4xx_HAL_Driver/Src/stm32g4xx_hal_pwr_ex.c ****   * the "License"; You may not use this file except in compliance with the
  19:Drivers/STM32G4xx_HAL_Driver/Src/stm32g4xx_hal_pwr_ex.c ****   * License. You may obtain a copy of the License at:
  20:Drivers/STM32G4xx_HAL_Driver/Src/stm32g4xx_hal_pwr_ex.c ****   *                        opensource.org/licenses/BSD-3-Clause
  21:Drivers/STM32G4xx_HAL_Driver/Src/stm32g4xx_hal_pwr_ex.c ****   *
  22:Drivers/STM32G4xx_HAL_Driver/Src/stm32g4xx_hal_pwr_ex.c ****   ******************************************************************************
  23:Drivers/STM32G4xx_HAL_Driver/Src/stm32g4xx_hal_pwr_ex.c ****   */
  24:Drivers/STM32G4xx_HAL_Driver/Src/stm32g4xx_hal_pwr_ex.c **** 
  25:Drivers/STM32G4xx_HAL_Driver/Src/stm32g4xx_hal_pwr_ex.c **** /* Includes ------------------------------------------------------------------*/
  26:Drivers/STM32G4xx_HAL_Driver/Src/stm32g4xx_hal_pwr_ex.c **** #include "stm32g4xx_hal.h"
  27:Drivers/STM32G4xx_HAL_Driver/Src/stm32g4xx_hal_pwr_ex.c **** 
  28:Drivers/STM32G4xx_HAL_Driver/Src/stm32g4xx_hal_pwr_ex.c **** /** @addtogroup STM32G4xx_HAL_Driver
  29:Drivers/STM32G4xx_HAL_Driver/Src/stm32g4xx_hal_pwr_ex.c ****   * @{
ARM GAS  /tmp/ccbR6ah2.s 			page 2


  30:Drivers/STM32G4xx_HAL_Driver/Src/stm32g4xx_hal_pwr_ex.c ****   */
  31:Drivers/STM32G4xx_HAL_Driver/Src/stm32g4xx_hal_pwr_ex.c **** 
  32:Drivers/STM32G4xx_HAL_Driver/Src/stm32g4xx_hal_pwr_ex.c **** /** @defgroup PWREx PWREx
  33:Drivers/STM32G4xx_HAL_Driver/Src/stm32g4xx_hal_pwr_ex.c ****   * @brief PWR Extended HAL module driver
  34:Drivers/STM32G4xx_HAL_Driver/Src/stm32g4xx_hal_pwr_ex.c ****   * @{
  35:Drivers/STM32G4xx_HAL_Driver/Src/stm32g4xx_hal_pwr_ex.c ****   */
  36:Drivers/STM32G4xx_HAL_Driver/Src/stm32g4xx_hal_pwr_ex.c **** 
  37:Drivers/STM32G4xx_HAL_Driver/Src/stm32g4xx_hal_pwr_ex.c **** #ifdef HAL_PWR_MODULE_ENABLED
  38:Drivers/STM32G4xx_HAL_Driver/Src/stm32g4xx_hal_pwr_ex.c **** 
  39:Drivers/STM32G4xx_HAL_Driver/Src/stm32g4xx_hal_pwr_ex.c **** /* Private typedef -----------------------------------------------------------*/
  40:Drivers/STM32G4xx_HAL_Driver/Src/stm32g4xx_hal_pwr_ex.c **** /* Private define ------------------------------------------------------------*/
  41:Drivers/STM32G4xx_HAL_Driver/Src/stm32g4xx_hal_pwr_ex.c **** 
  42:Drivers/STM32G4xx_HAL_Driver/Src/stm32g4xx_hal_pwr_ex.c **** 
  43:Drivers/STM32G4xx_HAL_Driver/Src/stm32g4xx_hal_pwr_ex.c **** #if defined (STM32G471xx) || defined (STM32G473xx) || defined (STM32G474xx) || defined (STM32G483xx
  44:Drivers/STM32G4xx_HAL_Driver/Src/stm32g4xx_hal_pwr_ex.c **** #define PWR_PORTF_AVAILABLE_PINS   0x0000FFFFU /* PF0..PF15 */
  45:Drivers/STM32G4xx_HAL_Driver/Src/stm32g4xx_hal_pwr_ex.c **** #define PWR_PORTG_AVAILABLE_PINS   0x000007FFU /* PG0..PG10 */
  46:Drivers/STM32G4xx_HAL_Driver/Src/stm32g4xx_hal_pwr_ex.c **** #elif defined (STM32G431xx) || defined (STM32G441xx) || defined (STM32GBK1CB) || defined (STM32G491
  47:Drivers/STM32G4xx_HAL_Driver/Src/stm32g4xx_hal_pwr_ex.c **** #define PWR_PORTF_AVAILABLE_PINS   0x00000607U /* PF0..PF2 and PF9 and PF10 */
  48:Drivers/STM32G4xx_HAL_Driver/Src/stm32g4xx_hal_pwr_ex.c **** #define PWR_PORTG_AVAILABLE_PINS   0x00000400U /* PG10 */
  49:Drivers/STM32G4xx_HAL_Driver/Src/stm32g4xx_hal_pwr_ex.c **** #endif
  50:Drivers/STM32G4xx_HAL_Driver/Src/stm32g4xx_hal_pwr_ex.c **** 
  51:Drivers/STM32G4xx_HAL_Driver/Src/stm32g4xx_hal_pwr_ex.c **** /** @defgroup PWR_Extended_Private_Defines PWR Extended Private Defines
  52:Drivers/STM32G4xx_HAL_Driver/Src/stm32g4xx_hal_pwr_ex.c ****   * @{
  53:Drivers/STM32G4xx_HAL_Driver/Src/stm32g4xx_hal_pwr_ex.c ****   */
  54:Drivers/STM32G4xx_HAL_Driver/Src/stm32g4xx_hal_pwr_ex.c **** 
  55:Drivers/STM32G4xx_HAL_Driver/Src/stm32g4xx_hal_pwr_ex.c **** /** @defgroup PWREx_PVM_Mode_Mask PWR PVM Mode Mask
  56:Drivers/STM32G4xx_HAL_Driver/Src/stm32g4xx_hal_pwr_ex.c ****   * @{
  57:Drivers/STM32G4xx_HAL_Driver/Src/stm32g4xx_hal_pwr_ex.c ****   */
  58:Drivers/STM32G4xx_HAL_Driver/Src/stm32g4xx_hal_pwr_ex.c **** #define PVM_MODE_IT               0x00010000U    /*!< Mask for interruption yielded by PVM threshol
  59:Drivers/STM32G4xx_HAL_Driver/Src/stm32g4xx_hal_pwr_ex.c **** #define PVM_MODE_EVT              0x00020000U    /*!< Mask for event yielded by PVM threshold cross
  60:Drivers/STM32G4xx_HAL_Driver/Src/stm32g4xx_hal_pwr_ex.c **** #define PVM_RISING_EDGE           0x00000001U    /*!< Mask for rising edge set as PVM trigger      
  61:Drivers/STM32G4xx_HAL_Driver/Src/stm32g4xx_hal_pwr_ex.c **** #define PVM_FALLING_EDGE          0x00000002U    /*!< Mask for falling edge set as PVM trigger     
  62:Drivers/STM32G4xx_HAL_Driver/Src/stm32g4xx_hal_pwr_ex.c **** /**
  63:Drivers/STM32G4xx_HAL_Driver/Src/stm32g4xx_hal_pwr_ex.c ****   * @}
  64:Drivers/STM32G4xx_HAL_Driver/Src/stm32g4xx_hal_pwr_ex.c ****   */
  65:Drivers/STM32G4xx_HAL_Driver/Src/stm32g4xx_hal_pwr_ex.c **** 
  66:Drivers/STM32G4xx_HAL_Driver/Src/stm32g4xx_hal_pwr_ex.c **** /** @defgroup PWREx_TimeOut_Value PWR Extended Flag Setting Time Out Value
  67:Drivers/STM32G4xx_HAL_Driver/Src/stm32g4xx_hal_pwr_ex.c ****   * @{
  68:Drivers/STM32G4xx_HAL_Driver/Src/stm32g4xx_hal_pwr_ex.c ****   */
  69:Drivers/STM32G4xx_HAL_Driver/Src/stm32g4xx_hal_pwr_ex.c **** #define PWR_FLAG_SETTING_DELAY_US                      50UL   /*!< Time out value for REGLPF and VO
  70:Drivers/STM32G4xx_HAL_Driver/Src/stm32g4xx_hal_pwr_ex.c **** /**
  71:Drivers/STM32G4xx_HAL_Driver/Src/stm32g4xx_hal_pwr_ex.c ****   * @}
  72:Drivers/STM32G4xx_HAL_Driver/Src/stm32g4xx_hal_pwr_ex.c ****   */
  73:Drivers/STM32G4xx_HAL_Driver/Src/stm32g4xx_hal_pwr_ex.c **** 
  74:Drivers/STM32G4xx_HAL_Driver/Src/stm32g4xx_hal_pwr_ex.c **** 
  75:Drivers/STM32G4xx_HAL_Driver/Src/stm32g4xx_hal_pwr_ex.c **** 
  76:Drivers/STM32G4xx_HAL_Driver/Src/stm32g4xx_hal_pwr_ex.c **** /**
  77:Drivers/STM32G4xx_HAL_Driver/Src/stm32g4xx_hal_pwr_ex.c ****   * @}
  78:Drivers/STM32G4xx_HAL_Driver/Src/stm32g4xx_hal_pwr_ex.c ****   */
  79:Drivers/STM32G4xx_HAL_Driver/Src/stm32g4xx_hal_pwr_ex.c **** 
  80:Drivers/STM32G4xx_HAL_Driver/Src/stm32g4xx_hal_pwr_ex.c **** 
  81:Drivers/STM32G4xx_HAL_Driver/Src/stm32g4xx_hal_pwr_ex.c **** 
  82:Drivers/STM32G4xx_HAL_Driver/Src/stm32g4xx_hal_pwr_ex.c **** /* Private macro -------------------------------------------------------------*/
  83:Drivers/STM32G4xx_HAL_Driver/Src/stm32g4xx_hal_pwr_ex.c **** /* Private variables ---------------------------------------------------------*/
  84:Drivers/STM32G4xx_HAL_Driver/Src/stm32g4xx_hal_pwr_ex.c **** /* Private function prototypes -----------------------------------------------*/
  85:Drivers/STM32G4xx_HAL_Driver/Src/stm32g4xx_hal_pwr_ex.c **** /* Exported functions --------------------------------------------------------*/
  86:Drivers/STM32G4xx_HAL_Driver/Src/stm32g4xx_hal_pwr_ex.c **** 
ARM GAS  /tmp/ccbR6ah2.s 			page 3


  87:Drivers/STM32G4xx_HAL_Driver/Src/stm32g4xx_hal_pwr_ex.c **** /** @defgroup PWREx_Exported_Functions PWR Extended Exported Functions
  88:Drivers/STM32G4xx_HAL_Driver/Src/stm32g4xx_hal_pwr_ex.c ****   * @{
  89:Drivers/STM32G4xx_HAL_Driver/Src/stm32g4xx_hal_pwr_ex.c ****   */
  90:Drivers/STM32G4xx_HAL_Driver/Src/stm32g4xx_hal_pwr_ex.c **** 
  91:Drivers/STM32G4xx_HAL_Driver/Src/stm32g4xx_hal_pwr_ex.c **** /** @defgroup PWREx_Exported_Functions_Group1 Extended Peripheral Control functions
  92:Drivers/STM32G4xx_HAL_Driver/Src/stm32g4xx_hal_pwr_ex.c ****   *  @brief   Extended Peripheral Control functions
  93:Drivers/STM32G4xx_HAL_Driver/Src/stm32g4xx_hal_pwr_ex.c ****   *
  94:Drivers/STM32G4xx_HAL_Driver/Src/stm32g4xx_hal_pwr_ex.c **** @verbatim
  95:Drivers/STM32G4xx_HAL_Driver/Src/stm32g4xx_hal_pwr_ex.c ****  ===============================================================================
  96:Drivers/STM32G4xx_HAL_Driver/Src/stm32g4xx_hal_pwr_ex.c ****               ##### Extended Peripheral Initialization and de-initialization functions #####
  97:Drivers/STM32G4xx_HAL_Driver/Src/stm32g4xx_hal_pwr_ex.c ****  ===============================================================================
  98:Drivers/STM32G4xx_HAL_Driver/Src/stm32g4xx_hal_pwr_ex.c ****     [..]
  99:Drivers/STM32G4xx_HAL_Driver/Src/stm32g4xx_hal_pwr_ex.c **** 
 100:Drivers/STM32G4xx_HAL_Driver/Src/stm32g4xx_hal_pwr_ex.c **** @endverbatim
 101:Drivers/STM32G4xx_HAL_Driver/Src/stm32g4xx_hal_pwr_ex.c ****   * @{
 102:Drivers/STM32G4xx_HAL_Driver/Src/stm32g4xx_hal_pwr_ex.c ****   */
 103:Drivers/STM32G4xx_HAL_Driver/Src/stm32g4xx_hal_pwr_ex.c **** 
 104:Drivers/STM32G4xx_HAL_Driver/Src/stm32g4xx_hal_pwr_ex.c **** 
 105:Drivers/STM32G4xx_HAL_Driver/Src/stm32g4xx_hal_pwr_ex.c **** /**
 106:Drivers/STM32G4xx_HAL_Driver/Src/stm32g4xx_hal_pwr_ex.c ****   * @brief Return Voltage Scaling Range.
 107:Drivers/STM32G4xx_HAL_Driver/Src/stm32g4xx_hal_pwr_ex.c ****   * @retval VOS bit field (PWR_REGULATOR_VOLTAGE_SCALE1 or PWR_REGULATOR_VOLTAGE_SCALE2
 108:Drivers/STM32G4xx_HAL_Driver/Src/stm32g4xx_hal_pwr_ex.c ****   *         or PWR_REGULATOR_VOLTAGE_SCALE1_BOOST when applicable)
 109:Drivers/STM32G4xx_HAL_Driver/Src/stm32g4xx_hal_pwr_ex.c ****   */
 110:Drivers/STM32G4xx_HAL_Driver/Src/stm32g4xx_hal_pwr_ex.c **** uint32_t HAL_PWREx_GetVoltageRange(void)
 111:Drivers/STM32G4xx_HAL_Driver/Src/stm32g4xx_hal_pwr_ex.c **** {
  30              		.loc 1 111 1 view -0
  31              		.cfi_startproc
  32              		@ args = 0, pretend = 0, frame = 0
  33              		@ frame_needed = 0, uses_anonymous_args = 0
  34              		@ link register save eliminated.
 112:Drivers/STM32G4xx_HAL_Driver/Src/stm32g4xx_hal_pwr_ex.c ****   if (READ_BIT(PWR->CR1, PWR_CR1_VOS) == PWR_REGULATOR_VOLTAGE_SCALE2)
  35              		.loc 1 112 3 view .LVU1
  36              		.loc 1 112 7 is_stmt 0 view .LVU2
  37 0000 074B     		ldr	r3, .L8
  38 0002 1868     		ldr	r0, [r3]
  39 0004 00F4C060 		and	r0, r0, #1536
  40              		.loc 1 112 6 view .LVU3
  41 0008 B0F5806F 		cmp	r0, #1024
  42 000c 06D0     		beq	.L1
 113:Drivers/STM32G4xx_HAL_Driver/Src/stm32g4xx_hal_pwr_ex.c ****   {
 114:Drivers/STM32G4xx_HAL_Driver/Src/stm32g4xx_hal_pwr_ex.c ****     return PWR_REGULATOR_VOLTAGE_SCALE2;
 115:Drivers/STM32G4xx_HAL_Driver/Src/stm32g4xx_hal_pwr_ex.c ****   }
 116:Drivers/STM32G4xx_HAL_Driver/Src/stm32g4xx_hal_pwr_ex.c ****   else if (READ_BIT(PWR->CR5, PWR_CR5_R1MODE) == PWR_CR5_R1MODE)
  43              		.loc 1 116 8 is_stmt 1 view .LVU4
  44              		.loc 1 116 12 is_stmt 0 view .LVU5
  45 000e D3F88000 		ldr	r0, [r3, #128]
 117:Drivers/STM32G4xx_HAL_Driver/Src/stm32g4xx_hal_pwr_ex.c ****   {
 118:Drivers/STM32G4xx_HAL_Driver/Src/stm32g4xx_hal_pwr_ex.c ****     /* PWR_CR5_R1MODE bit set means that Range 1 Boost is disabled */
 119:Drivers/STM32G4xx_HAL_Driver/Src/stm32g4xx_hal_pwr_ex.c ****     return PWR_REGULATOR_VOLTAGE_SCALE1;
  46              		.loc 1 119 12 view .LVU6
  47 0012 10F48070 		ands	r0, r0, #256
  48 0016 18BF     		it	ne
  49 0018 4FF40070 		movne	r0, #512
  50              	.L1:
 120:Drivers/STM32G4xx_HAL_Driver/Src/stm32g4xx_hal_pwr_ex.c ****   }
 121:Drivers/STM32G4xx_HAL_Driver/Src/stm32g4xx_hal_pwr_ex.c ****   else
 122:Drivers/STM32G4xx_HAL_Driver/Src/stm32g4xx_hal_pwr_ex.c ****   {
ARM GAS  /tmp/ccbR6ah2.s 			page 4


 123:Drivers/STM32G4xx_HAL_Driver/Src/stm32g4xx_hal_pwr_ex.c ****     return PWR_REGULATOR_VOLTAGE_SCALE1_BOOST;
 124:Drivers/STM32G4xx_HAL_Driver/Src/stm32g4xx_hal_pwr_ex.c ****   }
 125:Drivers/STM32G4xx_HAL_Driver/Src/stm32g4xx_hal_pwr_ex.c **** }
  51              		.loc 1 125 1 view .LVU7
  52 001c 7047     		bx	lr
  53              	.L9:
  54 001e 00BF     		.align	2
  55              	.L8:
  56 0020 00700040 		.word	1073770496
  57              		.cfi_endproc
  58              	.LFE329:
  60              		.section	.text.HAL_PWREx_ControlVoltageScaling,"ax",%progbits
  61              		.align	1
  62              		.p2align 2,,3
  63              		.global	HAL_PWREx_ControlVoltageScaling
  64              		.syntax unified
  65              		.thumb
  66              		.thumb_func
  67              		.fpu fpv4-sp-d16
  69              	HAL_PWREx_ControlVoltageScaling:
  70              	.LVL0:
  71              	.LFB330:
 126:Drivers/STM32G4xx_HAL_Driver/Src/stm32g4xx_hal_pwr_ex.c **** 
 127:Drivers/STM32G4xx_HAL_Driver/Src/stm32g4xx_hal_pwr_ex.c **** 
 128:Drivers/STM32G4xx_HAL_Driver/Src/stm32g4xx_hal_pwr_ex.c **** 
 129:Drivers/STM32G4xx_HAL_Driver/Src/stm32g4xx_hal_pwr_ex.c **** /**
 130:Drivers/STM32G4xx_HAL_Driver/Src/stm32g4xx_hal_pwr_ex.c ****   * @brief Configure the main internal regulator output voltage.
 131:Drivers/STM32G4xx_HAL_Driver/Src/stm32g4xx_hal_pwr_ex.c ****   * @param  VoltageScaling: specifies the regulator output voltage to achieve
 132:Drivers/STM32G4xx_HAL_Driver/Src/stm32g4xx_hal_pwr_ex.c ****   *         a tradeoff between performance and power consumption.
 133:Drivers/STM32G4xx_HAL_Driver/Src/stm32g4xx_hal_pwr_ex.c ****   *          This parameter can be one of the following values:
 134:Drivers/STM32G4xx_HAL_Driver/Src/stm32g4xx_hal_pwr_ex.c ****   *            @arg @ref PWR_REGULATOR_VOLTAGE_SCALE1_BOOST when available, Regulator voltage outpu
 135:Drivers/STM32G4xx_HAL_Driver/Src/stm32g4xx_hal_pwr_ex.c ****   *                                                typical output voltage at 1.28 V,
 136:Drivers/STM32G4xx_HAL_Driver/Src/stm32g4xx_hal_pwr_ex.c ****   *                                                system frequency up to 170 MHz.
 137:Drivers/STM32G4xx_HAL_Driver/Src/stm32g4xx_hal_pwr_ex.c ****   *            @arg @ref PWR_REGULATOR_VOLTAGE_SCALE1 Regulator voltage output range 1 mode,
 138:Drivers/STM32G4xx_HAL_Driver/Src/stm32g4xx_hal_pwr_ex.c ****   *                                                typical output voltage at 1.2 V,
 139:Drivers/STM32G4xx_HAL_Driver/Src/stm32g4xx_hal_pwr_ex.c ****   *                                                system frequency up to 150 MHz.
 140:Drivers/STM32G4xx_HAL_Driver/Src/stm32g4xx_hal_pwr_ex.c ****   *            @arg @ref PWR_REGULATOR_VOLTAGE_SCALE2 Regulator voltage output range 2 mode,
 141:Drivers/STM32G4xx_HAL_Driver/Src/stm32g4xx_hal_pwr_ex.c ****   *                                                typical output voltage at 1.0 V,
 142:Drivers/STM32G4xx_HAL_Driver/Src/stm32g4xx_hal_pwr_ex.c ****   *                                                system frequency up to 26 MHz.
 143:Drivers/STM32G4xx_HAL_Driver/Src/stm32g4xx_hal_pwr_ex.c ****   * @note  When moving from Range 1 to Range 2, the system frequency must be decreased to
 144:Drivers/STM32G4xx_HAL_Driver/Src/stm32g4xx_hal_pwr_ex.c ****   *        a value below 26 MHz before calling HAL_PWREx_ControlVoltageScaling() API.
 145:Drivers/STM32G4xx_HAL_Driver/Src/stm32g4xx_hal_pwr_ex.c ****   *        When moving from Range 2 to Range 1, the system frequency can be increased to
 146:Drivers/STM32G4xx_HAL_Driver/Src/stm32g4xx_hal_pwr_ex.c ****   *        a value up to 150 MHz after calling HAL_PWREx_ControlVoltageScaling() API.
 147:Drivers/STM32G4xx_HAL_Driver/Src/stm32g4xx_hal_pwr_ex.c ****   *        When moving from Range 1 to Boost Mode Range 1, the system frequency can be increased to
 148:Drivers/STM32G4xx_HAL_Driver/Src/stm32g4xx_hal_pwr_ex.c ****   *        a value up to 170 MHz after calling HAL_PWREx_ControlVoltageScaling() API.
 149:Drivers/STM32G4xx_HAL_Driver/Src/stm32g4xx_hal_pwr_ex.c ****   * @note  When moving from Range 2 to Range 1, the API waits for VOSF flag to be
 150:Drivers/STM32G4xx_HAL_Driver/Src/stm32g4xx_hal_pwr_ex.c ****   *        cleared before returning the status. If the flag is not cleared within
 151:Drivers/STM32G4xx_HAL_Driver/Src/stm32g4xx_hal_pwr_ex.c ****   *        50 microseconds, HAL_TIMEOUT status is reported.
 152:Drivers/STM32G4xx_HAL_Driver/Src/stm32g4xx_hal_pwr_ex.c ****   * @retval HAL Status
 153:Drivers/STM32G4xx_HAL_Driver/Src/stm32g4xx_hal_pwr_ex.c ****   */
 154:Drivers/STM32G4xx_HAL_Driver/Src/stm32g4xx_hal_pwr_ex.c **** HAL_StatusTypeDef HAL_PWREx_ControlVoltageScaling(uint32_t VoltageScaling)
 155:Drivers/STM32G4xx_HAL_Driver/Src/stm32g4xx_hal_pwr_ex.c **** {
  72              		.loc 1 155 1 is_stmt 1 view -0
  73              		.cfi_startproc
  74              		@ args = 0, pretend = 0, frame = 0
  75              		@ frame_needed = 0, uses_anonymous_args = 0
  76              		@ link register save eliminated.
ARM GAS  /tmp/ccbR6ah2.s 			page 5


 156:Drivers/STM32G4xx_HAL_Driver/Src/stm32g4xx_hal_pwr_ex.c ****   uint32_t wait_loop_index;
  77              		.loc 1 156 3 view .LVU9
 157:Drivers/STM32G4xx_HAL_Driver/Src/stm32g4xx_hal_pwr_ex.c **** 
 158:Drivers/STM32G4xx_HAL_Driver/Src/stm32g4xx_hal_pwr_ex.c ****   assert_param(IS_PWR_VOLTAGE_SCALING_RANGE(VoltageScaling));
  78              		.loc 1 158 3 view .LVU10
 159:Drivers/STM32G4xx_HAL_Driver/Src/stm32g4xx_hal_pwr_ex.c **** 
 160:Drivers/STM32G4xx_HAL_Driver/Src/stm32g4xx_hal_pwr_ex.c ****   if (VoltageScaling == PWR_REGULATOR_VOLTAGE_SCALE1_BOOST)
  79              		.loc 1 160 3 view .LVU11
 161:Drivers/STM32G4xx_HAL_Driver/Src/stm32g4xx_hal_pwr_ex.c ****   {
 162:Drivers/STM32G4xx_HAL_Driver/Src/stm32g4xx_hal_pwr_ex.c ****     /* If current range is range 2 */
 163:Drivers/STM32G4xx_HAL_Driver/Src/stm32g4xx_hal_pwr_ex.c ****     if (READ_BIT(PWR->CR1, PWR_CR1_VOS) == PWR_REGULATOR_VOLTAGE_SCALE2)
  80              		.loc 1 163 9 is_stmt 0 view .LVU12
  81 0000 3B4A     		ldr	r2, .L43
 155:Drivers/STM32G4xx_HAL_Driver/Src/stm32g4xx_hal_pwr_ex.c ****   uint32_t wait_loop_index;
  82              		.loc 1 155 1 view .LVU13
  83 0002 10B4     		push	{r4}
  84              	.LCFI0:
  85              		.cfi_def_cfa_offset 4
  86              		.cfi_offset 4, -4
  87              		.loc 1 163 9 view .LVU14
  88 0004 1368     		ldr	r3, [r2]
 160:Drivers/STM32G4xx_HAL_Driver/Src/stm32g4xx_hal_pwr_ex.c ****   {
  89              		.loc 1 160 6 view .LVU15
  90 0006 68B9     		cbnz	r0, .L11
  91              		.loc 1 163 5 is_stmt 1 view .LVU16
  92              		.loc 1 163 9 is_stmt 0 view .LVU17
  93 0008 03F4C063 		and	r3, r3, #1536
  94              		.loc 1 163 8 view .LVU18
  95 000c B3F5806F 		cmp	r3, #1024
  96 0010 14D0     		beq	.L38
 164:Drivers/STM32G4xx_HAL_Driver/Src/stm32g4xx_hal_pwr_ex.c ****     {
 165:Drivers/STM32G4xx_HAL_Driver/Src/stm32g4xx_hal_pwr_ex.c ****       /* Make sure Range 1 Boost is enabled */
 166:Drivers/STM32G4xx_HAL_Driver/Src/stm32g4xx_hal_pwr_ex.c ****       CLEAR_BIT(PWR->CR5, PWR_CR5_R1MODE);
 167:Drivers/STM32G4xx_HAL_Driver/Src/stm32g4xx_hal_pwr_ex.c **** 
 168:Drivers/STM32G4xx_HAL_Driver/Src/stm32g4xx_hal_pwr_ex.c ****       /* Set Range 1 */
 169:Drivers/STM32G4xx_HAL_Driver/Src/stm32g4xx_hal_pwr_ex.c ****       MODIFY_REG(PWR->CR1, PWR_CR1_VOS, PWR_REGULATOR_VOLTAGE_SCALE1);
 170:Drivers/STM32G4xx_HAL_Driver/Src/stm32g4xx_hal_pwr_ex.c **** 
 171:Drivers/STM32G4xx_HAL_Driver/Src/stm32g4xx_hal_pwr_ex.c ****       /* Wait until VOSF is cleared */
 172:Drivers/STM32G4xx_HAL_Driver/Src/stm32g4xx_hal_pwr_ex.c ****       wait_loop_index = ((PWR_FLAG_SETTING_DELAY_US * SystemCoreClock) / 1000000U) + 1U;
 173:Drivers/STM32G4xx_HAL_Driver/Src/stm32g4xx_hal_pwr_ex.c ****       while ((HAL_IS_BIT_SET(PWR->SR2, PWR_SR2_VOSF)) && (wait_loop_index != 0U))
 174:Drivers/STM32G4xx_HAL_Driver/Src/stm32g4xx_hal_pwr_ex.c ****       {
 175:Drivers/STM32G4xx_HAL_Driver/Src/stm32g4xx_hal_pwr_ex.c ****         wait_loop_index--;
 176:Drivers/STM32G4xx_HAL_Driver/Src/stm32g4xx_hal_pwr_ex.c ****       }
 177:Drivers/STM32G4xx_HAL_Driver/Src/stm32g4xx_hal_pwr_ex.c ****       if (HAL_IS_BIT_SET(PWR->SR2, PWR_SR2_VOSF))
 178:Drivers/STM32G4xx_HAL_Driver/Src/stm32g4xx_hal_pwr_ex.c ****       {
 179:Drivers/STM32G4xx_HAL_Driver/Src/stm32g4xx_hal_pwr_ex.c ****         return HAL_TIMEOUT;
 180:Drivers/STM32G4xx_HAL_Driver/Src/stm32g4xx_hal_pwr_ex.c ****       }
 181:Drivers/STM32G4xx_HAL_Driver/Src/stm32g4xx_hal_pwr_ex.c ****     }
 182:Drivers/STM32G4xx_HAL_Driver/Src/stm32g4xx_hal_pwr_ex.c ****     /* If current range is range 1 normal or boost mode */
 183:Drivers/STM32G4xx_HAL_Driver/Src/stm32g4xx_hal_pwr_ex.c ****     else
 184:Drivers/STM32G4xx_HAL_Driver/Src/stm32g4xx_hal_pwr_ex.c ****     {
 185:Drivers/STM32G4xx_HAL_Driver/Src/stm32g4xx_hal_pwr_ex.c ****       /* Enable Range 1 Boost (no issue if bit already reset) */
 186:Drivers/STM32G4xx_HAL_Driver/Src/stm32g4xx_hal_pwr_ex.c ****       CLEAR_BIT(PWR->CR5, PWR_CR5_R1MODE);
  97              		.loc 1 186 7 is_stmt 1 view .LVU19
  98 0012 D2F88030 		ldr	r3, [r2, #128]
  99 0016 23F48073 		bic	r3, r3, #256
 100 001a C2F88030 		str	r3, [r2, #128]
ARM GAS  /tmp/ccbR6ah2.s 			page 6


 101              	.LVL1:
 102              	.L16:
 187:Drivers/STM32G4xx_HAL_Driver/Src/stm32g4xx_hal_pwr_ex.c ****     }
 188:Drivers/STM32G4xx_HAL_Driver/Src/stm32g4xx_hal_pwr_ex.c ****   }
 189:Drivers/STM32G4xx_HAL_Driver/Src/stm32g4xx_hal_pwr_ex.c ****   else if (VoltageScaling == PWR_REGULATOR_VOLTAGE_SCALE1)
 190:Drivers/STM32G4xx_HAL_Driver/Src/stm32g4xx_hal_pwr_ex.c ****   {
 191:Drivers/STM32G4xx_HAL_Driver/Src/stm32g4xx_hal_pwr_ex.c ****     /* If current range is range 2 */
 192:Drivers/STM32G4xx_HAL_Driver/Src/stm32g4xx_hal_pwr_ex.c ****     if (READ_BIT(PWR->CR1, PWR_CR1_VOS) == PWR_REGULATOR_VOLTAGE_SCALE2)
 193:Drivers/STM32G4xx_HAL_Driver/Src/stm32g4xx_hal_pwr_ex.c ****     {
 194:Drivers/STM32G4xx_HAL_Driver/Src/stm32g4xx_hal_pwr_ex.c ****       /* Make sure Range 1 Boost is disabled */
 195:Drivers/STM32G4xx_HAL_Driver/Src/stm32g4xx_hal_pwr_ex.c ****       SET_BIT(PWR->CR5, PWR_CR5_R1MODE);
 196:Drivers/STM32G4xx_HAL_Driver/Src/stm32g4xx_hal_pwr_ex.c **** 
 197:Drivers/STM32G4xx_HAL_Driver/Src/stm32g4xx_hal_pwr_ex.c ****       /* Set Range 1 */
 198:Drivers/STM32G4xx_HAL_Driver/Src/stm32g4xx_hal_pwr_ex.c ****       MODIFY_REG(PWR->CR1, PWR_CR1_VOS, PWR_REGULATOR_VOLTAGE_SCALE1);
 199:Drivers/STM32G4xx_HAL_Driver/Src/stm32g4xx_hal_pwr_ex.c **** 
 200:Drivers/STM32G4xx_HAL_Driver/Src/stm32g4xx_hal_pwr_ex.c ****       /* Wait until VOSF is cleared */
 201:Drivers/STM32G4xx_HAL_Driver/Src/stm32g4xx_hal_pwr_ex.c ****       wait_loop_index = ((PWR_FLAG_SETTING_DELAY_US * SystemCoreClock) / 1000000U) + 1U;
 202:Drivers/STM32G4xx_HAL_Driver/Src/stm32g4xx_hal_pwr_ex.c ****       while ((HAL_IS_BIT_SET(PWR->SR2, PWR_SR2_VOSF)) && (wait_loop_index != 0U))
 203:Drivers/STM32G4xx_HAL_Driver/Src/stm32g4xx_hal_pwr_ex.c ****       {
 204:Drivers/STM32G4xx_HAL_Driver/Src/stm32g4xx_hal_pwr_ex.c ****         wait_loop_index--;
 205:Drivers/STM32G4xx_HAL_Driver/Src/stm32g4xx_hal_pwr_ex.c ****       }
 206:Drivers/STM32G4xx_HAL_Driver/Src/stm32g4xx_hal_pwr_ex.c ****       if (HAL_IS_BIT_SET(PWR->SR2, PWR_SR2_VOSF))
 207:Drivers/STM32G4xx_HAL_Driver/Src/stm32g4xx_hal_pwr_ex.c ****       {
 208:Drivers/STM32G4xx_HAL_Driver/Src/stm32g4xx_hal_pwr_ex.c ****         return HAL_TIMEOUT;
 209:Drivers/STM32G4xx_HAL_Driver/Src/stm32g4xx_hal_pwr_ex.c ****       }
 210:Drivers/STM32G4xx_HAL_Driver/Src/stm32g4xx_hal_pwr_ex.c ****     }
 211:Drivers/STM32G4xx_HAL_Driver/Src/stm32g4xx_hal_pwr_ex.c ****      /* If current range is range 1 normal or boost mode */
 212:Drivers/STM32G4xx_HAL_Driver/Src/stm32g4xx_hal_pwr_ex.c ****     else
 213:Drivers/STM32G4xx_HAL_Driver/Src/stm32g4xx_hal_pwr_ex.c ****     {
 214:Drivers/STM32G4xx_HAL_Driver/Src/stm32g4xx_hal_pwr_ex.c ****       /* Disable Range 1 Boost (no issue if bit already set) */
 215:Drivers/STM32G4xx_HAL_Driver/Src/stm32g4xx_hal_pwr_ex.c ****       SET_BIT(PWR->CR5, PWR_CR5_R1MODE);
 216:Drivers/STM32G4xx_HAL_Driver/Src/stm32g4xx_hal_pwr_ex.c ****     }
 217:Drivers/STM32G4xx_HAL_Driver/Src/stm32g4xx_hal_pwr_ex.c ****   }
 218:Drivers/STM32G4xx_HAL_Driver/Src/stm32g4xx_hal_pwr_ex.c ****   else
 219:Drivers/STM32G4xx_HAL_Driver/Src/stm32g4xx_hal_pwr_ex.c ****   {
 220:Drivers/STM32G4xx_HAL_Driver/Src/stm32g4xx_hal_pwr_ex.c ****     /* Set Range 2 */
 221:Drivers/STM32G4xx_HAL_Driver/Src/stm32g4xx_hal_pwr_ex.c ****     MODIFY_REG(PWR->CR1, PWR_CR1_VOS, PWR_REGULATOR_VOLTAGE_SCALE2);
 222:Drivers/STM32G4xx_HAL_Driver/Src/stm32g4xx_hal_pwr_ex.c ****     /* No need to wait for VOSF to be cleared for this transition */
 223:Drivers/STM32G4xx_HAL_Driver/Src/stm32g4xx_hal_pwr_ex.c ****     /* PWR_CR5_R1MODE bit setting has no effect in Range 2        */
 224:Drivers/STM32G4xx_HAL_Driver/Src/stm32g4xx_hal_pwr_ex.c ****   }
 225:Drivers/STM32G4xx_HAL_Driver/Src/stm32g4xx_hal_pwr_ex.c **** 
 226:Drivers/STM32G4xx_HAL_Driver/Src/stm32g4xx_hal_pwr_ex.c ****   return HAL_OK;
 227:Drivers/STM32G4xx_HAL_Driver/Src/stm32g4xx_hal_pwr_ex.c **** }
 103              		.loc 1 227 1 is_stmt 0 view .LVU20
 104 001e 5DF8044B 		ldr	r4, [sp], #4
 105              	.LCFI1:
 106              		.cfi_remember_state
 107              		.cfi_restore 4
 108              		.cfi_def_cfa_offset 0
 109 0022 7047     		bx	lr
 110              	.LVL2:
 111              	.L11:
 112              	.LCFI2:
 113              		.cfi_restore_state
 189:Drivers/STM32G4xx_HAL_Driver/Src/stm32g4xx_hal_pwr_ex.c ****   {
 114              		.loc 1 189 8 is_stmt 1 view .LVU21
 189:Drivers/STM32G4xx_HAL_Driver/Src/stm32g4xx_hal_pwr_ex.c ****   {
ARM GAS  /tmp/ccbR6ah2.s 			page 7


 115              		.loc 1 189 11 is_stmt 0 view .LVU22
 116 0024 B0F5007F 		cmp	r0, #512
 117 0028 2FD0     		beq	.L39
 221:Drivers/STM32G4xx_HAL_Driver/Src/stm32g4xx_hal_pwr_ex.c ****     /* No need to wait for VOSF to be cleared for this transition */
 118              		.loc 1 221 5 is_stmt 1 view .LVU23
 119 002a 23F4C063 		bic	r3, r3, #1536
 120 002e 43F48063 		orr	r3, r3, #1024
 121 0032 1360     		str	r3, [r2]
 122              	.LVL3:
 123              	.L37:
 226:Drivers/STM32G4xx_HAL_Driver/Src/stm32g4xx_hal_pwr_ex.c **** }
 124              		.loc 1 226 10 is_stmt 0 view .LVU24
 125 0034 0020     		movs	r0, #0
 126              		.loc 1 227 1 view .LVU25
 127 0036 5DF8044B 		ldr	r4, [sp], #4
 128              	.LCFI3:
 129              		.cfi_remember_state
 130              		.cfi_restore 4
 131              		.cfi_def_cfa_offset 0
 132 003a 7047     		bx	lr
 133              	.LVL4:
 134              	.L38:
 135              	.LCFI4:
 136              		.cfi_restore_state
 166:Drivers/STM32G4xx_HAL_Driver/Src/stm32g4xx_hal_pwr_ex.c **** 
 137              		.loc 1 166 7 is_stmt 1 view .LVU26
 138 003c D2F88010 		ldr	r1, [r2, #128]
 172:Drivers/STM32G4xx_HAL_Driver/Src/stm32g4xx_hal_pwr_ex.c ****       while ((HAL_IS_BIT_SET(PWR->SR2, PWR_SR2_VOSF)) && (wait_loop_index != 0U))
 139              		.loc 1 172 53 is_stmt 0 view .LVU27
 140 0040 2C4B     		ldr	r3, .L43+4
 172:Drivers/STM32G4xx_HAL_Driver/Src/stm32g4xx_hal_pwr_ex.c ****       while ((HAL_IS_BIT_SET(PWR->SR2, PWR_SR2_VOSF)) && (wait_loop_index != 0U))
 141              		.loc 1 172 72 view .LVU28
 142 0042 2D48     		ldr	r0, .L43+8
 143              	.LVL5:
 166:Drivers/STM32G4xx_HAL_Driver/Src/stm32g4xx_hal_pwr_ex.c **** 
 144              		.loc 1 166 7 view .LVU29
 145 0044 21F48071 		bic	r1, r1, #256
 146 0048 C2F88010 		str	r1, [r2, #128]
 169:Drivers/STM32G4xx_HAL_Driver/Src/stm32g4xx_hal_pwr_ex.c **** 
 147              		.loc 1 169 7 is_stmt 1 view .LVU30
 148 004c 1168     		ldr	r1, [r2]
 149 004e 21F4C061 		bic	r1, r1, #1536
 150 0052 41F40071 		orr	r1, r1, #512
 151 0056 1160     		str	r1, [r2]
 172:Drivers/STM32G4xx_HAL_Driver/Src/stm32g4xx_hal_pwr_ex.c ****       while ((HAL_IS_BIT_SET(PWR->SR2, PWR_SR2_VOSF)) && (wait_loop_index != 0U))
 152              		.loc 1 172 7 view .LVU31
 172:Drivers/STM32G4xx_HAL_Driver/Src/stm32g4xx_hal_pwr_ex.c ****       while ((HAL_IS_BIT_SET(PWR->SR2, PWR_SR2_VOSF)) && (wait_loop_index != 0U))
 153              		.loc 1 172 53 is_stmt 0 view .LVU32
 154 0058 1C68     		ldr	r4, [r3]
 173:Drivers/STM32G4xx_HAL_Driver/Src/stm32g4xx_hal_pwr_ex.c ****       {
 155              		.loc 1 173 15 view .LVU33
 156 005a 5169     		ldr	r1, [r2, #20]
 172:Drivers/STM32G4xx_HAL_Driver/Src/stm32g4xx_hal_pwr_ex.c ****       while ((HAL_IS_BIT_SET(PWR->SR2, PWR_SR2_VOSF)) && (wait_loop_index != 0U))
 157              		.loc 1 172 53 view .LVU34
 158 005c 3223     		movs	r3, #50
 159 005e 03FB04F3 		mul	r3, r3, r4
 172:Drivers/STM32G4xx_HAL_Driver/Src/stm32g4xx_hal_pwr_ex.c ****       while ((HAL_IS_BIT_SET(PWR->SR2, PWR_SR2_VOSF)) && (wait_loop_index != 0U))
ARM GAS  /tmp/ccbR6ah2.s 			page 8


 160              		.loc 1 172 72 view .LVU35
 161 0062 A0FB0303 		umull	r0, r3, r0, r3
 162 0066 9B0C     		lsrs	r3, r3, #18
 173:Drivers/STM32G4xx_HAL_Driver/Src/stm32g4xx_hal_pwr_ex.c ****       {
 163              		.loc 1 173 13 view .LVU36
 164 0068 4805     		lsls	r0, r1, #21
 172:Drivers/STM32G4xx_HAL_Driver/Src/stm32g4xx_hal_pwr_ex.c ****       while ((HAL_IS_BIT_SET(PWR->SR2, PWR_SR2_VOSF)) && (wait_loop_index != 0U))
 165              		.loc 1 172 23 view .LVU37
 166 006a 03F10103 		add	r3, r3, #1
 167              	.LVL6:
 173:Drivers/STM32G4xx_HAL_Driver/Src/stm32g4xx_hal_pwr_ex.c ****       {
 168              		.loc 1 173 7 is_stmt 1 view .LVU38
 173:Drivers/STM32G4xx_HAL_Driver/Src/stm32g4xx_hal_pwr_ex.c ****       {
 169              		.loc 1 173 13 view .LVU39
 170 006e 06D5     		bpl	.L13
 171 0070 00E0     		b	.L14
 172              	.L40:
 173:Drivers/STM32G4xx_HAL_Driver/Src/stm32g4xx_hal_pwr_ex.c ****       {
 173              		.loc 1 173 55 is_stmt 0 discriminator 1 view .LVU40
 174 0072 23B1     		cbz	r3, .L13
 175              	.L14:
 175:Drivers/STM32G4xx_HAL_Driver/Src/stm32g4xx_hal_pwr_ex.c ****       }
 176              		.loc 1 175 9 is_stmt 1 view .LVU41
 173:Drivers/STM32G4xx_HAL_Driver/Src/stm32g4xx_hal_pwr_ex.c ****       {
 177              		.loc 1 173 15 is_stmt 0 view .LVU42
 178 0074 5169     		ldr	r1, [r2, #20]
 173:Drivers/STM32G4xx_HAL_Driver/Src/stm32g4xx_hal_pwr_ex.c ****       {
 179              		.loc 1 173 13 view .LVU43
 180 0076 4905     		lsls	r1, r1, #21
 175:Drivers/STM32G4xx_HAL_Driver/Src/stm32g4xx_hal_pwr_ex.c ****       }
 181              		.loc 1 175 24 view .LVU44
 182 0078 03F1FF33 		add	r3, r3, #-1
 183              	.LVL7:
 173:Drivers/STM32G4xx_HAL_Driver/Src/stm32g4xx_hal_pwr_ex.c ****       {
 184              		.loc 1 173 13 is_stmt 1 view .LVU45
 185 007c F9D4     		bmi	.L40
 186              	.L13:
 177:Drivers/STM32G4xx_HAL_Driver/Src/stm32g4xx_hal_pwr_ex.c ****       {
 187              		.loc 1 177 7 view .LVU46
 177:Drivers/STM32G4xx_HAL_Driver/Src/stm32g4xx_hal_pwr_ex.c ****       {
 188              		.loc 1 177 11 is_stmt 0 view .LVU47
 189 007e 1C4B     		ldr	r3, .L43
 190              	.LVL8:
 177:Drivers/STM32G4xx_HAL_Driver/Src/stm32g4xx_hal_pwr_ex.c ****       {
 191              		.loc 1 177 11 view .LVU48
 192 0080 5B69     		ldr	r3, [r3, #20]
 177:Drivers/STM32G4xx_HAL_Driver/Src/stm32g4xx_hal_pwr_ex.c ****       {
 193              		.loc 1 177 10 view .LVU49
 194 0082 5C05     		lsls	r4, r3, #21
 195 0084 D6D5     		bpl	.L37
 179:Drivers/STM32G4xx_HAL_Driver/Src/stm32g4xx_hal_pwr_ex.c ****       }
 196              		.loc 1 179 9 is_stmt 1 view .LVU50
 179:Drivers/STM32G4xx_HAL_Driver/Src/stm32g4xx_hal_pwr_ex.c ****       }
 197              		.loc 1 179 16 is_stmt 0 view .LVU51
 198 0086 0320     		movs	r0, #3
 199 0088 C9E7     		b	.L16
 200              	.LVL9:
ARM GAS  /tmp/ccbR6ah2.s 			page 9


 201              	.L39:
 192:Drivers/STM32G4xx_HAL_Driver/Src/stm32g4xx_hal_pwr_ex.c ****     {
 202              		.loc 1 192 5 is_stmt 1 view .LVU52
 192:Drivers/STM32G4xx_HAL_Driver/Src/stm32g4xx_hal_pwr_ex.c ****     {
 203              		.loc 1 192 9 is_stmt 0 view .LVU53
 204 008a 03F4C063 		and	r3, r3, #1536
 192:Drivers/STM32G4xx_HAL_Driver/Src/stm32g4xx_hal_pwr_ex.c ****     {
 205              		.loc 1 192 8 view .LVU54
 206 008e B3F5806F 		cmp	r3, #1024
 207 0092 09D0     		beq	.L41
 215:Drivers/STM32G4xx_HAL_Driver/Src/stm32g4xx_hal_pwr_ex.c ****     }
 208              		.loc 1 215 7 is_stmt 1 view .LVU55
 209 0094 D2F88030 		ldr	r3, [r2, #128]
 210              		.loc 1 227 1 is_stmt 0 view .LVU56
 211 0098 5DF8044B 		ldr	r4, [sp], #4
 212              	.LCFI5:
 213              		.cfi_remember_state
 214              		.cfi_restore 4
 215              		.cfi_def_cfa_offset 0
 215:Drivers/STM32G4xx_HAL_Driver/Src/stm32g4xx_hal_pwr_ex.c ****     }
 216              		.loc 1 215 7 view .LVU57
 217 009c 43F48073 		orr	r3, r3, #256
 226:Drivers/STM32G4xx_HAL_Driver/Src/stm32g4xx_hal_pwr_ex.c **** }
 218              		.loc 1 226 10 view .LVU58
 219 00a0 0020     		movs	r0, #0
 220              	.LVL10:
 215:Drivers/STM32G4xx_HAL_Driver/Src/stm32g4xx_hal_pwr_ex.c ****     }
 221              		.loc 1 215 7 view .LVU59
 222 00a2 C2F88030 		str	r3, [r2, #128]
 223              		.loc 1 227 1 view .LVU60
 224 00a6 7047     		bx	lr
 225              	.LVL11:
 226              	.L41:
 227              	.LCFI6:
 228              		.cfi_restore_state
 195:Drivers/STM32G4xx_HAL_Driver/Src/stm32g4xx_hal_pwr_ex.c **** 
 229              		.loc 1 195 7 is_stmt 1 view .LVU61
 230 00a8 D2F88010 		ldr	r1, [r2, #128]
 201:Drivers/STM32G4xx_HAL_Driver/Src/stm32g4xx_hal_pwr_ex.c ****       while ((HAL_IS_BIT_SET(PWR->SR2, PWR_SR2_VOSF)) && (wait_loop_index != 0U))
 231              		.loc 1 201 53 is_stmt 0 view .LVU62
 232 00ac 114B     		ldr	r3, .L43+4
 201:Drivers/STM32G4xx_HAL_Driver/Src/stm32g4xx_hal_pwr_ex.c ****       while ((HAL_IS_BIT_SET(PWR->SR2, PWR_SR2_VOSF)) && (wait_loop_index != 0U))
 233              		.loc 1 201 72 view .LVU63
 234 00ae 1248     		ldr	r0, .L43+8
 235              	.LVL12:
 195:Drivers/STM32G4xx_HAL_Driver/Src/stm32g4xx_hal_pwr_ex.c **** 
 236              		.loc 1 195 7 view .LVU64
 237 00b0 41F48071 		orr	r1, r1, #256
 238 00b4 C2F88010 		str	r1, [r2, #128]
 198:Drivers/STM32G4xx_HAL_Driver/Src/stm32g4xx_hal_pwr_ex.c **** 
 239              		.loc 1 198 7 is_stmt 1 view .LVU65
 240 00b8 1168     		ldr	r1, [r2]
 241 00ba 21F4C061 		bic	r1, r1, #1536
 242 00be 41F40071 		orr	r1, r1, #512
 243 00c2 1160     		str	r1, [r2]
 201:Drivers/STM32G4xx_HAL_Driver/Src/stm32g4xx_hal_pwr_ex.c ****       while ((HAL_IS_BIT_SET(PWR->SR2, PWR_SR2_VOSF)) && (wait_loop_index != 0U))
 244              		.loc 1 201 7 view .LVU66
ARM GAS  /tmp/ccbR6ah2.s 			page 10


 201:Drivers/STM32G4xx_HAL_Driver/Src/stm32g4xx_hal_pwr_ex.c ****       while ((HAL_IS_BIT_SET(PWR->SR2, PWR_SR2_VOSF)) && (wait_loop_index != 0U))
 245              		.loc 1 201 53 is_stmt 0 view .LVU67
 246 00c4 1C68     		ldr	r4, [r3]
 202:Drivers/STM32G4xx_HAL_Driver/Src/stm32g4xx_hal_pwr_ex.c ****       {
 247              		.loc 1 202 15 view .LVU68
 248 00c6 5169     		ldr	r1, [r2, #20]
 201:Drivers/STM32G4xx_HAL_Driver/Src/stm32g4xx_hal_pwr_ex.c ****       while ((HAL_IS_BIT_SET(PWR->SR2, PWR_SR2_VOSF)) && (wait_loop_index != 0U))
 249              		.loc 1 201 53 view .LVU69
 250 00c8 3223     		movs	r3, #50
 251 00ca 03FB04F3 		mul	r3, r3, r4
 201:Drivers/STM32G4xx_HAL_Driver/Src/stm32g4xx_hal_pwr_ex.c ****       while ((HAL_IS_BIT_SET(PWR->SR2, PWR_SR2_VOSF)) && (wait_loop_index != 0U))
 252              		.loc 1 201 72 view .LVU70
 253 00ce A0FB0303 		umull	r0, r3, r0, r3
 254 00d2 9B0C     		lsrs	r3, r3, #18
 202:Drivers/STM32G4xx_HAL_Driver/Src/stm32g4xx_hal_pwr_ex.c ****       {
 255              		.loc 1 202 13 view .LVU71
 256 00d4 4805     		lsls	r0, r1, #21
 201:Drivers/STM32G4xx_HAL_Driver/Src/stm32g4xx_hal_pwr_ex.c ****       while ((HAL_IS_BIT_SET(PWR->SR2, PWR_SR2_VOSF)) && (wait_loop_index != 0U))
 257              		.loc 1 201 23 view .LVU72
 258 00d6 03F10103 		add	r3, r3, #1
 259              	.LVL13:
 202:Drivers/STM32G4xx_HAL_Driver/Src/stm32g4xx_hal_pwr_ex.c ****       {
 260              		.loc 1 202 7 is_stmt 1 view .LVU73
 202:Drivers/STM32G4xx_HAL_Driver/Src/stm32g4xx_hal_pwr_ex.c ****       {
 261              		.loc 1 202 13 view .LVU74
 262 00da D0D5     		bpl	.L13
 263 00dc 01E0     		b	.L20
 264              	.L42:
 202:Drivers/STM32G4xx_HAL_Driver/Src/stm32g4xx_hal_pwr_ex.c ****       {
 265              		.loc 1 202 55 is_stmt 0 discriminator 1 view .LVU75
 266 00de 002B     		cmp	r3, #0
 267 00e0 CDD0     		beq	.L13
 268              	.L20:
 204:Drivers/STM32G4xx_HAL_Driver/Src/stm32g4xx_hal_pwr_ex.c ****       }
 269              		.loc 1 204 9 is_stmt 1 view .LVU76
 202:Drivers/STM32G4xx_HAL_Driver/Src/stm32g4xx_hal_pwr_ex.c ****       {
 270              		.loc 1 202 15 is_stmt 0 view .LVU77
 271 00e2 5169     		ldr	r1, [r2, #20]
 202:Drivers/STM32G4xx_HAL_Driver/Src/stm32g4xx_hal_pwr_ex.c ****       {
 272              		.loc 1 202 13 view .LVU78
 273 00e4 4905     		lsls	r1, r1, #21
 204:Drivers/STM32G4xx_HAL_Driver/Src/stm32g4xx_hal_pwr_ex.c ****       }
 274              		.loc 1 204 24 view .LVU79
 275 00e6 03F1FF33 		add	r3, r3, #-1
 276              	.LVL14:
 202:Drivers/STM32G4xx_HAL_Driver/Src/stm32g4xx_hal_pwr_ex.c ****       {
 277              		.loc 1 202 13 is_stmt 1 view .LVU80
 278 00ea C8D5     		bpl	.L13
 279 00ec F7E7     		b	.L42
 280              	.L44:
 281 00ee 00BF     		.align	2
 282              	.L43:
 283 00f0 00700040 		.word	1073770496
 284 00f4 00000000 		.word	SystemCoreClock
 285 00f8 83DE1B43 		.word	1125899907
 286              		.cfi_endproc
 287              	.LFE330:
ARM GAS  /tmp/ccbR6ah2.s 			page 11


 289              		.section	.text.HAL_PWREx_EnableBatteryCharging,"ax",%progbits
 290              		.align	1
 291              		.p2align 2,,3
 292              		.global	HAL_PWREx_EnableBatteryCharging
 293              		.syntax unified
 294              		.thumb
 295              		.thumb_func
 296              		.fpu fpv4-sp-d16
 298              	HAL_PWREx_EnableBatteryCharging:
 299              	.LVL15:
 300              	.LFB331:
 228:Drivers/STM32G4xx_HAL_Driver/Src/stm32g4xx_hal_pwr_ex.c **** 
 229:Drivers/STM32G4xx_HAL_Driver/Src/stm32g4xx_hal_pwr_ex.c **** 
 230:Drivers/STM32G4xx_HAL_Driver/Src/stm32g4xx_hal_pwr_ex.c **** /**
 231:Drivers/STM32G4xx_HAL_Driver/Src/stm32g4xx_hal_pwr_ex.c ****   * @brief Enable battery charging.
 232:Drivers/STM32G4xx_HAL_Driver/Src/stm32g4xx_hal_pwr_ex.c ****   *        When VDD is present, charge the external battery on VBAT through an internal resistor.
 233:Drivers/STM32G4xx_HAL_Driver/Src/stm32g4xx_hal_pwr_ex.c ****   * @param  ResistorSelection: specifies the resistor impedance.
 234:Drivers/STM32G4xx_HAL_Driver/Src/stm32g4xx_hal_pwr_ex.c ****   *          This parameter can be one of the following values:
 235:Drivers/STM32G4xx_HAL_Driver/Src/stm32g4xx_hal_pwr_ex.c ****   *            @arg @ref PWR_BATTERY_CHARGING_RESISTOR_5     5 kOhms resistor
 236:Drivers/STM32G4xx_HAL_Driver/Src/stm32g4xx_hal_pwr_ex.c ****   *            @arg @ref PWR_BATTERY_CHARGING_RESISTOR_1_5 1.5 kOhms resistor
 237:Drivers/STM32G4xx_HAL_Driver/Src/stm32g4xx_hal_pwr_ex.c ****   * @retval None
 238:Drivers/STM32G4xx_HAL_Driver/Src/stm32g4xx_hal_pwr_ex.c ****   */
 239:Drivers/STM32G4xx_HAL_Driver/Src/stm32g4xx_hal_pwr_ex.c **** void HAL_PWREx_EnableBatteryCharging(uint32_t ResistorSelection)
 240:Drivers/STM32G4xx_HAL_Driver/Src/stm32g4xx_hal_pwr_ex.c **** {
 301              		.loc 1 240 1 view -0
 302              		.cfi_startproc
 303              		@ args = 0, pretend = 0, frame = 0
 304              		@ frame_needed = 0, uses_anonymous_args = 0
 305              		@ link register save eliminated.
 241:Drivers/STM32G4xx_HAL_Driver/Src/stm32g4xx_hal_pwr_ex.c ****   assert_param(IS_PWR_BATTERY_RESISTOR_SELECT(ResistorSelection));
 306              		.loc 1 241 3 view .LVU82
 242:Drivers/STM32G4xx_HAL_Driver/Src/stm32g4xx_hal_pwr_ex.c **** 
 243:Drivers/STM32G4xx_HAL_Driver/Src/stm32g4xx_hal_pwr_ex.c ****   /* Specify resistor selection */
 244:Drivers/STM32G4xx_HAL_Driver/Src/stm32g4xx_hal_pwr_ex.c ****   MODIFY_REG(PWR->CR4, PWR_CR4_VBRS, ResistorSelection);
 307              		.loc 1 244 3 view .LVU83
 308 0000 054A     		ldr	r2, .L46
 309 0002 D368     		ldr	r3, [r2, #12]
 310 0004 23F40073 		bic	r3, r3, #512
 311 0008 0343     		orrs	r3, r3, r0
 312 000a D360     		str	r3, [r2, #12]
 245:Drivers/STM32G4xx_HAL_Driver/Src/stm32g4xx_hal_pwr_ex.c **** 
 246:Drivers/STM32G4xx_HAL_Driver/Src/stm32g4xx_hal_pwr_ex.c ****   /* Enable battery charging */
 247:Drivers/STM32G4xx_HAL_Driver/Src/stm32g4xx_hal_pwr_ex.c ****   SET_BIT(PWR->CR4, PWR_CR4_VBE);
 313              		.loc 1 247 3 view .LVU84
 314 000c D368     		ldr	r3, [r2, #12]
 315 000e 43F48073 		orr	r3, r3, #256
 316 0012 D360     		str	r3, [r2, #12]
 248:Drivers/STM32G4xx_HAL_Driver/Src/stm32g4xx_hal_pwr_ex.c **** }
 317              		.loc 1 248 1 is_stmt 0 view .LVU85
 318 0014 7047     		bx	lr
 319              	.L47:
 320 0016 00BF     		.align	2
 321              	.L46:
 322 0018 00700040 		.word	1073770496
 323              		.cfi_endproc
 324              	.LFE331:
 326              		.section	.text.HAL_PWREx_DisableBatteryCharging,"ax",%progbits
ARM GAS  /tmp/ccbR6ah2.s 			page 12


 327              		.align	1
 328              		.p2align 2,,3
 329              		.global	HAL_PWREx_DisableBatteryCharging
 330              		.syntax unified
 331              		.thumb
 332              		.thumb_func
 333              		.fpu fpv4-sp-d16
 335              	HAL_PWREx_DisableBatteryCharging:
 336              	.LFB332:
 249:Drivers/STM32G4xx_HAL_Driver/Src/stm32g4xx_hal_pwr_ex.c **** 
 250:Drivers/STM32G4xx_HAL_Driver/Src/stm32g4xx_hal_pwr_ex.c **** 
 251:Drivers/STM32G4xx_HAL_Driver/Src/stm32g4xx_hal_pwr_ex.c **** /**
 252:Drivers/STM32G4xx_HAL_Driver/Src/stm32g4xx_hal_pwr_ex.c ****   * @brief Disable battery charging.
 253:Drivers/STM32G4xx_HAL_Driver/Src/stm32g4xx_hal_pwr_ex.c ****   * @retval None
 254:Drivers/STM32G4xx_HAL_Driver/Src/stm32g4xx_hal_pwr_ex.c ****   */
 255:Drivers/STM32G4xx_HAL_Driver/Src/stm32g4xx_hal_pwr_ex.c **** void HAL_PWREx_DisableBatteryCharging(void)
 256:Drivers/STM32G4xx_HAL_Driver/Src/stm32g4xx_hal_pwr_ex.c **** {
 337              		.loc 1 256 1 is_stmt 1 view -0
 338              		.cfi_startproc
 339              		@ args = 0, pretend = 0, frame = 0
 340              		@ frame_needed = 0, uses_anonymous_args = 0
 341              		@ link register save eliminated.
 257:Drivers/STM32G4xx_HAL_Driver/Src/stm32g4xx_hal_pwr_ex.c ****   CLEAR_BIT(PWR->CR4, PWR_CR4_VBE);
 342              		.loc 1 257 3 view .LVU87
 343 0000 024A     		ldr	r2, .L49
 344 0002 D368     		ldr	r3, [r2, #12]
 345 0004 23F48073 		bic	r3, r3, #256
 346 0008 D360     		str	r3, [r2, #12]
 258:Drivers/STM32G4xx_HAL_Driver/Src/stm32g4xx_hal_pwr_ex.c **** }
 347              		.loc 1 258 1 is_stmt 0 view .LVU88
 348 000a 7047     		bx	lr
 349              	.L50:
 350              		.align	2
 351              	.L49:
 352 000c 00700040 		.word	1073770496
 353              		.cfi_endproc
 354              	.LFE332:
 356              		.section	.text.HAL_PWREx_EnableInternalWakeUpLine,"ax",%progbits
 357              		.align	1
 358              		.p2align 2,,3
 359              		.global	HAL_PWREx_EnableInternalWakeUpLine
 360              		.syntax unified
 361              		.thumb
 362              		.thumb_func
 363              		.fpu fpv4-sp-d16
 365              	HAL_PWREx_EnableInternalWakeUpLine:
 366              	.LFB333:
 259:Drivers/STM32G4xx_HAL_Driver/Src/stm32g4xx_hal_pwr_ex.c **** 
 260:Drivers/STM32G4xx_HAL_Driver/Src/stm32g4xx_hal_pwr_ex.c **** 
 261:Drivers/STM32G4xx_HAL_Driver/Src/stm32g4xx_hal_pwr_ex.c **** /**
 262:Drivers/STM32G4xx_HAL_Driver/Src/stm32g4xx_hal_pwr_ex.c ****   * @brief Enable Internal Wake-up Line.
 263:Drivers/STM32G4xx_HAL_Driver/Src/stm32g4xx_hal_pwr_ex.c ****   * @retval None
 264:Drivers/STM32G4xx_HAL_Driver/Src/stm32g4xx_hal_pwr_ex.c ****   */
 265:Drivers/STM32G4xx_HAL_Driver/Src/stm32g4xx_hal_pwr_ex.c **** void HAL_PWREx_EnableInternalWakeUpLine(void)
 266:Drivers/STM32G4xx_HAL_Driver/Src/stm32g4xx_hal_pwr_ex.c **** {
 367              		.loc 1 266 1 is_stmt 1 view -0
 368              		.cfi_startproc
ARM GAS  /tmp/ccbR6ah2.s 			page 13


 369              		@ args = 0, pretend = 0, frame = 0
 370              		@ frame_needed = 0, uses_anonymous_args = 0
 371              		@ link register save eliminated.
 267:Drivers/STM32G4xx_HAL_Driver/Src/stm32g4xx_hal_pwr_ex.c ****   SET_BIT(PWR->CR3, PWR_CR3_EIWF);
 372              		.loc 1 267 3 view .LVU90
 373 0000 024A     		ldr	r2, .L52
 374 0002 9368     		ldr	r3, [r2, #8]
 375 0004 43F40043 		orr	r3, r3, #32768
 376 0008 9360     		str	r3, [r2, #8]
 268:Drivers/STM32G4xx_HAL_Driver/Src/stm32g4xx_hal_pwr_ex.c **** }
 377              		.loc 1 268 1 is_stmt 0 view .LVU91
 378 000a 7047     		bx	lr
 379              	.L53:
 380              		.align	2
 381              	.L52:
 382 000c 00700040 		.word	1073770496
 383              		.cfi_endproc
 384              	.LFE333:
 386              		.section	.text.HAL_PWREx_DisableInternalWakeUpLine,"ax",%progbits
 387              		.align	1
 388              		.p2align 2,,3
 389              		.global	HAL_PWREx_DisableInternalWakeUpLine
 390              		.syntax unified
 391              		.thumb
 392              		.thumb_func
 393              		.fpu fpv4-sp-d16
 395              	HAL_PWREx_DisableInternalWakeUpLine:
 396              	.LFB334:
 269:Drivers/STM32G4xx_HAL_Driver/Src/stm32g4xx_hal_pwr_ex.c **** 
 270:Drivers/STM32G4xx_HAL_Driver/Src/stm32g4xx_hal_pwr_ex.c **** 
 271:Drivers/STM32G4xx_HAL_Driver/Src/stm32g4xx_hal_pwr_ex.c **** /**
 272:Drivers/STM32G4xx_HAL_Driver/Src/stm32g4xx_hal_pwr_ex.c ****   * @brief Disable Internal Wake-up Line.
 273:Drivers/STM32G4xx_HAL_Driver/Src/stm32g4xx_hal_pwr_ex.c ****   * @retval None
 274:Drivers/STM32G4xx_HAL_Driver/Src/stm32g4xx_hal_pwr_ex.c ****   */
 275:Drivers/STM32G4xx_HAL_Driver/Src/stm32g4xx_hal_pwr_ex.c **** void HAL_PWREx_DisableInternalWakeUpLine(void)
 276:Drivers/STM32G4xx_HAL_Driver/Src/stm32g4xx_hal_pwr_ex.c **** {
 397              		.loc 1 276 1 is_stmt 1 view -0
 398              		.cfi_startproc
 399              		@ args = 0, pretend = 0, frame = 0
 400              		@ frame_needed = 0, uses_anonymous_args = 0
 401              		@ link register save eliminated.
 277:Drivers/STM32G4xx_HAL_Driver/Src/stm32g4xx_hal_pwr_ex.c ****   CLEAR_BIT(PWR->CR3, PWR_CR3_EIWF);
 402              		.loc 1 277 3 view .LVU93
 403 0000 024A     		ldr	r2, .L55
 404 0002 9368     		ldr	r3, [r2, #8]
 405 0004 23F40043 		bic	r3, r3, #32768
 406 0008 9360     		str	r3, [r2, #8]
 278:Drivers/STM32G4xx_HAL_Driver/Src/stm32g4xx_hal_pwr_ex.c **** }
 407              		.loc 1 278 1 is_stmt 0 view .LVU94
 408 000a 7047     		bx	lr
 409              	.L56:
 410              		.align	2
 411              	.L55:
 412 000c 00700040 		.word	1073770496
 413              		.cfi_endproc
 414              	.LFE334:
 416              		.section	.text.HAL_PWREx_EnableGPIOPullUp,"ax",%progbits
ARM GAS  /tmp/ccbR6ah2.s 			page 14


 417              		.align	1
 418              		.p2align 2,,3
 419              		.global	HAL_PWREx_EnableGPIOPullUp
 420              		.syntax unified
 421              		.thumb
 422              		.thumb_func
 423              		.fpu fpv4-sp-d16
 425              	HAL_PWREx_EnableGPIOPullUp:
 426              	.LVL16:
 427              	.LFB335:
 279:Drivers/STM32G4xx_HAL_Driver/Src/stm32g4xx_hal_pwr_ex.c **** 
 280:Drivers/STM32G4xx_HAL_Driver/Src/stm32g4xx_hal_pwr_ex.c **** 
 281:Drivers/STM32G4xx_HAL_Driver/Src/stm32g4xx_hal_pwr_ex.c **** 
 282:Drivers/STM32G4xx_HAL_Driver/Src/stm32g4xx_hal_pwr_ex.c **** /**
 283:Drivers/STM32G4xx_HAL_Driver/Src/stm32g4xx_hal_pwr_ex.c ****   * @brief Enable GPIO pull-up state in Standby and Shutdown modes.
 284:Drivers/STM32G4xx_HAL_Driver/Src/stm32g4xx_hal_pwr_ex.c ****   * @note  Set the relevant PUy bits of PWR_PUCRx register to configure the I/O in
 285:Drivers/STM32G4xx_HAL_Driver/Src/stm32g4xx_hal_pwr_ex.c ****   *        pull-up state in Standby and Shutdown modes.
 286:Drivers/STM32G4xx_HAL_Driver/Src/stm32g4xx_hal_pwr_ex.c ****   * @note  This state is effective in Standby and Shutdown modes only if APC bit
 287:Drivers/STM32G4xx_HAL_Driver/Src/stm32g4xx_hal_pwr_ex.c ****   *        is set through HAL_PWREx_EnablePullUpPullDownConfig() API.
 288:Drivers/STM32G4xx_HAL_Driver/Src/stm32g4xx_hal_pwr_ex.c ****   * @note  The configuration is lost when exiting the Shutdown mode due to the
 289:Drivers/STM32G4xx_HAL_Driver/Src/stm32g4xx_hal_pwr_ex.c ****   *        power-on reset, maintained when exiting the Standby mode.
 290:Drivers/STM32G4xx_HAL_Driver/Src/stm32g4xx_hal_pwr_ex.c ****   * @note  To avoid any conflict at Standby and Shutdown modes exits, the corresponding
 291:Drivers/STM32G4xx_HAL_Driver/Src/stm32g4xx_hal_pwr_ex.c ****   *        PDy bit of PWR_PDCRx register is cleared unless it is reserved.
 292:Drivers/STM32G4xx_HAL_Driver/Src/stm32g4xx_hal_pwr_ex.c ****   * @note  Even if a PUy bit to set is reserved, the other PUy bits entered as input
 293:Drivers/STM32G4xx_HAL_Driver/Src/stm32g4xx_hal_pwr_ex.c ****   *        parameter at the same time are set.
 294:Drivers/STM32G4xx_HAL_Driver/Src/stm32g4xx_hal_pwr_ex.c ****   * @param  GPIO: Specify the IO port. This parameter can be PWR_GPIO_A, ..., PWR_GPIO_G
 295:Drivers/STM32G4xx_HAL_Driver/Src/stm32g4xx_hal_pwr_ex.c ****   *         (or PWR_GPIO_I depending on the devices) to select the GPIO peripheral.
 296:Drivers/STM32G4xx_HAL_Driver/Src/stm32g4xx_hal_pwr_ex.c ****   * @param  GPIONumber: Specify the I/O pins numbers.
 297:Drivers/STM32G4xx_HAL_Driver/Src/stm32g4xx_hal_pwr_ex.c ****   *         This parameter can be one of the following values:
 298:Drivers/STM32G4xx_HAL_Driver/Src/stm32g4xx_hal_pwr_ex.c ****   *         PWR_GPIO_BIT_0, ..., PWR_GPIO_BIT_15 (except for the port where less
 299:Drivers/STM32G4xx_HAL_Driver/Src/stm32g4xx_hal_pwr_ex.c ****   *         I/O pins are available) or the logical OR of several of them to set
 300:Drivers/STM32G4xx_HAL_Driver/Src/stm32g4xx_hal_pwr_ex.c ****   *         several bits for a given port in a single API call.
 301:Drivers/STM32G4xx_HAL_Driver/Src/stm32g4xx_hal_pwr_ex.c ****   * @retval HAL Status
 302:Drivers/STM32G4xx_HAL_Driver/Src/stm32g4xx_hal_pwr_ex.c ****   */
 303:Drivers/STM32G4xx_HAL_Driver/Src/stm32g4xx_hal_pwr_ex.c **** HAL_StatusTypeDef HAL_PWREx_EnableGPIOPullUp(uint32_t GPIO, uint32_t GPIONumber)
 304:Drivers/STM32G4xx_HAL_Driver/Src/stm32g4xx_hal_pwr_ex.c **** {
 428              		.loc 1 304 1 is_stmt 1 view -0
 429              		.cfi_startproc
 430              		@ args = 0, pretend = 0, frame = 0
 431              		@ frame_needed = 0, uses_anonymous_args = 0
 432              		@ link register save eliminated.
 305:Drivers/STM32G4xx_HAL_Driver/Src/stm32g4xx_hal_pwr_ex.c ****   HAL_StatusTypeDef status = HAL_OK;
 433              		.loc 1 305 3 view .LVU96
 306:Drivers/STM32G4xx_HAL_Driver/Src/stm32g4xx_hal_pwr_ex.c **** 
 307:Drivers/STM32G4xx_HAL_Driver/Src/stm32g4xx_hal_pwr_ex.c ****   assert_param(IS_PWR_GPIO(GPIO));
 434              		.loc 1 307 3 view .LVU97
 308:Drivers/STM32G4xx_HAL_Driver/Src/stm32g4xx_hal_pwr_ex.c ****   assert_param(IS_PWR_GPIO_BIT_NUMBER(GPIONumber));
 435              		.loc 1 308 3 view .LVU98
 309:Drivers/STM32G4xx_HAL_Driver/Src/stm32g4xx_hal_pwr_ex.c **** 
 310:Drivers/STM32G4xx_HAL_Driver/Src/stm32g4xx_hal_pwr_ex.c ****   switch (GPIO)
 436              		.loc 1 310 3 view .LVU99
 437 0000 0628     		cmp	r0, #6
 438 0002 56D8     		bhi	.L67
 439 0004 DFE800F0 		tbb	[pc, r0]
 440              	.L60:
 441 0008 12       		.byte	(.L66-.L60)/2
 442 0009 20       		.byte	(.L65-.L60)/2
ARM GAS  /tmp/ccbR6ah2.s 			page 15


 443 000a 2C       		.byte	(.L64-.L60)/2
 444 000b 36       		.byte	(.L63-.L60)/2
 445 000c 40       		.byte	(.L62-.L60)/2
 446 000d 4A       		.byte	(.L61-.L60)/2
 447 000e 04       		.byte	(.L59-.L60)/2
 448 000f 00       		.p2align 1
 449              	.L59:
 311:Drivers/STM32G4xx_HAL_Driver/Src/stm32g4xx_hal_pwr_ex.c ****   {
 312:Drivers/STM32G4xx_HAL_Driver/Src/stm32g4xx_hal_pwr_ex.c ****     case PWR_GPIO_A:
 313:Drivers/STM32G4xx_HAL_Driver/Src/stm32g4xx_hal_pwr_ex.c ****        SET_BIT(PWR->PUCRA, (GPIONumber & (~(PWR_GPIO_BIT_14))));
 314:Drivers/STM32G4xx_HAL_Driver/Src/stm32g4xx_hal_pwr_ex.c ****        CLEAR_BIT(PWR->PDCRA, (GPIONumber & (~(PWR_GPIO_BIT_13|PWR_GPIO_BIT_15))));
 315:Drivers/STM32G4xx_HAL_Driver/Src/stm32g4xx_hal_pwr_ex.c ****        break;
 316:Drivers/STM32G4xx_HAL_Driver/Src/stm32g4xx_hal_pwr_ex.c ****     case PWR_GPIO_B:
 317:Drivers/STM32G4xx_HAL_Driver/Src/stm32g4xx_hal_pwr_ex.c ****        SET_BIT(PWR->PUCRB, GPIONumber);
 318:Drivers/STM32G4xx_HAL_Driver/Src/stm32g4xx_hal_pwr_ex.c ****        CLEAR_BIT(PWR->PDCRB, (GPIONumber & (~(PWR_GPIO_BIT_4))));
 319:Drivers/STM32G4xx_HAL_Driver/Src/stm32g4xx_hal_pwr_ex.c ****        break;
 320:Drivers/STM32G4xx_HAL_Driver/Src/stm32g4xx_hal_pwr_ex.c ****     case PWR_GPIO_C:
 321:Drivers/STM32G4xx_HAL_Driver/Src/stm32g4xx_hal_pwr_ex.c ****        SET_BIT(PWR->PUCRC, GPIONumber);
 322:Drivers/STM32G4xx_HAL_Driver/Src/stm32g4xx_hal_pwr_ex.c ****        CLEAR_BIT(PWR->PDCRC, GPIONumber);
 323:Drivers/STM32G4xx_HAL_Driver/Src/stm32g4xx_hal_pwr_ex.c ****        break;
 324:Drivers/STM32G4xx_HAL_Driver/Src/stm32g4xx_hal_pwr_ex.c ****     case PWR_GPIO_D:
 325:Drivers/STM32G4xx_HAL_Driver/Src/stm32g4xx_hal_pwr_ex.c ****        SET_BIT(PWR->PUCRD, GPIONumber);
 326:Drivers/STM32G4xx_HAL_Driver/Src/stm32g4xx_hal_pwr_ex.c ****        CLEAR_BIT(PWR->PDCRD, GPIONumber);
 327:Drivers/STM32G4xx_HAL_Driver/Src/stm32g4xx_hal_pwr_ex.c ****        break;
 328:Drivers/STM32G4xx_HAL_Driver/Src/stm32g4xx_hal_pwr_ex.c ****     case PWR_GPIO_E:
 329:Drivers/STM32G4xx_HAL_Driver/Src/stm32g4xx_hal_pwr_ex.c ****        SET_BIT(PWR->PUCRE, GPIONumber);
 330:Drivers/STM32G4xx_HAL_Driver/Src/stm32g4xx_hal_pwr_ex.c ****        CLEAR_BIT(PWR->PDCRE, GPIONumber);
 331:Drivers/STM32G4xx_HAL_Driver/Src/stm32g4xx_hal_pwr_ex.c ****        break;
 332:Drivers/STM32G4xx_HAL_Driver/Src/stm32g4xx_hal_pwr_ex.c ****     case PWR_GPIO_F:
 333:Drivers/STM32G4xx_HAL_Driver/Src/stm32g4xx_hal_pwr_ex.c ****        SET_BIT(PWR->PUCRF, (GPIONumber & PWR_PORTF_AVAILABLE_PINS));
 334:Drivers/STM32G4xx_HAL_Driver/Src/stm32g4xx_hal_pwr_ex.c ****        CLEAR_BIT(PWR->PDCRF, (GPIONumber & PWR_PORTF_AVAILABLE_PINS));
 335:Drivers/STM32G4xx_HAL_Driver/Src/stm32g4xx_hal_pwr_ex.c ****        break;
 336:Drivers/STM32G4xx_HAL_Driver/Src/stm32g4xx_hal_pwr_ex.c ****     case PWR_GPIO_G:
 337:Drivers/STM32G4xx_HAL_Driver/Src/stm32g4xx_hal_pwr_ex.c ****        SET_BIT(PWR->PUCRG, (GPIONumber & PWR_PORTG_AVAILABLE_PINS));
 450              		.loc 1 337 8 view .LVU100
 451 0010 294B     		ldr	r3, .L68
 452 0012 186D     		ldr	r0, [r3, #80]
 453              	.LVL17:
 454              		.loc 1 337 8 is_stmt 0 view .LVU101
 455 0014 C1F30A02 		ubfx	r2, r1, #0, #11
 456 0018 0243     		orrs	r2, r2, r0
 457 001a 1A65     		str	r2, [r3, #80]
 338:Drivers/STM32G4xx_HAL_Driver/Src/stm32g4xx_hal_pwr_ex.c ****        CLEAR_BIT(PWR->PDCRG, ((GPIONumber & PWR_PORTG_AVAILABLE_PINS) & (~(PWR_GPIO_BIT_10))));
 458              		.loc 1 338 8 is_stmt 1 view .LVU102
 459 001c 5A6D     		ldr	r2, [r3, #84]
 460 001e C1F30901 		ubfx	r1, r1, #0, #10
 461              	.LVL18:
 462              		.loc 1 338 8 is_stmt 0 view .LVU103
 463 0022 22EA0101 		bic	r1, r2, r1
 464 0026 5965     		str	r1, [r3, #84]
 339:Drivers/STM32G4xx_HAL_Driver/Src/stm32g4xx_hal_pwr_ex.c ****        break;
 465              		.loc 1 339 8 is_stmt 1 view .LVU104
 305:Drivers/STM32G4xx_HAL_Driver/Src/stm32g4xx_hal_pwr_ex.c **** 
 466              		.loc 1 305 21 is_stmt 0 view .LVU105
 467 0028 0020     		movs	r0, #0
 468              		.loc 1 339 8 view .LVU106
 469 002a 7047     		bx	lr
ARM GAS  /tmp/ccbR6ah2.s 			page 16


 470              	.LVL19:
 471              	.L66:
 313:Drivers/STM32G4xx_HAL_Driver/Src/stm32g4xx_hal_pwr_ex.c ****        CLEAR_BIT(PWR->PDCRA, (GPIONumber & (~(PWR_GPIO_BIT_13|PWR_GPIO_BIT_15))));
 472              		.loc 1 313 8 is_stmt 1 view .LVU107
 473 002c 224B     		ldr	r3, .L68
 474 002e 186A     		ldr	r0, [r3, #32]
 475              	.LVL20:
 313:Drivers/STM32G4xx_HAL_Driver/Src/stm32g4xx_hal_pwr_ex.c ****        CLEAR_BIT(PWR->PDCRA, (GPIONumber & (~(PWR_GPIO_BIT_13|PWR_GPIO_BIT_15))));
 476              		.loc 1 313 8 is_stmt 0 view .LVU108
 477 0030 21F48042 		bic	r2, r1, #16384
 478 0034 0243     		orrs	r2, r2, r0
 479 0036 1A62     		str	r2, [r3, #32]
 314:Drivers/STM32G4xx_HAL_Driver/Src/stm32g4xx_hal_pwr_ex.c ****        break;
 480              		.loc 1 314 8 is_stmt 1 view .LVU109
 481 0038 5A6A     		ldr	r2, [r3, #36]
 482 003a 21F42041 		bic	r1, r1, #40960
 483              	.LVL21:
 314:Drivers/STM32G4xx_HAL_Driver/Src/stm32g4xx_hal_pwr_ex.c ****        break;
 484              		.loc 1 314 8 is_stmt 0 view .LVU110
 485 003e 22EA0101 		bic	r1, r2, r1
 486 0042 5962     		str	r1, [r3, #36]
 315:Drivers/STM32G4xx_HAL_Driver/Src/stm32g4xx_hal_pwr_ex.c ****     case PWR_GPIO_B:
 487              		.loc 1 315 8 is_stmt 1 view .LVU111
 305:Drivers/STM32G4xx_HAL_Driver/Src/stm32g4xx_hal_pwr_ex.c **** 
 488              		.loc 1 305 21 is_stmt 0 view .LVU112
 489 0044 0020     		movs	r0, #0
 315:Drivers/STM32G4xx_HAL_Driver/Src/stm32g4xx_hal_pwr_ex.c ****     case PWR_GPIO_B:
 490              		.loc 1 315 8 view .LVU113
 491 0046 7047     		bx	lr
 492              	.LVL22:
 493              	.L65:
 317:Drivers/STM32G4xx_HAL_Driver/Src/stm32g4xx_hal_pwr_ex.c ****        CLEAR_BIT(PWR->PDCRB, (GPIONumber & (~(PWR_GPIO_BIT_4))));
 494              		.loc 1 317 8 is_stmt 1 view .LVU114
 495 0048 1B4B     		ldr	r3, .L68
 496 004a 9A6A     		ldr	r2, [r3, #40]
 497 004c 0A43     		orrs	r2, r2, r1
 498 004e 9A62     		str	r2, [r3, #40]
 318:Drivers/STM32G4xx_HAL_Driver/Src/stm32g4xx_hal_pwr_ex.c ****        break;
 499              		.loc 1 318 8 view .LVU115
 500 0050 DA6A     		ldr	r2, [r3, #44]
 501 0052 21F01001 		bic	r1, r1, #16
 502              	.LVL23:
 318:Drivers/STM32G4xx_HAL_Driver/Src/stm32g4xx_hal_pwr_ex.c ****        break;
 503              		.loc 1 318 8 is_stmt 0 view .LVU116
 504 0056 22EA0101 		bic	r1, r2, r1
 505 005a D962     		str	r1, [r3, #44]
 319:Drivers/STM32G4xx_HAL_Driver/Src/stm32g4xx_hal_pwr_ex.c ****     case PWR_GPIO_C:
 506              		.loc 1 319 8 is_stmt 1 view .LVU117
 305:Drivers/STM32G4xx_HAL_Driver/Src/stm32g4xx_hal_pwr_ex.c **** 
 507              		.loc 1 305 21 is_stmt 0 view .LVU118
 508 005c 0020     		movs	r0, #0
 509              	.LVL24:
 319:Drivers/STM32G4xx_HAL_Driver/Src/stm32g4xx_hal_pwr_ex.c ****     case PWR_GPIO_C:
 510              		.loc 1 319 8 view .LVU119
 511 005e 7047     		bx	lr
 512              	.LVL25:
 513              	.L64:
ARM GAS  /tmp/ccbR6ah2.s 			page 17


 321:Drivers/STM32G4xx_HAL_Driver/Src/stm32g4xx_hal_pwr_ex.c ****        CLEAR_BIT(PWR->PDCRC, GPIONumber);
 514              		.loc 1 321 8 is_stmt 1 view .LVU120
 515 0060 154B     		ldr	r3, .L68
 516 0062 1A6B     		ldr	r2, [r3, #48]
 517 0064 0A43     		orrs	r2, r2, r1
 518 0066 1A63     		str	r2, [r3, #48]
 322:Drivers/STM32G4xx_HAL_Driver/Src/stm32g4xx_hal_pwr_ex.c ****        break;
 519              		.loc 1 322 8 view .LVU121
 520 0068 5A6B     		ldr	r2, [r3, #52]
 521 006a 22EA0101 		bic	r1, r2, r1
 522              	.LVL26:
 322:Drivers/STM32G4xx_HAL_Driver/Src/stm32g4xx_hal_pwr_ex.c ****        break;
 523              		.loc 1 322 8 is_stmt 0 view .LVU122
 524 006e 5963     		str	r1, [r3, #52]
 323:Drivers/STM32G4xx_HAL_Driver/Src/stm32g4xx_hal_pwr_ex.c ****     case PWR_GPIO_D:
 525              		.loc 1 323 8 is_stmt 1 view .LVU123
 305:Drivers/STM32G4xx_HAL_Driver/Src/stm32g4xx_hal_pwr_ex.c **** 
 526              		.loc 1 305 21 is_stmt 0 view .LVU124
 527 0070 0020     		movs	r0, #0
 528              	.LVL27:
 323:Drivers/STM32G4xx_HAL_Driver/Src/stm32g4xx_hal_pwr_ex.c ****     case PWR_GPIO_D:
 529              		.loc 1 323 8 view .LVU125
 530 0072 7047     		bx	lr
 531              	.LVL28:
 532              	.L63:
 325:Drivers/STM32G4xx_HAL_Driver/Src/stm32g4xx_hal_pwr_ex.c ****        CLEAR_BIT(PWR->PDCRD, GPIONumber);
 533              		.loc 1 325 8 is_stmt 1 view .LVU126
 534 0074 104B     		ldr	r3, .L68
 535 0076 9A6B     		ldr	r2, [r3, #56]
 536 0078 0A43     		orrs	r2, r2, r1
 537 007a 9A63     		str	r2, [r3, #56]
 326:Drivers/STM32G4xx_HAL_Driver/Src/stm32g4xx_hal_pwr_ex.c ****        break;
 538              		.loc 1 326 8 view .LVU127
 539 007c DA6B     		ldr	r2, [r3, #60]
 540 007e 22EA0101 		bic	r1, r2, r1
 541              	.LVL29:
 326:Drivers/STM32G4xx_HAL_Driver/Src/stm32g4xx_hal_pwr_ex.c ****        break;
 542              		.loc 1 326 8 is_stmt 0 view .LVU128
 543 0082 D963     		str	r1, [r3, #60]
 327:Drivers/STM32G4xx_HAL_Driver/Src/stm32g4xx_hal_pwr_ex.c ****     case PWR_GPIO_E:
 544              		.loc 1 327 8 is_stmt 1 view .LVU129
 305:Drivers/STM32G4xx_HAL_Driver/Src/stm32g4xx_hal_pwr_ex.c **** 
 545              		.loc 1 305 21 is_stmt 0 view .LVU130
 546 0084 0020     		movs	r0, #0
 547              	.LVL30:
 327:Drivers/STM32G4xx_HAL_Driver/Src/stm32g4xx_hal_pwr_ex.c ****     case PWR_GPIO_E:
 548              		.loc 1 327 8 view .LVU131
 549 0086 7047     		bx	lr
 550              	.LVL31:
 551              	.L62:
 329:Drivers/STM32G4xx_HAL_Driver/Src/stm32g4xx_hal_pwr_ex.c ****        CLEAR_BIT(PWR->PDCRE, GPIONumber);
 552              		.loc 1 329 8 is_stmt 1 view .LVU132
 553 0088 0B4B     		ldr	r3, .L68
 554 008a 1A6C     		ldr	r2, [r3, #64]
 555 008c 0A43     		orrs	r2, r2, r1
 556 008e 1A64     		str	r2, [r3, #64]
 330:Drivers/STM32G4xx_HAL_Driver/Src/stm32g4xx_hal_pwr_ex.c ****        break;
ARM GAS  /tmp/ccbR6ah2.s 			page 18


 557              		.loc 1 330 8 view .LVU133
 558 0090 5A6C     		ldr	r2, [r3, #68]
 559 0092 22EA0101 		bic	r1, r2, r1
 560              	.LVL32:
 330:Drivers/STM32G4xx_HAL_Driver/Src/stm32g4xx_hal_pwr_ex.c ****        break;
 561              		.loc 1 330 8 is_stmt 0 view .LVU134
 562 0096 5964     		str	r1, [r3, #68]
 331:Drivers/STM32G4xx_HAL_Driver/Src/stm32g4xx_hal_pwr_ex.c ****     case PWR_GPIO_F:
 563              		.loc 1 331 8 is_stmt 1 view .LVU135
 305:Drivers/STM32G4xx_HAL_Driver/Src/stm32g4xx_hal_pwr_ex.c **** 
 564              		.loc 1 305 21 is_stmt 0 view .LVU136
 565 0098 0020     		movs	r0, #0
 566              	.LVL33:
 331:Drivers/STM32G4xx_HAL_Driver/Src/stm32g4xx_hal_pwr_ex.c ****     case PWR_GPIO_F:
 567              		.loc 1 331 8 view .LVU137
 568 009a 7047     		bx	lr
 569              	.LVL34:
 570              	.L61:
 333:Drivers/STM32G4xx_HAL_Driver/Src/stm32g4xx_hal_pwr_ex.c ****        CLEAR_BIT(PWR->PDCRF, (GPIONumber & PWR_PORTF_AVAILABLE_PINS));
 571              		.loc 1 333 8 is_stmt 1 view .LVU138
 572 009c 064B     		ldr	r3, .L68
 573 009e 9A6C     		ldr	r2, [r3, #72]
 574 00a0 89B2     		uxth	r1, r1
 575              	.LVL35:
 333:Drivers/STM32G4xx_HAL_Driver/Src/stm32g4xx_hal_pwr_ex.c ****        CLEAR_BIT(PWR->PDCRF, (GPIONumber & PWR_PORTF_AVAILABLE_PINS));
 576              		.loc 1 333 8 is_stmt 0 view .LVU139
 577 00a2 0A43     		orrs	r2, r2, r1
 578 00a4 9A64     		str	r2, [r3, #72]
 334:Drivers/STM32G4xx_HAL_Driver/Src/stm32g4xx_hal_pwr_ex.c ****        break;
 579              		.loc 1 334 8 is_stmt 1 view .LVU140
 580 00a6 DA6C     		ldr	r2, [r3, #76]
 581 00a8 22EA0101 		bic	r1, r2, r1
 582 00ac D964     		str	r1, [r3, #76]
 335:Drivers/STM32G4xx_HAL_Driver/Src/stm32g4xx_hal_pwr_ex.c ****     case PWR_GPIO_G:
 583              		.loc 1 335 8 view .LVU141
 305:Drivers/STM32G4xx_HAL_Driver/Src/stm32g4xx_hal_pwr_ex.c **** 
 584              		.loc 1 305 21 is_stmt 0 view .LVU142
 585 00ae 0020     		movs	r0, #0
 586              	.LVL36:
 335:Drivers/STM32G4xx_HAL_Driver/Src/stm32g4xx_hal_pwr_ex.c ****     case PWR_GPIO_G:
 587              		.loc 1 335 8 view .LVU143
 588 00b0 7047     		bx	lr
 589              	.LVL37:
 590              	.L67:
 305:Drivers/STM32G4xx_HAL_Driver/Src/stm32g4xx_hal_pwr_ex.c **** 
 591              		.loc 1 305 21 view .LVU144
 592 00b2 0120     		movs	r0, #1
 593              	.LVL38:
 340:Drivers/STM32G4xx_HAL_Driver/Src/stm32g4xx_hal_pwr_ex.c ****     default:
 341:Drivers/STM32G4xx_HAL_Driver/Src/stm32g4xx_hal_pwr_ex.c ****       status = HAL_ERROR;
 342:Drivers/STM32G4xx_HAL_Driver/Src/stm32g4xx_hal_pwr_ex.c ****       break;
 343:Drivers/STM32G4xx_HAL_Driver/Src/stm32g4xx_hal_pwr_ex.c ****   }
 344:Drivers/STM32G4xx_HAL_Driver/Src/stm32g4xx_hal_pwr_ex.c **** 
 345:Drivers/STM32G4xx_HAL_Driver/Src/stm32g4xx_hal_pwr_ex.c ****   return status;
 594              		.loc 1 345 3 is_stmt 1 view .LVU145
 346:Drivers/STM32G4xx_HAL_Driver/Src/stm32g4xx_hal_pwr_ex.c **** }
 595              		.loc 1 346 1 is_stmt 0 view .LVU146
ARM GAS  /tmp/ccbR6ah2.s 			page 19


 596 00b4 7047     		bx	lr
 597              	.L69:
 598 00b6 00BF     		.align	2
 599              	.L68:
 600 00b8 00700040 		.word	1073770496
 601              		.cfi_endproc
 602              	.LFE335:
 604              		.section	.text.HAL_PWREx_DisableGPIOPullUp,"ax",%progbits
 605              		.align	1
 606              		.p2align 2,,3
 607              		.global	HAL_PWREx_DisableGPIOPullUp
 608              		.syntax unified
 609              		.thumb
 610              		.thumb_func
 611              		.fpu fpv4-sp-d16
 613              	HAL_PWREx_DisableGPIOPullUp:
 614              	.LVL39:
 615              	.LFB336:
 347:Drivers/STM32G4xx_HAL_Driver/Src/stm32g4xx_hal_pwr_ex.c **** 
 348:Drivers/STM32G4xx_HAL_Driver/Src/stm32g4xx_hal_pwr_ex.c **** 
 349:Drivers/STM32G4xx_HAL_Driver/Src/stm32g4xx_hal_pwr_ex.c **** /**
 350:Drivers/STM32G4xx_HAL_Driver/Src/stm32g4xx_hal_pwr_ex.c ****   * @brief Disable GPIO pull-up state in Standby mode and Shutdown modes.
 351:Drivers/STM32G4xx_HAL_Driver/Src/stm32g4xx_hal_pwr_ex.c ****   * @note  Reset the relevant PUy bits of PWR_PUCRx register used to configure the I/O
 352:Drivers/STM32G4xx_HAL_Driver/Src/stm32g4xx_hal_pwr_ex.c ****   *        in pull-up state in Standby and Shutdown modes.
 353:Drivers/STM32G4xx_HAL_Driver/Src/stm32g4xx_hal_pwr_ex.c ****   * @note  Even if a PUy bit to reset is reserved, the other PUy bits entered as input
 354:Drivers/STM32G4xx_HAL_Driver/Src/stm32g4xx_hal_pwr_ex.c ****   *        parameter at the same time are reset.
 355:Drivers/STM32G4xx_HAL_Driver/Src/stm32g4xx_hal_pwr_ex.c ****   * @param  GPIO: Specifies the IO port. This parameter can be PWR_GPIO_A, ..., PWR_GPIO_G
 356:Drivers/STM32G4xx_HAL_Driver/Src/stm32g4xx_hal_pwr_ex.c ****   *          (or PWR_GPIO_I depending on the devices) to select the GPIO peripheral.
 357:Drivers/STM32G4xx_HAL_Driver/Src/stm32g4xx_hal_pwr_ex.c ****   * @param  GPIONumber: Specify the I/O pins numbers.
 358:Drivers/STM32G4xx_HAL_Driver/Src/stm32g4xx_hal_pwr_ex.c ****   *         This parameter can be one of the following values:
 359:Drivers/STM32G4xx_HAL_Driver/Src/stm32g4xx_hal_pwr_ex.c ****   *         PWR_GPIO_BIT_0, ..., PWR_GPIO_BIT_15 (except for the port where less
 360:Drivers/STM32G4xx_HAL_Driver/Src/stm32g4xx_hal_pwr_ex.c ****   *         I/O pins are available) or the logical OR of several of them to reset
 361:Drivers/STM32G4xx_HAL_Driver/Src/stm32g4xx_hal_pwr_ex.c ****   *         several bits for a given port in a single API call.
 362:Drivers/STM32G4xx_HAL_Driver/Src/stm32g4xx_hal_pwr_ex.c ****   * @retval HAL Status
 363:Drivers/STM32G4xx_HAL_Driver/Src/stm32g4xx_hal_pwr_ex.c ****   */
 364:Drivers/STM32G4xx_HAL_Driver/Src/stm32g4xx_hal_pwr_ex.c **** HAL_StatusTypeDef HAL_PWREx_DisableGPIOPullUp(uint32_t GPIO, uint32_t GPIONumber)
 365:Drivers/STM32G4xx_HAL_Driver/Src/stm32g4xx_hal_pwr_ex.c **** {
 616              		.loc 1 365 1 is_stmt 1 view -0
 617              		.cfi_startproc
 618              		@ args = 0, pretend = 0, frame = 0
 619              		@ frame_needed = 0, uses_anonymous_args = 0
 620              		@ link register save eliminated.
 366:Drivers/STM32G4xx_HAL_Driver/Src/stm32g4xx_hal_pwr_ex.c ****   HAL_StatusTypeDef status = HAL_OK;
 621              		.loc 1 366 3 view .LVU148
 367:Drivers/STM32G4xx_HAL_Driver/Src/stm32g4xx_hal_pwr_ex.c **** 
 368:Drivers/STM32G4xx_HAL_Driver/Src/stm32g4xx_hal_pwr_ex.c ****   assert_param(IS_PWR_GPIO(GPIO));
 622              		.loc 1 368 3 view .LVU149
 369:Drivers/STM32G4xx_HAL_Driver/Src/stm32g4xx_hal_pwr_ex.c ****   assert_param(IS_PWR_GPIO_BIT_NUMBER(GPIONumber));
 623              		.loc 1 369 3 view .LVU150
 370:Drivers/STM32G4xx_HAL_Driver/Src/stm32g4xx_hal_pwr_ex.c **** 
 371:Drivers/STM32G4xx_HAL_Driver/Src/stm32g4xx_hal_pwr_ex.c ****   switch (GPIO)
 624              		.loc 1 371 3 view .LVU151
 625 0000 0628     		cmp	r0, #6
 626 0002 3BD8     		bhi	.L80
 627 0004 DFE800F0 		tbb	[pc, r0]
 628              	.L73:
 629 0008 0D       		.byte	(.L79-.L73)/2
ARM GAS  /tmp/ccbR6ah2.s 			page 20


 630 0009 16       		.byte	(.L78-.L73)/2
 631 000a 1D       		.byte	(.L77-.L73)/2
 632 000b 24       		.byte	(.L76-.L73)/2
 633 000c 2B       		.byte	(.L75-.L73)/2
 634 000d 32       		.byte	(.L74-.L73)/2
 635 000e 04       		.byte	(.L72-.L73)/2
 636 000f 00       		.p2align 1
 637              	.L72:
 372:Drivers/STM32G4xx_HAL_Driver/Src/stm32g4xx_hal_pwr_ex.c ****   {
 373:Drivers/STM32G4xx_HAL_Driver/Src/stm32g4xx_hal_pwr_ex.c ****     case PWR_GPIO_A:
 374:Drivers/STM32G4xx_HAL_Driver/Src/stm32g4xx_hal_pwr_ex.c ****        CLEAR_BIT(PWR->PUCRA, (GPIONumber & (~(PWR_GPIO_BIT_14))));
 375:Drivers/STM32G4xx_HAL_Driver/Src/stm32g4xx_hal_pwr_ex.c ****        break;
 376:Drivers/STM32G4xx_HAL_Driver/Src/stm32g4xx_hal_pwr_ex.c ****     case PWR_GPIO_B:
 377:Drivers/STM32G4xx_HAL_Driver/Src/stm32g4xx_hal_pwr_ex.c ****        CLEAR_BIT(PWR->PUCRB, GPIONumber);
 378:Drivers/STM32G4xx_HAL_Driver/Src/stm32g4xx_hal_pwr_ex.c ****        break;
 379:Drivers/STM32G4xx_HAL_Driver/Src/stm32g4xx_hal_pwr_ex.c ****     case PWR_GPIO_C:
 380:Drivers/STM32G4xx_HAL_Driver/Src/stm32g4xx_hal_pwr_ex.c ****        CLEAR_BIT(PWR->PUCRC, GPIONumber);
 381:Drivers/STM32G4xx_HAL_Driver/Src/stm32g4xx_hal_pwr_ex.c ****        break;
 382:Drivers/STM32G4xx_HAL_Driver/Src/stm32g4xx_hal_pwr_ex.c ****     case PWR_GPIO_D:
 383:Drivers/STM32G4xx_HAL_Driver/Src/stm32g4xx_hal_pwr_ex.c ****        CLEAR_BIT(PWR->PUCRD, GPIONumber);
 384:Drivers/STM32G4xx_HAL_Driver/Src/stm32g4xx_hal_pwr_ex.c ****        break;
 385:Drivers/STM32G4xx_HAL_Driver/Src/stm32g4xx_hal_pwr_ex.c ****     case PWR_GPIO_E:
 386:Drivers/STM32G4xx_HAL_Driver/Src/stm32g4xx_hal_pwr_ex.c ****        CLEAR_BIT(PWR->PUCRE, GPIONumber);
 387:Drivers/STM32G4xx_HAL_Driver/Src/stm32g4xx_hal_pwr_ex.c ****        break;
 388:Drivers/STM32G4xx_HAL_Driver/Src/stm32g4xx_hal_pwr_ex.c ****     case PWR_GPIO_F:
 389:Drivers/STM32G4xx_HAL_Driver/Src/stm32g4xx_hal_pwr_ex.c ****        CLEAR_BIT(PWR->PUCRF, (GPIONumber & PWR_PORTF_AVAILABLE_PINS));
 390:Drivers/STM32G4xx_HAL_Driver/Src/stm32g4xx_hal_pwr_ex.c ****        break;
 391:Drivers/STM32G4xx_HAL_Driver/Src/stm32g4xx_hal_pwr_ex.c ****     case PWR_GPIO_G:
 392:Drivers/STM32G4xx_HAL_Driver/Src/stm32g4xx_hal_pwr_ex.c ****        CLEAR_BIT(PWR->PUCRG, (GPIONumber & PWR_PORTG_AVAILABLE_PINS));
 638              		.loc 1 392 8 view .LVU152
 639 0010 1B4A     		ldr	r2, .L81
 640 0012 136D     		ldr	r3, [r2, #80]
 641 0014 C1F30A01 		ubfx	r1, r1, #0, #11
 642              	.LVL40:
 643              		.loc 1 392 8 is_stmt 0 view .LVU153
 644 0018 23EA0101 		bic	r1, r3, r1
 645 001c 1165     		str	r1, [r2, #80]
 393:Drivers/STM32G4xx_HAL_Driver/Src/stm32g4xx_hal_pwr_ex.c ****        break;
 646              		.loc 1 393 8 is_stmt 1 view .LVU154
 366:Drivers/STM32G4xx_HAL_Driver/Src/stm32g4xx_hal_pwr_ex.c **** 
 647              		.loc 1 366 21 is_stmt 0 view .LVU155
 648 001e 0020     		movs	r0, #0
 649              	.LVL41:
 650              		.loc 1 393 8 view .LVU156
 651 0020 7047     		bx	lr
 652              	.LVL42:
 653              	.L79:
 374:Drivers/STM32G4xx_HAL_Driver/Src/stm32g4xx_hal_pwr_ex.c ****        break;
 654              		.loc 1 374 8 is_stmt 1 view .LVU157
 655 0022 174A     		ldr	r2, .L81
 656 0024 136A     		ldr	r3, [r2, #32]
 657 0026 21F48041 		bic	r1, r1, #16384
 658              	.LVL43:
 374:Drivers/STM32G4xx_HAL_Driver/Src/stm32g4xx_hal_pwr_ex.c ****        break;
 659              		.loc 1 374 8 is_stmt 0 view .LVU158
 660 002a 23EA0101 		bic	r1, r3, r1
 661 002e 1162     		str	r1, [r2, #32]
ARM GAS  /tmp/ccbR6ah2.s 			page 21


 375:Drivers/STM32G4xx_HAL_Driver/Src/stm32g4xx_hal_pwr_ex.c ****     case PWR_GPIO_B:
 662              		.loc 1 375 8 is_stmt 1 view .LVU159
 366:Drivers/STM32G4xx_HAL_Driver/Src/stm32g4xx_hal_pwr_ex.c **** 
 663              		.loc 1 366 21 is_stmt 0 view .LVU160
 664 0030 0020     		movs	r0, #0
 665              	.LVL44:
 375:Drivers/STM32G4xx_HAL_Driver/Src/stm32g4xx_hal_pwr_ex.c ****     case PWR_GPIO_B:
 666              		.loc 1 375 8 view .LVU161
 667 0032 7047     		bx	lr
 668              	.LVL45:
 669              	.L78:
 377:Drivers/STM32G4xx_HAL_Driver/Src/stm32g4xx_hal_pwr_ex.c ****        break;
 670              		.loc 1 377 8 is_stmt 1 view .LVU162
 671 0034 124A     		ldr	r2, .L81
 672 0036 936A     		ldr	r3, [r2, #40]
 673 0038 23EA0101 		bic	r1, r3, r1
 674              	.LVL46:
 377:Drivers/STM32G4xx_HAL_Driver/Src/stm32g4xx_hal_pwr_ex.c ****        break;
 675              		.loc 1 377 8 is_stmt 0 view .LVU163
 676 003c 9162     		str	r1, [r2, #40]
 378:Drivers/STM32G4xx_HAL_Driver/Src/stm32g4xx_hal_pwr_ex.c ****     case PWR_GPIO_C:
 677              		.loc 1 378 8 is_stmt 1 view .LVU164
 366:Drivers/STM32G4xx_HAL_Driver/Src/stm32g4xx_hal_pwr_ex.c **** 
 678              		.loc 1 366 21 is_stmt 0 view .LVU165
 679 003e 0020     		movs	r0, #0
 680              	.LVL47:
 378:Drivers/STM32G4xx_HAL_Driver/Src/stm32g4xx_hal_pwr_ex.c ****     case PWR_GPIO_C:
 681              		.loc 1 378 8 view .LVU166
 682 0040 7047     		bx	lr
 683              	.LVL48:
 684              	.L77:
 380:Drivers/STM32G4xx_HAL_Driver/Src/stm32g4xx_hal_pwr_ex.c ****        break;
 685              		.loc 1 380 8 is_stmt 1 view .LVU167
 686 0042 0F4A     		ldr	r2, .L81
 687 0044 136B     		ldr	r3, [r2, #48]
 688 0046 23EA0101 		bic	r1, r3, r1
 689              	.LVL49:
 380:Drivers/STM32G4xx_HAL_Driver/Src/stm32g4xx_hal_pwr_ex.c ****        break;
 690              		.loc 1 380 8 is_stmt 0 view .LVU168
 691 004a 1163     		str	r1, [r2, #48]
 381:Drivers/STM32G4xx_HAL_Driver/Src/stm32g4xx_hal_pwr_ex.c ****     case PWR_GPIO_D:
 692              		.loc 1 381 8 is_stmt 1 view .LVU169
 366:Drivers/STM32G4xx_HAL_Driver/Src/stm32g4xx_hal_pwr_ex.c **** 
 693              		.loc 1 366 21 is_stmt 0 view .LVU170
 694 004c 0020     		movs	r0, #0
 695              	.LVL50:
 381:Drivers/STM32G4xx_HAL_Driver/Src/stm32g4xx_hal_pwr_ex.c ****     case PWR_GPIO_D:
 696              		.loc 1 381 8 view .LVU171
 697 004e 7047     		bx	lr
 698              	.LVL51:
 699              	.L76:
 383:Drivers/STM32G4xx_HAL_Driver/Src/stm32g4xx_hal_pwr_ex.c ****        break;
 700              		.loc 1 383 8 is_stmt 1 view .LVU172
 701 0050 0B4A     		ldr	r2, .L81
 702 0052 936B     		ldr	r3, [r2, #56]
 703 0054 23EA0101 		bic	r1, r3, r1
 704              	.LVL52:
ARM GAS  /tmp/ccbR6ah2.s 			page 22


 383:Drivers/STM32G4xx_HAL_Driver/Src/stm32g4xx_hal_pwr_ex.c ****        break;
 705              		.loc 1 383 8 is_stmt 0 view .LVU173
 706 0058 9163     		str	r1, [r2, #56]
 384:Drivers/STM32G4xx_HAL_Driver/Src/stm32g4xx_hal_pwr_ex.c ****     case PWR_GPIO_E:
 707              		.loc 1 384 8 is_stmt 1 view .LVU174
 366:Drivers/STM32G4xx_HAL_Driver/Src/stm32g4xx_hal_pwr_ex.c **** 
 708              		.loc 1 366 21 is_stmt 0 view .LVU175
 709 005a 0020     		movs	r0, #0
 710              	.LVL53:
 384:Drivers/STM32G4xx_HAL_Driver/Src/stm32g4xx_hal_pwr_ex.c ****     case PWR_GPIO_E:
 711              		.loc 1 384 8 view .LVU176
 712 005c 7047     		bx	lr
 713              	.LVL54:
 714              	.L75:
 386:Drivers/STM32G4xx_HAL_Driver/Src/stm32g4xx_hal_pwr_ex.c ****        break;
 715              		.loc 1 386 8 is_stmt 1 view .LVU177
 716 005e 084A     		ldr	r2, .L81
 717 0060 136C     		ldr	r3, [r2, #64]
 718 0062 23EA0101 		bic	r1, r3, r1
 719              	.LVL55:
 386:Drivers/STM32G4xx_HAL_Driver/Src/stm32g4xx_hal_pwr_ex.c ****        break;
 720              		.loc 1 386 8 is_stmt 0 view .LVU178
 721 0066 1164     		str	r1, [r2, #64]
 387:Drivers/STM32G4xx_HAL_Driver/Src/stm32g4xx_hal_pwr_ex.c ****     case PWR_GPIO_F:
 722              		.loc 1 387 8 is_stmt 1 view .LVU179
 366:Drivers/STM32G4xx_HAL_Driver/Src/stm32g4xx_hal_pwr_ex.c **** 
 723              		.loc 1 366 21 is_stmt 0 view .LVU180
 724 0068 0020     		movs	r0, #0
 725              	.LVL56:
 387:Drivers/STM32G4xx_HAL_Driver/Src/stm32g4xx_hal_pwr_ex.c ****     case PWR_GPIO_F:
 726              		.loc 1 387 8 view .LVU181
 727 006a 7047     		bx	lr
 728              	.LVL57:
 729              	.L74:
 389:Drivers/STM32G4xx_HAL_Driver/Src/stm32g4xx_hal_pwr_ex.c ****        break;
 730              		.loc 1 389 8 is_stmt 1 view .LVU182
 731 006c 044A     		ldr	r2, .L81
 732 006e 936C     		ldr	r3, [r2, #72]
 733 0070 89B2     		uxth	r1, r1
 734              	.LVL58:
 389:Drivers/STM32G4xx_HAL_Driver/Src/stm32g4xx_hal_pwr_ex.c ****        break;
 735              		.loc 1 389 8 is_stmt 0 view .LVU183
 736 0072 23EA0101 		bic	r1, r3, r1
 737 0076 9164     		str	r1, [r2, #72]
 390:Drivers/STM32G4xx_HAL_Driver/Src/stm32g4xx_hal_pwr_ex.c ****     case PWR_GPIO_G:
 738              		.loc 1 390 8 is_stmt 1 view .LVU184
 366:Drivers/STM32G4xx_HAL_Driver/Src/stm32g4xx_hal_pwr_ex.c **** 
 739              		.loc 1 366 21 is_stmt 0 view .LVU185
 740 0078 0020     		movs	r0, #0
 741              	.LVL59:
 390:Drivers/STM32G4xx_HAL_Driver/Src/stm32g4xx_hal_pwr_ex.c ****     case PWR_GPIO_G:
 742              		.loc 1 390 8 view .LVU186
 743 007a 7047     		bx	lr
 744              	.LVL60:
 745              	.L80:
 366:Drivers/STM32G4xx_HAL_Driver/Src/stm32g4xx_hal_pwr_ex.c **** 
 746              		.loc 1 366 21 view .LVU187
ARM GAS  /tmp/ccbR6ah2.s 			page 23


 747 007c 0120     		movs	r0, #1
 748              	.LVL61:
 394:Drivers/STM32G4xx_HAL_Driver/Src/stm32g4xx_hal_pwr_ex.c ****     default:
 395:Drivers/STM32G4xx_HAL_Driver/Src/stm32g4xx_hal_pwr_ex.c ****        status = HAL_ERROR;
 396:Drivers/STM32G4xx_HAL_Driver/Src/stm32g4xx_hal_pwr_ex.c ****        break;
 397:Drivers/STM32G4xx_HAL_Driver/Src/stm32g4xx_hal_pwr_ex.c ****   }
 398:Drivers/STM32G4xx_HAL_Driver/Src/stm32g4xx_hal_pwr_ex.c **** 
 399:Drivers/STM32G4xx_HAL_Driver/Src/stm32g4xx_hal_pwr_ex.c ****   return status;
 749              		.loc 1 399 3 is_stmt 1 view .LVU188
 400:Drivers/STM32G4xx_HAL_Driver/Src/stm32g4xx_hal_pwr_ex.c **** }
 750              		.loc 1 400 1 is_stmt 0 view .LVU189
 751 007e 7047     		bx	lr
 752              	.L82:
 753              		.align	2
 754              	.L81:
 755 0080 00700040 		.word	1073770496
 756              		.cfi_endproc
 757              	.LFE336:
 759              		.section	.text.HAL_PWREx_EnableGPIOPullDown,"ax",%progbits
 760              		.align	1
 761              		.p2align 2,,3
 762              		.global	HAL_PWREx_EnableGPIOPullDown
 763              		.syntax unified
 764              		.thumb
 765              		.thumb_func
 766              		.fpu fpv4-sp-d16
 768              	HAL_PWREx_EnableGPIOPullDown:
 769              	.LVL62:
 770              	.LFB337:
 401:Drivers/STM32G4xx_HAL_Driver/Src/stm32g4xx_hal_pwr_ex.c **** 
 402:Drivers/STM32G4xx_HAL_Driver/Src/stm32g4xx_hal_pwr_ex.c **** 
 403:Drivers/STM32G4xx_HAL_Driver/Src/stm32g4xx_hal_pwr_ex.c **** 
 404:Drivers/STM32G4xx_HAL_Driver/Src/stm32g4xx_hal_pwr_ex.c **** /**
 405:Drivers/STM32G4xx_HAL_Driver/Src/stm32g4xx_hal_pwr_ex.c ****   * @brief Enable GPIO pull-down state in Standby and Shutdown modes.
 406:Drivers/STM32G4xx_HAL_Driver/Src/stm32g4xx_hal_pwr_ex.c ****   * @note  Set the relevant PDy bits of PWR_PDCRx register to configure the I/O in
 407:Drivers/STM32G4xx_HAL_Driver/Src/stm32g4xx_hal_pwr_ex.c ****   *        pull-down state in Standby and Shutdown modes.
 408:Drivers/STM32G4xx_HAL_Driver/Src/stm32g4xx_hal_pwr_ex.c ****   * @note  This state is effective in Standby and Shutdown modes only if APC bit
 409:Drivers/STM32G4xx_HAL_Driver/Src/stm32g4xx_hal_pwr_ex.c ****   *        is set through HAL_PWREx_EnablePullUpPullDownConfig() API.
 410:Drivers/STM32G4xx_HAL_Driver/Src/stm32g4xx_hal_pwr_ex.c ****   * @note  The configuration is lost when exiting the Shutdown mode due to the
 411:Drivers/STM32G4xx_HAL_Driver/Src/stm32g4xx_hal_pwr_ex.c ****   *        power-on reset, maintained when exiting the Standby mode.
 412:Drivers/STM32G4xx_HAL_Driver/Src/stm32g4xx_hal_pwr_ex.c ****   * @note  To avoid any conflict at Standby and Shutdown modes exits, the corresponding
 413:Drivers/STM32G4xx_HAL_Driver/Src/stm32g4xx_hal_pwr_ex.c ****   *        PUy bit of PWR_PUCRx register is cleared unless it is reserved.
 414:Drivers/STM32G4xx_HAL_Driver/Src/stm32g4xx_hal_pwr_ex.c ****   * @note  Even if a PDy bit to set is reserved, the other PDy bits entered as input
 415:Drivers/STM32G4xx_HAL_Driver/Src/stm32g4xx_hal_pwr_ex.c ****   *        parameter at the same time are set.
 416:Drivers/STM32G4xx_HAL_Driver/Src/stm32g4xx_hal_pwr_ex.c ****   * @param  GPIO: Specify the IO port. This parameter can be PWR_GPIO_A..PWR_GPIO_G
 417:Drivers/STM32G4xx_HAL_Driver/Src/stm32g4xx_hal_pwr_ex.c ****   *         (or PWR_GPIO_I depending on the devices) to select the GPIO peripheral.
 418:Drivers/STM32G4xx_HAL_Driver/Src/stm32g4xx_hal_pwr_ex.c ****   * @param  GPIONumber: Specify the I/O pins numbers.
 419:Drivers/STM32G4xx_HAL_Driver/Src/stm32g4xx_hal_pwr_ex.c ****   *         This parameter can be one of the following values:
 420:Drivers/STM32G4xx_HAL_Driver/Src/stm32g4xx_hal_pwr_ex.c ****   *         PWR_GPIO_BIT_0, ..., PWR_GPIO_BIT_15 (except for the port where less
 421:Drivers/STM32G4xx_HAL_Driver/Src/stm32g4xx_hal_pwr_ex.c ****   *         I/O pins are available) or the logical OR of several of them to set
 422:Drivers/STM32G4xx_HAL_Driver/Src/stm32g4xx_hal_pwr_ex.c ****   *         several bits for a given port in a single API call.
 423:Drivers/STM32G4xx_HAL_Driver/Src/stm32g4xx_hal_pwr_ex.c ****   * @retval HAL Status
 424:Drivers/STM32G4xx_HAL_Driver/Src/stm32g4xx_hal_pwr_ex.c ****   */
 425:Drivers/STM32G4xx_HAL_Driver/Src/stm32g4xx_hal_pwr_ex.c **** HAL_StatusTypeDef HAL_PWREx_EnableGPIOPullDown(uint32_t GPIO, uint32_t GPIONumber)
 426:Drivers/STM32G4xx_HAL_Driver/Src/stm32g4xx_hal_pwr_ex.c **** {
 771              		.loc 1 426 1 is_stmt 1 view -0
 772              		.cfi_startproc
ARM GAS  /tmp/ccbR6ah2.s 			page 24


 773              		@ args = 0, pretend = 0, frame = 0
 774              		@ frame_needed = 0, uses_anonymous_args = 0
 775              		@ link register save eliminated.
 427:Drivers/STM32G4xx_HAL_Driver/Src/stm32g4xx_hal_pwr_ex.c ****   HAL_StatusTypeDef status = HAL_OK;
 776              		.loc 1 427 3 view .LVU191
 428:Drivers/STM32G4xx_HAL_Driver/Src/stm32g4xx_hal_pwr_ex.c **** 
 429:Drivers/STM32G4xx_HAL_Driver/Src/stm32g4xx_hal_pwr_ex.c ****   assert_param(IS_PWR_GPIO(GPIO));
 777              		.loc 1 429 3 view .LVU192
 430:Drivers/STM32G4xx_HAL_Driver/Src/stm32g4xx_hal_pwr_ex.c ****   assert_param(IS_PWR_GPIO_BIT_NUMBER(GPIONumber));
 778              		.loc 1 430 3 view .LVU193
 431:Drivers/STM32G4xx_HAL_Driver/Src/stm32g4xx_hal_pwr_ex.c **** 
 432:Drivers/STM32G4xx_HAL_Driver/Src/stm32g4xx_hal_pwr_ex.c ****   switch (GPIO)
 779              		.loc 1 432 3 view .LVU194
 780 0000 0628     		cmp	r0, #6
 781 0002 56D8     		bhi	.L93
 782 0004 DFE800F0 		tbb	[pc, r0]
 783              	.L86:
 784 0008 12       		.byte	(.L92-.L86)/2
 785 0009 20       		.byte	(.L91-.L86)/2
 786 000a 2C       		.byte	(.L90-.L86)/2
 787 000b 36       		.byte	(.L89-.L86)/2
 788 000c 40       		.byte	(.L88-.L86)/2
 789 000d 4A       		.byte	(.L87-.L86)/2
 790 000e 04       		.byte	(.L85-.L86)/2
 791 000f 00       		.p2align 1
 792              	.L85:
 433:Drivers/STM32G4xx_HAL_Driver/Src/stm32g4xx_hal_pwr_ex.c ****   {
 434:Drivers/STM32G4xx_HAL_Driver/Src/stm32g4xx_hal_pwr_ex.c ****     case PWR_GPIO_A:
 435:Drivers/STM32G4xx_HAL_Driver/Src/stm32g4xx_hal_pwr_ex.c ****        SET_BIT(PWR->PDCRA, (GPIONumber & (~(PWR_GPIO_BIT_13|PWR_GPIO_BIT_15))));
 436:Drivers/STM32G4xx_HAL_Driver/Src/stm32g4xx_hal_pwr_ex.c ****        CLEAR_BIT(PWR->PUCRA, (GPIONumber & (~(PWR_GPIO_BIT_14))));
 437:Drivers/STM32G4xx_HAL_Driver/Src/stm32g4xx_hal_pwr_ex.c ****        break;
 438:Drivers/STM32G4xx_HAL_Driver/Src/stm32g4xx_hal_pwr_ex.c ****     case PWR_GPIO_B:
 439:Drivers/STM32G4xx_HAL_Driver/Src/stm32g4xx_hal_pwr_ex.c ****        SET_BIT(PWR->PDCRB, (GPIONumber & (~(PWR_GPIO_BIT_4))));
 440:Drivers/STM32G4xx_HAL_Driver/Src/stm32g4xx_hal_pwr_ex.c ****        CLEAR_BIT(PWR->PUCRB, GPIONumber);
 441:Drivers/STM32G4xx_HAL_Driver/Src/stm32g4xx_hal_pwr_ex.c ****        break;
 442:Drivers/STM32G4xx_HAL_Driver/Src/stm32g4xx_hal_pwr_ex.c ****     case PWR_GPIO_C:
 443:Drivers/STM32G4xx_HAL_Driver/Src/stm32g4xx_hal_pwr_ex.c ****        SET_BIT(PWR->PDCRC, GPIONumber);
 444:Drivers/STM32G4xx_HAL_Driver/Src/stm32g4xx_hal_pwr_ex.c ****        CLEAR_BIT(PWR->PUCRC, GPIONumber);
 445:Drivers/STM32G4xx_HAL_Driver/Src/stm32g4xx_hal_pwr_ex.c ****        break;
 446:Drivers/STM32G4xx_HAL_Driver/Src/stm32g4xx_hal_pwr_ex.c ****     case PWR_GPIO_D:
 447:Drivers/STM32G4xx_HAL_Driver/Src/stm32g4xx_hal_pwr_ex.c ****        SET_BIT(PWR->PDCRD, GPIONumber);
 448:Drivers/STM32G4xx_HAL_Driver/Src/stm32g4xx_hal_pwr_ex.c ****        CLEAR_BIT(PWR->PUCRD, GPIONumber);
 449:Drivers/STM32G4xx_HAL_Driver/Src/stm32g4xx_hal_pwr_ex.c ****        break;
 450:Drivers/STM32G4xx_HAL_Driver/Src/stm32g4xx_hal_pwr_ex.c ****     case PWR_GPIO_E:
 451:Drivers/STM32G4xx_HAL_Driver/Src/stm32g4xx_hal_pwr_ex.c ****        SET_BIT(PWR->PDCRE, GPIONumber);
 452:Drivers/STM32G4xx_HAL_Driver/Src/stm32g4xx_hal_pwr_ex.c ****        CLEAR_BIT(PWR->PUCRE, GPIONumber);
 453:Drivers/STM32G4xx_HAL_Driver/Src/stm32g4xx_hal_pwr_ex.c ****        break;
 454:Drivers/STM32G4xx_HAL_Driver/Src/stm32g4xx_hal_pwr_ex.c ****     case PWR_GPIO_F:
 455:Drivers/STM32G4xx_HAL_Driver/Src/stm32g4xx_hal_pwr_ex.c ****        SET_BIT(PWR->PDCRF, (GPIONumber & PWR_PORTF_AVAILABLE_PINS));
 456:Drivers/STM32G4xx_HAL_Driver/Src/stm32g4xx_hal_pwr_ex.c ****        CLEAR_BIT(PWR->PUCRF, (GPIONumber & PWR_PORTF_AVAILABLE_PINS));
 457:Drivers/STM32G4xx_HAL_Driver/Src/stm32g4xx_hal_pwr_ex.c ****        break;
 458:Drivers/STM32G4xx_HAL_Driver/Src/stm32g4xx_hal_pwr_ex.c ****     case PWR_GPIO_G:
 459:Drivers/STM32G4xx_HAL_Driver/Src/stm32g4xx_hal_pwr_ex.c ****        SET_BIT(PWR->PDCRG, ((GPIONumber & PWR_PORTG_AVAILABLE_PINS) & (~(PWR_GPIO_BIT_10))));
 793              		.loc 1 459 8 view .LVU195
 794 0010 294B     		ldr	r3, .L94
 795 0012 586D     		ldr	r0, [r3, #84]
 796              	.LVL63:
ARM GAS  /tmp/ccbR6ah2.s 			page 25


 797              		.loc 1 459 8 is_stmt 0 view .LVU196
 798 0014 C1F30902 		ubfx	r2, r1, #0, #10
 799 0018 0243     		orrs	r2, r2, r0
 800 001a 5A65     		str	r2, [r3, #84]
 460:Drivers/STM32G4xx_HAL_Driver/Src/stm32g4xx_hal_pwr_ex.c ****        CLEAR_BIT(PWR->PUCRG, (GPIONumber & PWR_PORTG_AVAILABLE_PINS));
 801              		.loc 1 460 8 is_stmt 1 view .LVU197
 802 001c 1A6D     		ldr	r2, [r3, #80]
 803 001e C1F30A01 		ubfx	r1, r1, #0, #11
 804              	.LVL64:
 805              		.loc 1 460 8 is_stmt 0 view .LVU198
 806 0022 22EA0101 		bic	r1, r2, r1
 807 0026 1965     		str	r1, [r3, #80]
 461:Drivers/STM32G4xx_HAL_Driver/Src/stm32g4xx_hal_pwr_ex.c ****        break;
 808              		.loc 1 461 8 is_stmt 1 view .LVU199
 427:Drivers/STM32G4xx_HAL_Driver/Src/stm32g4xx_hal_pwr_ex.c **** 
 809              		.loc 1 427 21 is_stmt 0 view .LVU200
 810 0028 0020     		movs	r0, #0
 811              		.loc 1 461 8 view .LVU201
 812 002a 7047     		bx	lr
 813              	.LVL65:
 814              	.L92:
 435:Drivers/STM32G4xx_HAL_Driver/Src/stm32g4xx_hal_pwr_ex.c ****        CLEAR_BIT(PWR->PUCRA, (GPIONumber & (~(PWR_GPIO_BIT_14))));
 815              		.loc 1 435 8 is_stmt 1 view .LVU202
 816 002c 224B     		ldr	r3, .L94
 817 002e 586A     		ldr	r0, [r3, #36]
 818              	.LVL66:
 435:Drivers/STM32G4xx_HAL_Driver/Src/stm32g4xx_hal_pwr_ex.c ****        CLEAR_BIT(PWR->PUCRA, (GPIONumber & (~(PWR_GPIO_BIT_14))));
 819              		.loc 1 435 8 is_stmt 0 view .LVU203
 820 0030 21F42042 		bic	r2, r1, #40960
 821 0034 0243     		orrs	r2, r2, r0
 822 0036 5A62     		str	r2, [r3, #36]
 436:Drivers/STM32G4xx_HAL_Driver/Src/stm32g4xx_hal_pwr_ex.c ****        break;
 823              		.loc 1 436 8 is_stmt 1 view .LVU204
 824 0038 1A6A     		ldr	r2, [r3, #32]
 825 003a 21F48041 		bic	r1, r1, #16384
 826              	.LVL67:
 436:Drivers/STM32G4xx_HAL_Driver/Src/stm32g4xx_hal_pwr_ex.c ****        break;
 827              		.loc 1 436 8 is_stmt 0 view .LVU205
 828 003e 22EA0101 		bic	r1, r2, r1
 829 0042 1962     		str	r1, [r3, #32]
 437:Drivers/STM32G4xx_HAL_Driver/Src/stm32g4xx_hal_pwr_ex.c ****     case PWR_GPIO_B:
 830              		.loc 1 437 8 is_stmt 1 view .LVU206
 427:Drivers/STM32G4xx_HAL_Driver/Src/stm32g4xx_hal_pwr_ex.c **** 
 831              		.loc 1 427 21 is_stmt 0 view .LVU207
 832 0044 0020     		movs	r0, #0
 437:Drivers/STM32G4xx_HAL_Driver/Src/stm32g4xx_hal_pwr_ex.c ****     case PWR_GPIO_B:
 833              		.loc 1 437 8 view .LVU208
 834 0046 7047     		bx	lr
 835              	.LVL68:
 836              	.L91:
 439:Drivers/STM32G4xx_HAL_Driver/Src/stm32g4xx_hal_pwr_ex.c ****        CLEAR_BIT(PWR->PUCRB, GPIONumber);
 837              		.loc 1 439 8 is_stmt 1 view .LVU209
 838 0048 1B4B     		ldr	r3, .L94
 839 004a D86A     		ldr	r0, [r3, #44]
 840              	.LVL69:
 439:Drivers/STM32G4xx_HAL_Driver/Src/stm32g4xx_hal_pwr_ex.c ****        CLEAR_BIT(PWR->PUCRB, GPIONumber);
 841              		.loc 1 439 8 is_stmt 0 view .LVU210
ARM GAS  /tmp/ccbR6ah2.s 			page 26


 842 004c 21F01002 		bic	r2, r1, #16
 843 0050 0243     		orrs	r2, r2, r0
 844 0052 DA62     		str	r2, [r3, #44]
 440:Drivers/STM32G4xx_HAL_Driver/Src/stm32g4xx_hal_pwr_ex.c ****        break;
 845              		.loc 1 440 8 is_stmt 1 view .LVU211
 846 0054 9A6A     		ldr	r2, [r3, #40]
 847 0056 22EA0101 		bic	r1, r2, r1
 848              	.LVL70:
 440:Drivers/STM32G4xx_HAL_Driver/Src/stm32g4xx_hal_pwr_ex.c ****        break;
 849              		.loc 1 440 8 is_stmt 0 view .LVU212
 850 005a 9962     		str	r1, [r3, #40]
 441:Drivers/STM32G4xx_HAL_Driver/Src/stm32g4xx_hal_pwr_ex.c ****     case PWR_GPIO_C:
 851              		.loc 1 441 8 is_stmt 1 view .LVU213
 427:Drivers/STM32G4xx_HAL_Driver/Src/stm32g4xx_hal_pwr_ex.c **** 
 852              		.loc 1 427 21 is_stmt 0 view .LVU214
 853 005c 0020     		movs	r0, #0
 441:Drivers/STM32G4xx_HAL_Driver/Src/stm32g4xx_hal_pwr_ex.c ****     case PWR_GPIO_C:
 854              		.loc 1 441 8 view .LVU215
 855 005e 7047     		bx	lr
 856              	.LVL71:
 857              	.L90:
 443:Drivers/STM32G4xx_HAL_Driver/Src/stm32g4xx_hal_pwr_ex.c ****        CLEAR_BIT(PWR->PUCRC, GPIONumber);
 858              		.loc 1 443 8 is_stmt 1 view .LVU216
 859 0060 154B     		ldr	r3, .L94
 860 0062 5A6B     		ldr	r2, [r3, #52]
 861 0064 0A43     		orrs	r2, r2, r1
 862 0066 5A63     		str	r2, [r3, #52]
 444:Drivers/STM32G4xx_HAL_Driver/Src/stm32g4xx_hal_pwr_ex.c ****        break;
 863              		.loc 1 444 8 view .LVU217
 864 0068 1A6B     		ldr	r2, [r3, #48]
 865 006a 22EA0101 		bic	r1, r2, r1
 866              	.LVL72:
 444:Drivers/STM32G4xx_HAL_Driver/Src/stm32g4xx_hal_pwr_ex.c ****        break;
 867              		.loc 1 444 8 is_stmt 0 view .LVU218
 868 006e 1963     		str	r1, [r3, #48]
 445:Drivers/STM32G4xx_HAL_Driver/Src/stm32g4xx_hal_pwr_ex.c ****     case PWR_GPIO_D:
 869              		.loc 1 445 8 is_stmt 1 view .LVU219
 427:Drivers/STM32G4xx_HAL_Driver/Src/stm32g4xx_hal_pwr_ex.c **** 
 870              		.loc 1 427 21 is_stmt 0 view .LVU220
 871 0070 0020     		movs	r0, #0
 872              	.LVL73:
 445:Drivers/STM32G4xx_HAL_Driver/Src/stm32g4xx_hal_pwr_ex.c ****     case PWR_GPIO_D:
 873              		.loc 1 445 8 view .LVU221
 874 0072 7047     		bx	lr
 875              	.LVL74:
 876              	.L89:
 447:Drivers/STM32G4xx_HAL_Driver/Src/stm32g4xx_hal_pwr_ex.c ****        CLEAR_BIT(PWR->PUCRD, GPIONumber);
 877              		.loc 1 447 8 is_stmt 1 view .LVU222
 878 0074 104B     		ldr	r3, .L94
 879 0076 DA6B     		ldr	r2, [r3, #60]
 880 0078 0A43     		orrs	r2, r2, r1
 881 007a DA63     		str	r2, [r3, #60]
 448:Drivers/STM32G4xx_HAL_Driver/Src/stm32g4xx_hal_pwr_ex.c ****        break;
 882              		.loc 1 448 8 view .LVU223
 883 007c 9A6B     		ldr	r2, [r3, #56]
 884 007e 22EA0101 		bic	r1, r2, r1
 885              	.LVL75:
ARM GAS  /tmp/ccbR6ah2.s 			page 27


 448:Drivers/STM32G4xx_HAL_Driver/Src/stm32g4xx_hal_pwr_ex.c ****        break;
 886              		.loc 1 448 8 is_stmt 0 view .LVU224
 887 0082 9963     		str	r1, [r3, #56]
 449:Drivers/STM32G4xx_HAL_Driver/Src/stm32g4xx_hal_pwr_ex.c ****     case PWR_GPIO_E:
 888              		.loc 1 449 8 is_stmt 1 view .LVU225
 427:Drivers/STM32G4xx_HAL_Driver/Src/stm32g4xx_hal_pwr_ex.c **** 
 889              		.loc 1 427 21 is_stmt 0 view .LVU226
 890 0084 0020     		movs	r0, #0
 891              	.LVL76:
 449:Drivers/STM32G4xx_HAL_Driver/Src/stm32g4xx_hal_pwr_ex.c ****     case PWR_GPIO_E:
 892              		.loc 1 449 8 view .LVU227
 893 0086 7047     		bx	lr
 894              	.LVL77:
 895              	.L88:
 451:Drivers/STM32G4xx_HAL_Driver/Src/stm32g4xx_hal_pwr_ex.c ****        CLEAR_BIT(PWR->PUCRE, GPIONumber);
 896              		.loc 1 451 8 is_stmt 1 view .LVU228
 897 0088 0B4B     		ldr	r3, .L94
 898 008a 5A6C     		ldr	r2, [r3, #68]
 899 008c 0A43     		orrs	r2, r2, r1
 900 008e 5A64     		str	r2, [r3, #68]
 452:Drivers/STM32G4xx_HAL_Driver/Src/stm32g4xx_hal_pwr_ex.c ****        break;
 901              		.loc 1 452 8 view .LVU229
 902 0090 1A6C     		ldr	r2, [r3, #64]
 903 0092 22EA0101 		bic	r1, r2, r1
 904              	.LVL78:
 452:Drivers/STM32G4xx_HAL_Driver/Src/stm32g4xx_hal_pwr_ex.c ****        break;
 905              		.loc 1 452 8 is_stmt 0 view .LVU230
 906 0096 1964     		str	r1, [r3, #64]
 453:Drivers/STM32G4xx_HAL_Driver/Src/stm32g4xx_hal_pwr_ex.c ****     case PWR_GPIO_F:
 907              		.loc 1 453 8 is_stmt 1 view .LVU231
 427:Drivers/STM32G4xx_HAL_Driver/Src/stm32g4xx_hal_pwr_ex.c **** 
 908              		.loc 1 427 21 is_stmt 0 view .LVU232
 909 0098 0020     		movs	r0, #0
 910              	.LVL79:
 453:Drivers/STM32G4xx_HAL_Driver/Src/stm32g4xx_hal_pwr_ex.c ****     case PWR_GPIO_F:
 911              		.loc 1 453 8 view .LVU233
 912 009a 7047     		bx	lr
 913              	.LVL80:
 914              	.L87:
 455:Drivers/STM32G4xx_HAL_Driver/Src/stm32g4xx_hal_pwr_ex.c ****        CLEAR_BIT(PWR->PUCRF, (GPIONumber & PWR_PORTF_AVAILABLE_PINS));
 915              		.loc 1 455 8 is_stmt 1 view .LVU234
 916 009c 064B     		ldr	r3, .L94
 917 009e DA6C     		ldr	r2, [r3, #76]
 918 00a0 89B2     		uxth	r1, r1
 919              	.LVL81:
 455:Drivers/STM32G4xx_HAL_Driver/Src/stm32g4xx_hal_pwr_ex.c ****        CLEAR_BIT(PWR->PUCRF, (GPIONumber & PWR_PORTF_AVAILABLE_PINS));
 920              		.loc 1 455 8 is_stmt 0 view .LVU235
 921 00a2 0A43     		orrs	r2, r2, r1
 922 00a4 DA64     		str	r2, [r3, #76]
 456:Drivers/STM32G4xx_HAL_Driver/Src/stm32g4xx_hal_pwr_ex.c ****        break;
 923              		.loc 1 456 8 is_stmt 1 view .LVU236
 924 00a6 9A6C     		ldr	r2, [r3, #72]
 925 00a8 22EA0101 		bic	r1, r2, r1
 926 00ac 9964     		str	r1, [r3, #72]
 457:Drivers/STM32G4xx_HAL_Driver/Src/stm32g4xx_hal_pwr_ex.c ****     case PWR_GPIO_G:
 927              		.loc 1 457 8 view .LVU237
 427:Drivers/STM32G4xx_HAL_Driver/Src/stm32g4xx_hal_pwr_ex.c **** 
ARM GAS  /tmp/ccbR6ah2.s 			page 28


 928              		.loc 1 427 21 is_stmt 0 view .LVU238
 929 00ae 0020     		movs	r0, #0
 930              	.LVL82:
 457:Drivers/STM32G4xx_HAL_Driver/Src/stm32g4xx_hal_pwr_ex.c ****     case PWR_GPIO_G:
 931              		.loc 1 457 8 view .LVU239
 932 00b0 7047     		bx	lr
 933              	.LVL83:
 934              	.L93:
 427:Drivers/STM32G4xx_HAL_Driver/Src/stm32g4xx_hal_pwr_ex.c **** 
 935              		.loc 1 427 21 view .LVU240
 936 00b2 0120     		movs	r0, #1
 937              	.LVL84:
 462:Drivers/STM32G4xx_HAL_Driver/Src/stm32g4xx_hal_pwr_ex.c ****     default:
 463:Drivers/STM32G4xx_HAL_Driver/Src/stm32g4xx_hal_pwr_ex.c ****       status = HAL_ERROR;
 464:Drivers/STM32G4xx_HAL_Driver/Src/stm32g4xx_hal_pwr_ex.c ****       break;
 465:Drivers/STM32G4xx_HAL_Driver/Src/stm32g4xx_hal_pwr_ex.c ****   }
 466:Drivers/STM32G4xx_HAL_Driver/Src/stm32g4xx_hal_pwr_ex.c **** 
 467:Drivers/STM32G4xx_HAL_Driver/Src/stm32g4xx_hal_pwr_ex.c ****   return status;
 938              		.loc 1 467 3 is_stmt 1 view .LVU241
 468:Drivers/STM32G4xx_HAL_Driver/Src/stm32g4xx_hal_pwr_ex.c **** }
 939              		.loc 1 468 1 is_stmt 0 view .LVU242
 940 00b4 7047     		bx	lr
 941              	.L95:
 942 00b6 00BF     		.align	2
 943              	.L94:
 944 00b8 00700040 		.word	1073770496
 945              		.cfi_endproc
 946              	.LFE337:
 948              		.section	.text.HAL_PWREx_DisableGPIOPullDown,"ax",%progbits
 949              		.align	1
 950              		.p2align 2,,3
 951              		.global	HAL_PWREx_DisableGPIOPullDown
 952              		.syntax unified
 953              		.thumb
 954              		.thumb_func
 955              		.fpu fpv4-sp-d16
 957              	HAL_PWREx_DisableGPIOPullDown:
 958              	.LVL85:
 959              	.LFB338:
 469:Drivers/STM32G4xx_HAL_Driver/Src/stm32g4xx_hal_pwr_ex.c **** 
 470:Drivers/STM32G4xx_HAL_Driver/Src/stm32g4xx_hal_pwr_ex.c **** 
 471:Drivers/STM32G4xx_HAL_Driver/Src/stm32g4xx_hal_pwr_ex.c **** /**
 472:Drivers/STM32G4xx_HAL_Driver/Src/stm32g4xx_hal_pwr_ex.c ****   * @brief Disable GPIO pull-down state in Standby and Shutdown modes.
 473:Drivers/STM32G4xx_HAL_Driver/Src/stm32g4xx_hal_pwr_ex.c ****   * @note  Reset the relevant PDy bits of PWR_PDCRx register used to configure the I/O
 474:Drivers/STM32G4xx_HAL_Driver/Src/stm32g4xx_hal_pwr_ex.c ****   *        in pull-down state in Standby and Shutdown modes.
 475:Drivers/STM32G4xx_HAL_Driver/Src/stm32g4xx_hal_pwr_ex.c ****   * @note  Even if a PDy bit to reset is reserved, the other PDy bits entered as input
 476:Drivers/STM32G4xx_HAL_Driver/Src/stm32g4xx_hal_pwr_ex.c ****   *        parameter at the same time are reset.
 477:Drivers/STM32G4xx_HAL_Driver/Src/stm32g4xx_hal_pwr_ex.c ****   * @param  GPIO: Specifies the IO port. This parameter can be PWR_GPIO_A..PWR_GPIO_G
 478:Drivers/STM32G4xx_HAL_Driver/Src/stm32g4xx_hal_pwr_ex.c ****   *         (or PWR_GPIO_I depending on the devices) to select the GPIO peripheral.
 479:Drivers/STM32G4xx_HAL_Driver/Src/stm32g4xx_hal_pwr_ex.c ****   * @param  GPIONumber: Specify the I/O pins numbers.
 480:Drivers/STM32G4xx_HAL_Driver/Src/stm32g4xx_hal_pwr_ex.c ****   *         This parameter can be one of the following values:
 481:Drivers/STM32G4xx_HAL_Driver/Src/stm32g4xx_hal_pwr_ex.c ****   *         PWR_GPIO_BIT_0, ..., PWR_GPIO_BIT_15 (except for the port where less
 482:Drivers/STM32G4xx_HAL_Driver/Src/stm32g4xx_hal_pwr_ex.c ****   *         I/O pins are available) or the logical OR of several of them to reset
 483:Drivers/STM32G4xx_HAL_Driver/Src/stm32g4xx_hal_pwr_ex.c ****   *         several bits for a given port in a single API call.
 484:Drivers/STM32G4xx_HAL_Driver/Src/stm32g4xx_hal_pwr_ex.c ****   * @retval HAL Status
 485:Drivers/STM32G4xx_HAL_Driver/Src/stm32g4xx_hal_pwr_ex.c ****   */
 486:Drivers/STM32G4xx_HAL_Driver/Src/stm32g4xx_hal_pwr_ex.c **** HAL_StatusTypeDef HAL_PWREx_DisableGPIOPullDown(uint32_t GPIO, uint32_t GPIONumber)
ARM GAS  /tmp/ccbR6ah2.s 			page 29


 487:Drivers/STM32G4xx_HAL_Driver/Src/stm32g4xx_hal_pwr_ex.c **** {
 960              		.loc 1 487 1 is_stmt 1 view -0
 961              		.cfi_startproc
 962              		@ args = 0, pretend = 0, frame = 0
 963              		@ frame_needed = 0, uses_anonymous_args = 0
 964              		@ link register save eliminated.
 488:Drivers/STM32G4xx_HAL_Driver/Src/stm32g4xx_hal_pwr_ex.c ****   HAL_StatusTypeDef status = HAL_OK;
 965              		.loc 1 488 3 view .LVU244
 489:Drivers/STM32G4xx_HAL_Driver/Src/stm32g4xx_hal_pwr_ex.c **** 
 490:Drivers/STM32G4xx_HAL_Driver/Src/stm32g4xx_hal_pwr_ex.c ****   assert_param(IS_PWR_GPIO(GPIO));
 966              		.loc 1 490 3 view .LVU245
 491:Drivers/STM32G4xx_HAL_Driver/Src/stm32g4xx_hal_pwr_ex.c ****   assert_param(IS_PWR_GPIO_BIT_NUMBER(GPIONumber));
 967              		.loc 1 491 3 view .LVU246
 492:Drivers/STM32G4xx_HAL_Driver/Src/stm32g4xx_hal_pwr_ex.c **** 
 493:Drivers/STM32G4xx_HAL_Driver/Src/stm32g4xx_hal_pwr_ex.c ****   switch (GPIO)
 968              		.loc 1 493 3 view .LVU247
 969 0000 0628     		cmp	r0, #6
 970 0002 3DD8     		bhi	.L106
 971 0004 DFE800F0 		tbb	[pc, r0]
 972              	.L99:
 973 0008 0D       		.byte	(.L105-.L99)/2
 974 0009 16       		.byte	(.L104-.L99)/2
 975 000a 1F       		.byte	(.L103-.L99)/2
 976 000b 26       		.byte	(.L102-.L99)/2
 977 000c 2D       		.byte	(.L101-.L99)/2
 978 000d 34       		.byte	(.L100-.L99)/2
 979 000e 04       		.byte	(.L98-.L99)/2
 980 000f 00       		.p2align 1
 981              	.L98:
 494:Drivers/STM32G4xx_HAL_Driver/Src/stm32g4xx_hal_pwr_ex.c ****   {
 495:Drivers/STM32G4xx_HAL_Driver/Src/stm32g4xx_hal_pwr_ex.c ****     case PWR_GPIO_A:
 496:Drivers/STM32G4xx_HAL_Driver/Src/stm32g4xx_hal_pwr_ex.c ****        CLEAR_BIT(PWR->PDCRA, (GPIONumber & (~(PWR_GPIO_BIT_13|PWR_GPIO_BIT_15))));
 497:Drivers/STM32G4xx_HAL_Driver/Src/stm32g4xx_hal_pwr_ex.c ****        break;
 498:Drivers/STM32G4xx_HAL_Driver/Src/stm32g4xx_hal_pwr_ex.c ****     case PWR_GPIO_B:
 499:Drivers/STM32G4xx_HAL_Driver/Src/stm32g4xx_hal_pwr_ex.c ****        CLEAR_BIT(PWR->PDCRB, (GPIONumber & (~(PWR_GPIO_BIT_4))));
 500:Drivers/STM32G4xx_HAL_Driver/Src/stm32g4xx_hal_pwr_ex.c ****        break;
 501:Drivers/STM32G4xx_HAL_Driver/Src/stm32g4xx_hal_pwr_ex.c ****     case PWR_GPIO_C:
 502:Drivers/STM32G4xx_HAL_Driver/Src/stm32g4xx_hal_pwr_ex.c ****        CLEAR_BIT(PWR->PDCRC, GPIONumber);
 503:Drivers/STM32G4xx_HAL_Driver/Src/stm32g4xx_hal_pwr_ex.c ****        break;
 504:Drivers/STM32G4xx_HAL_Driver/Src/stm32g4xx_hal_pwr_ex.c ****     case PWR_GPIO_D:
 505:Drivers/STM32G4xx_HAL_Driver/Src/stm32g4xx_hal_pwr_ex.c ****        CLEAR_BIT(PWR->PDCRD, GPIONumber);
 506:Drivers/STM32G4xx_HAL_Driver/Src/stm32g4xx_hal_pwr_ex.c ****        break;
 507:Drivers/STM32G4xx_HAL_Driver/Src/stm32g4xx_hal_pwr_ex.c ****     case PWR_GPIO_E:
 508:Drivers/STM32G4xx_HAL_Driver/Src/stm32g4xx_hal_pwr_ex.c ****        CLEAR_BIT(PWR->PDCRE, GPIONumber);
 509:Drivers/STM32G4xx_HAL_Driver/Src/stm32g4xx_hal_pwr_ex.c ****        break;
 510:Drivers/STM32G4xx_HAL_Driver/Src/stm32g4xx_hal_pwr_ex.c ****     case PWR_GPIO_F:
 511:Drivers/STM32G4xx_HAL_Driver/Src/stm32g4xx_hal_pwr_ex.c ****        CLEAR_BIT(PWR->PDCRF, (GPIONumber & PWR_PORTF_AVAILABLE_PINS));
 512:Drivers/STM32G4xx_HAL_Driver/Src/stm32g4xx_hal_pwr_ex.c ****        break;
 513:Drivers/STM32G4xx_HAL_Driver/Src/stm32g4xx_hal_pwr_ex.c ****     case PWR_GPIO_G:
 514:Drivers/STM32G4xx_HAL_Driver/Src/stm32g4xx_hal_pwr_ex.c ****        CLEAR_BIT(PWR->PDCRG, ((GPIONumber & PWR_PORTG_AVAILABLE_PINS) & (~(PWR_GPIO_BIT_10))));
 982              		.loc 1 514 8 view .LVU248
 983 0010 1C4A     		ldr	r2, .L107
 984 0012 536D     		ldr	r3, [r2, #84]
 985 0014 C1F30901 		ubfx	r1, r1, #0, #10
 986              	.LVL86:
 987              		.loc 1 514 8 is_stmt 0 view .LVU249
 988 0018 23EA0101 		bic	r1, r3, r1
ARM GAS  /tmp/ccbR6ah2.s 			page 30


 989 001c 5165     		str	r1, [r2, #84]
 515:Drivers/STM32G4xx_HAL_Driver/Src/stm32g4xx_hal_pwr_ex.c ****        break;
 990              		.loc 1 515 8 is_stmt 1 view .LVU250
 488:Drivers/STM32G4xx_HAL_Driver/Src/stm32g4xx_hal_pwr_ex.c **** 
 991              		.loc 1 488 21 is_stmt 0 view .LVU251
 992 001e 0020     		movs	r0, #0
 993              	.LVL87:
 994              		.loc 1 515 8 view .LVU252
 995 0020 7047     		bx	lr
 996              	.LVL88:
 997              	.L105:
 496:Drivers/STM32G4xx_HAL_Driver/Src/stm32g4xx_hal_pwr_ex.c ****        break;
 998              		.loc 1 496 8 is_stmt 1 view .LVU253
 999 0022 184A     		ldr	r2, .L107
 1000 0024 536A     		ldr	r3, [r2, #36]
 1001 0026 21F42041 		bic	r1, r1, #40960
 1002              	.LVL89:
 496:Drivers/STM32G4xx_HAL_Driver/Src/stm32g4xx_hal_pwr_ex.c ****        break;
 1003              		.loc 1 496 8 is_stmt 0 view .LVU254
 1004 002a 23EA0101 		bic	r1, r3, r1
 1005 002e 5162     		str	r1, [r2, #36]
 497:Drivers/STM32G4xx_HAL_Driver/Src/stm32g4xx_hal_pwr_ex.c ****     case PWR_GPIO_B:
 1006              		.loc 1 497 8 is_stmt 1 view .LVU255
 488:Drivers/STM32G4xx_HAL_Driver/Src/stm32g4xx_hal_pwr_ex.c **** 
 1007              		.loc 1 488 21 is_stmt 0 view .LVU256
 1008 0030 0020     		movs	r0, #0
 1009              	.LVL90:
 497:Drivers/STM32G4xx_HAL_Driver/Src/stm32g4xx_hal_pwr_ex.c ****     case PWR_GPIO_B:
 1010              		.loc 1 497 8 view .LVU257
 1011 0032 7047     		bx	lr
 1012              	.LVL91:
 1013              	.L104:
 499:Drivers/STM32G4xx_HAL_Driver/Src/stm32g4xx_hal_pwr_ex.c ****        break;
 1014              		.loc 1 499 8 is_stmt 1 view .LVU258
 1015 0034 134A     		ldr	r2, .L107
 1016 0036 D36A     		ldr	r3, [r2, #44]
 1017 0038 21F01001 		bic	r1, r1, #16
 1018              	.LVL92:
 499:Drivers/STM32G4xx_HAL_Driver/Src/stm32g4xx_hal_pwr_ex.c ****        break;
 1019              		.loc 1 499 8 is_stmt 0 view .LVU259
 1020 003c 23EA0101 		bic	r1, r3, r1
 1021 0040 D162     		str	r1, [r2, #44]
 500:Drivers/STM32G4xx_HAL_Driver/Src/stm32g4xx_hal_pwr_ex.c ****     case PWR_GPIO_C:
 1022              		.loc 1 500 8 is_stmt 1 view .LVU260
 488:Drivers/STM32G4xx_HAL_Driver/Src/stm32g4xx_hal_pwr_ex.c **** 
 1023              		.loc 1 488 21 is_stmt 0 view .LVU261
 1024 0042 0020     		movs	r0, #0
 1025              	.LVL93:
 500:Drivers/STM32G4xx_HAL_Driver/Src/stm32g4xx_hal_pwr_ex.c ****     case PWR_GPIO_C:
 1026              		.loc 1 500 8 view .LVU262
 1027 0044 7047     		bx	lr
 1028              	.LVL94:
 1029              	.L103:
 502:Drivers/STM32G4xx_HAL_Driver/Src/stm32g4xx_hal_pwr_ex.c ****        break;
 1030              		.loc 1 502 8 is_stmt 1 view .LVU263
 1031 0046 0F4A     		ldr	r2, .L107
 1032 0048 536B     		ldr	r3, [r2, #52]
ARM GAS  /tmp/ccbR6ah2.s 			page 31


 1033 004a 23EA0101 		bic	r1, r3, r1
 1034              	.LVL95:
 502:Drivers/STM32G4xx_HAL_Driver/Src/stm32g4xx_hal_pwr_ex.c ****        break;
 1035              		.loc 1 502 8 is_stmt 0 view .LVU264
 1036 004e 5163     		str	r1, [r2, #52]
 503:Drivers/STM32G4xx_HAL_Driver/Src/stm32g4xx_hal_pwr_ex.c ****     case PWR_GPIO_D:
 1037              		.loc 1 503 8 is_stmt 1 view .LVU265
 488:Drivers/STM32G4xx_HAL_Driver/Src/stm32g4xx_hal_pwr_ex.c **** 
 1038              		.loc 1 488 21 is_stmt 0 view .LVU266
 1039 0050 0020     		movs	r0, #0
 1040              	.LVL96:
 503:Drivers/STM32G4xx_HAL_Driver/Src/stm32g4xx_hal_pwr_ex.c ****     case PWR_GPIO_D:
 1041              		.loc 1 503 8 view .LVU267
 1042 0052 7047     		bx	lr
 1043              	.LVL97:
 1044              	.L102:
 505:Drivers/STM32G4xx_HAL_Driver/Src/stm32g4xx_hal_pwr_ex.c ****        break;
 1045              		.loc 1 505 8 is_stmt 1 view .LVU268
 1046 0054 0B4A     		ldr	r2, .L107
 1047 0056 D36B     		ldr	r3, [r2, #60]
 1048 0058 23EA0101 		bic	r1, r3, r1
 1049              	.LVL98:
 505:Drivers/STM32G4xx_HAL_Driver/Src/stm32g4xx_hal_pwr_ex.c ****        break;
 1050              		.loc 1 505 8 is_stmt 0 view .LVU269
 1051 005c D163     		str	r1, [r2, #60]
 506:Drivers/STM32G4xx_HAL_Driver/Src/stm32g4xx_hal_pwr_ex.c ****     case PWR_GPIO_E:
 1052              		.loc 1 506 8 is_stmt 1 view .LVU270
 488:Drivers/STM32G4xx_HAL_Driver/Src/stm32g4xx_hal_pwr_ex.c **** 
 1053              		.loc 1 488 21 is_stmt 0 view .LVU271
 1054 005e 0020     		movs	r0, #0
 1055              	.LVL99:
 506:Drivers/STM32G4xx_HAL_Driver/Src/stm32g4xx_hal_pwr_ex.c ****     case PWR_GPIO_E:
 1056              		.loc 1 506 8 view .LVU272
 1057 0060 7047     		bx	lr
 1058              	.LVL100:
 1059              	.L101:
 508:Drivers/STM32G4xx_HAL_Driver/Src/stm32g4xx_hal_pwr_ex.c ****        break;
 1060              		.loc 1 508 8 is_stmt 1 view .LVU273
 1061 0062 084A     		ldr	r2, .L107
 1062 0064 536C     		ldr	r3, [r2, #68]
 1063 0066 23EA0101 		bic	r1, r3, r1
 1064              	.LVL101:
 508:Drivers/STM32G4xx_HAL_Driver/Src/stm32g4xx_hal_pwr_ex.c ****        break;
 1065              		.loc 1 508 8 is_stmt 0 view .LVU274
 1066 006a 5164     		str	r1, [r2, #68]
 509:Drivers/STM32G4xx_HAL_Driver/Src/stm32g4xx_hal_pwr_ex.c ****     case PWR_GPIO_F:
 1067              		.loc 1 509 8 is_stmt 1 view .LVU275
 488:Drivers/STM32G4xx_HAL_Driver/Src/stm32g4xx_hal_pwr_ex.c **** 
 1068              		.loc 1 488 21 is_stmt 0 view .LVU276
 1069 006c 0020     		movs	r0, #0
 1070              	.LVL102:
 509:Drivers/STM32G4xx_HAL_Driver/Src/stm32g4xx_hal_pwr_ex.c ****     case PWR_GPIO_F:
 1071              		.loc 1 509 8 view .LVU277
 1072 006e 7047     		bx	lr
 1073              	.LVL103:
 1074              	.L100:
 511:Drivers/STM32G4xx_HAL_Driver/Src/stm32g4xx_hal_pwr_ex.c ****        break;
ARM GAS  /tmp/ccbR6ah2.s 			page 32


 1075              		.loc 1 511 8 is_stmt 1 view .LVU278
 1076 0070 044A     		ldr	r2, .L107
 1077 0072 D36C     		ldr	r3, [r2, #76]
 1078 0074 89B2     		uxth	r1, r1
 1079              	.LVL104:
 511:Drivers/STM32G4xx_HAL_Driver/Src/stm32g4xx_hal_pwr_ex.c ****        break;
 1080              		.loc 1 511 8 is_stmt 0 view .LVU279
 1081 0076 23EA0101 		bic	r1, r3, r1
 1082 007a D164     		str	r1, [r2, #76]
 512:Drivers/STM32G4xx_HAL_Driver/Src/stm32g4xx_hal_pwr_ex.c ****     case PWR_GPIO_G:
 1083              		.loc 1 512 8 is_stmt 1 view .LVU280
 488:Drivers/STM32G4xx_HAL_Driver/Src/stm32g4xx_hal_pwr_ex.c **** 
 1084              		.loc 1 488 21 is_stmt 0 view .LVU281
 1085 007c 0020     		movs	r0, #0
 1086              	.LVL105:
 512:Drivers/STM32G4xx_HAL_Driver/Src/stm32g4xx_hal_pwr_ex.c ****     case PWR_GPIO_G:
 1087              		.loc 1 512 8 view .LVU282
 1088 007e 7047     		bx	lr
 1089              	.LVL106:
 1090              	.L106:
 488:Drivers/STM32G4xx_HAL_Driver/Src/stm32g4xx_hal_pwr_ex.c **** 
 1091              		.loc 1 488 21 view .LVU283
 1092 0080 0120     		movs	r0, #1
 1093              	.LVL107:
 516:Drivers/STM32G4xx_HAL_Driver/Src/stm32g4xx_hal_pwr_ex.c ****     default:
 517:Drivers/STM32G4xx_HAL_Driver/Src/stm32g4xx_hal_pwr_ex.c ****       status = HAL_ERROR;
 518:Drivers/STM32G4xx_HAL_Driver/Src/stm32g4xx_hal_pwr_ex.c ****       break;
 519:Drivers/STM32G4xx_HAL_Driver/Src/stm32g4xx_hal_pwr_ex.c ****   }
 520:Drivers/STM32G4xx_HAL_Driver/Src/stm32g4xx_hal_pwr_ex.c **** 
 521:Drivers/STM32G4xx_HAL_Driver/Src/stm32g4xx_hal_pwr_ex.c ****   return status;
 1094              		.loc 1 521 3 is_stmt 1 view .LVU284
 522:Drivers/STM32G4xx_HAL_Driver/Src/stm32g4xx_hal_pwr_ex.c **** }
 1095              		.loc 1 522 1 is_stmt 0 view .LVU285
 1096 0082 7047     		bx	lr
 1097              	.L108:
 1098              		.align	2
 1099              	.L107:
 1100 0084 00700040 		.word	1073770496
 1101              		.cfi_endproc
 1102              	.LFE338:
 1104              		.section	.text.HAL_PWREx_EnablePullUpPullDownConfig,"ax",%progbits
 1105              		.align	1
 1106              		.p2align 2,,3
 1107              		.global	HAL_PWREx_EnablePullUpPullDownConfig
 1108              		.syntax unified
 1109              		.thumb
 1110              		.thumb_func
 1111              		.fpu fpv4-sp-d16
 1113              	HAL_PWREx_EnablePullUpPullDownConfig:
 1114              	.LFB339:
 523:Drivers/STM32G4xx_HAL_Driver/Src/stm32g4xx_hal_pwr_ex.c **** 
 524:Drivers/STM32G4xx_HAL_Driver/Src/stm32g4xx_hal_pwr_ex.c **** 
 525:Drivers/STM32G4xx_HAL_Driver/Src/stm32g4xx_hal_pwr_ex.c **** 
 526:Drivers/STM32G4xx_HAL_Driver/Src/stm32g4xx_hal_pwr_ex.c **** /**
 527:Drivers/STM32G4xx_HAL_Driver/Src/stm32g4xx_hal_pwr_ex.c ****   * @brief Enable pull-up and pull-down configuration.
 528:Drivers/STM32G4xx_HAL_Driver/Src/stm32g4xx_hal_pwr_ex.c ****   * @note  When APC bit is set, the I/O pull-up and pull-down configurations defined in
 529:Drivers/STM32G4xx_HAL_Driver/Src/stm32g4xx_hal_pwr_ex.c ****   *        PWR_PUCRx and PWR_PDCRx registers are applied in Standby and Shutdown modes.
ARM GAS  /tmp/ccbR6ah2.s 			page 33


 530:Drivers/STM32G4xx_HAL_Driver/Src/stm32g4xx_hal_pwr_ex.c ****   * @note  Pull-up set by PUy bit of PWR_PUCRx register is not activated if the corresponding
 531:Drivers/STM32G4xx_HAL_Driver/Src/stm32g4xx_hal_pwr_ex.c ****   *        PDy bit of PWR_PDCRx register is also set (pull-down configuration priority is higher).
 532:Drivers/STM32G4xx_HAL_Driver/Src/stm32g4xx_hal_pwr_ex.c ****   *        HAL_PWREx_EnableGPIOPullUp() and HAL_PWREx_EnableGPIOPullDown() API's ensure there
 533:Drivers/STM32G4xx_HAL_Driver/Src/stm32g4xx_hal_pwr_ex.c ****   *        is no conflict when setting PUy or PDy bit.
 534:Drivers/STM32G4xx_HAL_Driver/Src/stm32g4xx_hal_pwr_ex.c ****   * @retval None
 535:Drivers/STM32G4xx_HAL_Driver/Src/stm32g4xx_hal_pwr_ex.c ****   */
 536:Drivers/STM32G4xx_HAL_Driver/Src/stm32g4xx_hal_pwr_ex.c **** void HAL_PWREx_EnablePullUpPullDownConfig(void)
 537:Drivers/STM32G4xx_HAL_Driver/Src/stm32g4xx_hal_pwr_ex.c **** {
 1115              		.loc 1 537 1 is_stmt 1 view -0
 1116              		.cfi_startproc
 1117              		@ args = 0, pretend = 0, frame = 0
 1118              		@ frame_needed = 0, uses_anonymous_args = 0
 1119              		@ link register save eliminated.
 538:Drivers/STM32G4xx_HAL_Driver/Src/stm32g4xx_hal_pwr_ex.c ****   SET_BIT(PWR->CR3, PWR_CR3_APC);
 1120              		.loc 1 538 3 view .LVU287
 1121 0000 024A     		ldr	r2, .L110
 1122 0002 9368     		ldr	r3, [r2, #8]
 1123 0004 43F48063 		orr	r3, r3, #1024
 1124 0008 9360     		str	r3, [r2, #8]
 539:Drivers/STM32G4xx_HAL_Driver/Src/stm32g4xx_hal_pwr_ex.c **** }
 1125              		.loc 1 539 1 is_stmt 0 view .LVU288
 1126 000a 7047     		bx	lr
 1127              	.L111:
 1128              		.align	2
 1129              	.L110:
 1130 000c 00700040 		.word	1073770496
 1131              		.cfi_endproc
 1132              	.LFE339:
 1134              		.section	.text.HAL_PWREx_DisablePullUpPullDownConfig,"ax",%progbits
 1135              		.align	1
 1136              		.p2align 2,,3
 1137              		.global	HAL_PWREx_DisablePullUpPullDownConfig
 1138              		.syntax unified
 1139              		.thumb
 1140              		.thumb_func
 1141              		.fpu fpv4-sp-d16
 1143              	HAL_PWREx_DisablePullUpPullDownConfig:
 1144              	.LFB340:
 540:Drivers/STM32G4xx_HAL_Driver/Src/stm32g4xx_hal_pwr_ex.c **** 
 541:Drivers/STM32G4xx_HAL_Driver/Src/stm32g4xx_hal_pwr_ex.c **** 
 542:Drivers/STM32G4xx_HAL_Driver/Src/stm32g4xx_hal_pwr_ex.c **** /**
 543:Drivers/STM32G4xx_HAL_Driver/Src/stm32g4xx_hal_pwr_ex.c ****   * @brief Disable pull-up and pull-down configuration.
 544:Drivers/STM32G4xx_HAL_Driver/Src/stm32g4xx_hal_pwr_ex.c ****   * @note  When APC bit is cleared, the I/O pull-up and pull-down configurations defined in
 545:Drivers/STM32G4xx_HAL_Driver/Src/stm32g4xx_hal_pwr_ex.c ****   *        PWR_PUCRx and PWR_PDCRx registers are not applied in Standby and Shutdown modes.
 546:Drivers/STM32G4xx_HAL_Driver/Src/stm32g4xx_hal_pwr_ex.c ****   * @retval None
 547:Drivers/STM32G4xx_HAL_Driver/Src/stm32g4xx_hal_pwr_ex.c ****   */
 548:Drivers/STM32G4xx_HAL_Driver/Src/stm32g4xx_hal_pwr_ex.c **** void HAL_PWREx_DisablePullUpPullDownConfig(void)
 549:Drivers/STM32G4xx_HAL_Driver/Src/stm32g4xx_hal_pwr_ex.c **** {
 1145              		.loc 1 549 1 is_stmt 1 view -0
 1146              		.cfi_startproc
 1147              		@ args = 0, pretend = 0, frame = 0
 1148              		@ frame_needed = 0, uses_anonymous_args = 0
 1149              		@ link register save eliminated.
 550:Drivers/STM32G4xx_HAL_Driver/Src/stm32g4xx_hal_pwr_ex.c ****   CLEAR_BIT(PWR->CR3, PWR_CR3_APC);
 1150              		.loc 1 550 3 view .LVU290
 1151 0000 024A     		ldr	r2, .L113
 1152 0002 9368     		ldr	r3, [r2, #8]
ARM GAS  /tmp/ccbR6ah2.s 			page 34


 1153 0004 23F48063 		bic	r3, r3, #1024
 1154 0008 9360     		str	r3, [r2, #8]
 551:Drivers/STM32G4xx_HAL_Driver/Src/stm32g4xx_hal_pwr_ex.c **** }
 1155              		.loc 1 551 1 is_stmt 0 view .LVU291
 1156 000a 7047     		bx	lr
 1157              	.L114:
 1158              		.align	2
 1159              	.L113:
 1160 000c 00700040 		.word	1073770496
 1161              		.cfi_endproc
 1162              	.LFE340:
 1164              		.section	.text.HAL_PWREx_EnableSRAM2ContentRetention,"ax",%progbits
 1165              		.align	1
 1166              		.p2align 2,,3
 1167              		.global	HAL_PWREx_EnableSRAM2ContentRetention
 1168              		.syntax unified
 1169              		.thumb
 1170              		.thumb_func
 1171              		.fpu fpv4-sp-d16
 1173              	HAL_PWREx_EnableSRAM2ContentRetention:
 1174              	.LFB341:
 552:Drivers/STM32G4xx_HAL_Driver/Src/stm32g4xx_hal_pwr_ex.c **** 
 553:Drivers/STM32G4xx_HAL_Driver/Src/stm32g4xx_hal_pwr_ex.c **** 
 554:Drivers/STM32G4xx_HAL_Driver/Src/stm32g4xx_hal_pwr_ex.c **** 
 555:Drivers/STM32G4xx_HAL_Driver/Src/stm32g4xx_hal_pwr_ex.c **** /**
 556:Drivers/STM32G4xx_HAL_Driver/Src/stm32g4xx_hal_pwr_ex.c ****   * @brief Enable SRAM2 content retention in Standby mode.
 557:Drivers/STM32G4xx_HAL_Driver/Src/stm32g4xx_hal_pwr_ex.c ****   * @note  When RRS bit is set, SRAM2 is powered by the low-power regulator in
 558:Drivers/STM32G4xx_HAL_Driver/Src/stm32g4xx_hal_pwr_ex.c ****   *         Standby mode and its content is kept.
 559:Drivers/STM32G4xx_HAL_Driver/Src/stm32g4xx_hal_pwr_ex.c ****   * @retval None
 560:Drivers/STM32G4xx_HAL_Driver/Src/stm32g4xx_hal_pwr_ex.c ****   */
 561:Drivers/STM32G4xx_HAL_Driver/Src/stm32g4xx_hal_pwr_ex.c **** void HAL_PWREx_EnableSRAM2ContentRetention(void)
 562:Drivers/STM32G4xx_HAL_Driver/Src/stm32g4xx_hal_pwr_ex.c **** {
 1175              		.loc 1 562 1 is_stmt 1 view -0
 1176              		.cfi_startproc
 1177              		@ args = 0, pretend = 0, frame = 0
 1178              		@ frame_needed = 0, uses_anonymous_args = 0
 1179              		@ link register save eliminated.
 563:Drivers/STM32G4xx_HAL_Driver/Src/stm32g4xx_hal_pwr_ex.c ****   SET_BIT(PWR->CR3, PWR_CR3_RRS);
 1180              		.loc 1 563 3 view .LVU293
 1181 0000 024A     		ldr	r2, .L116
 1182 0002 9368     		ldr	r3, [r2, #8]
 1183 0004 43F48073 		orr	r3, r3, #256
 1184 0008 9360     		str	r3, [r2, #8]
 564:Drivers/STM32G4xx_HAL_Driver/Src/stm32g4xx_hal_pwr_ex.c **** }
 1185              		.loc 1 564 1 is_stmt 0 view .LVU294
 1186 000a 7047     		bx	lr
 1187              	.L117:
 1188              		.align	2
 1189              	.L116:
 1190 000c 00700040 		.word	1073770496
 1191              		.cfi_endproc
 1192              	.LFE341:
 1194              		.section	.text.HAL_PWREx_DisableSRAM2ContentRetention,"ax",%progbits
 1195              		.align	1
 1196              		.p2align 2,,3
 1197              		.global	HAL_PWREx_DisableSRAM2ContentRetention
 1198              		.syntax unified
ARM GAS  /tmp/ccbR6ah2.s 			page 35


 1199              		.thumb
 1200              		.thumb_func
 1201              		.fpu fpv4-sp-d16
 1203              	HAL_PWREx_DisableSRAM2ContentRetention:
 1204              	.LFB342:
 565:Drivers/STM32G4xx_HAL_Driver/Src/stm32g4xx_hal_pwr_ex.c **** 
 566:Drivers/STM32G4xx_HAL_Driver/Src/stm32g4xx_hal_pwr_ex.c **** 
 567:Drivers/STM32G4xx_HAL_Driver/Src/stm32g4xx_hal_pwr_ex.c **** /**
 568:Drivers/STM32G4xx_HAL_Driver/Src/stm32g4xx_hal_pwr_ex.c ****   * @brief Disable SRAM2 content retention in Standby mode.
 569:Drivers/STM32G4xx_HAL_Driver/Src/stm32g4xx_hal_pwr_ex.c ****   * @note  When RRS bit is reset, SRAM2 is powered off in Standby mode
 570:Drivers/STM32G4xx_HAL_Driver/Src/stm32g4xx_hal_pwr_ex.c ****   *        and its content is lost.
 571:Drivers/STM32G4xx_HAL_Driver/Src/stm32g4xx_hal_pwr_ex.c ****   * @retval None
 572:Drivers/STM32G4xx_HAL_Driver/Src/stm32g4xx_hal_pwr_ex.c ****   */
 573:Drivers/STM32G4xx_HAL_Driver/Src/stm32g4xx_hal_pwr_ex.c **** void HAL_PWREx_DisableSRAM2ContentRetention(void)
 574:Drivers/STM32G4xx_HAL_Driver/Src/stm32g4xx_hal_pwr_ex.c **** {
 1205              		.loc 1 574 1 is_stmt 1 view -0
 1206              		.cfi_startproc
 1207              		@ args = 0, pretend = 0, frame = 0
 1208              		@ frame_needed = 0, uses_anonymous_args = 0
 1209              		@ link register save eliminated.
 575:Drivers/STM32G4xx_HAL_Driver/Src/stm32g4xx_hal_pwr_ex.c ****   CLEAR_BIT(PWR->CR3, PWR_CR3_RRS);
 1210              		.loc 1 575 3 view .LVU296
 1211 0000 024A     		ldr	r2, .L119
 1212 0002 9368     		ldr	r3, [r2, #8]
 1213 0004 23F48073 		bic	r3, r3, #256
 1214 0008 9360     		str	r3, [r2, #8]
 576:Drivers/STM32G4xx_HAL_Driver/Src/stm32g4xx_hal_pwr_ex.c **** }
 1215              		.loc 1 576 1 is_stmt 0 view .LVU297
 1216 000a 7047     		bx	lr
 1217              	.L120:
 1218              		.align	2
 1219              	.L119:
 1220 000c 00700040 		.word	1073770496
 1221              		.cfi_endproc
 1222              	.LFE342:
 1224              		.section	.text.HAL_PWREx_EnablePVM1,"ax",%progbits
 1225              		.align	1
 1226              		.p2align 2,,3
 1227              		.global	HAL_PWREx_EnablePVM1
 1228              		.syntax unified
 1229              		.thumb
 1230              		.thumb_func
 1231              		.fpu fpv4-sp-d16
 1233              	HAL_PWREx_EnablePVM1:
 1234              	.LFB343:
 577:Drivers/STM32G4xx_HAL_Driver/Src/stm32g4xx_hal_pwr_ex.c **** 
 578:Drivers/STM32G4xx_HAL_Driver/Src/stm32g4xx_hal_pwr_ex.c **** 
 579:Drivers/STM32G4xx_HAL_Driver/Src/stm32g4xx_hal_pwr_ex.c **** 
 580:Drivers/STM32G4xx_HAL_Driver/Src/stm32g4xx_hal_pwr_ex.c **** 
 581:Drivers/STM32G4xx_HAL_Driver/Src/stm32g4xx_hal_pwr_ex.c **** #if defined(PWR_CR2_PVME1)
 582:Drivers/STM32G4xx_HAL_Driver/Src/stm32g4xx_hal_pwr_ex.c **** /**
 583:Drivers/STM32G4xx_HAL_Driver/Src/stm32g4xx_hal_pwr_ex.c ****   * @brief Enable the Power Voltage Monitoring 1: VDDA versus FASTCOMP minimum voltage.
 584:Drivers/STM32G4xx_HAL_Driver/Src/stm32g4xx_hal_pwr_ex.c ****   * @retval None
 585:Drivers/STM32G4xx_HAL_Driver/Src/stm32g4xx_hal_pwr_ex.c ****   */
 586:Drivers/STM32G4xx_HAL_Driver/Src/stm32g4xx_hal_pwr_ex.c **** void HAL_PWREx_EnablePVM1(void)
 587:Drivers/STM32G4xx_HAL_Driver/Src/stm32g4xx_hal_pwr_ex.c **** {
 1235              		.loc 1 587 1 is_stmt 1 view -0
ARM GAS  /tmp/ccbR6ah2.s 			page 36


 1236              		.cfi_startproc
 1237              		@ args = 0, pretend = 0, frame = 0
 1238              		@ frame_needed = 0, uses_anonymous_args = 0
 1239              		@ link register save eliminated.
 588:Drivers/STM32G4xx_HAL_Driver/Src/stm32g4xx_hal_pwr_ex.c ****   SET_BIT(PWR->CR2, PWR_PVM_1);
 1240              		.loc 1 588 3 view .LVU299
 1241 0000 024A     		ldr	r2, .L122
 1242 0002 5368     		ldr	r3, [r2, #4]
 1243 0004 43F01003 		orr	r3, r3, #16
 1244 0008 5360     		str	r3, [r2, #4]
 589:Drivers/STM32G4xx_HAL_Driver/Src/stm32g4xx_hal_pwr_ex.c **** }
 1245              		.loc 1 589 1 is_stmt 0 view .LVU300
 1246 000a 7047     		bx	lr
 1247              	.L123:
 1248              		.align	2
 1249              	.L122:
 1250 000c 00700040 		.word	1073770496
 1251              		.cfi_endproc
 1252              	.LFE343:
 1254              		.section	.text.HAL_PWREx_DisablePVM1,"ax",%progbits
 1255              		.align	1
 1256              		.p2align 2,,3
 1257              		.global	HAL_PWREx_DisablePVM1
 1258              		.syntax unified
 1259              		.thumb
 1260              		.thumb_func
 1261              		.fpu fpv4-sp-d16
 1263              	HAL_PWREx_DisablePVM1:
 1264              	.LFB344:
 590:Drivers/STM32G4xx_HAL_Driver/Src/stm32g4xx_hal_pwr_ex.c **** 
 591:Drivers/STM32G4xx_HAL_Driver/Src/stm32g4xx_hal_pwr_ex.c **** /**
 592:Drivers/STM32G4xx_HAL_Driver/Src/stm32g4xx_hal_pwr_ex.c ****   * @brief Disable the Power Voltage Monitoring 1: VDDA versus FASTCOMP minimum voltage.
 593:Drivers/STM32G4xx_HAL_Driver/Src/stm32g4xx_hal_pwr_ex.c ****   * @retval None
 594:Drivers/STM32G4xx_HAL_Driver/Src/stm32g4xx_hal_pwr_ex.c ****   */
 595:Drivers/STM32G4xx_HAL_Driver/Src/stm32g4xx_hal_pwr_ex.c **** void HAL_PWREx_DisablePVM1(void)
 596:Drivers/STM32G4xx_HAL_Driver/Src/stm32g4xx_hal_pwr_ex.c **** {
 1265              		.loc 1 596 1 is_stmt 1 view -0
 1266              		.cfi_startproc
 1267              		@ args = 0, pretend = 0, frame = 0
 1268              		@ frame_needed = 0, uses_anonymous_args = 0
 1269              		@ link register save eliminated.
 597:Drivers/STM32G4xx_HAL_Driver/Src/stm32g4xx_hal_pwr_ex.c ****   CLEAR_BIT(PWR->CR2, PWR_PVM_1);
 1270              		.loc 1 597 3 view .LVU302
 1271 0000 024A     		ldr	r2, .L125
 1272 0002 5368     		ldr	r3, [r2, #4]
 1273 0004 23F01003 		bic	r3, r3, #16
 1274 0008 5360     		str	r3, [r2, #4]
 598:Drivers/STM32G4xx_HAL_Driver/Src/stm32g4xx_hal_pwr_ex.c **** }
 1275              		.loc 1 598 1 is_stmt 0 view .LVU303
 1276 000a 7047     		bx	lr
 1277              	.L126:
 1278              		.align	2
 1279              	.L125:
 1280 000c 00700040 		.word	1073770496
 1281              		.cfi_endproc
 1282              	.LFE344:
 1284              		.section	.text.HAL_PWREx_EnablePVM2,"ax",%progbits
ARM GAS  /tmp/ccbR6ah2.s 			page 37


 1285              		.align	1
 1286              		.p2align 2,,3
 1287              		.global	HAL_PWREx_EnablePVM2
 1288              		.syntax unified
 1289              		.thumb
 1290              		.thumb_func
 1291              		.fpu fpv4-sp-d16
 1293              	HAL_PWREx_EnablePVM2:
 1294              	.LFB345:
 599:Drivers/STM32G4xx_HAL_Driver/Src/stm32g4xx_hal_pwr_ex.c **** #endif /* PWR_CR2_PVME1 */
 600:Drivers/STM32G4xx_HAL_Driver/Src/stm32g4xx_hal_pwr_ex.c **** 
 601:Drivers/STM32G4xx_HAL_Driver/Src/stm32g4xx_hal_pwr_ex.c **** 
 602:Drivers/STM32G4xx_HAL_Driver/Src/stm32g4xx_hal_pwr_ex.c **** #if defined(PWR_CR2_PVME2)
 603:Drivers/STM32G4xx_HAL_Driver/Src/stm32g4xx_hal_pwr_ex.c **** /**
 604:Drivers/STM32G4xx_HAL_Driver/Src/stm32g4xx_hal_pwr_ex.c ****   * @brief Enable the Power Voltage Monitoring 2: VDDA versus FASTDAC minimum voltage.
 605:Drivers/STM32G4xx_HAL_Driver/Src/stm32g4xx_hal_pwr_ex.c ****   * @retval None
 606:Drivers/STM32G4xx_HAL_Driver/Src/stm32g4xx_hal_pwr_ex.c ****   */
 607:Drivers/STM32G4xx_HAL_Driver/Src/stm32g4xx_hal_pwr_ex.c **** void HAL_PWREx_EnablePVM2(void)
 608:Drivers/STM32G4xx_HAL_Driver/Src/stm32g4xx_hal_pwr_ex.c **** {
 1295              		.loc 1 608 1 is_stmt 1 view -0
 1296              		.cfi_startproc
 1297              		@ args = 0, pretend = 0, frame = 0
 1298              		@ frame_needed = 0, uses_anonymous_args = 0
 1299              		@ link register save eliminated.
 609:Drivers/STM32G4xx_HAL_Driver/Src/stm32g4xx_hal_pwr_ex.c ****   SET_BIT(PWR->CR2, PWR_PVM_2);
 1300              		.loc 1 609 3 view .LVU305
 1301 0000 024A     		ldr	r2, .L128
 1302 0002 5368     		ldr	r3, [r2, #4]
 1303 0004 43F02003 		orr	r3, r3, #32
 1304 0008 5360     		str	r3, [r2, #4]
 610:Drivers/STM32G4xx_HAL_Driver/Src/stm32g4xx_hal_pwr_ex.c **** }
 1305              		.loc 1 610 1 is_stmt 0 view .LVU306
 1306 000a 7047     		bx	lr
 1307              	.L129:
 1308              		.align	2
 1309              	.L128:
 1310 000c 00700040 		.word	1073770496
 1311              		.cfi_endproc
 1312              	.LFE345:
 1314              		.section	.text.HAL_PWREx_DisablePVM2,"ax",%progbits
 1315              		.align	1
 1316              		.p2align 2,,3
 1317              		.global	HAL_PWREx_DisablePVM2
 1318              		.syntax unified
 1319              		.thumb
 1320              		.thumb_func
 1321              		.fpu fpv4-sp-d16
 1323              	HAL_PWREx_DisablePVM2:
 1324              	.LFB346:
 611:Drivers/STM32G4xx_HAL_Driver/Src/stm32g4xx_hal_pwr_ex.c **** 
 612:Drivers/STM32G4xx_HAL_Driver/Src/stm32g4xx_hal_pwr_ex.c **** /**
 613:Drivers/STM32G4xx_HAL_Driver/Src/stm32g4xx_hal_pwr_ex.c ****   * @brief Disable the Power Voltage Monitoring 2: VDDA versus FASTDAC minimum voltage.
 614:Drivers/STM32G4xx_HAL_Driver/Src/stm32g4xx_hal_pwr_ex.c ****   * @retval None
 615:Drivers/STM32G4xx_HAL_Driver/Src/stm32g4xx_hal_pwr_ex.c ****   */
 616:Drivers/STM32G4xx_HAL_Driver/Src/stm32g4xx_hal_pwr_ex.c **** void HAL_PWREx_DisablePVM2(void)
 617:Drivers/STM32G4xx_HAL_Driver/Src/stm32g4xx_hal_pwr_ex.c **** {
 1325              		.loc 1 617 1 is_stmt 1 view -0
ARM GAS  /tmp/ccbR6ah2.s 			page 38


 1326              		.cfi_startproc
 1327              		@ args = 0, pretend = 0, frame = 0
 1328              		@ frame_needed = 0, uses_anonymous_args = 0
 1329              		@ link register save eliminated.
 618:Drivers/STM32G4xx_HAL_Driver/Src/stm32g4xx_hal_pwr_ex.c ****   CLEAR_BIT(PWR->CR2, PWR_PVM_2);
 1330              		.loc 1 618 3 view .LVU308
 1331 0000 024A     		ldr	r2, .L131
 1332 0002 5368     		ldr	r3, [r2, #4]
 1333 0004 23F02003 		bic	r3, r3, #32
 1334 0008 5360     		str	r3, [r2, #4]
 619:Drivers/STM32G4xx_HAL_Driver/Src/stm32g4xx_hal_pwr_ex.c **** }
 1335              		.loc 1 619 1 is_stmt 0 view .LVU309
 1336 000a 7047     		bx	lr
 1337              	.L132:
 1338              		.align	2
 1339              	.L131:
 1340 000c 00700040 		.word	1073770496
 1341              		.cfi_endproc
 1342              	.LFE346:
 1344              		.section	.text.HAL_PWREx_EnablePVM3,"ax",%progbits
 1345              		.align	1
 1346              		.p2align 2,,3
 1347              		.global	HAL_PWREx_EnablePVM3
 1348              		.syntax unified
 1349              		.thumb
 1350              		.thumb_func
 1351              		.fpu fpv4-sp-d16
 1353              	HAL_PWREx_EnablePVM3:
 1354              	.LFB347:
 620:Drivers/STM32G4xx_HAL_Driver/Src/stm32g4xx_hal_pwr_ex.c **** #endif /* PWR_CR2_PVME2 */
 621:Drivers/STM32G4xx_HAL_Driver/Src/stm32g4xx_hal_pwr_ex.c **** 
 622:Drivers/STM32G4xx_HAL_Driver/Src/stm32g4xx_hal_pwr_ex.c **** 
 623:Drivers/STM32G4xx_HAL_Driver/Src/stm32g4xx_hal_pwr_ex.c **** /**
 624:Drivers/STM32G4xx_HAL_Driver/Src/stm32g4xx_hal_pwr_ex.c ****   * @brief Enable the Power Voltage Monitoring 3: VDDA versus ADC minimum voltage 1.62V.
 625:Drivers/STM32G4xx_HAL_Driver/Src/stm32g4xx_hal_pwr_ex.c ****   * @retval None
 626:Drivers/STM32G4xx_HAL_Driver/Src/stm32g4xx_hal_pwr_ex.c ****   */
 627:Drivers/STM32G4xx_HAL_Driver/Src/stm32g4xx_hal_pwr_ex.c **** void HAL_PWREx_EnablePVM3(void)
 628:Drivers/STM32G4xx_HAL_Driver/Src/stm32g4xx_hal_pwr_ex.c **** {
 1355              		.loc 1 628 1 is_stmt 1 view -0
 1356              		.cfi_startproc
 1357              		@ args = 0, pretend = 0, frame = 0
 1358              		@ frame_needed = 0, uses_anonymous_args = 0
 1359              		@ link register save eliminated.
 629:Drivers/STM32G4xx_HAL_Driver/Src/stm32g4xx_hal_pwr_ex.c ****   SET_BIT(PWR->CR2, PWR_PVM_3);
 1360              		.loc 1 629 3 view .LVU311
 1361 0000 024A     		ldr	r2, .L134
 1362 0002 5368     		ldr	r3, [r2, #4]
 1363 0004 43F04003 		orr	r3, r3, #64
 1364 0008 5360     		str	r3, [r2, #4]
 630:Drivers/STM32G4xx_HAL_Driver/Src/stm32g4xx_hal_pwr_ex.c **** }
 1365              		.loc 1 630 1 is_stmt 0 view .LVU312
 1366 000a 7047     		bx	lr
 1367              	.L135:
 1368              		.align	2
 1369              	.L134:
 1370 000c 00700040 		.word	1073770496
 1371              		.cfi_endproc
ARM GAS  /tmp/ccbR6ah2.s 			page 39


 1372              	.LFE347:
 1374              		.section	.text.HAL_PWREx_DisablePVM3,"ax",%progbits
 1375              		.align	1
 1376              		.p2align 2,,3
 1377              		.global	HAL_PWREx_DisablePVM3
 1378              		.syntax unified
 1379              		.thumb
 1380              		.thumb_func
 1381              		.fpu fpv4-sp-d16
 1383              	HAL_PWREx_DisablePVM3:
 1384              	.LFB348:
 631:Drivers/STM32G4xx_HAL_Driver/Src/stm32g4xx_hal_pwr_ex.c **** 
 632:Drivers/STM32G4xx_HAL_Driver/Src/stm32g4xx_hal_pwr_ex.c **** /**
 633:Drivers/STM32G4xx_HAL_Driver/Src/stm32g4xx_hal_pwr_ex.c ****   * @brief Disable the Power Voltage Monitoring 3: VDDA versus ADC minimum voltage 1.62V.
 634:Drivers/STM32G4xx_HAL_Driver/Src/stm32g4xx_hal_pwr_ex.c ****   * @retval None
 635:Drivers/STM32G4xx_HAL_Driver/Src/stm32g4xx_hal_pwr_ex.c ****   */
 636:Drivers/STM32G4xx_HAL_Driver/Src/stm32g4xx_hal_pwr_ex.c **** void HAL_PWREx_DisablePVM3(void)
 637:Drivers/STM32G4xx_HAL_Driver/Src/stm32g4xx_hal_pwr_ex.c **** {
 1385              		.loc 1 637 1 is_stmt 1 view -0
 1386              		.cfi_startproc
 1387              		@ args = 0, pretend = 0, frame = 0
 1388              		@ frame_needed = 0, uses_anonymous_args = 0
 1389              		@ link register save eliminated.
 638:Drivers/STM32G4xx_HAL_Driver/Src/stm32g4xx_hal_pwr_ex.c ****   CLEAR_BIT(PWR->CR2, PWR_PVM_3);
 1390              		.loc 1 638 3 view .LVU314
 1391 0000 024A     		ldr	r2, .L137
 1392 0002 5368     		ldr	r3, [r2, #4]
 1393 0004 23F04003 		bic	r3, r3, #64
 1394 0008 5360     		str	r3, [r2, #4]
 639:Drivers/STM32G4xx_HAL_Driver/Src/stm32g4xx_hal_pwr_ex.c **** }
 1395              		.loc 1 639 1 is_stmt 0 view .LVU315
 1396 000a 7047     		bx	lr
 1397              	.L138:
 1398              		.align	2
 1399              	.L137:
 1400 000c 00700040 		.word	1073770496
 1401              		.cfi_endproc
 1402              	.LFE348:
 1404              		.section	.text.HAL_PWREx_EnablePVM4,"ax",%progbits
 1405              		.align	1
 1406              		.p2align 2,,3
 1407              		.global	HAL_PWREx_EnablePVM4
 1408              		.syntax unified
 1409              		.thumb
 1410              		.thumb_func
 1411              		.fpu fpv4-sp-d16
 1413              	HAL_PWREx_EnablePVM4:
 1414              	.LFB349:
 640:Drivers/STM32G4xx_HAL_Driver/Src/stm32g4xx_hal_pwr_ex.c **** 
 641:Drivers/STM32G4xx_HAL_Driver/Src/stm32g4xx_hal_pwr_ex.c **** 
 642:Drivers/STM32G4xx_HAL_Driver/Src/stm32g4xx_hal_pwr_ex.c **** /**
 643:Drivers/STM32G4xx_HAL_Driver/Src/stm32g4xx_hal_pwr_ex.c ****   * @brief Enable the Power Voltage Monitoring 4: VDDA versus OPAMP/DAC minimum voltage 1.8V.
 644:Drivers/STM32G4xx_HAL_Driver/Src/stm32g4xx_hal_pwr_ex.c ****   * @retval None
 645:Drivers/STM32G4xx_HAL_Driver/Src/stm32g4xx_hal_pwr_ex.c ****   */
 646:Drivers/STM32G4xx_HAL_Driver/Src/stm32g4xx_hal_pwr_ex.c **** void HAL_PWREx_EnablePVM4(void)
 647:Drivers/STM32G4xx_HAL_Driver/Src/stm32g4xx_hal_pwr_ex.c **** {
 1415              		.loc 1 647 1 is_stmt 1 view -0
ARM GAS  /tmp/ccbR6ah2.s 			page 40


 1416              		.cfi_startproc
 1417              		@ args = 0, pretend = 0, frame = 0
 1418              		@ frame_needed = 0, uses_anonymous_args = 0
 1419              		@ link register save eliminated.
 648:Drivers/STM32G4xx_HAL_Driver/Src/stm32g4xx_hal_pwr_ex.c ****   SET_BIT(PWR->CR2, PWR_PVM_4);
 1420              		.loc 1 648 3 view .LVU317
 1421 0000 024A     		ldr	r2, .L140
 1422 0002 5368     		ldr	r3, [r2, #4]
 1423 0004 43F08003 		orr	r3, r3, #128
 1424 0008 5360     		str	r3, [r2, #4]
 649:Drivers/STM32G4xx_HAL_Driver/Src/stm32g4xx_hal_pwr_ex.c **** }
 1425              		.loc 1 649 1 is_stmt 0 view .LVU318
 1426 000a 7047     		bx	lr
 1427              	.L141:
 1428              		.align	2
 1429              	.L140:
 1430 000c 00700040 		.word	1073770496
 1431              		.cfi_endproc
 1432              	.LFE349:
 1434              		.section	.text.HAL_PWREx_DisablePVM4,"ax",%progbits
 1435              		.align	1
 1436              		.p2align 2,,3
 1437              		.global	HAL_PWREx_DisablePVM4
 1438              		.syntax unified
 1439              		.thumb
 1440              		.thumb_func
 1441              		.fpu fpv4-sp-d16
 1443              	HAL_PWREx_DisablePVM4:
 1444              	.LFB350:
 650:Drivers/STM32G4xx_HAL_Driver/Src/stm32g4xx_hal_pwr_ex.c **** 
 651:Drivers/STM32G4xx_HAL_Driver/Src/stm32g4xx_hal_pwr_ex.c **** /**
 652:Drivers/STM32G4xx_HAL_Driver/Src/stm32g4xx_hal_pwr_ex.c ****   * @brief Disable the Power Voltage Monitoring 4: VDDA versus OPAMP/DAC minimum voltage 1.8V.
 653:Drivers/STM32G4xx_HAL_Driver/Src/stm32g4xx_hal_pwr_ex.c ****   * @retval None
 654:Drivers/STM32G4xx_HAL_Driver/Src/stm32g4xx_hal_pwr_ex.c ****   */
 655:Drivers/STM32G4xx_HAL_Driver/Src/stm32g4xx_hal_pwr_ex.c **** void HAL_PWREx_DisablePVM4(void)
 656:Drivers/STM32G4xx_HAL_Driver/Src/stm32g4xx_hal_pwr_ex.c **** {
 1445              		.loc 1 656 1 is_stmt 1 view -0
 1446              		.cfi_startproc
 1447              		@ args = 0, pretend = 0, frame = 0
 1448              		@ frame_needed = 0, uses_anonymous_args = 0
 1449              		@ link register save eliminated.
 657:Drivers/STM32G4xx_HAL_Driver/Src/stm32g4xx_hal_pwr_ex.c ****   CLEAR_BIT(PWR->CR2, PWR_PVM_4);
 1450              		.loc 1 657 3 view .LVU320
 1451 0000 024A     		ldr	r2, .L143
 1452 0002 5368     		ldr	r3, [r2, #4]
 1453 0004 23F08003 		bic	r3, r3, #128
 1454 0008 5360     		str	r3, [r2, #4]
 658:Drivers/STM32G4xx_HAL_Driver/Src/stm32g4xx_hal_pwr_ex.c **** }
 1455              		.loc 1 658 1 is_stmt 0 view .LVU321
 1456 000a 7047     		bx	lr
 1457              	.L144:
 1458              		.align	2
 1459              	.L143:
 1460 000c 00700040 		.word	1073770496
 1461              		.cfi_endproc
 1462              	.LFE350:
 1464              		.section	.text.HAL_PWREx_ConfigPVM,"ax",%progbits
ARM GAS  /tmp/ccbR6ah2.s 			page 41


 1465              		.align	1
 1466              		.p2align 2,,3
 1467              		.global	HAL_PWREx_ConfigPVM
 1468              		.syntax unified
 1469              		.thumb
 1470              		.thumb_func
 1471              		.fpu fpv4-sp-d16
 1473              	HAL_PWREx_ConfigPVM:
 1474              	.LVL108:
 1475              	.LFB351:
 659:Drivers/STM32G4xx_HAL_Driver/Src/stm32g4xx_hal_pwr_ex.c **** 
 660:Drivers/STM32G4xx_HAL_Driver/Src/stm32g4xx_hal_pwr_ex.c **** 
 661:Drivers/STM32G4xx_HAL_Driver/Src/stm32g4xx_hal_pwr_ex.c **** 
 662:Drivers/STM32G4xx_HAL_Driver/Src/stm32g4xx_hal_pwr_ex.c **** 
 663:Drivers/STM32G4xx_HAL_Driver/Src/stm32g4xx_hal_pwr_ex.c **** /**
 664:Drivers/STM32G4xx_HAL_Driver/Src/stm32g4xx_hal_pwr_ex.c ****   * @brief Configure the Peripheral Voltage Monitoring (PVM).
 665:Drivers/STM32G4xx_HAL_Driver/Src/stm32g4xx_hal_pwr_ex.c ****   * @param sConfigPVM: pointer to a PWR_PVMTypeDef structure that contains the
 666:Drivers/STM32G4xx_HAL_Driver/Src/stm32g4xx_hal_pwr_ex.c ****   *        PVM configuration information.
 667:Drivers/STM32G4xx_HAL_Driver/Src/stm32g4xx_hal_pwr_ex.c ****   * @note The API configures a single PVM according to the information contained
 668:Drivers/STM32G4xx_HAL_Driver/Src/stm32g4xx_hal_pwr_ex.c ****   *       in the input structure. To configure several PVMs, the API must be singly
 669:Drivers/STM32G4xx_HAL_Driver/Src/stm32g4xx_hal_pwr_ex.c ****   *       called for each PVM used.
 670:Drivers/STM32G4xx_HAL_Driver/Src/stm32g4xx_hal_pwr_ex.c ****   * @note Refer to the electrical characteristics of your device datasheet for
 671:Drivers/STM32G4xx_HAL_Driver/Src/stm32g4xx_hal_pwr_ex.c ****   *         more details about the voltage thresholds corresponding to each
 672:Drivers/STM32G4xx_HAL_Driver/Src/stm32g4xx_hal_pwr_ex.c ****   *         detection level and to each monitored supply.
 673:Drivers/STM32G4xx_HAL_Driver/Src/stm32g4xx_hal_pwr_ex.c ****   * @retval HAL status
 674:Drivers/STM32G4xx_HAL_Driver/Src/stm32g4xx_hal_pwr_ex.c ****   */
 675:Drivers/STM32G4xx_HAL_Driver/Src/stm32g4xx_hal_pwr_ex.c **** HAL_StatusTypeDef HAL_PWREx_ConfigPVM(PWR_PVMTypeDef *sConfigPVM)
 676:Drivers/STM32G4xx_HAL_Driver/Src/stm32g4xx_hal_pwr_ex.c **** {
 1476              		.loc 1 676 1 is_stmt 1 view -0
 1477              		.cfi_startproc
 1478              		@ args = 0, pretend = 0, frame = 0
 1479              		@ frame_needed = 0, uses_anonymous_args = 0
 1480              		@ link register save eliminated.
 677:Drivers/STM32G4xx_HAL_Driver/Src/stm32g4xx_hal_pwr_ex.c ****   HAL_StatusTypeDef status = HAL_OK;
 1481              		.loc 1 677 3 view .LVU323
 678:Drivers/STM32G4xx_HAL_Driver/Src/stm32g4xx_hal_pwr_ex.c **** 
 679:Drivers/STM32G4xx_HAL_Driver/Src/stm32g4xx_hal_pwr_ex.c ****   /* Check the parameters */
 680:Drivers/STM32G4xx_HAL_Driver/Src/stm32g4xx_hal_pwr_ex.c ****   assert_param(IS_PWR_PVM_TYPE(sConfigPVM->PVMType));
 1482              		.loc 1 680 3 view .LVU324
 681:Drivers/STM32G4xx_HAL_Driver/Src/stm32g4xx_hal_pwr_ex.c ****   assert_param(IS_PWR_PVM_MODE(sConfigPVM->Mode));
 1483              		.loc 1 681 3 view .LVU325
 682:Drivers/STM32G4xx_HAL_Driver/Src/stm32g4xx_hal_pwr_ex.c **** 
 683:Drivers/STM32G4xx_HAL_Driver/Src/stm32g4xx_hal_pwr_ex.c **** 
 684:Drivers/STM32G4xx_HAL_Driver/Src/stm32g4xx_hal_pwr_ex.c ****   /* Configure EXTI 35 to 38 interrupts if so required:
 685:Drivers/STM32G4xx_HAL_Driver/Src/stm32g4xx_hal_pwr_ex.c ****      scan through PVMType to detect which PVMx is set and
 686:Drivers/STM32G4xx_HAL_Driver/Src/stm32g4xx_hal_pwr_ex.c ****      configure the corresponding EXTI line accordingly. */
 687:Drivers/STM32G4xx_HAL_Driver/Src/stm32g4xx_hal_pwr_ex.c ****   switch (sConfigPVM->PVMType)
 1484              		.loc 1 687 3 view .LVU326
 1485              		.loc 1 687 21 is_stmt 0 view .LVU327
 1486 0000 0368     		ldr	r3, [r0]
 1487              		.loc 1 687 3 view .LVU328
 1488 0002 402B     		cmp	r3, #64
 1489 0004 00F09680 		beq	.L146
 1490 0008 32D8     		bhi	.L147
 1491 000a 102B     		cmp	r3, #16
 1492 000c 63D0     		beq	.L148
 1493 000e 202B     		cmp	r3, #32
ARM GAS  /tmp/ccbR6ah2.s 			page 42


 1494 0010 5FD1     		bne	.L211
 688:Drivers/STM32G4xx_HAL_Driver/Src/stm32g4xx_hal_pwr_ex.c ****   {
 689:Drivers/STM32G4xx_HAL_Driver/Src/stm32g4xx_hal_pwr_ex.c **** #if defined(PWR_CR2_PVME1)
 690:Drivers/STM32G4xx_HAL_Driver/Src/stm32g4xx_hal_pwr_ex.c ****     case PWR_PVM_1:
 691:Drivers/STM32G4xx_HAL_Driver/Src/stm32g4xx_hal_pwr_ex.c ****       /* Clear any previous config. Keep it clear if no event or IT mode is selected */
 692:Drivers/STM32G4xx_HAL_Driver/Src/stm32g4xx_hal_pwr_ex.c ****       __HAL_PWR_PVM1_EXTI_DISABLE_EVENT();
 693:Drivers/STM32G4xx_HAL_Driver/Src/stm32g4xx_hal_pwr_ex.c ****       __HAL_PWR_PVM1_EXTI_DISABLE_IT();
 694:Drivers/STM32G4xx_HAL_Driver/Src/stm32g4xx_hal_pwr_ex.c ****       __HAL_PWR_PVM1_EXTI_DISABLE_FALLING_EDGE();
 695:Drivers/STM32G4xx_HAL_Driver/Src/stm32g4xx_hal_pwr_ex.c ****       __HAL_PWR_PVM1_EXTI_DISABLE_RISING_EDGE();
 696:Drivers/STM32G4xx_HAL_Driver/Src/stm32g4xx_hal_pwr_ex.c **** 
 697:Drivers/STM32G4xx_HAL_Driver/Src/stm32g4xx_hal_pwr_ex.c ****       /* Configure interrupt mode */
 698:Drivers/STM32G4xx_HAL_Driver/Src/stm32g4xx_hal_pwr_ex.c ****       if((sConfigPVM->Mode & PVM_MODE_IT) == PVM_MODE_IT)
 699:Drivers/STM32G4xx_HAL_Driver/Src/stm32g4xx_hal_pwr_ex.c ****       {
 700:Drivers/STM32G4xx_HAL_Driver/Src/stm32g4xx_hal_pwr_ex.c ****         __HAL_PWR_PVM1_EXTI_ENABLE_IT();
 701:Drivers/STM32G4xx_HAL_Driver/Src/stm32g4xx_hal_pwr_ex.c ****       }
 702:Drivers/STM32G4xx_HAL_Driver/Src/stm32g4xx_hal_pwr_ex.c **** 
 703:Drivers/STM32G4xx_HAL_Driver/Src/stm32g4xx_hal_pwr_ex.c ****       /* Configure event mode */
 704:Drivers/STM32G4xx_HAL_Driver/Src/stm32g4xx_hal_pwr_ex.c ****       if((sConfigPVM->Mode & PVM_MODE_EVT) == PVM_MODE_EVT)
 705:Drivers/STM32G4xx_HAL_Driver/Src/stm32g4xx_hal_pwr_ex.c ****       {
 706:Drivers/STM32G4xx_HAL_Driver/Src/stm32g4xx_hal_pwr_ex.c ****         __HAL_PWR_PVM1_EXTI_ENABLE_EVENT();
 707:Drivers/STM32G4xx_HAL_Driver/Src/stm32g4xx_hal_pwr_ex.c ****       }
 708:Drivers/STM32G4xx_HAL_Driver/Src/stm32g4xx_hal_pwr_ex.c **** 
 709:Drivers/STM32G4xx_HAL_Driver/Src/stm32g4xx_hal_pwr_ex.c ****       /* Configure the edge */
 710:Drivers/STM32G4xx_HAL_Driver/Src/stm32g4xx_hal_pwr_ex.c ****       if((sConfigPVM->Mode & PVM_RISING_EDGE) == PVM_RISING_EDGE)
 711:Drivers/STM32G4xx_HAL_Driver/Src/stm32g4xx_hal_pwr_ex.c ****       {
 712:Drivers/STM32G4xx_HAL_Driver/Src/stm32g4xx_hal_pwr_ex.c ****         __HAL_PWR_PVM1_EXTI_ENABLE_RISING_EDGE();
 713:Drivers/STM32G4xx_HAL_Driver/Src/stm32g4xx_hal_pwr_ex.c ****       }
 714:Drivers/STM32G4xx_HAL_Driver/Src/stm32g4xx_hal_pwr_ex.c **** 
 715:Drivers/STM32G4xx_HAL_Driver/Src/stm32g4xx_hal_pwr_ex.c ****       if((sConfigPVM->Mode & PVM_FALLING_EDGE) == PVM_FALLING_EDGE)
 716:Drivers/STM32G4xx_HAL_Driver/Src/stm32g4xx_hal_pwr_ex.c ****       {
 717:Drivers/STM32G4xx_HAL_Driver/Src/stm32g4xx_hal_pwr_ex.c ****         __HAL_PWR_PVM1_EXTI_ENABLE_FALLING_EDGE();
 718:Drivers/STM32G4xx_HAL_Driver/Src/stm32g4xx_hal_pwr_ex.c ****       }
 719:Drivers/STM32G4xx_HAL_Driver/Src/stm32g4xx_hal_pwr_ex.c ****       break;
 720:Drivers/STM32G4xx_HAL_Driver/Src/stm32g4xx_hal_pwr_ex.c **** #endif /* PWR_CR2_PVME1 */
 721:Drivers/STM32G4xx_HAL_Driver/Src/stm32g4xx_hal_pwr_ex.c **** 
 722:Drivers/STM32G4xx_HAL_Driver/Src/stm32g4xx_hal_pwr_ex.c **** #if defined(PWR_CR2_PVME2)
 723:Drivers/STM32G4xx_HAL_Driver/Src/stm32g4xx_hal_pwr_ex.c ****     case PWR_PVM_2:
 724:Drivers/STM32G4xx_HAL_Driver/Src/stm32g4xx_hal_pwr_ex.c ****       /* Clear any previous config. Keep it clear if no event or IT mode is selected */
 725:Drivers/STM32G4xx_HAL_Driver/Src/stm32g4xx_hal_pwr_ex.c ****       __HAL_PWR_PVM2_EXTI_DISABLE_EVENT();
 1495              		.loc 1 725 7 is_stmt 1 view .LVU329
 1496 0012 604B     		ldr	r3, .L213
 1497 0014 5A6A     		ldr	r2, [r3, #36]
 1498 0016 22F01002 		bic	r2, r2, #16
 1499 001a 5A62     		str	r2, [r3, #36]
 726:Drivers/STM32G4xx_HAL_Driver/Src/stm32g4xx_hal_pwr_ex.c ****       __HAL_PWR_PVM2_EXTI_DISABLE_IT();
 1500              		.loc 1 726 7 view .LVU330
 1501 001c 1A6A     		ldr	r2, [r3, #32]
 1502 001e 22F01002 		bic	r2, r2, #16
 1503 0022 1A62     		str	r2, [r3, #32]
 727:Drivers/STM32G4xx_HAL_Driver/Src/stm32g4xx_hal_pwr_ex.c ****       __HAL_PWR_PVM2_EXTI_DISABLE_FALLING_EDGE();
 1504              		.loc 1 727 7 view .LVU331
 1505 0024 DA6A     		ldr	r2, [r3, #44]
 1506 0026 22F01002 		bic	r2, r2, #16
 1507 002a DA62     		str	r2, [r3, #44]
 728:Drivers/STM32G4xx_HAL_Driver/Src/stm32g4xx_hal_pwr_ex.c ****       __HAL_PWR_PVM2_EXTI_DISABLE_RISING_EDGE();
 1508              		.loc 1 728 7 view .LVU332
 1509 002c 9A6A     		ldr	r2, [r3, #40]
ARM GAS  /tmp/ccbR6ah2.s 			page 43


 1510 002e 22F01002 		bic	r2, r2, #16
 1511 0032 9A62     		str	r2, [r3, #40]
 729:Drivers/STM32G4xx_HAL_Driver/Src/stm32g4xx_hal_pwr_ex.c **** 
 730:Drivers/STM32G4xx_HAL_Driver/Src/stm32g4xx_hal_pwr_ex.c ****       /* Configure interrupt mode */
 731:Drivers/STM32G4xx_HAL_Driver/Src/stm32g4xx_hal_pwr_ex.c ****       if((sConfigPVM->Mode & PVM_MODE_IT) == PVM_MODE_IT)
 1512              		.loc 1 731 7 view .LVU333
 1513              		.loc 1 731 21 is_stmt 0 view .LVU334
 1514 0034 4268     		ldr	r2, [r0, #4]
 1515              		.loc 1 731 9 view .LVU335
 1516 0036 D103     		lsls	r1, r2, #15
 1517 0038 03D5     		bpl	.L156
 732:Drivers/STM32G4xx_HAL_Driver/Src/stm32g4xx_hal_pwr_ex.c ****       {
 733:Drivers/STM32G4xx_HAL_Driver/Src/stm32g4xx_hal_pwr_ex.c ****         __HAL_PWR_PVM2_EXTI_ENABLE_IT();
 1518              		.loc 1 733 9 is_stmt 1 view .LVU336
 1519 003a 196A     		ldr	r1, [r3, #32]
 1520 003c 41F01001 		orr	r1, r1, #16
 1521 0040 1962     		str	r1, [r3, #32]
 1522              	.L156:
 734:Drivers/STM32G4xx_HAL_Driver/Src/stm32g4xx_hal_pwr_ex.c ****       }
 735:Drivers/STM32G4xx_HAL_Driver/Src/stm32g4xx_hal_pwr_ex.c **** 
 736:Drivers/STM32G4xx_HAL_Driver/Src/stm32g4xx_hal_pwr_ex.c ****       /* Configure event mode */
 737:Drivers/STM32G4xx_HAL_Driver/Src/stm32g4xx_hal_pwr_ex.c ****       if((sConfigPVM->Mode & PVM_MODE_EVT) == PVM_MODE_EVT)
 1523              		.loc 1 737 7 view .LVU337
 1524              		.loc 1 737 9 is_stmt 0 view .LVU338
 1525 0042 9003     		lsls	r0, r2, #14
 1526              	.LVL109:
 1527              		.loc 1 737 9 view .LVU339
 1528 0044 04D5     		bpl	.L157
 738:Drivers/STM32G4xx_HAL_Driver/Src/stm32g4xx_hal_pwr_ex.c ****       {
 739:Drivers/STM32G4xx_HAL_Driver/Src/stm32g4xx_hal_pwr_ex.c ****         __HAL_PWR_PVM2_EXTI_ENABLE_EVENT();
 1529              		.loc 1 739 9 is_stmt 1 view .LVU340
 1530 0046 5349     		ldr	r1, .L213
 1531 0048 4B6A     		ldr	r3, [r1, #36]
 1532 004a 43F01003 		orr	r3, r3, #16
 1533 004e 4B62     		str	r3, [r1, #36]
 1534              	.L157:
 740:Drivers/STM32G4xx_HAL_Driver/Src/stm32g4xx_hal_pwr_ex.c ****       }
 741:Drivers/STM32G4xx_HAL_Driver/Src/stm32g4xx_hal_pwr_ex.c **** 
 742:Drivers/STM32G4xx_HAL_Driver/Src/stm32g4xx_hal_pwr_ex.c ****       /* Configure the edge */
 743:Drivers/STM32G4xx_HAL_Driver/Src/stm32g4xx_hal_pwr_ex.c ****       if((sConfigPVM->Mode & PVM_RISING_EDGE) == PVM_RISING_EDGE)
 1535              		.loc 1 743 7 view .LVU341
 1536              		.loc 1 743 9 is_stmt 0 view .LVU342
 1537 0050 D107     		lsls	r1, r2, #31
 1538 0052 04D5     		bpl	.L158
 744:Drivers/STM32G4xx_HAL_Driver/Src/stm32g4xx_hal_pwr_ex.c ****       {
 745:Drivers/STM32G4xx_HAL_Driver/Src/stm32g4xx_hal_pwr_ex.c ****         __HAL_PWR_PVM2_EXTI_ENABLE_RISING_EDGE();
 1539              		.loc 1 745 9 is_stmt 1 view .LVU343
 1540 0054 4F49     		ldr	r1, .L213
 1541 0056 8B6A     		ldr	r3, [r1, #40]
 1542 0058 43F01003 		orr	r3, r3, #16
 1543 005c 8B62     		str	r3, [r1, #40]
 1544              	.L158:
 746:Drivers/STM32G4xx_HAL_Driver/Src/stm32g4xx_hal_pwr_ex.c ****       }
 747:Drivers/STM32G4xx_HAL_Driver/Src/stm32g4xx_hal_pwr_ex.c **** 
 748:Drivers/STM32G4xx_HAL_Driver/Src/stm32g4xx_hal_pwr_ex.c ****       if((sConfigPVM->Mode & PVM_FALLING_EDGE) == PVM_FALLING_EDGE)
 1545              		.loc 1 748 7 view .LVU344
 1546              		.loc 1 748 9 is_stmt 0 view .LVU345
ARM GAS  /tmp/ccbR6ah2.s 			page 44


 1547 005e 9307     		lsls	r3, r2, #30
 1548 0060 35D5     		bpl	.L212
 749:Drivers/STM32G4xx_HAL_Driver/Src/stm32g4xx_hal_pwr_ex.c ****       {
 750:Drivers/STM32G4xx_HAL_Driver/Src/stm32g4xx_hal_pwr_ex.c ****         __HAL_PWR_PVM2_EXTI_ENABLE_FALLING_EDGE();
 1549              		.loc 1 750 9 is_stmt 1 view .LVU346
 1550 0062 4C4A     		ldr	r2, .L213
 1551 0064 D36A     		ldr	r3, [r2, #44]
 1552 0066 43F01003 		orr	r3, r3, #16
 1553 006a D362     		str	r3, [r2, #44]
 677:Drivers/STM32G4xx_HAL_Driver/Src/stm32g4xx_hal_pwr_ex.c **** 
 1554              		.loc 1 677 21 is_stmt 0 view .LVU347
 1555 006c 0020     		movs	r0, #0
 1556 006e 7047     		bx	lr
 1557              	.LVL110:
 1558              	.L147:
 687:Drivers/STM32G4xx_HAL_Driver/Src/stm32g4xx_hal_pwr_ex.c ****   {
 1559              		.loc 1 687 3 view .LVU348
 1560 0070 802B     		cmp	r3, #128
 1561 0072 2ED1     		bne	.L211
 751:Drivers/STM32G4xx_HAL_Driver/Src/stm32g4xx_hal_pwr_ex.c ****       }
 752:Drivers/STM32G4xx_HAL_Driver/Src/stm32g4xx_hal_pwr_ex.c ****       break;
 753:Drivers/STM32G4xx_HAL_Driver/Src/stm32g4xx_hal_pwr_ex.c **** #endif /* PWR_CR2_PVME2 */
 754:Drivers/STM32G4xx_HAL_Driver/Src/stm32g4xx_hal_pwr_ex.c **** 
 755:Drivers/STM32G4xx_HAL_Driver/Src/stm32g4xx_hal_pwr_ex.c ****     case PWR_PVM_3:
 756:Drivers/STM32G4xx_HAL_Driver/Src/stm32g4xx_hal_pwr_ex.c ****       /* Clear any previous config. Keep it clear if no event or IT mode is selected */
 757:Drivers/STM32G4xx_HAL_Driver/Src/stm32g4xx_hal_pwr_ex.c ****       __HAL_PWR_PVM3_EXTI_DISABLE_EVENT();
 758:Drivers/STM32G4xx_HAL_Driver/Src/stm32g4xx_hal_pwr_ex.c ****       __HAL_PWR_PVM3_EXTI_DISABLE_IT();
 759:Drivers/STM32G4xx_HAL_Driver/Src/stm32g4xx_hal_pwr_ex.c ****       __HAL_PWR_PVM3_EXTI_DISABLE_FALLING_EDGE();
 760:Drivers/STM32G4xx_HAL_Driver/Src/stm32g4xx_hal_pwr_ex.c ****       __HAL_PWR_PVM3_EXTI_DISABLE_RISING_EDGE();
 761:Drivers/STM32G4xx_HAL_Driver/Src/stm32g4xx_hal_pwr_ex.c **** 
 762:Drivers/STM32G4xx_HAL_Driver/Src/stm32g4xx_hal_pwr_ex.c ****       /* Configure interrupt mode */
 763:Drivers/STM32G4xx_HAL_Driver/Src/stm32g4xx_hal_pwr_ex.c ****       if((sConfigPVM->Mode & PVM_MODE_IT) == PVM_MODE_IT)
 764:Drivers/STM32G4xx_HAL_Driver/Src/stm32g4xx_hal_pwr_ex.c ****       {
 765:Drivers/STM32G4xx_HAL_Driver/Src/stm32g4xx_hal_pwr_ex.c ****         __HAL_PWR_PVM3_EXTI_ENABLE_IT();
 766:Drivers/STM32G4xx_HAL_Driver/Src/stm32g4xx_hal_pwr_ex.c ****       }
 767:Drivers/STM32G4xx_HAL_Driver/Src/stm32g4xx_hal_pwr_ex.c **** 
 768:Drivers/STM32G4xx_HAL_Driver/Src/stm32g4xx_hal_pwr_ex.c ****       /* Configure event mode */
 769:Drivers/STM32G4xx_HAL_Driver/Src/stm32g4xx_hal_pwr_ex.c ****       if((sConfigPVM->Mode & PVM_MODE_EVT) == PVM_MODE_EVT)
 770:Drivers/STM32G4xx_HAL_Driver/Src/stm32g4xx_hal_pwr_ex.c ****       {
 771:Drivers/STM32G4xx_HAL_Driver/Src/stm32g4xx_hal_pwr_ex.c ****         __HAL_PWR_PVM3_EXTI_ENABLE_EVENT();
 772:Drivers/STM32G4xx_HAL_Driver/Src/stm32g4xx_hal_pwr_ex.c ****       }
 773:Drivers/STM32G4xx_HAL_Driver/Src/stm32g4xx_hal_pwr_ex.c **** 
 774:Drivers/STM32G4xx_HAL_Driver/Src/stm32g4xx_hal_pwr_ex.c ****       /* Configure the edge */
 775:Drivers/STM32G4xx_HAL_Driver/Src/stm32g4xx_hal_pwr_ex.c ****       if((sConfigPVM->Mode & PVM_RISING_EDGE) == PVM_RISING_EDGE)
 776:Drivers/STM32G4xx_HAL_Driver/Src/stm32g4xx_hal_pwr_ex.c ****       {
 777:Drivers/STM32G4xx_HAL_Driver/Src/stm32g4xx_hal_pwr_ex.c ****         __HAL_PWR_PVM3_EXTI_ENABLE_RISING_EDGE();
 778:Drivers/STM32G4xx_HAL_Driver/Src/stm32g4xx_hal_pwr_ex.c ****       }
 779:Drivers/STM32G4xx_HAL_Driver/Src/stm32g4xx_hal_pwr_ex.c **** 
 780:Drivers/STM32G4xx_HAL_Driver/Src/stm32g4xx_hal_pwr_ex.c ****       if((sConfigPVM->Mode & PVM_FALLING_EDGE) == PVM_FALLING_EDGE)
 781:Drivers/STM32G4xx_HAL_Driver/Src/stm32g4xx_hal_pwr_ex.c ****       {
 782:Drivers/STM32G4xx_HAL_Driver/Src/stm32g4xx_hal_pwr_ex.c ****         __HAL_PWR_PVM3_EXTI_ENABLE_FALLING_EDGE();
 783:Drivers/STM32G4xx_HAL_Driver/Src/stm32g4xx_hal_pwr_ex.c ****       }
 784:Drivers/STM32G4xx_HAL_Driver/Src/stm32g4xx_hal_pwr_ex.c ****       break;
 785:Drivers/STM32G4xx_HAL_Driver/Src/stm32g4xx_hal_pwr_ex.c **** 
 786:Drivers/STM32G4xx_HAL_Driver/Src/stm32g4xx_hal_pwr_ex.c ****     case PWR_PVM_4:
 787:Drivers/STM32G4xx_HAL_Driver/Src/stm32g4xx_hal_pwr_ex.c ****       /* Clear any previous config. Keep it clear if no event or IT mode is selected */
 788:Drivers/STM32G4xx_HAL_Driver/Src/stm32g4xx_hal_pwr_ex.c ****       __HAL_PWR_PVM4_EXTI_DISABLE_EVENT();
ARM GAS  /tmp/ccbR6ah2.s 			page 45


 1562              		.loc 1 788 7 is_stmt 1 view .LVU349
 1563 0074 474B     		ldr	r3, .L213
 1564 0076 5A6A     		ldr	r2, [r3, #36]
 1565 0078 22F04002 		bic	r2, r2, #64
 1566 007c 5A62     		str	r2, [r3, #36]
 789:Drivers/STM32G4xx_HAL_Driver/Src/stm32g4xx_hal_pwr_ex.c ****       __HAL_PWR_PVM4_EXTI_DISABLE_IT();
 1567              		.loc 1 789 7 view .LVU350
 1568 007e 1A6A     		ldr	r2, [r3, #32]
 1569 0080 22F04002 		bic	r2, r2, #64
 1570 0084 1A62     		str	r2, [r3, #32]
 790:Drivers/STM32G4xx_HAL_Driver/Src/stm32g4xx_hal_pwr_ex.c ****       __HAL_PWR_PVM4_EXTI_DISABLE_FALLING_EDGE();
 1571              		.loc 1 790 7 view .LVU351
 1572 0086 DA6A     		ldr	r2, [r3, #44]
 1573 0088 22F04002 		bic	r2, r2, #64
 1574 008c DA62     		str	r2, [r3, #44]
 791:Drivers/STM32G4xx_HAL_Driver/Src/stm32g4xx_hal_pwr_ex.c ****       __HAL_PWR_PVM4_EXTI_DISABLE_RISING_EDGE();
 1575              		.loc 1 791 7 view .LVU352
 1576 008e 9A6A     		ldr	r2, [r3, #40]
 1577 0090 22F04002 		bic	r2, r2, #64
 1578 0094 9A62     		str	r2, [r3, #40]
 792:Drivers/STM32G4xx_HAL_Driver/Src/stm32g4xx_hal_pwr_ex.c **** 
 793:Drivers/STM32G4xx_HAL_Driver/Src/stm32g4xx_hal_pwr_ex.c ****       /* Configure interrupt mode */
 794:Drivers/STM32G4xx_HAL_Driver/Src/stm32g4xx_hal_pwr_ex.c ****       if((sConfigPVM->Mode & PVM_MODE_IT) == PVM_MODE_IT)
 1579              		.loc 1 794 7 view .LVU353
 1580              		.loc 1 794 21 is_stmt 0 view .LVU354
 1581 0096 4268     		ldr	r2, [r0, #4]
 1582              		.loc 1 794 9 view .LVU355
 1583 0098 D103     		lsls	r1, r2, #15
 1584 009a 03D5     		bpl	.L163
 795:Drivers/STM32G4xx_HAL_Driver/Src/stm32g4xx_hal_pwr_ex.c ****       {
 796:Drivers/STM32G4xx_HAL_Driver/Src/stm32g4xx_hal_pwr_ex.c ****         __HAL_PWR_PVM4_EXTI_ENABLE_IT();
 1585              		.loc 1 796 9 is_stmt 1 view .LVU356
 1586 009c 196A     		ldr	r1, [r3, #32]
 1587 009e 41F04001 		orr	r1, r1, #64
 1588 00a2 1962     		str	r1, [r3, #32]
 1589              	.L163:
 797:Drivers/STM32G4xx_HAL_Driver/Src/stm32g4xx_hal_pwr_ex.c ****       }
 798:Drivers/STM32G4xx_HAL_Driver/Src/stm32g4xx_hal_pwr_ex.c **** 
 799:Drivers/STM32G4xx_HAL_Driver/Src/stm32g4xx_hal_pwr_ex.c ****       /* Configure event mode */
 800:Drivers/STM32G4xx_HAL_Driver/Src/stm32g4xx_hal_pwr_ex.c ****       if((sConfigPVM->Mode & PVM_MODE_EVT) == PVM_MODE_EVT)
 1590              		.loc 1 800 7 view .LVU357
 1591              		.loc 1 800 9 is_stmt 0 view .LVU358
 1592 00a4 9003     		lsls	r0, r2, #14
 1593              	.LVL111:
 1594              		.loc 1 800 9 view .LVU359
 1595 00a6 04D5     		bpl	.L164
 801:Drivers/STM32G4xx_HAL_Driver/Src/stm32g4xx_hal_pwr_ex.c ****       {
 802:Drivers/STM32G4xx_HAL_Driver/Src/stm32g4xx_hal_pwr_ex.c ****         __HAL_PWR_PVM4_EXTI_ENABLE_EVENT();
 1596              		.loc 1 802 9 is_stmt 1 view .LVU360
 1597 00a8 3A49     		ldr	r1, .L213
 1598 00aa 4B6A     		ldr	r3, [r1, #36]
 1599 00ac 43F04003 		orr	r3, r3, #64
 1600 00b0 4B62     		str	r3, [r1, #36]
 1601              	.L164:
 803:Drivers/STM32G4xx_HAL_Driver/Src/stm32g4xx_hal_pwr_ex.c ****       }
 804:Drivers/STM32G4xx_HAL_Driver/Src/stm32g4xx_hal_pwr_ex.c **** 
 805:Drivers/STM32G4xx_HAL_Driver/Src/stm32g4xx_hal_pwr_ex.c ****       /* Configure the edge */
ARM GAS  /tmp/ccbR6ah2.s 			page 46


 806:Drivers/STM32G4xx_HAL_Driver/Src/stm32g4xx_hal_pwr_ex.c ****       if((sConfigPVM->Mode & PVM_RISING_EDGE) == PVM_RISING_EDGE)
 1602              		.loc 1 806 7 view .LVU361
 1603              		.loc 1 806 9 is_stmt 0 view .LVU362
 1604 00b2 D107     		lsls	r1, r2, #31
 1605 00b4 04D5     		bpl	.L165
 807:Drivers/STM32G4xx_HAL_Driver/Src/stm32g4xx_hal_pwr_ex.c ****       {
 808:Drivers/STM32G4xx_HAL_Driver/Src/stm32g4xx_hal_pwr_ex.c ****         __HAL_PWR_PVM4_EXTI_ENABLE_RISING_EDGE();
 1606              		.loc 1 808 9 is_stmt 1 view .LVU363
 1607 00b6 3749     		ldr	r1, .L213
 1608 00b8 8B6A     		ldr	r3, [r1, #40]
 1609 00ba 43F04003 		orr	r3, r3, #64
 1610 00be 8B62     		str	r3, [r1, #40]
 1611              	.L165:
 809:Drivers/STM32G4xx_HAL_Driver/Src/stm32g4xx_hal_pwr_ex.c ****       }
 810:Drivers/STM32G4xx_HAL_Driver/Src/stm32g4xx_hal_pwr_ex.c **** 
 811:Drivers/STM32G4xx_HAL_Driver/Src/stm32g4xx_hal_pwr_ex.c ****       if((sConfigPVM->Mode & PVM_FALLING_EDGE) == PVM_FALLING_EDGE)
 1612              		.loc 1 811 7 view .LVU364
 1613              		.loc 1 811 9 is_stmt 0 view .LVU365
 1614 00c0 9307     		lsls	r3, r2, #30
 1615 00c2 04D5     		bpl	.L212
 812:Drivers/STM32G4xx_HAL_Driver/Src/stm32g4xx_hal_pwr_ex.c ****       {
 813:Drivers/STM32G4xx_HAL_Driver/Src/stm32g4xx_hal_pwr_ex.c ****         __HAL_PWR_PVM4_EXTI_ENABLE_FALLING_EDGE();
 1616              		.loc 1 813 9 is_stmt 1 view .LVU366
 1617 00c4 334A     		ldr	r2, .L213
 1618 00c6 D36A     		ldr	r3, [r2, #44]
 1619 00c8 43F04003 		orr	r3, r3, #64
 1620 00cc D362     		str	r3, [r2, #44]
 1621              	.L212:
 677:Drivers/STM32G4xx_HAL_Driver/Src/stm32g4xx_hal_pwr_ex.c **** 
 1622              		.loc 1 677 21 is_stmt 0 view .LVU367
 1623 00ce 0020     		movs	r0, #0
 1624              	.LVL112:
 814:Drivers/STM32G4xx_HAL_Driver/Src/stm32g4xx_hal_pwr_ex.c ****       }
 815:Drivers/STM32G4xx_HAL_Driver/Src/stm32g4xx_hal_pwr_ex.c ****       break;
 816:Drivers/STM32G4xx_HAL_Driver/Src/stm32g4xx_hal_pwr_ex.c **** 
 817:Drivers/STM32G4xx_HAL_Driver/Src/stm32g4xx_hal_pwr_ex.c ****     default:
 818:Drivers/STM32G4xx_HAL_Driver/Src/stm32g4xx_hal_pwr_ex.c ****       status = HAL_ERROR;
 819:Drivers/STM32G4xx_HAL_Driver/Src/stm32g4xx_hal_pwr_ex.c ****       break;
 820:Drivers/STM32G4xx_HAL_Driver/Src/stm32g4xx_hal_pwr_ex.c ****   }
 821:Drivers/STM32G4xx_HAL_Driver/Src/stm32g4xx_hal_pwr_ex.c **** 
 822:Drivers/STM32G4xx_HAL_Driver/Src/stm32g4xx_hal_pwr_ex.c ****   return status;
 1625              		.loc 1 822 3 is_stmt 1 view .LVU368
 823:Drivers/STM32G4xx_HAL_Driver/Src/stm32g4xx_hal_pwr_ex.c **** }
 1626              		.loc 1 823 1 is_stmt 0 view .LVU369
 1627 00d0 7047     		bx	lr
 1628              	.LVL113:
 1629              	.L211:
 687:Drivers/STM32G4xx_HAL_Driver/Src/stm32g4xx_hal_pwr_ex.c ****   {
 1630              		.loc 1 687 3 view .LVU370
 1631 00d2 0120     		movs	r0, #1
 1632              	.LVL114:
 687:Drivers/STM32G4xx_HAL_Driver/Src/stm32g4xx_hal_pwr_ex.c ****   {
 1633              		.loc 1 687 3 view .LVU371
 1634 00d4 7047     		bx	lr
 1635              	.LVL115:
 1636              	.L148:
 692:Drivers/STM32G4xx_HAL_Driver/Src/stm32g4xx_hal_pwr_ex.c ****       __HAL_PWR_PVM1_EXTI_DISABLE_IT();
ARM GAS  /tmp/ccbR6ah2.s 			page 47


 1637              		.loc 1 692 7 is_stmt 1 view .LVU372
 1638 00d6 2F4B     		ldr	r3, .L213
 1639 00d8 5A6A     		ldr	r2, [r3, #36]
 1640 00da 22F00802 		bic	r2, r2, #8
 1641 00de 5A62     		str	r2, [r3, #36]
 693:Drivers/STM32G4xx_HAL_Driver/Src/stm32g4xx_hal_pwr_ex.c ****       __HAL_PWR_PVM1_EXTI_DISABLE_FALLING_EDGE();
 1642              		.loc 1 693 7 view .LVU373
 1643 00e0 1A6A     		ldr	r2, [r3, #32]
 1644 00e2 22F00802 		bic	r2, r2, #8
 1645 00e6 1A62     		str	r2, [r3, #32]
 694:Drivers/STM32G4xx_HAL_Driver/Src/stm32g4xx_hal_pwr_ex.c ****       __HAL_PWR_PVM1_EXTI_DISABLE_RISING_EDGE();
 1646              		.loc 1 694 7 view .LVU374
 1647 00e8 DA6A     		ldr	r2, [r3, #44]
 1648 00ea 22F00802 		bic	r2, r2, #8
 1649 00ee DA62     		str	r2, [r3, #44]
 695:Drivers/STM32G4xx_HAL_Driver/Src/stm32g4xx_hal_pwr_ex.c **** 
 1650              		.loc 1 695 7 view .LVU375
 1651 00f0 9A6A     		ldr	r2, [r3, #40]
 1652 00f2 22F00802 		bic	r2, r2, #8
 1653 00f6 9A62     		str	r2, [r3, #40]
 698:Drivers/STM32G4xx_HAL_Driver/Src/stm32g4xx_hal_pwr_ex.c ****       {
 1654              		.loc 1 698 7 view .LVU376
 698:Drivers/STM32G4xx_HAL_Driver/Src/stm32g4xx_hal_pwr_ex.c ****       {
 1655              		.loc 1 698 21 is_stmt 0 view .LVU377
 1656 00f8 4268     		ldr	r2, [r0, #4]
 698:Drivers/STM32G4xx_HAL_Driver/Src/stm32g4xx_hal_pwr_ex.c ****       {
 1657              		.loc 1 698 9 view .LVU378
 1658 00fa D003     		lsls	r0, r2, #15
 1659              	.LVL116:
 698:Drivers/STM32G4xx_HAL_Driver/Src/stm32g4xx_hal_pwr_ex.c ****       {
 1660              		.loc 1 698 9 view .LVU379
 1661 00fc 03D5     		bpl	.L152
 700:Drivers/STM32G4xx_HAL_Driver/Src/stm32g4xx_hal_pwr_ex.c ****       }
 1662              		.loc 1 700 9 is_stmt 1 view .LVU380
 1663 00fe 196A     		ldr	r1, [r3, #32]
 1664 0100 41F00801 		orr	r1, r1, #8
 1665 0104 1962     		str	r1, [r3, #32]
 1666              	.L152:
 704:Drivers/STM32G4xx_HAL_Driver/Src/stm32g4xx_hal_pwr_ex.c ****       {
 1667              		.loc 1 704 7 view .LVU381
 704:Drivers/STM32G4xx_HAL_Driver/Src/stm32g4xx_hal_pwr_ex.c ****       {
 1668              		.loc 1 704 9 is_stmt 0 view .LVU382
 1669 0106 9103     		lsls	r1, r2, #14
 1670 0108 04D5     		bpl	.L153
 706:Drivers/STM32G4xx_HAL_Driver/Src/stm32g4xx_hal_pwr_ex.c ****       }
 1671              		.loc 1 706 9 is_stmt 1 view .LVU383
 1672 010a 2249     		ldr	r1, .L213
 1673 010c 4B6A     		ldr	r3, [r1, #36]
 1674 010e 43F00803 		orr	r3, r3, #8
 1675 0112 4B62     		str	r3, [r1, #36]
 1676              	.L153:
 710:Drivers/STM32G4xx_HAL_Driver/Src/stm32g4xx_hal_pwr_ex.c ****       {
 1677              		.loc 1 710 7 view .LVU384
 710:Drivers/STM32G4xx_HAL_Driver/Src/stm32g4xx_hal_pwr_ex.c ****       {
 1678              		.loc 1 710 9 is_stmt 0 view .LVU385
 1679 0114 D307     		lsls	r3, r2, #31
 1680 0116 04D5     		bpl	.L154
ARM GAS  /tmp/ccbR6ah2.s 			page 48


 712:Drivers/STM32G4xx_HAL_Driver/Src/stm32g4xx_hal_pwr_ex.c ****       }
 1681              		.loc 1 712 9 is_stmt 1 view .LVU386
 1682 0118 1E49     		ldr	r1, .L213
 1683 011a 8B6A     		ldr	r3, [r1, #40]
 1684 011c 43F00803 		orr	r3, r3, #8
 1685 0120 8B62     		str	r3, [r1, #40]
 1686              	.L154:
 715:Drivers/STM32G4xx_HAL_Driver/Src/stm32g4xx_hal_pwr_ex.c ****       {
 1687              		.loc 1 715 7 view .LVU387
 715:Drivers/STM32G4xx_HAL_Driver/Src/stm32g4xx_hal_pwr_ex.c ****       {
 1688              		.loc 1 715 9 is_stmt 0 view .LVU388
 1689 0122 9007     		lsls	r0, r2, #30
 1690 0124 D3D5     		bpl	.L212
 717:Drivers/STM32G4xx_HAL_Driver/Src/stm32g4xx_hal_pwr_ex.c ****       }
 1691              		.loc 1 717 9 is_stmt 1 view .LVU389
 1692 0126 1B4A     		ldr	r2, .L213
 1693 0128 D36A     		ldr	r3, [r2, #44]
 1694 012a 43F00803 		orr	r3, r3, #8
 1695 012e D362     		str	r3, [r2, #44]
 677:Drivers/STM32G4xx_HAL_Driver/Src/stm32g4xx_hal_pwr_ex.c **** 
 1696              		.loc 1 677 21 is_stmt 0 view .LVU390
 1697 0130 0020     		movs	r0, #0
 1698 0132 7047     		bx	lr
 1699              	.LVL117:
 1700              	.L146:
 757:Drivers/STM32G4xx_HAL_Driver/Src/stm32g4xx_hal_pwr_ex.c ****       __HAL_PWR_PVM3_EXTI_DISABLE_IT();
 1701              		.loc 1 757 7 is_stmt 1 view .LVU391
 1702 0134 174B     		ldr	r3, .L213
 1703 0136 5A6A     		ldr	r2, [r3, #36]
 1704 0138 22F02002 		bic	r2, r2, #32
 1705 013c 5A62     		str	r2, [r3, #36]
 758:Drivers/STM32G4xx_HAL_Driver/Src/stm32g4xx_hal_pwr_ex.c ****       __HAL_PWR_PVM3_EXTI_DISABLE_FALLING_EDGE();
 1706              		.loc 1 758 7 view .LVU392
 1707 013e 1A6A     		ldr	r2, [r3, #32]
 1708 0140 22F02002 		bic	r2, r2, #32
 1709 0144 1A62     		str	r2, [r3, #32]
 759:Drivers/STM32G4xx_HAL_Driver/Src/stm32g4xx_hal_pwr_ex.c ****       __HAL_PWR_PVM3_EXTI_DISABLE_RISING_EDGE();
 1710              		.loc 1 759 7 view .LVU393
 1711 0146 DA6A     		ldr	r2, [r3, #44]
 1712 0148 22F02002 		bic	r2, r2, #32
 1713 014c DA62     		str	r2, [r3, #44]
 760:Drivers/STM32G4xx_HAL_Driver/Src/stm32g4xx_hal_pwr_ex.c **** 
 1714              		.loc 1 760 7 view .LVU394
 1715 014e 9A6A     		ldr	r2, [r3, #40]
 1716 0150 22F02002 		bic	r2, r2, #32
 1717 0154 9A62     		str	r2, [r3, #40]
 763:Drivers/STM32G4xx_HAL_Driver/Src/stm32g4xx_hal_pwr_ex.c ****       {
 1718              		.loc 1 763 7 view .LVU395
 763:Drivers/STM32G4xx_HAL_Driver/Src/stm32g4xx_hal_pwr_ex.c ****       {
 1719              		.loc 1 763 21 is_stmt 0 view .LVU396
 1720 0156 4268     		ldr	r2, [r0, #4]
 763:Drivers/STM32G4xx_HAL_Driver/Src/stm32g4xx_hal_pwr_ex.c ****       {
 1721              		.loc 1 763 9 view .LVU397
 1722 0158 D003     		lsls	r0, r2, #15
 1723              	.LVL118:
 763:Drivers/STM32G4xx_HAL_Driver/Src/stm32g4xx_hal_pwr_ex.c ****       {
 1724              		.loc 1 763 9 view .LVU398
ARM GAS  /tmp/ccbR6ah2.s 			page 49


 1725 015a 03D5     		bpl	.L160
 765:Drivers/STM32G4xx_HAL_Driver/Src/stm32g4xx_hal_pwr_ex.c ****       }
 1726              		.loc 1 765 9 is_stmt 1 view .LVU399
 1727 015c 196A     		ldr	r1, [r3, #32]
 1728 015e 41F02001 		orr	r1, r1, #32
 1729 0162 1962     		str	r1, [r3, #32]
 1730              	.L160:
 769:Drivers/STM32G4xx_HAL_Driver/Src/stm32g4xx_hal_pwr_ex.c ****       {
 1731              		.loc 1 769 7 view .LVU400
 769:Drivers/STM32G4xx_HAL_Driver/Src/stm32g4xx_hal_pwr_ex.c ****       {
 1732              		.loc 1 769 9 is_stmt 0 view .LVU401
 1733 0164 9103     		lsls	r1, r2, #14
 1734 0166 04D5     		bpl	.L161
 771:Drivers/STM32G4xx_HAL_Driver/Src/stm32g4xx_hal_pwr_ex.c ****       }
 1735              		.loc 1 771 9 is_stmt 1 view .LVU402
 1736 0168 0A49     		ldr	r1, .L213
 1737 016a 4B6A     		ldr	r3, [r1, #36]
 1738 016c 43F02003 		orr	r3, r3, #32
 1739 0170 4B62     		str	r3, [r1, #36]
 1740              	.L161:
 775:Drivers/STM32G4xx_HAL_Driver/Src/stm32g4xx_hal_pwr_ex.c ****       {
 1741              		.loc 1 775 7 view .LVU403
 775:Drivers/STM32G4xx_HAL_Driver/Src/stm32g4xx_hal_pwr_ex.c ****       {
 1742              		.loc 1 775 9 is_stmt 0 view .LVU404
 1743 0172 D307     		lsls	r3, r2, #31
 1744 0174 04D5     		bpl	.L162
 777:Drivers/STM32G4xx_HAL_Driver/Src/stm32g4xx_hal_pwr_ex.c ****       }
 1745              		.loc 1 777 9 is_stmt 1 view .LVU405
 1746 0176 0749     		ldr	r1, .L213
 1747 0178 8B6A     		ldr	r3, [r1, #40]
 1748 017a 43F02003 		orr	r3, r3, #32
 1749 017e 8B62     		str	r3, [r1, #40]
 1750              	.L162:
 780:Drivers/STM32G4xx_HAL_Driver/Src/stm32g4xx_hal_pwr_ex.c ****       {
 1751              		.loc 1 780 7 view .LVU406
 780:Drivers/STM32G4xx_HAL_Driver/Src/stm32g4xx_hal_pwr_ex.c ****       {
 1752              		.loc 1 780 9 is_stmt 0 view .LVU407
 1753 0180 9007     		lsls	r0, r2, #30
 1754 0182 A4D5     		bpl	.L212
 782:Drivers/STM32G4xx_HAL_Driver/Src/stm32g4xx_hal_pwr_ex.c ****       }
 1755              		.loc 1 782 9 is_stmt 1 view .LVU408
 1756 0184 034A     		ldr	r2, .L213
 1757 0186 D36A     		ldr	r3, [r2, #44]
 1758 0188 43F02003 		orr	r3, r3, #32
 1759 018c D362     		str	r3, [r2, #44]
 677:Drivers/STM32G4xx_HAL_Driver/Src/stm32g4xx_hal_pwr_ex.c **** 
 1760              		.loc 1 677 21 is_stmt 0 view .LVU409
 1761 018e 0020     		movs	r0, #0
 1762 0190 7047     		bx	lr
 1763              	.L214:
 1764 0192 00BF     		.align	2
 1765              	.L213:
 1766 0194 00040140 		.word	1073808384
 1767              		.cfi_endproc
 1768              	.LFE351:
 1770              		.section	.text.HAL_PWREx_EnableLowPowerRunMode,"ax",%progbits
 1771              		.align	1
ARM GAS  /tmp/ccbR6ah2.s 			page 50


 1772              		.p2align 2,,3
 1773              		.global	HAL_PWREx_EnableLowPowerRunMode
 1774              		.syntax unified
 1775              		.thumb
 1776              		.thumb_func
 1777              		.fpu fpv4-sp-d16
 1779              	HAL_PWREx_EnableLowPowerRunMode:
 1780              	.LFB352:
 824:Drivers/STM32G4xx_HAL_Driver/Src/stm32g4xx_hal_pwr_ex.c **** 
 825:Drivers/STM32G4xx_HAL_Driver/Src/stm32g4xx_hal_pwr_ex.c **** 
 826:Drivers/STM32G4xx_HAL_Driver/Src/stm32g4xx_hal_pwr_ex.c **** /**
 827:Drivers/STM32G4xx_HAL_Driver/Src/stm32g4xx_hal_pwr_ex.c ****   * @brief Enter Low-power Run mode
 828:Drivers/STM32G4xx_HAL_Driver/Src/stm32g4xx_hal_pwr_ex.c ****   * @note  In Low-power Run mode, all I/O pins keep the same state as in Run mode.
 829:Drivers/STM32G4xx_HAL_Driver/Src/stm32g4xx_hal_pwr_ex.c ****   * @note  When Regulator is set to PWR_LOWPOWERREGULATOR_ON, the user can optionally configure the
 830:Drivers/STM32G4xx_HAL_Driver/Src/stm32g4xx_hal_pwr_ex.c ****   *        Flash in power-down monde in setting the RUN_PD bit in FLASH_ACR register.
 831:Drivers/STM32G4xx_HAL_Driver/Src/stm32g4xx_hal_pwr_ex.c ****   *        Additionally, the clock frequency must be reduced below 2 MHz.
 832:Drivers/STM32G4xx_HAL_Driver/Src/stm32g4xx_hal_pwr_ex.c ****   *        Setting RUN_PD in FLASH_ACR then appropriately reducing the clock frequency must
 833:Drivers/STM32G4xx_HAL_Driver/Src/stm32g4xx_hal_pwr_ex.c ****   *        be done before calling HAL_PWREx_EnableLowPowerRunMode() API.
 834:Drivers/STM32G4xx_HAL_Driver/Src/stm32g4xx_hal_pwr_ex.c ****   * @retval None
 835:Drivers/STM32G4xx_HAL_Driver/Src/stm32g4xx_hal_pwr_ex.c ****   */
 836:Drivers/STM32G4xx_HAL_Driver/Src/stm32g4xx_hal_pwr_ex.c **** void HAL_PWREx_EnableLowPowerRunMode(void)
 837:Drivers/STM32G4xx_HAL_Driver/Src/stm32g4xx_hal_pwr_ex.c **** {
 1781              		.loc 1 837 1 is_stmt 1 view -0
 1782              		.cfi_startproc
 1783              		@ args = 0, pretend = 0, frame = 0
 1784              		@ frame_needed = 0, uses_anonymous_args = 0
 1785              		@ link register save eliminated.
 838:Drivers/STM32G4xx_HAL_Driver/Src/stm32g4xx_hal_pwr_ex.c ****   /* Set Regulator parameter */
 839:Drivers/STM32G4xx_HAL_Driver/Src/stm32g4xx_hal_pwr_ex.c ****   SET_BIT(PWR->CR1, PWR_CR1_LPR);
 1786              		.loc 1 839 3 view .LVU411
 1787 0000 024A     		ldr	r2, .L216
 1788 0002 1368     		ldr	r3, [r2]
 1789 0004 43F48043 		orr	r3, r3, #16384
 1790 0008 1360     		str	r3, [r2]
 840:Drivers/STM32G4xx_HAL_Driver/Src/stm32g4xx_hal_pwr_ex.c **** }
 1791              		.loc 1 840 1 is_stmt 0 view .LVU412
 1792 000a 7047     		bx	lr
 1793              	.L217:
 1794              		.align	2
 1795              	.L216:
 1796 000c 00700040 		.word	1073770496
 1797              		.cfi_endproc
 1798              	.LFE352:
 1800              		.section	.text.HAL_PWREx_DisableLowPowerRunMode,"ax",%progbits
 1801              		.align	1
 1802              		.p2align 2,,3
 1803              		.global	HAL_PWREx_DisableLowPowerRunMode
 1804              		.syntax unified
 1805              		.thumb
 1806              		.thumb_func
 1807              		.fpu fpv4-sp-d16
 1809              	HAL_PWREx_DisableLowPowerRunMode:
 1810              	.LFB353:
 841:Drivers/STM32G4xx_HAL_Driver/Src/stm32g4xx_hal_pwr_ex.c **** 
 842:Drivers/STM32G4xx_HAL_Driver/Src/stm32g4xx_hal_pwr_ex.c **** 
 843:Drivers/STM32G4xx_HAL_Driver/Src/stm32g4xx_hal_pwr_ex.c **** /**
 844:Drivers/STM32G4xx_HAL_Driver/Src/stm32g4xx_hal_pwr_ex.c ****   * @brief Exit Low-power Run mode.
ARM GAS  /tmp/ccbR6ah2.s 			page 51


 845:Drivers/STM32G4xx_HAL_Driver/Src/stm32g4xx_hal_pwr_ex.c ****   * @note  Before HAL_PWREx_DisableLowPowerRunMode() completion, the function checks that
 846:Drivers/STM32G4xx_HAL_Driver/Src/stm32g4xx_hal_pwr_ex.c ****   *        REGLPF has been properly reset (otherwise, HAL_PWREx_DisableLowPowerRunMode
 847:Drivers/STM32G4xx_HAL_Driver/Src/stm32g4xx_hal_pwr_ex.c ****   *        returns HAL_TIMEOUT status). The system clock frequency can then be
 848:Drivers/STM32G4xx_HAL_Driver/Src/stm32g4xx_hal_pwr_ex.c ****   *        increased above 2 MHz.
 849:Drivers/STM32G4xx_HAL_Driver/Src/stm32g4xx_hal_pwr_ex.c ****   * @retval HAL Status
 850:Drivers/STM32G4xx_HAL_Driver/Src/stm32g4xx_hal_pwr_ex.c ****   */
 851:Drivers/STM32G4xx_HAL_Driver/Src/stm32g4xx_hal_pwr_ex.c **** HAL_StatusTypeDef HAL_PWREx_DisableLowPowerRunMode(void)
 852:Drivers/STM32G4xx_HAL_Driver/Src/stm32g4xx_hal_pwr_ex.c **** {
 1811              		.loc 1 852 1 is_stmt 1 view -0
 1812              		.cfi_startproc
 1813              		@ args = 0, pretend = 0, frame = 0
 1814              		@ frame_needed = 0, uses_anonymous_args = 0
 1815              		@ link register save eliminated.
 853:Drivers/STM32G4xx_HAL_Driver/Src/stm32g4xx_hal_pwr_ex.c ****   uint32_t wait_loop_index;
 1816              		.loc 1 853 3 view .LVU414
 854:Drivers/STM32G4xx_HAL_Driver/Src/stm32g4xx_hal_pwr_ex.c **** 
 855:Drivers/STM32G4xx_HAL_Driver/Src/stm32g4xx_hal_pwr_ex.c ****   /* Clear LPR bit */
 856:Drivers/STM32G4xx_HAL_Driver/Src/stm32g4xx_hal_pwr_ex.c ****   CLEAR_BIT(PWR->CR1, PWR_CR1_LPR);
 1817              		.loc 1 856 3 view .LVU415
 1818 0000 0F49     		ldr	r1, .L234
 857:Drivers/STM32G4xx_HAL_Driver/Src/stm32g4xx_hal_pwr_ex.c **** 
 858:Drivers/STM32G4xx_HAL_Driver/Src/stm32g4xx_hal_pwr_ex.c ****   /* Wait until REGLPF is reset */
 859:Drivers/STM32G4xx_HAL_Driver/Src/stm32g4xx_hal_pwr_ex.c ****   wait_loop_index = (PWR_FLAG_SETTING_DELAY_US * (SystemCoreClock / 1000000U));
 1819              		.loc 1 859 67 is_stmt 0 view .LVU416
 1820 0002 104B     		ldr	r3, .L234+4
 856:Drivers/STM32G4xx_HAL_Driver/Src/stm32g4xx_hal_pwr_ex.c **** 
 1821              		.loc 1 856 3 view .LVU417
 1822 0004 0868     		ldr	r0, [r1]
 1823              		.loc 1 859 67 view .LVU418
 1824 0006 104A     		ldr	r2, .L234+8
 856:Drivers/STM32G4xx_HAL_Driver/Src/stm32g4xx_hal_pwr_ex.c **** 
 1825              		.loc 1 856 3 view .LVU419
 1826 0008 20F48040 		bic	r0, r0, #16384
 1827 000c 0860     		str	r0, [r1]
 1828              		.loc 1 859 3 is_stmt 1 view .LVU420
 1829              		.loc 1 859 67 is_stmt 0 view .LVU421
 1830 000e 1B68     		ldr	r3, [r3]
 860:Drivers/STM32G4xx_HAL_Driver/Src/stm32g4xx_hal_pwr_ex.c ****   while ((HAL_IS_BIT_SET(PWR->SR2, PWR_SR2_REGLPF)) && (wait_loop_index != 0U))
 1831              		.loc 1 860 11 view .LVU422
 1832 0010 4869     		ldr	r0, [r1, #20]
 859:Drivers/STM32G4xx_HAL_Driver/Src/stm32g4xx_hal_pwr_ex.c ****   while ((HAL_IS_BIT_SET(PWR->SR2, PWR_SR2_REGLPF)) && (wait_loop_index != 0U))
 1833              		.loc 1 859 67 view .LVU423
 1834 0012 A2FB0323 		umull	r2, r3, r2, r3
 1835 0016 9A0C     		lsrs	r2, r3, #18
 859:Drivers/STM32G4xx_HAL_Driver/Src/stm32g4xx_hal_pwr_ex.c ****   while ((HAL_IS_BIT_SET(PWR->SR2, PWR_SR2_REGLPF)) && (wait_loop_index != 0U))
 1836              		.loc 1 859 19 view .LVU424
 1837 0018 3223     		movs	r3, #50
 1838 001a 03FB02F3 		mul	r3, r3, r2
 1839              	.LVL119:
 1840              		.loc 1 860 3 is_stmt 1 view .LVU425
 1841              		.loc 1 860 9 view .LVU426
 1842 001e 8205     		lsls	r2, r0, #22
 1843 0020 05D5     		bpl	.L219
 1844              	.L233:
 1845              		.loc 1 860 53 is_stmt 0 view .LVU427
 1846 0022 23B1     		cbz	r3, .L219
 861:Drivers/STM32G4xx_HAL_Driver/Src/stm32g4xx_hal_pwr_ex.c ****   {
ARM GAS  /tmp/ccbR6ah2.s 			page 52


 862:Drivers/STM32G4xx_HAL_Driver/Src/stm32g4xx_hal_pwr_ex.c ****     wait_loop_index--;
 1847              		.loc 1 862 5 is_stmt 1 view .LVU428
 860:Drivers/STM32G4xx_HAL_Driver/Src/stm32g4xx_hal_pwr_ex.c ****   {
 1848              		.loc 1 860 11 is_stmt 0 view .LVU429
 1849 0024 4A69     		ldr	r2, [r1, #20]
 860:Drivers/STM32G4xx_HAL_Driver/Src/stm32g4xx_hal_pwr_ex.c ****   {
 1850              		.loc 1 860 9 view .LVU430
 1851 0026 9205     		lsls	r2, r2, #22
 1852              		.loc 1 862 20 view .LVU431
 1853 0028 03F1FF33 		add	r3, r3, #-1
 1854              	.LVL120:
 860:Drivers/STM32G4xx_HAL_Driver/Src/stm32g4xx_hal_pwr_ex.c ****   {
 1855              		.loc 1 860 9 is_stmt 1 view .LVU432
 1856 002c F9D4     		bmi	.L233
 1857              	.L219:
 863:Drivers/STM32G4xx_HAL_Driver/Src/stm32g4xx_hal_pwr_ex.c ****   }
 864:Drivers/STM32G4xx_HAL_Driver/Src/stm32g4xx_hal_pwr_ex.c ****   if (HAL_IS_BIT_SET(PWR->SR2, PWR_SR2_REGLPF))
 1858              		.loc 1 864 3 view .LVU433
 1859              		.loc 1 864 7 is_stmt 0 view .LVU434
 1860 002e 044B     		ldr	r3, .L234
 1861              	.LVL121:
 1862              		.loc 1 864 7 view .LVU435
 1863 0030 5B69     		ldr	r3, [r3, #20]
 865:Drivers/STM32G4xx_HAL_Driver/Src/stm32g4xx_hal_pwr_ex.c ****   {
 866:Drivers/STM32G4xx_HAL_Driver/Src/stm32g4xx_hal_pwr_ex.c ****     return HAL_TIMEOUT;
 1864              		.loc 1 866 12 view .LVU436
 1865 0032 13F4007F 		tst	r3, #512
 867:Drivers/STM32G4xx_HAL_Driver/Src/stm32g4xx_hal_pwr_ex.c ****   }
 868:Drivers/STM32G4xx_HAL_Driver/Src/stm32g4xx_hal_pwr_ex.c **** 
 869:Drivers/STM32G4xx_HAL_Driver/Src/stm32g4xx_hal_pwr_ex.c ****   return HAL_OK;
 870:Drivers/STM32G4xx_HAL_Driver/Src/stm32g4xx_hal_pwr_ex.c **** }
 1866              		.loc 1 870 1 view .LVU437
 1867 0036 14BF     		ite	ne
 1868 0038 0320     		movne	r0, #3
 1869 003a 0020     		moveq	r0, #0
 1870 003c 7047     		bx	lr
 1871              	.L235:
 1872 003e 00BF     		.align	2
 1873              	.L234:
 1874 0040 00700040 		.word	1073770496
 1875 0044 00000000 		.word	SystemCoreClock
 1876 0048 83DE1B43 		.word	1125899907
 1877              		.cfi_endproc
 1878              	.LFE353:
 1880              		.section	.text.HAL_PWREx_EnterSTOP0Mode,"ax",%progbits
 1881              		.align	1
 1882              		.p2align 2,,3
 1883              		.global	HAL_PWREx_EnterSTOP0Mode
 1884              		.syntax unified
 1885              		.thumb
 1886              		.thumb_func
 1887              		.fpu fpv4-sp-d16
 1889              	HAL_PWREx_EnterSTOP0Mode:
 1890              	.LVL122:
 1891              	.LFB354:
 871:Drivers/STM32G4xx_HAL_Driver/Src/stm32g4xx_hal_pwr_ex.c **** 
 872:Drivers/STM32G4xx_HAL_Driver/Src/stm32g4xx_hal_pwr_ex.c **** 
ARM GAS  /tmp/ccbR6ah2.s 			page 53


 873:Drivers/STM32G4xx_HAL_Driver/Src/stm32g4xx_hal_pwr_ex.c **** /**
 874:Drivers/STM32G4xx_HAL_Driver/Src/stm32g4xx_hal_pwr_ex.c ****   * @brief Enter Stop 0 mode.
 875:Drivers/STM32G4xx_HAL_Driver/Src/stm32g4xx_hal_pwr_ex.c ****   * @note  In Stop 0 mode, main and low voltage regulators are ON.
 876:Drivers/STM32G4xx_HAL_Driver/Src/stm32g4xx_hal_pwr_ex.c ****   * @note  In Stop 0 mode, all I/O pins keep the same state as in Run mode.
 877:Drivers/STM32G4xx_HAL_Driver/Src/stm32g4xx_hal_pwr_ex.c ****   * @note  All clocks in the VCORE domain are stopped; the PLL, the HSI
 878:Drivers/STM32G4xx_HAL_Driver/Src/stm32g4xx_hal_pwr_ex.c ****   *        and the HSE oscillators are disabled. Some peripherals with the wakeup capability
 879:Drivers/STM32G4xx_HAL_Driver/Src/stm32g4xx_hal_pwr_ex.c ****   *        (I2Cx, USARTx and LPUART) can switch on the HSI to receive a frame, and switch off the H
 880:Drivers/STM32G4xx_HAL_Driver/Src/stm32g4xx_hal_pwr_ex.c ****   *        after receiving the frame if it is not a wakeup frame. In this case, the HSI clock is pr
 881:Drivers/STM32G4xx_HAL_Driver/Src/stm32g4xx_hal_pwr_ex.c ****   *        only to the peripheral requesting it.
 882:Drivers/STM32G4xx_HAL_Driver/Src/stm32g4xx_hal_pwr_ex.c ****   *        SRAM1, SRAM2 and register contents are preserved.
 883:Drivers/STM32G4xx_HAL_Driver/Src/stm32g4xx_hal_pwr_ex.c ****   *        The BOR is available.
 884:Drivers/STM32G4xx_HAL_Driver/Src/stm32g4xx_hal_pwr_ex.c ****   * @note  When exiting Stop 0 mode by issuing an interrupt or a wakeup event,
 885:Drivers/STM32G4xx_HAL_Driver/Src/stm32g4xx_hal_pwr_ex.c ****   *         the HSI RC oscillator is selected as system clock if STOPWUCK bit in RCC_CFGR register
 886:Drivers/STM32G4xx_HAL_Driver/Src/stm32g4xx_hal_pwr_ex.c ****   *         is set; the HSI oscillator is selected if STOPWUCK is cleared.
 887:Drivers/STM32G4xx_HAL_Driver/Src/stm32g4xx_hal_pwr_ex.c ****   * @note  By keeping the internal regulator ON during Stop 0 mode, the consumption
 888:Drivers/STM32G4xx_HAL_Driver/Src/stm32g4xx_hal_pwr_ex.c ****   *         is higher although the startup time is reduced.
 889:Drivers/STM32G4xx_HAL_Driver/Src/stm32g4xx_hal_pwr_ex.c ****   * @param STOPEntry  specifies if Stop mode in entered with WFI or WFE instruction.
 890:Drivers/STM32G4xx_HAL_Driver/Src/stm32g4xx_hal_pwr_ex.c ****   *          This parameter can be one of the following values:
 891:Drivers/STM32G4xx_HAL_Driver/Src/stm32g4xx_hal_pwr_ex.c ****   *            @arg @ref PWR_STOPENTRY_WFI  Enter Stop mode with WFI instruction
 892:Drivers/STM32G4xx_HAL_Driver/Src/stm32g4xx_hal_pwr_ex.c ****   *            @arg @ref PWR_STOPENTRY_WFE  Enter Stop mode with WFE instruction
 893:Drivers/STM32G4xx_HAL_Driver/Src/stm32g4xx_hal_pwr_ex.c ****   * @retval None
 894:Drivers/STM32G4xx_HAL_Driver/Src/stm32g4xx_hal_pwr_ex.c ****   */
 895:Drivers/STM32G4xx_HAL_Driver/Src/stm32g4xx_hal_pwr_ex.c **** void HAL_PWREx_EnterSTOP0Mode(uint8_t STOPEntry)
 896:Drivers/STM32G4xx_HAL_Driver/Src/stm32g4xx_hal_pwr_ex.c **** {
 1892              		.loc 1 896 1 is_stmt 1 view -0
 1893              		.cfi_startproc
 1894              		@ args = 0, pretend = 0, frame = 0
 1895              		@ frame_needed = 0, uses_anonymous_args = 0
 1896              		@ link register save eliminated.
 897:Drivers/STM32G4xx_HAL_Driver/Src/stm32g4xx_hal_pwr_ex.c ****   /* Check the parameters */
 898:Drivers/STM32G4xx_HAL_Driver/Src/stm32g4xx_hal_pwr_ex.c ****   assert_param(IS_PWR_STOP_ENTRY(STOPEntry));
 1897              		.loc 1 898 3 view .LVU439
 899:Drivers/STM32G4xx_HAL_Driver/Src/stm32g4xx_hal_pwr_ex.c **** 
 900:Drivers/STM32G4xx_HAL_Driver/Src/stm32g4xx_hal_pwr_ex.c ****   /* Stop 0 mode with Main Regulator */
 901:Drivers/STM32G4xx_HAL_Driver/Src/stm32g4xx_hal_pwr_ex.c ****   MODIFY_REG(PWR->CR1, PWR_CR1_LPMS, PWR_CR1_LPMS_STOP0);
 1898              		.loc 1 901 3 view .LVU440
 1899 0000 0B49     		ldr	r1, .L240
 902:Drivers/STM32G4xx_HAL_Driver/Src/stm32g4xx_hal_pwr_ex.c **** 
 903:Drivers/STM32G4xx_HAL_Driver/Src/stm32g4xx_hal_pwr_ex.c ****   /* Set SLEEPDEEP bit of Cortex System Control Register */
 904:Drivers/STM32G4xx_HAL_Driver/Src/stm32g4xx_hal_pwr_ex.c ****   SET_BIT(SCB->SCR, ((uint32_t)SCB_SCR_SLEEPDEEP_Msk));
 1900              		.loc 1 904 3 is_stmt 0 view .LVU441
 1901 0002 0C4A     		ldr	r2, .L240+4
 901:Drivers/STM32G4xx_HAL_Driver/Src/stm32g4xx_hal_pwr_ex.c **** 
 1902              		.loc 1 901 3 view .LVU442
 1903 0004 0B68     		ldr	r3, [r1]
 1904 0006 23F00703 		bic	r3, r3, #7
 1905 000a 0B60     		str	r3, [r1]
 1906              		.loc 1 904 3 is_stmt 1 view .LVU443
 1907 000c 1369     		ldr	r3, [r2, #16]
 905:Drivers/STM32G4xx_HAL_Driver/Src/stm32g4xx_hal_pwr_ex.c **** 
 906:Drivers/STM32G4xx_HAL_Driver/Src/stm32g4xx_hal_pwr_ex.c ****   /* Select Stop mode entry --------------------------------------------------*/
 907:Drivers/STM32G4xx_HAL_Driver/Src/stm32g4xx_hal_pwr_ex.c ****   if(STOPEntry == PWR_STOPENTRY_WFI)
 1908              		.loc 1 907 5 is_stmt 0 view .LVU444
 1909 000e 0128     		cmp	r0, #1
 904:Drivers/STM32G4xx_HAL_Driver/Src/stm32g4xx_hal_pwr_ex.c **** 
 1910              		.loc 1 904 3 view .LVU445
 1911 0010 43F00403 		orr	r3, r3, #4
ARM GAS  /tmp/ccbR6ah2.s 			page 54


 1912 0014 1361     		str	r3, [r2, #16]
 1913              		.loc 1 907 3 is_stmt 1 view .LVU446
 1914              		.loc 1 907 5 is_stmt 0 view .LVU447
 1915 0016 08D0     		beq	.L239
 908:Drivers/STM32G4xx_HAL_Driver/Src/stm32g4xx_hal_pwr_ex.c ****   {
 909:Drivers/STM32G4xx_HAL_Driver/Src/stm32g4xx_hal_pwr_ex.c ****     /* Request Wait For Interrupt */
 910:Drivers/STM32G4xx_HAL_Driver/Src/stm32g4xx_hal_pwr_ex.c ****     __WFI();
 911:Drivers/STM32G4xx_HAL_Driver/Src/stm32g4xx_hal_pwr_ex.c ****   }
 912:Drivers/STM32G4xx_HAL_Driver/Src/stm32g4xx_hal_pwr_ex.c ****   else
 913:Drivers/STM32G4xx_HAL_Driver/Src/stm32g4xx_hal_pwr_ex.c ****   {
 914:Drivers/STM32G4xx_HAL_Driver/Src/stm32g4xx_hal_pwr_ex.c ****     /* Request Wait For Event */
 915:Drivers/STM32G4xx_HAL_Driver/Src/stm32g4xx_hal_pwr_ex.c ****     __SEV();
 1916              		.loc 1 915 5 is_stmt 1 view .LVU448
 1917              		.syntax unified
 1918              	@ 915 "Drivers/STM32G4xx_HAL_Driver/Src/stm32g4xx_hal_pwr_ex.c" 1
 1919 0018 40BF     		sev
 1920              	@ 0 "" 2
 916:Drivers/STM32G4xx_HAL_Driver/Src/stm32g4xx_hal_pwr_ex.c ****     __WFE();
 1921              		.loc 1 916 5 view .LVU449
 1922              	@ 916 "Drivers/STM32G4xx_HAL_Driver/Src/stm32g4xx_hal_pwr_ex.c" 1
 1923 001a 20BF     		wfe
 1924              	@ 0 "" 2
 917:Drivers/STM32G4xx_HAL_Driver/Src/stm32g4xx_hal_pwr_ex.c ****     __WFE();
 1925              		.loc 1 917 5 view .LVU450
 1926              	@ 917 "Drivers/STM32G4xx_HAL_Driver/Src/stm32g4xx_hal_pwr_ex.c" 1
 1927 001c 20BF     		wfe
 1928              	@ 0 "" 2
 1929              		.thumb
 1930              		.syntax unified
 1931              	.L238:
 918:Drivers/STM32G4xx_HAL_Driver/Src/stm32g4xx_hal_pwr_ex.c ****   }
 919:Drivers/STM32G4xx_HAL_Driver/Src/stm32g4xx_hal_pwr_ex.c **** 
 920:Drivers/STM32G4xx_HAL_Driver/Src/stm32g4xx_hal_pwr_ex.c ****   /* Reset SLEEPDEEP bit of Cortex System Control Register */
 921:Drivers/STM32G4xx_HAL_Driver/Src/stm32g4xx_hal_pwr_ex.c ****   CLEAR_BIT(SCB->SCR, ((uint32_t)SCB_SCR_SLEEPDEEP_Msk));
 1932              		.loc 1 921 3 view .LVU451
 1933 001e 054A     		ldr	r2, .L240+4
 1934 0020 1369     		ldr	r3, [r2, #16]
 1935 0022 23F00403 		bic	r3, r3, #4
 1936 0026 1361     		str	r3, [r2, #16]
 922:Drivers/STM32G4xx_HAL_Driver/Src/stm32g4xx_hal_pwr_ex.c **** }
 1937              		.loc 1 922 1 is_stmt 0 view .LVU452
 1938 0028 7047     		bx	lr
 1939              	.L239:
 910:Drivers/STM32G4xx_HAL_Driver/Src/stm32g4xx_hal_pwr_ex.c ****   }
 1940              		.loc 1 910 5 is_stmt 1 view .LVU453
 1941              		.syntax unified
 1942              	@ 910 "Drivers/STM32G4xx_HAL_Driver/Src/stm32g4xx_hal_pwr_ex.c" 1
 1943 002a 30BF     		wfi
 1944              	@ 0 "" 2
 1945              		.thumb
 1946              		.syntax unified
 1947 002c F7E7     		b	.L238
 1948              	.L241:
 1949 002e 00BF     		.align	2
 1950              	.L240:
 1951 0030 00700040 		.word	1073770496
 1952 0034 00ED00E0 		.word	-536810240
ARM GAS  /tmp/ccbR6ah2.s 			page 55


 1953              		.cfi_endproc
 1954              	.LFE354:
 1956              		.section	.text.HAL_PWREx_EnterSTOP1Mode,"ax",%progbits
 1957              		.align	1
 1958              		.p2align 2,,3
 1959              		.global	HAL_PWREx_EnterSTOP1Mode
 1960              		.syntax unified
 1961              		.thumb
 1962              		.thumb_func
 1963              		.fpu fpv4-sp-d16
 1965              	HAL_PWREx_EnterSTOP1Mode:
 1966              	.LVL123:
 1967              	.LFB355:
 923:Drivers/STM32G4xx_HAL_Driver/Src/stm32g4xx_hal_pwr_ex.c **** 
 924:Drivers/STM32G4xx_HAL_Driver/Src/stm32g4xx_hal_pwr_ex.c **** 
 925:Drivers/STM32G4xx_HAL_Driver/Src/stm32g4xx_hal_pwr_ex.c **** /**
 926:Drivers/STM32G4xx_HAL_Driver/Src/stm32g4xx_hal_pwr_ex.c ****   * @brief Enter Stop 1 mode.
 927:Drivers/STM32G4xx_HAL_Driver/Src/stm32g4xx_hal_pwr_ex.c ****   * @note  In Stop 1 mode, only low power voltage regulator is ON.
 928:Drivers/STM32G4xx_HAL_Driver/Src/stm32g4xx_hal_pwr_ex.c ****   * @note  In Stop 1 mode, all I/O pins keep the same state as in Run mode.
 929:Drivers/STM32G4xx_HAL_Driver/Src/stm32g4xx_hal_pwr_ex.c ****   * @note  All clocks in the VCORE domain are stopped; the PLL, the HSI
 930:Drivers/STM32G4xx_HAL_Driver/Src/stm32g4xx_hal_pwr_ex.c ****   *        and the HSE oscillators are disabled. Some peripherals with the wakeup capability
 931:Drivers/STM32G4xx_HAL_Driver/Src/stm32g4xx_hal_pwr_ex.c ****   *        (I2Cx, USARTx and LPUART) can switch on the HSI to receive a frame, and switch off the H
 932:Drivers/STM32G4xx_HAL_Driver/Src/stm32g4xx_hal_pwr_ex.c ****   *        after receiving the frame if it is not a wakeup frame. In this case, the HSI clock is pr
 933:Drivers/STM32G4xx_HAL_Driver/Src/stm32g4xx_hal_pwr_ex.c ****   *        only to the peripheral requesting it.
 934:Drivers/STM32G4xx_HAL_Driver/Src/stm32g4xx_hal_pwr_ex.c ****   *        SRAM1, SRAM2 and register contents are preserved.
 935:Drivers/STM32G4xx_HAL_Driver/Src/stm32g4xx_hal_pwr_ex.c ****   *        The BOR is available.
 936:Drivers/STM32G4xx_HAL_Driver/Src/stm32g4xx_hal_pwr_ex.c ****   * @note  When exiting Stop 1 mode by issuing an interrupt or a wakeup event,
 937:Drivers/STM32G4xx_HAL_Driver/Src/stm32g4xx_hal_pwr_ex.c ****   *         the HSI RC oscillator is selected as system clock if STOPWUCK bit in RCC_CFGR register
 938:Drivers/STM32G4xx_HAL_Driver/Src/stm32g4xx_hal_pwr_ex.c ****   *         is set.
 939:Drivers/STM32G4xx_HAL_Driver/Src/stm32g4xx_hal_pwr_ex.c ****   * @note  Due to low power mode, an additional startup delay is incurred when waking up from Stop 
 940:Drivers/STM32G4xx_HAL_Driver/Src/stm32g4xx_hal_pwr_ex.c ****   * @param STOPEntry  specifies if Stop mode in entered with WFI or WFE instruction.
 941:Drivers/STM32G4xx_HAL_Driver/Src/stm32g4xx_hal_pwr_ex.c ****   *          This parameter can be one of the following values:
 942:Drivers/STM32G4xx_HAL_Driver/Src/stm32g4xx_hal_pwr_ex.c ****   *            @arg @ref PWR_STOPENTRY_WFI  Enter Stop mode with WFI instruction
 943:Drivers/STM32G4xx_HAL_Driver/Src/stm32g4xx_hal_pwr_ex.c ****   *            @arg @ref PWR_STOPENTRY_WFE  Enter Stop mode with WFE instruction
 944:Drivers/STM32G4xx_HAL_Driver/Src/stm32g4xx_hal_pwr_ex.c ****   * @retval None
 945:Drivers/STM32G4xx_HAL_Driver/Src/stm32g4xx_hal_pwr_ex.c ****   */
 946:Drivers/STM32G4xx_HAL_Driver/Src/stm32g4xx_hal_pwr_ex.c **** void HAL_PWREx_EnterSTOP1Mode(uint8_t STOPEntry)
 947:Drivers/STM32G4xx_HAL_Driver/Src/stm32g4xx_hal_pwr_ex.c **** {
 1968              		.loc 1 947 1 view -0
 1969              		.cfi_startproc
 1970              		@ args = 0, pretend = 0, frame = 0
 1971              		@ frame_needed = 0, uses_anonymous_args = 0
 1972              		@ link register save eliminated.
 948:Drivers/STM32G4xx_HAL_Driver/Src/stm32g4xx_hal_pwr_ex.c ****   /* Check the parameters */
 949:Drivers/STM32G4xx_HAL_Driver/Src/stm32g4xx_hal_pwr_ex.c ****   assert_param(IS_PWR_STOP_ENTRY(STOPEntry));
 1973              		.loc 1 949 3 view .LVU455
 950:Drivers/STM32G4xx_HAL_Driver/Src/stm32g4xx_hal_pwr_ex.c **** 
 951:Drivers/STM32G4xx_HAL_Driver/Src/stm32g4xx_hal_pwr_ex.c ****   /* Stop 1 mode with Low-Power Regulator */
 952:Drivers/STM32G4xx_HAL_Driver/Src/stm32g4xx_hal_pwr_ex.c ****   MODIFY_REG(PWR->CR1, PWR_CR1_LPMS, PWR_CR1_LPMS_STOP1);
 1974              		.loc 1 952 3 view .LVU456
 1975 0000 0C49     		ldr	r1, .L246
 953:Drivers/STM32G4xx_HAL_Driver/Src/stm32g4xx_hal_pwr_ex.c **** 
 954:Drivers/STM32G4xx_HAL_Driver/Src/stm32g4xx_hal_pwr_ex.c ****   /* Set SLEEPDEEP bit of Cortex System Control Register */
 955:Drivers/STM32G4xx_HAL_Driver/Src/stm32g4xx_hal_pwr_ex.c ****   SET_BIT(SCB->SCR, ((uint32_t)SCB_SCR_SLEEPDEEP_Msk));
 1976              		.loc 1 955 3 is_stmt 0 view .LVU457
 1977 0002 0D4A     		ldr	r2, .L246+4
 952:Drivers/STM32G4xx_HAL_Driver/Src/stm32g4xx_hal_pwr_ex.c **** 
ARM GAS  /tmp/ccbR6ah2.s 			page 56


 1978              		.loc 1 952 3 view .LVU458
 1979 0004 0B68     		ldr	r3, [r1]
 1980 0006 23F00703 		bic	r3, r3, #7
 1981 000a 43F00103 		orr	r3, r3, #1
 1982 000e 0B60     		str	r3, [r1]
 1983              		.loc 1 955 3 is_stmt 1 view .LVU459
 1984 0010 1369     		ldr	r3, [r2, #16]
 956:Drivers/STM32G4xx_HAL_Driver/Src/stm32g4xx_hal_pwr_ex.c **** 
 957:Drivers/STM32G4xx_HAL_Driver/Src/stm32g4xx_hal_pwr_ex.c ****   /* Select Stop mode entry --------------------------------------------------*/
 958:Drivers/STM32G4xx_HAL_Driver/Src/stm32g4xx_hal_pwr_ex.c ****   if(STOPEntry == PWR_STOPENTRY_WFI)
 1985              		.loc 1 958 5 is_stmt 0 view .LVU460
 1986 0012 0128     		cmp	r0, #1
 955:Drivers/STM32G4xx_HAL_Driver/Src/stm32g4xx_hal_pwr_ex.c **** 
 1987              		.loc 1 955 3 view .LVU461
 1988 0014 43F00403 		orr	r3, r3, #4
 1989 0018 1361     		str	r3, [r2, #16]
 1990              		.loc 1 958 3 is_stmt 1 view .LVU462
 1991              		.loc 1 958 5 is_stmt 0 view .LVU463
 1992 001a 08D0     		beq	.L245
 959:Drivers/STM32G4xx_HAL_Driver/Src/stm32g4xx_hal_pwr_ex.c ****   {
 960:Drivers/STM32G4xx_HAL_Driver/Src/stm32g4xx_hal_pwr_ex.c ****     /* Request Wait For Interrupt */
 961:Drivers/STM32G4xx_HAL_Driver/Src/stm32g4xx_hal_pwr_ex.c ****     __WFI();
 962:Drivers/STM32G4xx_HAL_Driver/Src/stm32g4xx_hal_pwr_ex.c ****   }
 963:Drivers/STM32G4xx_HAL_Driver/Src/stm32g4xx_hal_pwr_ex.c ****   else
 964:Drivers/STM32G4xx_HAL_Driver/Src/stm32g4xx_hal_pwr_ex.c ****   {
 965:Drivers/STM32G4xx_HAL_Driver/Src/stm32g4xx_hal_pwr_ex.c ****     /* Request Wait For Event */
 966:Drivers/STM32G4xx_HAL_Driver/Src/stm32g4xx_hal_pwr_ex.c ****     __SEV();
 1993              		.loc 1 966 5 is_stmt 1 view .LVU464
 1994              		.syntax unified
 1995              	@ 966 "Drivers/STM32G4xx_HAL_Driver/Src/stm32g4xx_hal_pwr_ex.c" 1
 1996 001c 40BF     		sev
 1997              	@ 0 "" 2
 967:Drivers/STM32G4xx_HAL_Driver/Src/stm32g4xx_hal_pwr_ex.c ****     __WFE();
 1998              		.loc 1 967 5 view .LVU465
 1999              	@ 967 "Drivers/STM32G4xx_HAL_Driver/Src/stm32g4xx_hal_pwr_ex.c" 1
 2000 001e 20BF     		wfe
 2001              	@ 0 "" 2
 968:Drivers/STM32G4xx_HAL_Driver/Src/stm32g4xx_hal_pwr_ex.c ****     __WFE();
 2002              		.loc 1 968 5 view .LVU466
 2003              	@ 968 "Drivers/STM32G4xx_HAL_Driver/Src/stm32g4xx_hal_pwr_ex.c" 1
 2004 0020 20BF     		wfe
 2005              	@ 0 "" 2
 2006              		.thumb
 2007              		.syntax unified
 2008              	.L244:
 969:Drivers/STM32G4xx_HAL_Driver/Src/stm32g4xx_hal_pwr_ex.c ****   }
 970:Drivers/STM32G4xx_HAL_Driver/Src/stm32g4xx_hal_pwr_ex.c **** 
 971:Drivers/STM32G4xx_HAL_Driver/Src/stm32g4xx_hal_pwr_ex.c ****   /* Reset SLEEPDEEP bit of Cortex System Control Register */
 972:Drivers/STM32G4xx_HAL_Driver/Src/stm32g4xx_hal_pwr_ex.c ****   CLEAR_BIT(SCB->SCR, ((uint32_t)SCB_SCR_SLEEPDEEP_Msk));
 2009              		.loc 1 972 3 view .LVU467
 2010 0022 054A     		ldr	r2, .L246+4
 2011 0024 1369     		ldr	r3, [r2, #16]
 2012 0026 23F00403 		bic	r3, r3, #4
 2013 002a 1361     		str	r3, [r2, #16]
 973:Drivers/STM32G4xx_HAL_Driver/Src/stm32g4xx_hal_pwr_ex.c **** }
 2014              		.loc 1 973 1 is_stmt 0 view .LVU468
 2015 002c 7047     		bx	lr
ARM GAS  /tmp/ccbR6ah2.s 			page 57


 2016              	.L245:
 961:Drivers/STM32G4xx_HAL_Driver/Src/stm32g4xx_hal_pwr_ex.c ****   }
 2017              		.loc 1 961 5 is_stmt 1 view .LVU469
 2018              		.syntax unified
 2019              	@ 961 "Drivers/STM32G4xx_HAL_Driver/Src/stm32g4xx_hal_pwr_ex.c" 1
 2020 002e 30BF     		wfi
 2021              	@ 0 "" 2
 2022              		.thumb
 2023              		.syntax unified
 2024 0030 F7E7     		b	.L244
 2025              	.L247:
 2026 0032 00BF     		.align	2
 2027              	.L246:
 2028 0034 00700040 		.word	1073770496
 2029 0038 00ED00E0 		.word	-536810240
 2030              		.cfi_endproc
 2031              	.LFE355:
 2033              		.section	.text.HAL_PWREx_EnterSHUTDOWNMode,"ax",%progbits
 2034              		.align	1
 2035              		.p2align 2,,3
 2036              		.global	HAL_PWREx_EnterSHUTDOWNMode
 2037              		.syntax unified
 2038              		.thumb
 2039              		.thumb_func
 2040              		.fpu fpv4-sp-d16
 2042              	HAL_PWREx_EnterSHUTDOWNMode:
 2043              	.LFB356:
 974:Drivers/STM32G4xx_HAL_Driver/Src/stm32g4xx_hal_pwr_ex.c **** 
 975:Drivers/STM32G4xx_HAL_Driver/Src/stm32g4xx_hal_pwr_ex.c **** 
 976:Drivers/STM32G4xx_HAL_Driver/Src/stm32g4xx_hal_pwr_ex.c **** 
 977:Drivers/STM32G4xx_HAL_Driver/Src/stm32g4xx_hal_pwr_ex.c **** 
 978:Drivers/STM32G4xx_HAL_Driver/Src/stm32g4xx_hal_pwr_ex.c **** /**
 979:Drivers/STM32G4xx_HAL_Driver/Src/stm32g4xx_hal_pwr_ex.c ****   * @brief Enter Shutdown mode.
 980:Drivers/STM32G4xx_HAL_Driver/Src/stm32g4xx_hal_pwr_ex.c ****   * @note  In Shutdown mode, the PLL, the HSI, the LSI and the HSE oscillators are switched
 981:Drivers/STM32G4xx_HAL_Driver/Src/stm32g4xx_hal_pwr_ex.c ****   *        off. The voltage regulator is disabled and Vcore domain is powered off.
 982:Drivers/STM32G4xx_HAL_Driver/Src/stm32g4xx_hal_pwr_ex.c ****   *        SRAM1, SRAM2 and registers contents are lost except for registers in the Backup domain.
 983:Drivers/STM32G4xx_HAL_Driver/Src/stm32g4xx_hal_pwr_ex.c ****   *        The BOR is not available.
 984:Drivers/STM32G4xx_HAL_Driver/Src/stm32g4xx_hal_pwr_ex.c ****   * @note  The I/Os can be configured either with a pull-up or pull-down or can be kept in analog s
 985:Drivers/STM32G4xx_HAL_Driver/Src/stm32g4xx_hal_pwr_ex.c ****   * @retval None
 986:Drivers/STM32G4xx_HAL_Driver/Src/stm32g4xx_hal_pwr_ex.c ****   */
 987:Drivers/STM32G4xx_HAL_Driver/Src/stm32g4xx_hal_pwr_ex.c **** void HAL_PWREx_EnterSHUTDOWNMode(void)
 988:Drivers/STM32G4xx_HAL_Driver/Src/stm32g4xx_hal_pwr_ex.c **** {
 2044              		.loc 1 988 1 view -0
 2045              		.cfi_startproc
 2046              		@ args = 0, pretend = 0, frame = 0
 2047              		@ frame_needed = 0, uses_anonymous_args = 0
 2048              		@ link register save eliminated.
 989:Drivers/STM32G4xx_HAL_Driver/Src/stm32g4xx_hal_pwr_ex.c **** 
 990:Drivers/STM32G4xx_HAL_Driver/Src/stm32g4xx_hal_pwr_ex.c ****   /* Set Shutdown mode */
 991:Drivers/STM32G4xx_HAL_Driver/Src/stm32g4xx_hal_pwr_ex.c ****   MODIFY_REG(PWR->CR1, PWR_CR1_LPMS, PWR_CR1_LPMS_SHUTDOWN);
 2049              		.loc 1 991 3 view .LVU471
 2050 0000 0649     		ldr	r1, .L249
 992:Drivers/STM32G4xx_HAL_Driver/Src/stm32g4xx_hal_pwr_ex.c **** 
 993:Drivers/STM32G4xx_HAL_Driver/Src/stm32g4xx_hal_pwr_ex.c ****   /* Set SLEEPDEEP bit of Cortex System Control Register */
 994:Drivers/STM32G4xx_HAL_Driver/Src/stm32g4xx_hal_pwr_ex.c ****   SET_BIT(SCB->SCR, ((uint32_t)SCB_SCR_SLEEPDEEP_Msk));
 2051              		.loc 1 994 3 is_stmt 0 view .LVU472
 2052 0002 074A     		ldr	r2, .L249+4
ARM GAS  /tmp/ccbR6ah2.s 			page 58


 991:Drivers/STM32G4xx_HAL_Driver/Src/stm32g4xx_hal_pwr_ex.c **** 
 2053              		.loc 1 991 3 view .LVU473
 2054 0004 0B68     		ldr	r3, [r1]
 2055 0006 23F00703 		bic	r3, r3, #7
 2056 000a 43F00403 		orr	r3, r3, #4
 2057 000e 0B60     		str	r3, [r1]
 2058              		.loc 1 994 3 is_stmt 1 view .LVU474
 2059 0010 1369     		ldr	r3, [r2, #16]
 2060 0012 43F00403 		orr	r3, r3, #4
 2061 0016 1361     		str	r3, [r2, #16]
 995:Drivers/STM32G4xx_HAL_Driver/Src/stm32g4xx_hal_pwr_ex.c **** 
 996:Drivers/STM32G4xx_HAL_Driver/Src/stm32g4xx_hal_pwr_ex.c **** /* This option is used to ensure that store operations are completed */
 997:Drivers/STM32G4xx_HAL_Driver/Src/stm32g4xx_hal_pwr_ex.c **** #if defined ( __CC_ARM)
 998:Drivers/STM32G4xx_HAL_Driver/Src/stm32g4xx_hal_pwr_ex.c ****   __force_stores();
 999:Drivers/STM32G4xx_HAL_Driver/Src/stm32g4xx_hal_pwr_ex.c **** #endif
1000:Drivers/STM32G4xx_HAL_Driver/Src/stm32g4xx_hal_pwr_ex.c ****   /* Request Wait For Interrupt */
1001:Drivers/STM32G4xx_HAL_Driver/Src/stm32g4xx_hal_pwr_ex.c ****   __WFI();
 2062              		.loc 1 1001 3 view .LVU475
 2063              		.syntax unified
 2064              	@ 1001 "Drivers/STM32G4xx_HAL_Driver/Src/stm32g4xx_hal_pwr_ex.c" 1
 2065 0018 30BF     		wfi
 2066              	@ 0 "" 2
1002:Drivers/STM32G4xx_HAL_Driver/Src/stm32g4xx_hal_pwr_ex.c **** }
 2067              		.loc 1 1002 1 is_stmt 0 view .LVU476
 2068              		.thumb
 2069              		.syntax unified
 2070 001a 7047     		bx	lr
 2071              	.L250:
 2072              		.align	2
 2073              	.L249:
 2074 001c 00700040 		.word	1073770496
 2075 0020 00ED00E0 		.word	-536810240
 2076              		.cfi_endproc
 2077              	.LFE356:
 2079              		.section	.text.HAL_PWREx_PVM1Callback,"ax",%progbits
 2080              		.align	1
 2081              		.p2align 2,,3
 2082              		.weak	HAL_PWREx_PVM1Callback
 2083              		.syntax unified
 2084              		.thumb
 2085              		.thumb_func
 2086              		.fpu fpv4-sp-d16
 2088              	HAL_PWREx_PVM1Callback:
 2089              	.LFB358:
1003:Drivers/STM32G4xx_HAL_Driver/Src/stm32g4xx_hal_pwr_ex.c **** 
1004:Drivers/STM32G4xx_HAL_Driver/Src/stm32g4xx_hal_pwr_ex.c **** 
1005:Drivers/STM32G4xx_HAL_Driver/Src/stm32g4xx_hal_pwr_ex.c **** 
1006:Drivers/STM32G4xx_HAL_Driver/Src/stm32g4xx_hal_pwr_ex.c **** 
1007:Drivers/STM32G4xx_HAL_Driver/Src/stm32g4xx_hal_pwr_ex.c **** /**
1008:Drivers/STM32G4xx_HAL_Driver/Src/stm32g4xx_hal_pwr_ex.c ****   * @brief This function handles the PWR PVD/PVMx interrupt request.
1009:Drivers/STM32G4xx_HAL_Driver/Src/stm32g4xx_hal_pwr_ex.c ****   * @note This API should be called under the PVD_PVM_IRQHandler().
1010:Drivers/STM32G4xx_HAL_Driver/Src/stm32g4xx_hal_pwr_ex.c ****   * @retval None
1011:Drivers/STM32G4xx_HAL_Driver/Src/stm32g4xx_hal_pwr_ex.c ****   */
1012:Drivers/STM32G4xx_HAL_Driver/Src/stm32g4xx_hal_pwr_ex.c **** void HAL_PWREx_PVD_PVM_IRQHandler(void)
1013:Drivers/STM32G4xx_HAL_Driver/Src/stm32g4xx_hal_pwr_ex.c **** {
1014:Drivers/STM32G4xx_HAL_Driver/Src/stm32g4xx_hal_pwr_ex.c ****   /* Check PWR exti flag */
1015:Drivers/STM32G4xx_HAL_Driver/Src/stm32g4xx_hal_pwr_ex.c ****   if(__HAL_PWR_PVD_EXTI_GET_FLAG() != 0U)
ARM GAS  /tmp/ccbR6ah2.s 			page 59


1016:Drivers/STM32G4xx_HAL_Driver/Src/stm32g4xx_hal_pwr_ex.c ****   {
1017:Drivers/STM32G4xx_HAL_Driver/Src/stm32g4xx_hal_pwr_ex.c ****     /* PWR PVD interrupt user callback */
1018:Drivers/STM32G4xx_HAL_Driver/Src/stm32g4xx_hal_pwr_ex.c ****     HAL_PWR_PVDCallback();
1019:Drivers/STM32G4xx_HAL_Driver/Src/stm32g4xx_hal_pwr_ex.c **** 
1020:Drivers/STM32G4xx_HAL_Driver/Src/stm32g4xx_hal_pwr_ex.c ****     /* Clear PVD exti pending bit */
1021:Drivers/STM32G4xx_HAL_Driver/Src/stm32g4xx_hal_pwr_ex.c ****     __HAL_PWR_PVD_EXTI_CLEAR_FLAG();
1022:Drivers/STM32G4xx_HAL_Driver/Src/stm32g4xx_hal_pwr_ex.c ****   }
1023:Drivers/STM32G4xx_HAL_Driver/Src/stm32g4xx_hal_pwr_ex.c ****   /* Next, successively check PVMx exti flags */
1024:Drivers/STM32G4xx_HAL_Driver/Src/stm32g4xx_hal_pwr_ex.c **** #if defined(PWR_CR2_PVME1)
1025:Drivers/STM32G4xx_HAL_Driver/Src/stm32g4xx_hal_pwr_ex.c ****   if(__HAL_PWR_PVM1_EXTI_GET_FLAG() != 0U)
1026:Drivers/STM32G4xx_HAL_Driver/Src/stm32g4xx_hal_pwr_ex.c ****   {
1027:Drivers/STM32G4xx_HAL_Driver/Src/stm32g4xx_hal_pwr_ex.c ****     /* PWR PVM1 interrupt user callback */
1028:Drivers/STM32G4xx_HAL_Driver/Src/stm32g4xx_hal_pwr_ex.c ****     HAL_PWREx_PVM1Callback();
1029:Drivers/STM32G4xx_HAL_Driver/Src/stm32g4xx_hal_pwr_ex.c **** 
1030:Drivers/STM32G4xx_HAL_Driver/Src/stm32g4xx_hal_pwr_ex.c ****     /* Clear PVM1 exti pending bit */
1031:Drivers/STM32G4xx_HAL_Driver/Src/stm32g4xx_hal_pwr_ex.c ****     __HAL_PWR_PVM1_EXTI_CLEAR_FLAG();
1032:Drivers/STM32G4xx_HAL_Driver/Src/stm32g4xx_hal_pwr_ex.c ****   }
1033:Drivers/STM32G4xx_HAL_Driver/Src/stm32g4xx_hal_pwr_ex.c **** #endif /* PWR_CR2_PVME1 */
1034:Drivers/STM32G4xx_HAL_Driver/Src/stm32g4xx_hal_pwr_ex.c **** #if defined(PWR_CR2_PVME2)
1035:Drivers/STM32G4xx_HAL_Driver/Src/stm32g4xx_hal_pwr_ex.c ****   if(__HAL_PWR_PVM2_EXTI_GET_FLAG() != 0U)
1036:Drivers/STM32G4xx_HAL_Driver/Src/stm32g4xx_hal_pwr_ex.c ****   {
1037:Drivers/STM32G4xx_HAL_Driver/Src/stm32g4xx_hal_pwr_ex.c ****     /* PWR PVM2 interrupt user callback */
1038:Drivers/STM32G4xx_HAL_Driver/Src/stm32g4xx_hal_pwr_ex.c ****     HAL_PWREx_PVM2Callback();
1039:Drivers/STM32G4xx_HAL_Driver/Src/stm32g4xx_hal_pwr_ex.c **** 
1040:Drivers/STM32G4xx_HAL_Driver/Src/stm32g4xx_hal_pwr_ex.c ****     /* Clear PVM2 exti pending bit */
1041:Drivers/STM32G4xx_HAL_Driver/Src/stm32g4xx_hal_pwr_ex.c ****     __HAL_PWR_PVM2_EXTI_CLEAR_FLAG();
1042:Drivers/STM32G4xx_HAL_Driver/Src/stm32g4xx_hal_pwr_ex.c ****   }
1043:Drivers/STM32G4xx_HAL_Driver/Src/stm32g4xx_hal_pwr_ex.c **** #endif /* PWR_CR2_PVME2 */
1044:Drivers/STM32G4xx_HAL_Driver/Src/stm32g4xx_hal_pwr_ex.c ****   if(__HAL_PWR_PVM3_EXTI_GET_FLAG() != 0U)
1045:Drivers/STM32G4xx_HAL_Driver/Src/stm32g4xx_hal_pwr_ex.c ****   {
1046:Drivers/STM32G4xx_HAL_Driver/Src/stm32g4xx_hal_pwr_ex.c ****     /* PWR PVM3 interrupt user callback */
1047:Drivers/STM32G4xx_HAL_Driver/Src/stm32g4xx_hal_pwr_ex.c ****     HAL_PWREx_PVM3Callback();
1048:Drivers/STM32G4xx_HAL_Driver/Src/stm32g4xx_hal_pwr_ex.c **** 
1049:Drivers/STM32G4xx_HAL_Driver/Src/stm32g4xx_hal_pwr_ex.c ****     /* Clear PVM3 exti pending bit */
1050:Drivers/STM32G4xx_HAL_Driver/Src/stm32g4xx_hal_pwr_ex.c ****     __HAL_PWR_PVM3_EXTI_CLEAR_FLAG();
1051:Drivers/STM32G4xx_HAL_Driver/Src/stm32g4xx_hal_pwr_ex.c ****   }
1052:Drivers/STM32G4xx_HAL_Driver/Src/stm32g4xx_hal_pwr_ex.c ****   if(__HAL_PWR_PVM4_EXTI_GET_FLAG() != 0U)
1053:Drivers/STM32G4xx_HAL_Driver/Src/stm32g4xx_hal_pwr_ex.c ****   {
1054:Drivers/STM32G4xx_HAL_Driver/Src/stm32g4xx_hal_pwr_ex.c ****     /* PWR PVM4 interrupt user callback */
1055:Drivers/STM32G4xx_HAL_Driver/Src/stm32g4xx_hal_pwr_ex.c ****     HAL_PWREx_PVM4Callback();
1056:Drivers/STM32G4xx_HAL_Driver/Src/stm32g4xx_hal_pwr_ex.c **** 
1057:Drivers/STM32G4xx_HAL_Driver/Src/stm32g4xx_hal_pwr_ex.c ****     /* Clear PVM4 exti pending bit */
1058:Drivers/STM32G4xx_HAL_Driver/Src/stm32g4xx_hal_pwr_ex.c ****     __HAL_PWR_PVM4_EXTI_CLEAR_FLAG();
1059:Drivers/STM32G4xx_HAL_Driver/Src/stm32g4xx_hal_pwr_ex.c ****   }
1060:Drivers/STM32G4xx_HAL_Driver/Src/stm32g4xx_hal_pwr_ex.c **** }
1061:Drivers/STM32G4xx_HAL_Driver/Src/stm32g4xx_hal_pwr_ex.c **** 
1062:Drivers/STM32G4xx_HAL_Driver/Src/stm32g4xx_hal_pwr_ex.c **** 
1063:Drivers/STM32G4xx_HAL_Driver/Src/stm32g4xx_hal_pwr_ex.c **** #if defined(PWR_CR2_PVME1)
1064:Drivers/STM32G4xx_HAL_Driver/Src/stm32g4xx_hal_pwr_ex.c **** /**
1065:Drivers/STM32G4xx_HAL_Driver/Src/stm32g4xx_hal_pwr_ex.c ****   * @brief PWR PVM1 interrupt callback
1066:Drivers/STM32G4xx_HAL_Driver/Src/stm32g4xx_hal_pwr_ex.c ****   * @retval None
1067:Drivers/STM32G4xx_HAL_Driver/Src/stm32g4xx_hal_pwr_ex.c ****   */
1068:Drivers/STM32G4xx_HAL_Driver/Src/stm32g4xx_hal_pwr_ex.c **** __weak void HAL_PWREx_PVM1Callback(void)
1069:Drivers/STM32G4xx_HAL_Driver/Src/stm32g4xx_hal_pwr_ex.c **** {
 2090              		.loc 1 1069 1 is_stmt 1 view -0
 2091              		.cfi_startproc
 2092              		@ args = 0, pretend = 0, frame = 0
ARM GAS  /tmp/ccbR6ah2.s 			page 60


 2093              		@ frame_needed = 0, uses_anonymous_args = 0
 2094              		@ link register save eliminated.
1070:Drivers/STM32G4xx_HAL_Driver/Src/stm32g4xx_hal_pwr_ex.c ****   /* NOTE : This function should not be modified; when the callback is needed,
1071:Drivers/STM32G4xx_HAL_Driver/Src/stm32g4xx_hal_pwr_ex.c ****             HAL_PWREx_PVM1Callback() API can be implemented in the user file
1072:Drivers/STM32G4xx_HAL_Driver/Src/stm32g4xx_hal_pwr_ex.c ****    */
1073:Drivers/STM32G4xx_HAL_Driver/Src/stm32g4xx_hal_pwr_ex.c **** }
 2095              		.loc 1 1073 1 view .LVU478
 2096 0000 7047     		bx	lr
 2097              		.cfi_endproc
 2098              	.LFE358:
 2100 0002 00BF     		.section	.text.HAL_PWREx_PVM2Callback,"ax",%progbits
 2101              		.align	1
 2102              		.p2align 2,,3
 2103              		.weak	HAL_PWREx_PVM2Callback
 2104              		.syntax unified
 2105              		.thumb
 2106              		.thumb_func
 2107              		.fpu fpv4-sp-d16
 2109              	HAL_PWREx_PVM2Callback:
 2110              	.LFB367:
 2111              		.cfi_startproc
 2112              		@ args = 0, pretend = 0, frame = 0
 2113              		@ frame_needed = 0, uses_anonymous_args = 0
 2114              		@ link register save eliminated.
 2115 0000 7047     		bx	lr
 2116              		.cfi_endproc
 2117              	.LFE367:
 2119 0002 00BF     		.section	.text.HAL_PWREx_PVM3Callback,"ax",%progbits
 2120              		.align	1
 2121              		.p2align 2,,3
 2122              		.weak	HAL_PWREx_PVM3Callback
 2123              		.syntax unified
 2124              		.thumb
 2125              		.thumb_func
 2126              		.fpu fpv4-sp-d16
 2128              	HAL_PWREx_PVM3Callback:
 2129              	.LFB369:
 2130              		.cfi_startproc
 2131              		@ args = 0, pretend = 0, frame = 0
 2132              		@ frame_needed = 0, uses_anonymous_args = 0
 2133              		@ link register save eliminated.
 2134 0000 7047     		bx	lr
 2135              		.cfi_endproc
 2136              	.LFE369:
 2138 0002 00BF     		.section	.text.HAL_PWREx_PVM4Callback,"ax",%progbits
 2139              		.align	1
 2140              		.p2align 2,,3
 2141              		.weak	HAL_PWREx_PVM4Callback
 2142              		.syntax unified
 2143              		.thumb
 2144              		.thumb_func
 2145              		.fpu fpv4-sp-d16
 2147              	HAL_PWREx_PVM4Callback:
 2148              	.LFB371:
 2149              		.cfi_startproc
 2150              		@ args = 0, pretend = 0, frame = 0
 2151              		@ frame_needed = 0, uses_anonymous_args = 0
ARM GAS  /tmp/ccbR6ah2.s 			page 61


 2152              		@ link register save eliminated.
 2153 0000 7047     		bx	lr
 2154              		.cfi_endproc
 2155              	.LFE371:
 2157 0002 00BF     		.section	.text.HAL_PWREx_PVD_PVM_IRQHandler,"ax",%progbits
 2158              		.align	1
 2159              		.p2align 2,,3
 2160              		.global	HAL_PWREx_PVD_PVM_IRQHandler
 2161              		.syntax unified
 2162              		.thumb
 2163              		.thumb_func
 2164              		.fpu fpv4-sp-d16
 2166              	HAL_PWREx_PVD_PVM_IRQHandler:
 2167              	.LFB357:
1013:Drivers/STM32G4xx_HAL_Driver/Src/stm32g4xx_hal_pwr_ex.c ****   /* Check PWR exti flag */
 2168              		.loc 1 1013 1 view -0
 2169              		.cfi_startproc
 2170              		@ args = 0, pretend = 0, frame = 0
 2171              		@ frame_needed = 0, uses_anonymous_args = 0
1015:Drivers/STM32G4xx_HAL_Driver/Src/stm32g4xx_hal_pwr_ex.c ****   {
 2172              		.loc 1 1015 3 view .LVU480
1013:Drivers/STM32G4xx_HAL_Driver/Src/stm32g4xx_hal_pwr_ex.c ****   /* Check PWR exti flag */
 2173              		.loc 1 1013 1 is_stmt 0 view .LVU481
 2174 0000 10B5     		push	{r4, lr}
 2175              	.LCFI7:
 2176              		.cfi_def_cfa_offset 8
 2177              		.cfi_offset 4, -8
 2178              		.cfi_offset 14, -4
1015:Drivers/STM32G4xx_HAL_Driver/Src/stm32g4xx_hal_pwr_ex.c ****   {
 2179              		.loc 1 1015 6 view .LVU482
 2180 0002 174C     		ldr	r4, .L282
 2181 0004 6369     		ldr	r3, [r4, #20]
1015:Drivers/STM32G4xx_HAL_Driver/Src/stm32g4xx_hal_pwr_ex.c ****   {
 2182              		.loc 1 1015 5 view .LVU483
 2183 0006 DB03     		lsls	r3, r3, #15
 2184 0008 24D4     		bmi	.L277
 2185              	.L256:
1025:Drivers/STM32G4xx_HAL_Driver/Src/stm32g4xx_hal_pwr_ex.c ****   {
 2186              		.loc 1 1025 3 is_stmt 1 view .LVU484
1025:Drivers/STM32G4xx_HAL_Driver/Src/stm32g4xx_hal_pwr_ex.c ****   {
 2187              		.loc 1 1025 6 is_stmt 0 view .LVU485
 2188 000a 154C     		ldr	r4, .L282
 2189 000c 636B     		ldr	r3, [r4, #52]
1025:Drivers/STM32G4xx_HAL_Driver/Src/stm32g4xx_hal_pwr_ex.c ****   {
 2190              		.loc 1 1025 5 view .LVU486
 2191 000e 1807     		lsls	r0, r3, #28
 2192 0010 1BD4     		bmi	.L278
 2193              	.L257:
1035:Drivers/STM32G4xx_HAL_Driver/Src/stm32g4xx_hal_pwr_ex.c ****   {
 2194              		.loc 1 1035 3 is_stmt 1 view .LVU487
1035:Drivers/STM32G4xx_HAL_Driver/Src/stm32g4xx_hal_pwr_ex.c ****   {
 2195              		.loc 1 1035 6 is_stmt 0 view .LVU488
 2196 0012 134C     		ldr	r4, .L282
 2197 0014 636B     		ldr	r3, [r4, #52]
1035:Drivers/STM32G4xx_HAL_Driver/Src/stm32g4xx_hal_pwr_ex.c ****   {
 2198              		.loc 1 1035 5 view .LVU489
 2199 0016 D906     		lsls	r1, r3, #27
ARM GAS  /tmp/ccbR6ah2.s 			page 62


 2200 0018 12D4     		bmi	.L279
 2201              	.L258:
1044:Drivers/STM32G4xx_HAL_Driver/Src/stm32g4xx_hal_pwr_ex.c ****   {
 2202              		.loc 1 1044 3 is_stmt 1 view .LVU490
1044:Drivers/STM32G4xx_HAL_Driver/Src/stm32g4xx_hal_pwr_ex.c ****   {
 2203              		.loc 1 1044 6 is_stmt 0 view .LVU491
 2204 001a 114C     		ldr	r4, .L282
 2205 001c 636B     		ldr	r3, [r4, #52]
1044:Drivers/STM32G4xx_HAL_Driver/Src/stm32g4xx_hal_pwr_ex.c ****   {
 2206              		.loc 1 1044 5 view .LVU492
 2207 001e 9A06     		lsls	r2, r3, #26
 2208 0020 09D4     		bmi	.L280
 2209              	.L259:
1052:Drivers/STM32G4xx_HAL_Driver/Src/stm32g4xx_hal_pwr_ex.c ****   {
 2210              		.loc 1 1052 3 is_stmt 1 view .LVU493
1052:Drivers/STM32G4xx_HAL_Driver/Src/stm32g4xx_hal_pwr_ex.c ****   {
 2211              		.loc 1 1052 6 is_stmt 0 view .LVU494
 2212 0022 0F4C     		ldr	r4, .L282
 2213 0024 636B     		ldr	r3, [r4, #52]
1052:Drivers/STM32G4xx_HAL_Driver/Src/stm32g4xx_hal_pwr_ex.c ****   {
 2214              		.loc 1 1052 5 view .LVU495
 2215 0026 5B06     		lsls	r3, r3, #25
 2216 0028 00D4     		bmi	.L281
1060:Drivers/STM32G4xx_HAL_Driver/Src/stm32g4xx_hal_pwr_ex.c **** 
 2217              		.loc 1 1060 1 view .LVU496
 2218 002a 10BD     		pop	{r4, pc}
 2219              	.L281:
1055:Drivers/STM32G4xx_HAL_Driver/Src/stm32g4xx_hal_pwr_ex.c **** 
 2220              		.loc 1 1055 5 is_stmt 1 view .LVU497
 2221 002c FFF7FEFF 		bl	HAL_PWREx_PVM4Callback
 2222              	.LVL124:
1058:Drivers/STM32G4xx_HAL_Driver/Src/stm32g4xx_hal_pwr_ex.c ****   }
 2223              		.loc 1 1058 5 view .LVU498
 2224 0030 4023     		movs	r3, #64
 2225 0032 6363     		str	r3, [r4, #52]
1060:Drivers/STM32G4xx_HAL_Driver/Src/stm32g4xx_hal_pwr_ex.c **** 
 2226              		.loc 1 1060 1 is_stmt 0 view .LVU499
 2227 0034 10BD     		pop	{r4, pc}
 2228              	.L280:
1047:Drivers/STM32G4xx_HAL_Driver/Src/stm32g4xx_hal_pwr_ex.c **** 
 2229              		.loc 1 1047 5 is_stmt 1 view .LVU500
 2230 0036 FFF7FEFF 		bl	HAL_PWREx_PVM3Callback
 2231              	.LVL125:
1050:Drivers/STM32G4xx_HAL_Driver/Src/stm32g4xx_hal_pwr_ex.c ****   }
 2232              		.loc 1 1050 5 view .LVU501
 2233 003a 2023     		movs	r3, #32
 2234 003c 6363     		str	r3, [r4, #52]
 2235 003e F0E7     		b	.L259
 2236              	.L279:
1038:Drivers/STM32G4xx_HAL_Driver/Src/stm32g4xx_hal_pwr_ex.c **** 
 2237              		.loc 1 1038 5 view .LVU502
 2238 0040 FFF7FEFF 		bl	HAL_PWREx_PVM2Callback
 2239              	.LVL126:
1041:Drivers/STM32G4xx_HAL_Driver/Src/stm32g4xx_hal_pwr_ex.c ****   }
 2240              		.loc 1 1041 5 view .LVU503
 2241 0044 1023     		movs	r3, #16
 2242 0046 6363     		str	r3, [r4, #52]
ARM GAS  /tmp/ccbR6ah2.s 			page 63


 2243 0048 E7E7     		b	.L258
 2244              	.L278:
1028:Drivers/STM32G4xx_HAL_Driver/Src/stm32g4xx_hal_pwr_ex.c **** 
 2245              		.loc 1 1028 5 view .LVU504
 2246 004a FFF7FEFF 		bl	HAL_PWREx_PVM1Callback
 2247              	.LVL127:
1031:Drivers/STM32G4xx_HAL_Driver/Src/stm32g4xx_hal_pwr_ex.c ****   }
 2248              		.loc 1 1031 5 view .LVU505
 2249 004e 0823     		movs	r3, #8
 2250 0050 6363     		str	r3, [r4, #52]
 2251 0052 DEE7     		b	.L257
 2252              	.L277:
1018:Drivers/STM32G4xx_HAL_Driver/Src/stm32g4xx_hal_pwr_ex.c **** 
 2253              		.loc 1 1018 5 view .LVU506
 2254 0054 FFF7FEFF 		bl	HAL_PWR_PVDCallback
 2255              	.LVL128:
1021:Drivers/STM32G4xx_HAL_Driver/Src/stm32g4xx_hal_pwr_ex.c ****   }
 2256              		.loc 1 1021 5 view .LVU507
 2257 0058 4FF48033 		mov	r3, #65536
 2258 005c 6361     		str	r3, [r4, #20]
 2259 005e D4E7     		b	.L256
 2260              	.L283:
 2261              		.align	2
 2262              	.L282:
 2263 0060 00040140 		.word	1073808384
 2264              		.cfi_endproc
 2265              	.LFE357:
 2267              		.section	.text.HAL_PWREx_EnableUCPDStandbyMode,"ax",%progbits
 2268              		.align	1
 2269              		.p2align 2,,3
 2270              		.global	HAL_PWREx_EnableUCPDStandbyMode
 2271              		.syntax unified
 2272              		.thumb
 2273              		.thumb_func
 2274              		.fpu fpv4-sp-d16
 2276              	HAL_PWREx_EnableUCPDStandbyMode:
 2277              	.LFB362:
1074:Drivers/STM32G4xx_HAL_Driver/Src/stm32g4xx_hal_pwr_ex.c **** #endif /* PWR_CR2_PVME1 */
1075:Drivers/STM32G4xx_HAL_Driver/Src/stm32g4xx_hal_pwr_ex.c **** 
1076:Drivers/STM32G4xx_HAL_Driver/Src/stm32g4xx_hal_pwr_ex.c **** #if defined(PWR_CR2_PVME2)
1077:Drivers/STM32G4xx_HAL_Driver/Src/stm32g4xx_hal_pwr_ex.c **** /**
1078:Drivers/STM32G4xx_HAL_Driver/Src/stm32g4xx_hal_pwr_ex.c ****   * @brief PWR PVM2 interrupt callback
1079:Drivers/STM32G4xx_HAL_Driver/Src/stm32g4xx_hal_pwr_ex.c ****   * @retval None
1080:Drivers/STM32G4xx_HAL_Driver/Src/stm32g4xx_hal_pwr_ex.c ****   */
1081:Drivers/STM32G4xx_HAL_Driver/Src/stm32g4xx_hal_pwr_ex.c **** __weak void HAL_PWREx_PVM2Callback(void)
1082:Drivers/STM32G4xx_HAL_Driver/Src/stm32g4xx_hal_pwr_ex.c **** {
1083:Drivers/STM32G4xx_HAL_Driver/Src/stm32g4xx_hal_pwr_ex.c ****   /* NOTE : This function should not be modified; when the callback is needed,
1084:Drivers/STM32G4xx_HAL_Driver/Src/stm32g4xx_hal_pwr_ex.c ****             HAL_PWREx_PVM2Callback() API can be implemented in the user file
1085:Drivers/STM32G4xx_HAL_Driver/Src/stm32g4xx_hal_pwr_ex.c ****    */
1086:Drivers/STM32G4xx_HAL_Driver/Src/stm32g4xx_hal_pwr_ex.c **** }
1087:Drivers/STM32G4xx_HAL_Driver/Src/stm32g4xx_hal_pwr_ex.c **** #endif /* PWR_CR2_PVME2 */
1088:Drivers/STM32G4xx_HAL_Driver/Src/stm32g4xx_hal_pwr_ex.c **** 
1089:Drivers/STM32G4xx_HAL_Driver/Src/stm32g4xx_hal_pwr_ex.c **** /**
1090:Drivers/STM32G4xx_HAL_Driver/Src/stm32g4xx_hal_pwr_ex.c ****   * @brief PWR PVM3 interrupt callback
1091:Drivers/STM32G4xx_HAL_Driver/Src/stm32g4xx_hal_pwr_ex.c ****   * @retval None
1092:Drivers/STM32G4xx_HAL_Driver/Src/stm32g4xx_hal_pwr_ex.c ****   */
1093:Drivers/STM32G4xx_HAL_Driver/Src/stm32g4xx_hal_pwr_ex.c **** __weak void HAL_PWREx_PVM3Callback(void)
ARM GAS  /tmp/ccbR6ah2.s 			page 64


1094:Drivers/STM32G4xx_HAL_Driver/Src/stm32g4xx_hal_pwr_ex.c **** {
1095:Drivers/STM32G4xx_HAL_Driver/Src/stm32g4xx_hal_pwr_ex.c ****   /* NOTE : This function should not be modified; when the callback is needed,
1096:Drivers/STM32G4xx_HAL_Driver/Src/stm32g4xx_hal_pwr_ex.c ****             HAL_PWREx_PVM3Callback() API can be implemented in the user file
1097:Drivers/STM32G4xx_HAL_Driver/Src/stm32g4xx_hal_pwr_ex.c ****    */
1098:Drivers/STM32G4xx_HAL_Driver/Src/stm32g4xx_hal_pwr_ex.c **** }
1099:Drivers/STM32G4xx_HAL_Driver/Src/stm32g4xx_hal_pwr_ex.c **** 
1100:Drivers/STM32G4xx_HAL_Driver/Src/stm32g4xx_hal_pwr_ex.c **** /**
1101:Drivers/STM32G4xx_HAL_Driver/Src/stm32g4xx_hal_pwr_ex.c ****   * @brief PWR PVM4 interrupt callback
1102:Drivers/STM32G4xx_HAL_Driver/Src/stm32g4xx_hal_pwr_ex.c ****   * @retval None
1103:Drivers/STM32G4xx_HAL_Driver/Src/stm32g4xx_hal_pwr_ex.c ****   */
1104:Drivers/STM32G4xx_HAL_Driver/Src/stm32g4xx_hal_pwr_ex.c **** __weak void HAL_PWREx_PVM4Callback(void)
1105:Drivers/STM32G4xx_HAL_Driver/Src/stm32g4xx_hal_pwr_ex.c **** {
1106:Drivers/STM32G4xx_HAL_Driver/Src/stm32g4xx_hal_pwr_ex.c ****   /* NOTE : This function should not be modified; when the callback is needed,
1107:Drivers/STM32G4xx_HAL_Driver/Src/stm32g4xx_hal_pwr_ex.c ****             HAL_PWREx_PVM4Callback() API can be implemented in the user file
1108:Drivers/STM32G4xx_HAL_Driver/Src/stm32g4xx_hal_pwr_ex.c ****    */
1109:Drivers/STM32G4xx_HAL_Driver/Src/stm32g4xx_hal_pwr_ex.c **** }
1110:Drivers/STM32G4xx_HAL_Driver/Src/stm32g4xx_hal_pwr_ex.c **** 
1111:Drivers/STM32G4xx_HAL_Driver/Src/stm32g4xx_hal_pwr_ex.c **** #if defined(PWR_CR3_UCPD_STDBY)
1112:Drivers/STM32G4xx_HAL_Driver/Src/stm32g4xx_hal_pwr_ex.c **** /**
1113:Drivers/STM32G4xx_HAL_Driver/Src/stm32g4xx_hal_pwr_ex.c ****   * @brief Enable UCPD configuration memorization in Standby.
1114:Drivers/STM32G4xx_HAL_Driver/Src/stm32g4xx_hal_pwr_ex.c ****   * @retval None
1115:Drivers/STM32G4xx_HAL_Driver/Src/stm32g4xx_hal_pwr_ex.c ****   */
1116:Drivers/STM32G4xx_HAL_Driver/Src/stm32g4xx_hal_pwr_ex.c **** void HAL_PWREx_EnableUCPDStandbyMode(void)
1117:Drivers/STM32G4xx_HAL_Driver/Src/stm32g4xx_hal_pwr_ex.c **** {
 2278              		.loc 1 1117 1 view -0
 2279              		.cfi_startproc
 2280              		@ args = 0, pretend = 0, frame = 0
 2281              		@ frame_needed = 0, uses_anonymous_args = 0
 2282              		@ link register save eliminated.
1118:Drivers/STM32G4xx_HAL_Driver/Src/stm32g4xx_hal_pwr_ex.c ****   /* Memorize UCPD configuration when entering standby mode */
1119:Drivers/STM32G4xx_HAL_Driver/Src/stm32g4xx_hal_pwr_ex.c ****   SET_BIT(PWR->CR3, PWR_CR3_UCPD_STDBY);
 2283              		.loc 1 1119 3 view .LVU509
 2284 0000 024A     		ldr	r2, .L285
 2285 0002 9368     		ldr	r3, [r2, #8]
 2286 0004 43F40053 		orr	r3, r3, #8192
 2287 0008 9360     		str	r3, [r2, #8]
1120:Drivers/STM32G4xx_HAL_Driver/Src/stm32g4xx_hal_pwr_ex.c **** }
 2288              		.loc 1 1120 1 is_stmt 0 view .LVU510
 2289 000a 7047     		bx	lr
 2290              	.L286:
 2291              		.align	2
 2292              	.L285:
 2293 000c 00700040 		.word	1073770496
 2294              		.cfi_endproc
 2295              	.LFE362:
 2297              		.section	.text.HAL_PWREx_DisableUCPDStandbyMode,"ax",%progbits
 2298              		.align	1
 2299              		.p2align 2,,3
 2300              		.global	HAL_PWREx_DisableUCPDStandbyMode
 2301              		.syntax unified
 2302              		.thumb
 2303              		.thumb_func
 2304              		.fpu fpv4-sp-d16
 2306              	HAL_PWREx_DisableUCPDStandbyMode:
 2307              	.LFB363:
1121:Drivers/STM32G4xx_HAL_Driver/Src/stm32g4xx_hal_pwr_ex.c **** 
1122:Drivers/STM32G4xx_HAL_Driver/Src/stm32g4xx_hal_pwr_ex.c **** /**
ARM GAS  /tmp/ccbR6ah2.s 			page 65


1123:Drivers/STM32G4xx_HAL_Driver/Src/stm32g4xx_hal_pwr_ex.c ****   * @brief Disable UCPD configuration memorization in Standby.
1124:Drivers/STM32G4xx_HAL_Driver/Src/stm32g4xx_hal_pwr_ex.c ****   * @note  This function must be called on exiting the Standby mode and before any UCPD
1125:Drivers/STM32G4xx_HAL_Driver/Src/stm32g4xx_hal_pwr_ex.c ****   *        configuration update.
1126:Drivers/STM32G4xx_HAL_Driver/Src/stm32g4xx_hal_pwr_ex.c ****   * @retval None
1127:Drivers/STM32G4xx_HAL_Driver/Src/stm32g4xx_hal_pwr_ex.c ****   */
1128:Drivers/STM32G4xx_HAL_Driver/Src/stm32g4xx_hal_pwr_ex.c **** void HAL_PWREx_DisableUCPDStandbyMode(void)
1129:Drivers/STM32G4xx_HAL_Driver/Src/stm32g4xx_hal_pwr_ex.c **** {
 2308              		.loc 1 1129 1 is_stmt 1 view -0
 2309              		.cfi_startproc
 2310              		@ args = 0, pretend = 0, frame = 0
 2311              		@ frame_needed = 0, uses_anonymous_args = 0
 2312              		@ link register save eliminated.
1130:Drivers/STM32G4xx_HAL_Driver/Src/stm32g4xx_hal_pwr_ex.c ****   /* Write 0 immediately after Standby exit when using UCPD,
1131:Drivers/STM32G4xx_HAL_Driver/Src/stm32g4xx_hal_pwr_ex.c ****      and before writing any UCPD registers */
1132:Drivers/STM32G4xx_HAL_Driver/Src/stm32g4xx_hal_pwr_ex.c ****   CLEAR_BIT(PWR->CR3, PWR_CR3_UCPD_STDBY);
 2313              		.loc 1 1132 3 view .LVU512
 2314 0000 024A     		ldr	r2, .L288
 2315 0002 9368     		ldr	r3, [r2, #8]
 2316 0004 23F40053 		bic	r3, r3, #8192
 2317 0008 9360     		str	r3, [r2, #8]
1133:Drivers/STM32G4xx_HAL_Driver/Src/stm32g4xx_hal_pwr_ex.c **** }
 2318              		.loc 1 1133 1 is_stmt 0 view .LVU513
 2319 000a 7047     		bx	lr
 2320              	.L289:
 2321              		.align	2
 2322              	.L288:
 2323 000c 00700040 		.word	1073770496
 2324              		.cfi_endproc
 2325              	.LFE363:
 2327              		.section	.text.HAL_PWREx_EnableUCPDDeadBattery,"ax",%progbits
 2328              		.align	1
 2329              		.p2align 2,,3
 2330              		.global	HAL_PWREx_EnableUCPDDeadBattery
 2331              		.syntax unified
 2332              		.thumb
 2333              		.thumb_func
 2334              		.fpu fpv4-sp-d16
 2336              	HAL_PWREx_EnableUCPDDeadBattery:
 2337              	.LFB364:
1134:Drivers/STM32G4xx_HAL_Driver/Src/stm32g4xx_hal_pwr_ex.c **** #endif /* PWR_CR3_UCPD_STDBY */
1135:Drivers/STM32G4xx_HAL_Driver/Src/stm32g4xx_hal_pwr_ex.c **** 
1136:Drivers/STM32G4xx_HAL_Driver/Src/stm32g4xx_hal_pwr_ex.c **** #if defined(PWR_CR3_UCPD_DBDIS)
1137:Drivers/STM32G4xx_HAL_Driver/Src/stm32g4xx_hal_pwr_ex.c **** /**
1138:Drivers/STM32G4xx_HAL_Driver/Src/stm32g4xx_hal_pwr_ex.c ****   * @brief Enable the USB Type-C dead battery pull-down behavior
1139:Drivers/STM32G4xx_HAL_Driver/Src/stm32g4xx_hal_pwr_ex.c ****   *        on UCPDx_CC1 and UCPDx_CC2 pins
1140:Drivers/STM32G4xx_HAL_Driver/Src/stm32g4xx_hal_pwr_ex.c ****   * @retval None
1141:Drivers/STM32G4xx_HAL_Driver/Src/stm32g4xx_hal_pwr_ex.c ****   */
1142:Drivers/STM32G4xx_HAL_Driver/Src/stm32g4xx_hal_pwr_ex.c **** void HAL_PWREx_EnableUCPDDeadBattery(void)
1143:Drivers/STM32G4xx_HAL_Driver/Src/stm32g4xx_hal_pwr_ex.c **** {
 2338              		.loc 1 1143 1 is_stmt 1 view -0
 2339              		.cfi_startproc
 2340              		@ args = 0, pretend = 0, frame = 0
 2341              		@ frame_needed = 0, uses_anonymous_args = 0
 2342              		@ link register save eliminated.
1144:Drivers/STM32G4xx_HAL_Driver/Src/stm32g4xx_hal_pwr_ex.c ****   /* Write 0 to enable the USB Type-C dead battery pull-down behavior */
1145:Drivers/STM32G4xx_HAL_Driver/Src/stm32g4xx_hal_pwr_ex.c ****   CLEAR_BIT(PWR->CR3, PWR_CR3_UCPD_DBDIS);
 2343              		.loc 1 1145 3 view .LVU515
ARM GAS  /tmp/ccbR6ah2.s 			page 66


 2344 0000 024A     		ldr	r2, .L291
 2345 0002 9368     		ldr	r3, [r2, #8]
 2346 0004 23F48043 		bic	r3, r3, #16384
 2347 0008 9360     		str	r3, [r2, #8]
1146:Drivers/STM32G4xx_HAL_Driver/Src/stm32g4xx_hal_pwr_ex.c **** }
 2348              		.loc 1 1146 1 is_stmt 0 view .LVU516
 2349 000a 7047     		bx	lr
 2350              	.L292:
 2351              		.align	2
 2352              	.L291:
 2353 000c 00700040 		.word	1073770496
 2354              		.cfi_endproc
 2355              	.LFE364:
 2357              		.section	.text.HAL_PWREx_DisableUCPDDeadBattery,"ax",%progbits
 2358              		.align	1
 2359              		.p2align 2,,3
 2360              		.global	HAL_PWREx_DisableUCPDDeadBattery
 2361              		.syntax unified
 2362              		.thumb
 2363              		.thumb_func
 2364              		.fpu fpv4-sp-d16
 2366              	HAL_PWREx_DisableUCPDDeadBattery:
 2367              	.LFB365:
1147:Drivers/STM32G4xx_HAL_Driver/Src/stm32g4xx_hal_pwr_ex.c **** 
1148:Drivers/STM32G4xx_HAL_Driver/Src/stm32g4xx_hal_pwr_ex.c **** /**
1149:Drivers/STM32G4xx_HAL_Driver/Src/stm32g4xx_hal_pwr_ex.c ****   * @brief Disable the USB Type-C dead battery pull-down behavior
1150:Drivers/STM32G4xx_HAL_Driver/Src/stm32g4xx_hal_pwr_ex.c ****   *        on UCPDx_CC1 and UCPDx_CC2 pins
1151:Drivers/STM32G4xx_HAL_Driver/Src/stm32g4xx_hal_pwr_ex.c ****   * @note After exiting reset, the USB Type-C dead battery behavior will be enabled,
1152:Drivers/STM32G4xx_HAL_Driver/Src/stm32g4xx_hal_pwr_ex.c ****   *       which may have a pull-down effect on CC1 and CC2 pins.
1153:Drivers/STM32G4xx_HAL_Driver/Src/stm32g4xx_hal_pwr_ex.c ****   *       It is recommended to disable it in all cases, either to stop this pull-down
1154:Drivers/STM32G4xx_HAL_Driver/Src/stm32g4xx_hal_pwr_ex.c ****   *       or to hand over control to the UCPD (which should therefore be
1155:Drivers/STM32G4xx_HAL_Driver/Src/stm32g4xx_hal_pwr_ex.c ****   *       initialized before doing the disable).
1156:Drivers/STM32G4xx_HAL_Driver/Src/stm32g4xx_hal_pwr_ex.c ****   * @retval None
1157:Drivers/STM32G4xx_HAL_Driver/Src/stm32g4xx_hal_pwr_ex.c ****   */
1158:Drivers/STM32G4xx_HAL_Driver/Src/stm32g4xx_hal_pwr_ex.c **** void HAL_PWREx_DisableUCPDDeadBattery(void)
1159:Drivers/STM32G4xx_HAL_Driver/Src/stm32g4xx_hal_pwr_ex.c **** {
 2368              		.loc 1 1159 1 is_stmt 1 view -0
 2369              		.cfi_startproc
 2370              		@ args = 0, pretend = 0, frame = 0
 2371              		@ frame_needed = 0, uses_anonymous_args = 0
 2372              		@ link register save eliminated.
1160:Drivers/STM32G4xx_HAL_Driver/Src/stm32g4xx_hal_pwr_ex.c ****   /* Write 1 to disable the USB Type-C dead battery pull-down behavior */
1161:Drivers/STM32G4xx_HAL_Driver/Src/stm32g4xx_hal_pwr_ex.c ****   SET_BIT(PWR->CR3, PWR_CR3_UCPD_DBDIS);
 2373              		.loc 1 1161 3 view .LVU518
 2374 0000 024A     		ldr	r2, .L294
 2375 0002 9368     		ldr	r3, [r2, #8]
 2376 0004 43F48043 		orr	r3, r3, #16384
 2377 0008 9360     		str	r3, [r2, #8]
1162:Drivers/STM32G4xx_HAL_Driver/Src/stm32g4xx_hal_pwr_ex.c **** }
 2378              		.loc 1 1162 1 is_stmt 0 view .LVU519
 2379 000a 7047     		bx	lr
 2380              	.L295:
 2381              		.align	2
 2382              	.L294:
 2383 000c 00700040 		.word	1073770496
 2384              		.cfi_endproc
 2385              	.LFE365:
ARM GAS  /tmp/ccbR6ah2.s 			page 67


 2387              		.text
 2388              	.Letext0:
 2389              		.file 2 "/usr/lib/gcc/arm-none-eabi/9.2.1/include/stdint.h"
 2390              		.file 3 "Drivers/CMSIS/Include/core_cm4.h"
 2391              		.file 4 "Drivers/CMSIS/Device/ST/STM32G4xx/Include/system_stm32g4xx.h"
 2392              		.file 5 "Drivers/CMSIS/Device/ST/STM32G4xx/Include/stm32g474xx.h"
 2393              		.file 6 "Drivers/STM32G4xx_HAL_Driver/Inc/stm32g4xx_hal_def.h"
 2394              		.file 7 "Drivers/STM32G4xx_HAL_Driver/Inc/stm32g4xx_hal_flash.h"
 2395              		.file 8 "Drivers/STM32G4xx_HAL_Driver/Inc/stm32g4xx_hal_pwr_ex.h"
 2396              		.file 9 "Drivers/STM32G4xx_HAL_Driver/Inc/stm32g4xx_hal.h"
 2397              		.file 10 "Drivers/STM32G4xx_HAL_Driver/Inc/stm32g4xx_hal_pwr.h"
ARM GAS  /tmp/ccbR6ah2.s 			page 68

