ARM GAS  /tmp/ccaSLnfD.s 			page 1


   1              		.cpu cortex-m4
   2              		.eabi_attribute 27, 1
   3              		.eabi_attribute 28, 1
   4              		.eabi_attribute 20, 1
   5              		.eabi_attribute 21, 1
   6              		.eabi_attribute 23, 3
   7              		.eabi_attribute 24, 1
   8              		.eabi_attribute 25, 1
   9              		.eabi_attribute 26, 1
  10              		.eabi_attribute 30, 2
  11              		.eabi_attribute 34, 1
  12              		.eabi_attribute 18, 4
  13              		.file	"stm32g4xx_hal_flash.c"
  14              		.text
  15              	.Ltext0:
  16              		.cfi_sections	.debug_frame
  17              		.section	.text.HAL_FLASH_EndOfOperationCallback,"ax",%progbits
  18              		.align	1
  19              		.p2align 2,,3
  20              		.weak	HAL_FLASH_EndOfOperationCallback
  21              		.arch armv7e-m
  22              		.syntax unified
  23              		.thumb
  24              		.thumb_func
  25              		.fpu fpv4-sp-d16
  27              	HAL_FLASH_EndOfOperationCallback:
  28              	.LVL0:
  29              	.LFB332:
  30              		.file 1 "Drivers/STM32G4xx_HAL_Driver/Src/stm32g4xx_hal_flash.c"
   1:Drivers/STM32G4xx_HAL_Driver/Src/stm32g4xx_hal_flash.c **** /**
   2:Drivers/STM32G4xx_HAL_Driver/Src/stm32g4xx_hal_flash.c ****   ******************************************************************************
   3:Drivers/STM32G4xx_HAL_Driver/Src/stm32g4xx_hal_flash.c ****   * @file    stm32g4xx_hal_flash.c
   4:Drivers/STM32G4xx_HAL_Driver/Src/stm32g4xx_hal_flash.c ****   * @author  MCD Application Team
   5:Drivers/STM32G4xx_HAL_Driver/Src/stm32g4xx_hal_flash.c ****   * @brief   FLASH HAL module driver.
   6:Drivers/STM32G4xx_HAL_Driver/Src/stm32g4xx_hal_flash.c ****   *          This file provides firmware functions to manage the following
   7:Drivers/STM32G4xx_HAL_Driver/Src/stm32g4xx_hal_flash.c ****   *          functionalities of the internal FLASH memory:
   8:Drivers/STM32G4xx_HAL_Driver/Src/stm32g4xx_hal_flash.c ****   *           + Program operations functions
   9:Drivers/STM32G4xx_HAL_Driver/Src/stm32g4xx_hal_flash.c ****   *           + Memory Control functions
  10:Drivers/STM32G4xx_HAL_Driver/Src/stm32g4xx_hal_flash.c ****   *           + Peripheral Errors functions
  11:Drivers/STM32G4xx_HAL_Driver/Src/stm32g4xx_hal_flash.c ****   *
  12:Drivers/STM32G4xx_HAL_Driver/Src/stm32g4xx_hal_flash.c ****   @verbatim
  13:Drivers/STM32G4xx_HAL_Driver/Src/stm32g4xx_hal_flash.c ****   ==============================================================================
  14:Drivers/STM32G4xx_HAL_Driver/Src/stm32g4xx_hal_flash.c ****                         ##### FLASH peripheral features #####
  15:Drivers/STM32G4xx_HAL_Driver/Src/stm32g4xx_hal_flash.c ****   ==============================================================================
  16:Drivers/STM32G4xx_HAL_Driver/Src/stm32g4xx_hal_flash.c **** 
  17:Drivers/STM32G4xx_HAL_Driver/Src/stm32g4xx_hal_flash.c ****   [..] The Flash memory interface manages CPU AHB I-Code and D-Code accesses
  18:Drivers/STM32G4xx_HAL_Driver/Src/stm32g4xx_hal_flash.c ****        to the Flash memory. It implements the erase and program Flash memory operations
  19:Drivers/STM32G4xx_HAL_Driver/Src/stm32g4xx_hal_flash.c ****        and the read and write protection mechanisms.
  20:Drivers/STM32G4xx_HAL_Driver/Src/stm32g4xx_hal_flash.c **** 
  21:Drivers/STM32G4xx_HAL_Driver/Src/stm32g4xx_hal_flash.c ****   [..] The Flash memory interface accelerates code execution with a system of instruction
  22:Drivers/STM32G4xx_HAL_Driver/Src/stm32g4xx_hal_flash.c ****        prefetch and cache lines.
  23:Drivers/STM32G4xx_HAL_Driver/Src/stm32g4xx_hal_flash.c **** 
  24:Drivers/STM32G4xx_HAL_Driver/Src/stm32g4xx_hal_flash.c ****   [..] The FLASH main features are:
  25:Drivers/STM32G4xx_HAL_Driver/Src/stm32g4xx_hal_flash.c ****       (+) Flash memory read operations
  26:Drivers/STM32G4xx_HAL_Driver/Src/stm32g4xx_hal_flash.c ****       (+) Flash memory program/erase operations
  27:Drivers/STM32G4xx_HAL_Driver/Src/stm32g4xx_hal_flash.c ****       (+) Read / write protections
  28:Drivers/STM32G4xx_HAL_Driver/Src/stm32g4xx_hal_flash.c ****       (+) Option bytes programming
ARM GAS  /tmp/ccaSLnfD.s 			page 2


  29:Drivers/STM32G4xx_HAL_Driver/Src/stm32g4xx_hal_flash.c ****       (+) Prefetch on I-Code
  30:Drivers/STM32G4xx_HAL_Driver/Src/stm32g4xx_hal_flash.c ****       (+) 32 cache lines of 4*64 or 2*128 bits on I-Code
  31:Drivers/STM32G4xx_HAL_Driver/Src/stm32g4xx_hal_flash.c ****       (+) 8 cache lines of 4*64 or 2*128 bits on D-Code
  32:Drivers/STM32G4xx_HAL_Driver/Src/stm32g4xx_hal_flash.c ****       (+) Error code correction (ECC) : Data in flash are 72-bits word
  33:Drivers/STM32G4xx_HAL_Driver/Src/stm32g4xx_hal_flash.c ****           (8 bits added per double word)
  34:Drivers/STM32G4xx_HAL_Driver/Src/stm32g4xx_hal_flash.c **** 
  35:Drivers/STM32G4xx_HAL_Driver/Src/stm32g4xx_hal_flash.c **** 
  36:Drivers/STM32G4xx_HAL_Driver/Src/stm32g4xx_hal_flash.c ****                         ##### How to use this driver #####
  37:Drivers/STM32G4xx_HAL_Driver/Src/stm32g4xx_hal_flash.c ****   ==============================================================================
  38:Drivers/STM32G4xx_HAL_Driver/Src/stm32g4xx_hal_flash.c ****     [..]
  39:Drivers/STM32G4xx_HAL_Driver/Src/stm32g4xx_hal_flash.c ****       This driver provides functions and macros to configure and program the FLASH
  40:Drivers/STM32G4xx_HAL_Driver/Src/stm32g4xx_hal_flash.c ****       memory of all STM32G4xx devices.
  41:Drivers/STM32G4xx_HAL_Driver/Src/stm32g4xx_hal_flash.c **** 
  42:Drivers/STM32G4xx_HAL_Driver/Src/stm32g4xx_hal_flash.c ****       (#) Flash Memory IO Programming functions:
  43:Drivers/STM32G4xx_HAL_Driver/Src/stm32g4xx_hal_flash.c ****            (++) Lock and Unlock the FLASH interface using HAL_FLASH_Unlock() and
  44:Drivers/STM32G4xx_HAL_Driver/Src/stm32g4xx_hal_flash.c ****                 HAL_FLASH_Lock() functions
  45:Drivers/STM32G4xx_HAL_Driver/Src/stm32g4xx_hal_flash.c ****            (++) Program functions: double word and fast program (full row programming)
  46:Drivers/STM32G4xx_HAL_Driver/Src/stm32g4xx_hal_flash.c ****            (++) There are two modes of programming :
  47:Drivers/STM32G4xx_HAL_Driver/Src/stm32g4xx_hal_flash.c ****             (+++) Polling mode using HAL_FLASH_Program() function
  48:Drivers/STM32G4xx_HAL_Driver/Src/stm32g4xx_hal_flash.c ****             (+++) Interrupt mode using HAL_FLASH_Program_IT() function
  49:Drivers/STM32G4xx_HAL_Driver/Src/stm32g4xx_hal_flash.c **** 
  50:Drivers/STM32G4xx_HAL_Driver/Src/stm32g4xx_hal_flash.c ****       (#) Interrupts and flags management functions:
  51:Drivers/STM32G4xx_HAL_Driver/Src/stm32g4xx_hal_flash.c ****            (++) Handle FLASH interrupts by calling HAL_FLASH_IRQHandler()
  52:Drivers/STM32G4xx_HAL_Driver/Src/stm32g4xx_hal_flash.c ****            (++) Callback functions are called when the flash operations are finished :
  53:Drivers/STM32G4xx_HAL_Driver/Src/stm32g4xx_hal_flash.c ****                 HAL_FLASH_EndOfOperationCallback() when everything is ok, otherwise
  54:Drivers/STM32G4xx_HAL_Driver/Src/stm32g4xx_hal_flash.c ****                 HAL_FLASH_OperationErrorCallback()
  55:Drivers/STM32G4xx_HAL_Driver/Src/stm32g4xx_hal_flash.c ****            (++) Get error flag status by calling HAL_GetError()
  56:Drivers/STM32G4xx_HAL_Driver/Src/stm32g4xx_hal_flash.c **** 
  57:Drivers/STM32G4xx_HAL_Driver/Src/stm32g4xx_hal_flash.c ****       (#) Option bytes management functions:
  58:Drivers/STM32G4xx_HAL_Driver/Src/stm32g4xx_hal_flash.c ****            (++) Lock and Unlock the option bytes using HAL_FLASH_OB_Unlock() and
  59:Drivers/STM32G4xx_HAL_Driver/Src/stm32g4xx_hal_flash.c ****                 HAL_FLASH_OB_Lock() functions
  60:Drivers/STM32G4xx_HAL_Driver/Src/stm32g4xx_hal_flash.c ****            (++) Launch the reload of the option bytes using HAL_FLASH_Launch() function.
  61:Drivers/STM32G4xx_HAL_Driver/Src/stm32g4xx_hal_flash.c ****                 In this case, a reset is generated
  62:Drivers/STM32G4xx_HAL_Driver/Src/stm32g4xx_hal_flash.c **** 
  63:Drivers/STM32G4xx_HAL_Driver/Src/stm32g4xx_hal_flash.c ****     [..]
  64:Drivers/STM32G4xx_HAL_Driver/Src/stm32g4xx_hal_flash.c ****       In addition to these functions, this driver includes a set of macros allowing
  65:Drivers/STM32G4xx_HAL_Driver/Src/stm32g4xx_hal_flash.c ****       to handle the following operations:
  66:Drivers/STM32G4xx_HAL_Driver/Src/stm32g4xx_hal_flash.c ****        (+) Set the latency
  67:Drivers/STM32G4xx_HAL_Driver/Src/stm32g4xx_hal_flash.c ****        (+) Enable/Disable the prefetch buffer
  68:Drivers/STM32G4xx_HAL_Driver/Src/stm32g4xx_hal_flash.c ****        (+) Enable/Disable the Instruction cache and the Data cache
  69:Drivers/STM32G4xx_HAL_Driver/Src/stm32g4xx_hal_flash.c ****        (+) Reset the Instruction cache and the Data cache
  70:Drivers/STM32G4xx_HAL_Driver/Src/stm32g4xx_hal_flash.c ****        (+) Enable/Disable the Flash power-down during low-power run and sleep modes
  71:Drivers/STM32G4xx_HAL_Driver/Src/stm32g4xx_hal_flash.c ****        (+) Enable/Disable the Flash interrupts
  72:Drivers/STM32G4xx_HAL_Driver/Src/stm32g4xx_hal_flash.c ****        (+) Monitor the Flash flags status
  73:Drivers/STM32G4xx_HAL_Driver/Src/stm32g4xx_hal_flash.c **** 
  74:Drivers/STM32G4xx_HAL_Driver/Src/stm32g4xx_hal_flash.c ****   @endverbatim
  75:Drivers/STM32G4xx_HAL_Driver/Src/stm32g4xx_hal_flash.c ****   ******************************************************************************
  76:Drivers/STM32G4xx_HAL_Driver/Src/stm32g4xx_hal_flash.c ****   * @attention
  77:Drivers/STM32G4xx_HAL_Driver/Src/stm32g4xx_hal_flash.c ****   *
  78:Drivers/STM32G4xx_HAL_Driver/Src/stm32g4xx_hal_flash.c ****   * <h2><center>&copy; COPYRIGHT(c) 2019 STMicroelectronics</center></h2>
  79:Drivers/STM32G4xx_HAL_Driver/Src/stm32g4xx_hal_flash.c ****   *
  80:Drivers/STM32G4xx_HAL_Driver/Src/stm32g4xx_hal_flash.c ****   * This software component is licensed by ST under BSD 3-Clause license,
  81:Drivers/STM32G4xx_HAL_Driver/Src/stm32g4xx_hal_flash.c ****   * the "License"; You may not use this file except in compliance with the
  82:Drivers/STM32G4xx_HAL_Driver/Src/stm32g4xx_hal_flash.c ****   * License. You may obtain a copy of the License at:
  83:Drivers/STM32G4xx_HAL_Driver/Src/stm32g4xx_hal_flash.c ****   *                       opensource.org/licenses/BSD-3-Clause
  84:Drivers/STM32G4xx_HAL_Driver/Src/stm32g4xx_hal_flash.c ****   *
  85:Drivers/STM32G4xx_HAL_Driver/Src/stm32g4xx_hal_flash.c ****   ******************************************************************************
ARM GAS  /tmp/ccaSLnfD.s 			page 3


  86:Drivers/STM32G4xx_HAL_Driver/Src/stm32g4xx_hal_flash.c ****   */
  87:Drivers/STM32G4xx_HAL_Driver/Src/stm32g4xx_hal_flash.c **** 
  88:Drivers/STM32G4xx_HAL_Driver/Src/stm32g4xx_hal_flash.c **** /* Includes ------------------------------------------------------------------*/
  89:Drivers/STM32G4xx_HAL_Driver/Src/stm32g4xx_hal_flash.c **** #include "stm32g4xx_hal.h"
  90:Drivers/STM32G4xx_HAL_Driver/Src/stm32g4xx_hal_flash.c **** 
  91:Drivers/STM32G4xx_HAL_Driver/Src/stm32g4xx_hal_flash.c **** /** @addtogroup STM32G4xx_HAL_Driver
  92:Drivers/STM32G4xx_HAL_Driver/Src/stm32g4xx_hal_flash.c ****   * @{
  93:Drivers/STM32G4xx_HAL_Driver/Src/stm32g4xx_hal_flash.c ****   */
  94:Drivers/STM32G4xx_HAL_Driver/Src/stm32g4xx_hal_flash.c **** 
  95:Drivers/STM32G4xx_HAL_Driver/Src/stm32g4xx_hal_flash.c **** /** @defgroup FLASH FLASH
  96:Drivers/STM32G4xx_HAL_Driver/Src/stm32g4xx_hal_flash.c ****   * @brief FLASH HAL module driver
  97:Drivers/STM32G4xx_HAL_Driver/Src/stm32g4xx_hal_flash.c ****   * @{
  98:Drivers/STM32G4xx_HAL_Driver/Src/stm32g4xx_hal_flash.c ****   */
  99:Drivers/STM32G4xx_HAL_Driver/Src/stm32g4xx_hal_flash.c **** 
 100:Drivers/STM32G4xx_HAL_Driver/Src/stm32g4xx_hal_flash.c **** #ifdef HAL_FLASH_MODULE_ENABLED
 101:Drivers/STM32G4xx_HAL_Driver/Src/stm32g4xx_hal_flash.c **** 
 102:Drivers/STM32G4xx_HAL_Driver/Src/stm32g4xx_hal_flash.c **** /* Private typedef -----------------------------------------------------------*/
 103:Drivers/STM32G4xx_HAL_Driver/Src/stm32g4xx_hal_flash.c **** /* Private defines -----------------------------------------------------------*/
 104:Drivers/STM32G4xx_HAL_Driver/Src/stm32g4xx_hal_flash.c **** /** @defgroup FLASH_Private_Constants FLASH Private Constants
 105:Drivers/STM32G4xx_HAL_Driver/Src/stm32g4xx_hal_flash.c ****   * @{
 106:Drivers/STM32G4xx_HAL_Driver/Src/stm32g4xx_hal_flash.c ****   */
 107:Drivers/STM32G4xx_HAL_Driver/Src/stm32g4xx_hal_flash.c **** #define FLASH_NB_DOUBLE_WORDS_IN_ROW  32
 108:Drivers/STM32G4xx_HAL_Driver/Src/stm32g4xx_hal_flash.c **** /**
 109:Drivers/STM32G4xx_HAL_Driver/Src/stm32g4xx_hal_flash.c ****   * @}
 110:Drivers/STM32G4xx_HAL_Driver/Src/stm32g4xx_hal_flash.c ****   */
 111:Drivers/STM32G4xx_HAL_Driver/Src/stm32g4xx_hal_flash.c **** 
 112:Drivers/STM32G4xx_HAL_Driver/Src/stm32g4xx_hal_flash.c **** /* Private macros ------------------------------------------------------------*/
 113:Drivers/STM32G4xx_HAL_Driver/Src/stm32g4xx_hal_flash.c **** /* Private variables ---------------------------------------------------------*/
 114:Drivers/STM32G4xx_HAL_Driver/Src/stm32g4xx_hal_flash.c **** /** @defgroup FLASH_Private_Variables FLASH Private Variables
 115:Drivers/STM32G4xx_HAL_Driver/Src/stm32g4xx_hal_flash.c ****   * @{
 116:Drivers/STM32G4xx_HAL_Driver/Src/stm32g4xx_hal_flash.c ****   */
 117:Drivers/STM32G4xx_HAL_Driver/Src/stm32g4xx_hal_flash.c **** 
 118:Drivers/STM32G4xx_HAL_Driver/Src/stm32g4xx_hal_flash.c **** /**
 119:Drivers/STM32G4xx_HAL_Driver/Src/stm32g4xx_hal_flash.c ****   * @brief  Variable used for Program/Erase sectors under interruption
 120:Drivers/STM32G4xx_HAL_Driver/Src/stm32g4xx_hal_flash.c ****   */
 121:Drivers/STM32G4xx_HAL_Driver/Src/stm32g4xx_hal_flash.c **** FLASH_ProcessTypeDef pFlash  = {.Lock = HAL_UNLOCKED,
 122:Drivers/STM32G4xx_HAL_Driver/Src/stm32g4xx_hal_flash.c ****                                 .ErrorCode = HAL_FLASH_ERROR_NONE,
 123:Drivers/STM32G4xx_HAL_Driver/Src/stm32g4xx_hal_flash.c ****                                 .ProcedureOnGoing = FLASH_PROC_NONE,
 124:Drivers/STM32G4xx_HAL_Driver/Src/stm32g4xx_hal_flash.c ****                                 .Address = 0U,
 125:Drivers/STM32G4xx_HAL_Driver/Src/stm32g4xx_hal_flash.c ****                                 .Bank = FLASH_BANK_1,
 126:Drivers/STM32G4xx_HAL_Driver/Src/stm32g4xx_hal_flash.c ****                                 .Page = 0U,
 127:Drivers/STM32G4xx_HAL_Driver/Src/stm32g4xx_hal_flash.c ****                                 .NbPagesToErase = 0U,
 128:Drivers/STM32G4xx_HAL_Driver/Src/stm32g4xx_hal_flash.c ****                                 .CacheToReactivate = FLASH_CACHE_DISABLED};
 129:Drivers/STM32G4xx_HAL_Driver/Src/stm32g4xx_hal_flash.c **** /**
 130:Drivers/STM32G4xx_HAL_Driver/Src/stm32g4xx_hal_flash.c ****   * @}
 131:Drivers/STM32G4xx_HAL_Driver/Src/stm32g4xx_hal_flash.c ****   */
 132:Drivers/STM32G4xx_HAL_Driver/Src/stm32g4xx_hal_flash.c **** 
 133:Drivers/STM32G4xx_HAL_Driver/Src/stm32g4xx_hal_flash.c **** /* Private function prototypes -----------------------------------------------*/
 134:Drivers/STM32G4xx_HAL_Driver/Src/stm32g4xx_hal_flash.c **** /** @defgroup FLASH_Private_Functions FLASH Private Functions
 135:Drivers/STM32G4xx_HAL_Driver/Src/stm32g4xx_hal_flash.c ****   * @{
 136:Drivers/STM32G4xx_HAL_Driver/Src/stm32g4xx_hal_flash.c ****   */
 137:Drivers/STM32G4xx_HAL_Driver/Src/stm32g4xx_hal_flash.c **** static void          FLASH_Program_DoubleWord(uint32_t Address, uint64_t Data);
 138:Drivers/STM32G4xx_HAL_Driver/Src/stm32g4xx_hal_flash.c **** static void          FLASH_Program_Fast(uint32_t Address, uint32_t DataAddress);
 139:Drivers/STM32G4xx_HAL_Driver/Src/stm32g4xx_hal_flash.c **** /**
 140:Drivers/STM32G4xx_HAL_Driver/Src/stm32g4xx_hal_flash.c ****   * @}
 141:Drivers/STM32G4xx_HAL_Driver/Src/stm32g4xx_hal_flash.c ****   */
 142:Drivers/STM32G4xx_HAL_Driver/Src/stm32g4xx_hal_flash.c **** 
ARM GAS  /tmp/ccaSLnfD.s 			page 4


 143:Drivers/STM32G4xx_HAL_Driver/Src/stm32g4xx_hal_flash.c **** /* Exported functions --------------------------------------------------------*/
 144:Drivers/STM32G4xx_HAL_Driver/Src/stm32g4xx_hal_flash.c **** /** @defgroup FLASH_Exported_Functions FLASH Exported Functions
 145:Drivers/STM32G4xx_HAL_Driver/Src/stm32g4xx_hal_flash.c ****   * @{
 146:Drivers/STM32G4xx_HAL_Driver/Src/stm32g4xx_hal_flash.c ****   */
 147:Drivers/STM32G4xx_HAL_Driver/Src/stm32g4xx_hal_flash.c **** 
 148:Drivers/STM32G4xx_HAL_Driver/Src/stm32g4xx_hal_flash.c **** /** @defgroup FLASH_Exported_Functions_Group1 Programming operation functions
 149:Drivers/STM32G4xx_HAL_Driver/Src/stm32g4xx_hal_flash.c ****   *  @brief   Programming operation functions
 150:Drivers/STM32G4xx_HAL_Driver/Src/stm32g4xx_hal_flash.c ****   *
 151:Drivers/STM32G4xx_HAL_Driver/Src/stm32g4xx_hal_flash.c **** @verbatim
 152:Drivers/STM32G4xx_HAL_Driver/Src/stm32g4xx_hal_flash.c ****  ===============================================================================
 153:Drivers/STM32G4xx_HAL_Driver/Src/stm32g4xx_hal_flash.c ****                   ##### Programming operation functions #####
 154:Drivers/STM32G4xx_HAL_Driver/Src/stm32g4xx_hal_flash.c ****  ===============================================================================
 155:Drivers/STM32G4xx_HAL_Driver/Src/stm32g4xx_hal_flash.c ****     [..]
 156:Drivers/STM32G4xx_HAL_Driver/Src/stm32g4xx_hal_flash.c ****     This subsection provides a set of functions allowing to manage the FLASH
 157:Drivers/STM32G4xx_HAL_Driver/Src/stm32g4xx_hal_flash.c ****     program operations.
 158:Drivers/STM32G4xx_HAL_Driver/Src/stm32g4xx_hal_flash.c **** 
 159:Drivers/STM32G4xx_HAL_Driver/Src/stm32g4xx_hal_flash.c **** @endverbatim
 160:Drivers/STM32G4xx_HAL_Driver/Src/stm32g4xx_hal_flash.c ****   * @{
 161:Drivers/STM32G4xx_HAL_Driver/Src/stm32g4xx_hal_flash.c ****   */
 162:Drivers/STM32G4xx_HAL_Driver/Src/stm32g4xx_hal_flash.c **** 
 163:Drivers/STM32G4xx_HAL_Driver/Src/stm32g4xx_hal_flash.c **** /**
 164:Drivers/STM32G4xx_HAL_Driver/Src/stm32g4xx_hal_flash.c ****   * @brief  Program double word or fast program of a row at a specified address.
 165:Drivers/STM32G4xx_HAL_Driver/Src/stm32g4xx_hal_flash.c ****   * @param  TypeProgram Indicate the way to program at a specified address.
 166:Drivers/STM32G4xx_HAL_Driver/Src/stm32g4xx_hal_flash.c ****   *         This parameter can be a value of @ref FLASH_Type_Program.
 167:Drivers/STM32G4xx_HAL_Driver/Src/stm32g4xx_hal_flash.c ****   * @param  Address specifies the address to be programmed.
 168:Drivers/STM32G4xx_HAL_Driver/Src/stm32g4xx_hal_flash.c ****   * @param  Data specifies the data to be programmed.
 169:Drivers/STM32G4xx_HAL_Driver/Src/stm32g4xx_hal_flash.c ****   *         This parameter is the data for the double word program and the address where
 170:Drivers/STM32G4xx_HAL_Driver/Src/stm32g4xx_hal_flash.c ****   *         are stored the data for the row fast program.
 171:Drivers/STM32G4xx_HAL_Driver/Src/stm32g4xx_hal_flash.c ****   *
 172:Drivers/STM32G4xx_HAL_Driver/Src/stm32g4xx_hal_flash.c ****   * @retval HAL_Status
 173:Drivers/STM32G4xx_HAL_Driver/Src/stm32g4xx_hal_flash.c ****   */
 174:Drivers/STM32G4xx_HAL_Driver/Src/stm32g4xx_hal_flash.c **** HAL_StatusTypeDef HAL_FLASH_Program(uint32_t TypeProgram, uint32_t Address, uint64_t Data)
 175:Drivers/STM32G4xx_HAL_Driver/Src/stm32g4xx_hal_flash.c **** {
 176:Drivers/STM32G4xx_HAL_Driver/Src/stm32g4xx_hal_flash.c ****   HAL_StatusTypeDef status;
 177:Drivers/STM32G4xx_HAL_Driver/Src/stm32g4xx_hal_flash.c ****   uint32_t prog_bit = 0;
 178:Drivers/STM32G4xx_HAL_Driver/Src/stm32g4xx_hal_flash.c **** 
 179:Drivers/STM32G4xx_HAL_Driver/Src/stm32g4xx_hal_flash.c ****   /* Check the parameters */
 180:Drivers/STM32G4xx_HAL_Driver/Src/stm32g4xx_hal_flash.c ****   assert_param(IS_FLASH_TYPEPROGRAM(TypeProgram));
 181:Drivers/STM32G4xx_HAL_Driver/Src/stm32g4xx_hal_flash.c **** 
 182:Drivers/STM32G4xx_HAL_Driver/Src/stm32g4xx_hal_flash.c ****   /* Process Locked */
 183:Drivers/STM32G4xx_HAL_Driver/Src/stm32g4xx_hal_flash.c ****   __HAL_LOCK(&pFlash);
 184:Drivers/STM32G4xx_HAL_Driver/Src/stm32g4xx_hal_flash.c **** 
 185:Drivers/STM32G4xx_HAL_Driver/Src/stm32g4xx_hal_flash.c ****   /* Wait for last operation to be completed */
 186:Drivers/STM32G4xx_HAL_Driver/Src/stm32g4xx_hal_flash.c ****   status = FLASH_WaitForLastOperation((uint32_t)FLASH_TIMEOUT_VALUE);
 187:Drivers/STM32G4xx_HAL_Driver/Src/stm32g4xx_hal_flash.c **** 
 188:Drivers/STM32G4xx_HAL_Driver/Src/stm32g4xx_hal_flash.c ****   if (status == HAL_OK)
 189:Drivers/STM32G4xx_HAL_Driver/Src/stm32g4xx_hal_flash.c ****   {
 190:Drivers/STM32G4xx_HAL_Driver/Src/stm32g4xx_hal_flash.c ****     pFlash.ErrorCode = HAL_FLASH_ERROR_NONE;
 191:Drivers/STM32G4xx_HAL_Driver/Src/stm32g4xx_hal_flash.c **** 
 192:Drivers/STM32G4xx_HAL_Driver/Src/stm32g4xx_hal_flash.c ****     if (TypeProgram == FLASH_TYPEPROGRAM_DOUBLEWORD)
 193:Drivers/STM32G4xx_HAL_Driver/Src/stm32g4xx_hal_flash.c ****     {
 194:Drivers/STM32G4xx_HAL_Driver/Src/stm32g4xx_hal_flash.c ****       /* Program double-word (64-bit) at a specified address */
 195:Drivers/STM32G4xx_HAL_Driver/Src/stm32g4xx_hal_flash.c ****       FLASH_Program_DoubleWord(Address, Data);
 196:Drivers/STM32G4xx_HAL_Driver/Src/stm32g4xx_hal_flash.c ****       prog_bit = FLASH_CR_PG;
 197:Drivers/STM32G4xx_HAL_Driver/Src/stm32g4xx_hal_flash.c ****     }
 198:Drivers/STM32G4xx_HAL_Driver/Src/stm32g4xx_hal_flash.c ****     else if ((TypeProgram == FLASH_TYPEPROGRAM_FAST) || (TypeProgram == FLASH_TYPEPROGRAM_FAST_AND_
 199:Drivers/STM32G4xx_HAL_Driver/Src/stm32g4xx_hal_flash.c ****     {
ARM GAS  /tmp/ccaSLnfD.s 			page 5


 200:Drivers/STM32G4xx_HAL_Driver/Src/stm32g4xx_hal_flash.c ****       /* Fast program a 32 row double-word (64-bit) at a specified address */
 201:Drivers/STM32G4xx_HAL_Driver/Src/stm32g4xx_hal_flash.c ****       FLASH_Program_Fast(Address, (uint32_t)Data);
 202:Drivers/STM32G4xx_HAL_Driver/Src/stm32g4xx_hal_flash.c **** 
 203:Drivers/STM32G4xx_HAL_Driver/Src/stm32g4xx_hal_flash.c ****       /* If it is the last row, the bit will be cleared at the end of the operation */
 204:Drivers/STM32G4xx_HAL_Driver/Src/stm32g4xx_hal_flash.c ****       if (TypeProgram == FLASH_TYPEPROGRAM_FAST_AND_LAST)
 205:Drivers/STM32G4xx_HAL_Driver/Src/stm32g4xx_hal_flash.c ****       {
 206:Drivers/STM32G4xx_HAL_Driver/Src/stm32g4xx_hal_flash.c ****         prog_bit = FLASH_CR_FSTPG;
 207:Drivers/STM32G4xx_HAL_Driver/Src/stm32g4xx_hal_flash.c ****       }
 208:Drivers/STM32G4xx_HAL_Driver/Src/stm32g4xx_hal_flash.c ****     }
 209:Drivers/STM32G4xx_HAL_Driver/Src/stm32g4xx_hal_flash.c ****     else
 210:Drivers/STM32G4xx_HAL_Driver/Src/stm32g4xx_hal_flash.c ****     {
 211:Drivers/STM32G4xx_HAL_Driver/Src/stm32g4xx_hal_flash.c ****       /* Nothing to do */
 212:Drivers/STM32G4xx_HAL_Driver/Src/stm32g4xx_hal_flash.c ****     }
 213:Drivers/STM32G4xx_HAL_Driver/Src/stm32g4xx_hal_flash.c **** 
 214:Drivers/STM32G4xx_HAL_Driver/Src/stm32g4xx_hal_flash.c ****     /* Wait for last operation to be completed */
 215:Drivers/STM32G4xx_HAL_Driver/Src/stm32g4xx_hal_flash.c ****     status = FLASH_WaitForLastOperation((uint32_t)FLASH_TIMEOUT_VALUE);
 216:Drivers/STM32G4xx_HAL_Driver/Src/stm32g4xx_hal_flash.c **** 
 217:Drivers/STM32G4xx_HAL_Driver/Src/stm32g4xx_hal_flash.c ****     /* If the program operation is completed, disable the PG or FSTPG Bit */
 218:Drivers/STM32G4xx_HAL_Driver/Src/stm32g4xx_hal_flash.c ****     if (prog_bit != 0U)
 219:Drivers/STM32G4xx_HAL_Driver/Src/stm32g4xx_hal_flash.c ****     {
 220:Drivers/STM32G4xx_HAL_Driver/Src/stm32g4xx_hal_flash.c ****       CLEAR_BIT(FLASH->CR, prog_bit);
 221:Drivers/STM32G4xx_HAL_Driver/Src/stm32g4xx_hal_flash.c ****     }
 222:Drivers/STM32G4xx_HAL_Driver/Src/stm32g4xx_hal_flash.c ****   }
 223:Drivers/STM32G4xx_HAL_Driver/Src/stm32g4xx_hal_flash.c **** 
 224:Drivers/STM32G4xx_HAL_Driver/Src/stm32g4xx_hal_flash.c ****   /* Process Unlocked */
 225:Drivers/STM32G4xx_HAL_Driver/Src/stm32g4xx_hal_flash.c ****   __HAL_UNLOCK(&pFlash);
 226:Drivers/STM32G4xx_HAL_Driver/Src/stm32g4xx_hal_flash.c **** 
 227:Drivers/STM32G4xx_HAL_Driver/Src/stm32g4xx_hal_flash.c ****   /* return status */
 228:Drivers/STM32G4xx_HAL_Driver/Src/stm32g4xx_hal_flash.c ****   return status;
 229:Drivers/STM32G4xx_HAL_Driver/Src/stm32g4xx_hal_flash.c **** }
 230:Drivers/STM32G4xx_HAL_Driver/Src/stm32g4xx_hal_flash.c **** 
 231:Drivers/STM32G4xx_HAL_Driver/Src/stm32g4xx_hal_flash.c **** /**
 232:Drivers/STM32G4xx_HAL_Driver/Src/stm32g4xx_hal_flash.c ****   * @brief  Program double word or fast program of a row at a specified address with interrupt enab
 233:Drivers/STM32G4xx_HAL_Driver/Src/stm32g4xx_hal_flash.c ****   * @param  TypeProgram Indicate the way to program at a specified address.
 234:Drivers/STM32G4xx_HAL_Driver/Src/stm32g4xx_hal_flash.c ****   *         This parameter can be a value of @ref FLASH_Type_Program.
 235:Drivers/STM32G4xx_HAL_Driver/Src/stm32g4xx_hal_flash.c ****   * @param  Address specifies the address to be programmed.
 236:Drivers/STM32G4xx_HAL_Driver/Src/stm32g4xx_hal_flash.c ****   * @param  Data specifies the data to be programmed.
 237:Drivers/STM32G4xx_HAL_Driver/Src/stm32g4xx_hal_flash.c ****   *         This parameter is the data for the double word program and the address where
 238:Drivers/STM32G4xx_HAL_Driver/Src/stm32g4xx_hal_flash.c ****   *         are stored the data for the row fast program.
 239:Drivers/STM32G4xx_HAL_Driver/Src/stm32g4xx_hal_flash.c ****   *
 240:Drivers/STM32G4xx_HAL_Driver/Src/stm32g4xx_hal_flash.c ****   * @retval HAL_Status
 241:Drivers/STM32G4xx_HAL_Driver/Src/stm32g4xx_hal_flash.c ****   */
 242:Drivers/STM32G4xx_HAL_Driver/Src/stm32g4xx_hal_flash.c **** HAL_StatusTypeDef HAL_FLASH_Program_IT(uint32_t TypeProgram, uint32_t Address, uint64_t Data)
 243:Drivers/STM32G4xx_HAL_Driver/Src/stm32g4xx_hal_flash.c **** {
 244:Drivers/STM32G4xx_HAL_Driver/Src/stm32g4xx_hal_flash.c ****   HAL_StatusTypeDef status;
 245:Drivers/STM32G4xx_HAL_Driver/Src/stm32g4xx_hal_flash.c **** 
 246:Drivers/STM32G4xx_HAL_Driver/Src/stm32g4xx_hal_flash.c ****   /* Check the parameters */
 247:Drivers/STM32G4xx_HAL_Driver/Src/stm32g4xx_hal_flash.c ****   assert_param(IS_FLASH_TYPEPROGRAM(TypeProgram));
 248:Drivers/STM32G4xx_HAL_Driver/Src/stm32g4xx_hal_flash.c **** 
 249:Drivers/STM32G4xx_HAL_Driver/Src/stm32g4xx_hal_flash.c ****   /* Process Locked */
 250:Drivers/STM32G4xx_HAL_Driver/Src/stm32g4xx_hal_flash.c ****   __HAL_LOCK(&pFlash);
 251:Drivers/STM32G4xx_HAL_Driver/Src/stm32g4xx_hal_flash.c **** 
 252:Drivers/STM32G4xx_HAL_Driver/Src/stm32g4xx_hal_flash.c ****   /* Reset error code */
 253:Drivers/STM32G4xx_HAL_Driver/Src/stm32g4xx_hal_flash.c ****   pFlash.ErrorCode = HAL_FLASH_ERROR_NONE;
 254:Drivers/STM32G4xx_HAL_Driver/Src/stm32g4xx_hal_flash.c **** 
 255:Drivers/STM32G4xx_HAL_Driver/Src/stm32g4xx_hal_flash.c ****   /* Wait for last operation to be completed */
 256:Drivers/STM32G4xx_HAL_Driver/Src/stm32g4xx_hal_flash.c ****   status = FLASH_WaitForLastOperation(FLASH_TIMEOUT_VALUE);
ARM GAS  /tmp/ccaSLnfD.s 			page 6


 257:Drivers/STM32G4xx_HAL_Driver/Src/stm32g4xx_hal_flash.c **** 
 258:Drivers/STM32G4xx_HAL_Driver/Src/stm32g4xx_hal_flash.c ****   if (status != HAL_OK)
 259:Drivers/STM32G4xx_HAL_Driver/Src/stm32g4xx_hal_flash.c ****   {
 260:Drivers/STM32G4xx_HAL_Driver/Src/stm32g4xx_hal_flash.c ****     /* Process Unlocked */
 261:Drivers/STM32G4xx_HAL_Driver/Src/stm32g4xx_hal_flash.c ****     __HAL_UNLOCK(&pFlash);
 262:Drivers/STM32G4xx_HAL_Driver/Src/stm32g4xx_hal_flash.c ****   }
 263:Drivers/STM32G4xx_HAL_Driver/Src/stm32g4xx_hal_flash.c ****   else
 264:Drivers/STM32G4xx_HAL_Driver/Src/stm32g4xx_hal_flash.c ****   {
 265:Drivers/STM32G4xx_HAL_Driver/Src/stm32g4xx_hal_flash.c ****     /* Set internal variables used by the IRQ handler */
 266:Drivers/STM32G4xx_HAL_Driver/Src/stm32g4xx_hal_flash.c ****     if (TypeProgram == FLASH_TYPEPROGRAM_FAST_AND_LAST)
 267:Drivers/STM32G4xx_HAL_Driver/Src/stm32g4xx_hal_flash.c ****     {
 268:Drivers/STM32G4xx_HAL_Driver/Src/stm32g4xx_hal_flash.c ****       pFlash.ProcedureOnGoing = FLASH_PROC_PROGRAM_LAST;
 269:Drivers/STM32G4xx_HAL_Driver/Src/stm32g4xx_hal_flash.c ****     }
 270:Drivers/STM32G4xx_HAL_Driver/Src/stm32g4xx_hal_flash.c ****     else
 271:Drivers/STM32G4xx_HAL_Driver/Src/stm32g4xx_hal_flash.c ****     {
 272:Drivers/STM32G4xx_HAL_Driver/Src/stm32g4xx_hal_flash.c ****       pFlash.ProcedureOnGoing = FLASH_PROC_PROGRAM;
 273:Drivers/STM32G4xx_HAL_Driver/Src/stm32g4xx_hal_flash.c ****     }
 274:Drivers/STM32G4xx_HAL_Driver/Src/stm32g4xx_hal_flash.c ****     pFlash.Address = Address;
 275:Drivers/STM32G4xx_HAL_Driver/Src/stm32g4xx_hal_flash.c **** 
 276:Drivers/STM32G4xx_HAL_Driver/Src/stm32g4xx_hal_flash.c ****     /* Enable End of Operation and Error interrupts */
 277:Drivers/STM32G4xx_HAL_Driver/Src/stm32g4xx_hal_flash.c ****     __HAL_FLASH_ENABLE_IT(FLASH_IT_EOP | FLASH_IT_OPERR);
 278:Drivers/STM32G4xx_HAL_Driver/Src/stm32g4xx_hal_flash.c **** 
 279:Drivers/STM32G4xx_HAL_Driver/Src/stm32g4xx_hal_flash.c ****     if (TypeProgram == FLASH_TYPEPROGRAM_DOUBLEWORD)
 280:Drivers/STM32G4xx_HAL_Driver/Src/stm32g4xx_hal_flash.c ****     {
 281:Drivers/STM32G4xx_HAL_Driver/Src/stm32g4xx_hal_flash.c ****       /* Program double-word (64-bit) at a specified address */
 282:Drivers/STM32G4xx_HAL_Driver/Src/stm32g4xx_hal_flash.c ****       FLASH_Program_DoubleWord(Address, Data);
 283:Drivers/STM32G4xx_HAL_Driver/Src/stm32g4xx_hal_flash.c ****     }
 284:Drivers/STM32G4xx_HAL_Driver/Src/stm32g4xx_hal_flash.c ****     else if ((TypeProgram == FLASH_TYPEPROGRAM_FAST) || (TypeProgram == FLASH_TYPEPROGRAM_FAST_AND_
 285:Drivers/STM32G4xx_HAL_Driver/Src/stm32g4xx_hal_flash.c ****     {
 286:Drivers/STM32G4xx_HAL_Driver/Src/stm32g4xx_hal_flash.c ****       /* Fast program a 32 row double-word (64-bit) at a specified address */
 287:Drivers/STM32G4xx_HAL_Driver/Src/stm32g4xx_hal_flash.c ****       FLASH_Program_Fast(Address, (uint32_t)Data);
 288:Drivers/STM32G4xx_HAL_Driver/Src/stm32g4xx_hal_flash.c ****     }
 289:Drivers/STM32G4xx_HAL_Driver/Src/stm32g4xx_hal_flash.c ****     else
 290:Drivers/STM32G4xx_HAL_Driver/Src/stm32g4xx_hal_flash.c ****     {
 291:Drivers/STM32G4xx_HAL_Driver/Src/stm32g4xx_hal_flash.c ****       /* Nothing to do */
 292:Drivers/STM32G4xx_HAL_Driver/Src/stm32g4xx_hal_flash.c ****     }
 293:Drivers/STM32G4xx_HAL_Driver/Src/stm32g4xx_hal_flash.c ****   }
 294:Drivers/STM32G4xx_HAL_Driver/Src/stm32g4xx_hal_flash.c **** 
 295:Drivers/STM32G4xx_HAL_Driver/Src/stm32g4xx_hal_flash.c ****   return status;
 296:Drivers/STM32G4xx_HAL_Driver/Src/stm32g4xx_hal_flash.c **** }
 297:Drivers/STM32G4xx_HAL_Driver/Src/stm32g4xx_hal_flash.c **** 
 298:Drivers/STM32G4xx_HAL_Driver/Src/stm32g4xx_hal_flash.c **** /**
 299:Drivers/STM32G4xx_HAL_Driver/Src/stm32g4xx_hal_flash.c ****   * @brief  Handle FLASH interrupt request.
 300:Drivers/STM32G4xx_HAL_Driver/Src/stm32g4xx_hal_flash.c ****   * @retval None
 301:Drivers/STM32G4xx_HAL_Driver/Src/stm32g4xx_hal_flash.c ****   */
 302:Drivers/STM32G4xx_HAL_Driver/Src/stm32g4xx_hal_flash.c **** void HAL_FLASH_IRQHandler(void)
 303:Drivers/STM32G4xx_HAL_Driver/Src/stm32g4xx_hal_flash.c **** {
 304:Drivers/STM32G4xx_HAL_Driver/Src/stm32g4xx_hal_flash.c ****   uint32_t tmp_page;
 305:Drivers/STM32G4xx_HAL_Driver/Src/stm32g4xx_hal_flash.c ****   uint32_t error;
 306:Drivers/STM32G4xx_HAL_Driver/Src/stm32g4xx_hal_flash.c ****   FLASH_ProcedureTypeDef procedure;
 307:Drivers/STM32G4xx_HAL_Driver/Src/stm32g4xx_hal_flash.c **** 
 308:Drivers/STM32G4xx_HAL_Driver/Src/stm32g4xx_hal_flash.c ****   /* If the operation is completed, disable the PG, PNB, MER1, MER2 and PER Bit */
 309:Drivers/STM32G4xx_HAL_Driver/Src/stm32g4xx_hal_flash.c ****   CLEAR_BIT(FLASH->CR, (FLASH_CR_PG | FLASH_CR_MER1 | FLASH_CR_PER | FLASH_CR_PNB));
 310:Drivers/STM32G4xx_HAL_Driver/Src/stm32g4xx_hal_flash.c **** #if defined (FLASH_OPTR_DBANK)
 311:Drivers/STM32G4xx_HAL_Driver/Src/stm32g4xx_hal_flash.c ****   CLEAR_BIT(FLASH->CR, FLASH_CR_MER2);
 312:Drivers/STM32G4xx_HAL_Driver/Src/stm32g4xx_hal_flash.c **** #endif
 313:Drivers/STM32G4xx_HAL_Driver/Src/stm32g4xx_hal_flash.c **** 
ARM GAS  /tmp/ccaSLnfD.s 			page 7


 314:Drivers/STM32G4xx_HAL_Driver/Src/stm32g4xx_hal_flash.c ****   /* Disable the FSTPG Bit only if it is the last row programmed */
 315:Drivers/STM32G4xx_HAL_Driver/Src/stm32g4xx_hal_flash.c ****   if (pFlash.ProcedureOnGoing == FLASH_PROC_PROGRAM_LAST)
 316:Drivers/STM32G4xx_HAL_Driver/Src/stm32g4xx_hal_flash.c ****   {
 317:Drivers/STM32G4xx_HAL_Driver/Src/stm32g4xx_hal_flash.c ****     CLEAR_BIT(FLASH->CR, FLASH_CR_FSTPG);
 318:Drivers/STM32G4xx_HAL_Driver/Src/stm32g4xx_hal_flash.c ****   }
 319:Drivers/STM32G4xx_HAL_Driver/Src/stm32g4xx_hal_flash.c **** 
 320:Drivers/STM32G4xx_HAL_Driver/Src/stm32g4xx_hal_flash.c ****   /* Check FLASH operation error flags */
 321:Drivers/STM32G4xx_HAL_Driver/Src/stm32g4xx_hal_flash.c ****   error = (FLASH->SR & FLASH_FLAG_SR_ERRORS);
 322:Drivers/STM32G4xx_HAL_Driver/Src/stm32g4xx_hal_flash.c **** 
 323:Drivers/STM32G4xx_HAL_Driver/Src/stm32g4xx_hal_flash.c ****   if (error != 0U)
 324:Drivers/STM32G4xx_HAL_Driver/Src/stm32g4xx_hal_flash.c ****   {
 325:Drivers/STM32G4xx_HAL_Driver/Src/stm32g4xx_hal_flash.c ****     /* Save the error code */
 326:Drivers/STM32G4xx_HAL_Driver/Src/stm32g4xx_hal_flash.c ****     pFlash.ErrorCode |= error;
 327:Drivers/STM32G4xx_HAL_Driver/Src/stm32g4xx_hal_flash.c **** 
 328:Drivers/STM32G4xx_HAL_Driver/Src/stm32g4xx_hal_flash.c ****     /* Clear error programming flags */
 329:Drivers/STM32G4xx_HAL_Driver/Src/stm32g4xx_hal_flash.c ****     __HAL_FLASH_CLEAR_FLAG(error);
 330:Drivers/STM32G4xx_HAL_Driver/Src/stm32g4xx_hal_flash.c **** 
 331:Drivers/STM32G4xx_HAL_Driver/Src/stm32g4xx_hal_flash.c ****     /* Flush the caches to be sure of the data consistency */
 332:Drivers/STM32G4xx_HAL_Driver/Src/stm32g4xx_hal_flash.c ****     FLASH_FlushCaches() ;
 333:Drivers/STM32G4xx_HAL_Driver/Src/stm32g4xx_hal_flash.c **** 
 334:Drivers/STM32G4xx_HAL_Driver/Src/stm32g4xx_hal_flash.c ****     /* FLASH error interrupt user callback */
 335:Drivers/STM32G4xx_HAL_Driver/Src/stm32g4xx_hal_flash.c ****     procedure = pFlash.ProcedureOnGoing;
 336:Drivers/STM32G4xx_HAL_Driver/Src/stm32g4xx_hal_flash.c ****     if (procedure == FLASH_PROC_PAGE_ERASE)
 337:Drivers/STM32G4xx_HAL_Driver/Src/stm32g4xx_hal_flash.c ****     {
 338:Drivers/STM32G4xx_HAL_Driver/Src/stm32g4xx_hal_flash.c ****       HAL_FLASH_OperationErrorCallback(pFlash.Page);
 339:Drivers/STM32G4xx_HAL_Driver/Src/stm32g4xx_hal_flash.c ****     }
 340:Drivers/STM32G4xx_HAL_Driver/Src/stm32g4xx_hal_flash.c ****     else if (procedure == FLASH_PROC_MASS_ERASE)
 341:Drivers/STM32G4xx_HAL_Driver/Src/stm32g4xx_hal_flash.c ****     {
 342:Drivers/STM32G4xx_HAL_Driver/Src/stm32g4xx_hal_flash.c ****       HAL_FLASH_OperationErrorCallback(pFlash.Bank);
 343:Drivers/STM32G4xx_HAL_Driver/Src/stm32g4xx_hal_flash.c ****     }
 344:Drivers/STM32G4xx_HAL_Driver/Src/stm32g4xx_hal_flash.c ****     else if ((procedure == FLASH_PROC_PROGRAM) ||
 345:Drivers/STM32G4xx_HAL_Driver/Src/stm32g4xx_hal_flash.c ****              (procedure == FLASH_PROC_PROGRAM_LAST))
 346:Drivers/STM32G4xx_HAL_Driver/Src/stm32g4xx_hal_flash.c ****     {
 347:Drivers/STM32G4xx_HAL_Driver/Src/stm32g4xx_hal_flash.c ****       HAL_FLASH_OperationErrorCallback(pFlash.Address);
 348:Drivers/STM32G4xx_HAL_Driver/Src/stm32g4xx_hal_flash.c ****     }
 349:Drivers/STM32G4xx_HAL_Driver/Src/stm32g4xx_hal_flash.c ****     else
 350:Drivers/STM32G4xx_HAL_Driver/Src/stm32g4xx_hal_flash.c ****     {
 351:Drivers/STM32G4xx_HAL_Driver/Src/stm32g4xx_hal_flash.c ****       /* Nothing to do */
 352:Drivers/STM32G4xx_HAL_Driver/Src/stm32g4xx_hal_flash.c ****     }
 353:Drivers/STM32G4xx_HAL_Driver/Src/stm32g4xx_hal_flash.c **** 
 354:Drivers/STM32G4xx_HAL_Driver/Src/stm32g4xx_hal_flash.c ****     /*Stop the procedure ongoing*/
 355:Drivers/STM32G4xx_HAL_Driver/Src/stm32g4xx_hal_flash.c ****     pFlash.ProcedureOnGoing = FLASH_PROC_NONE;
 356:Drivers/STM32G4xx_HAL_Driver/Src/stm32g4xx_hal_flash.c ****   }
 357:Drivers/STM32G4xx_HAL_Driver/Src/stm32g4xx_hal_flash.c **** 
 358:Drivers/STM32G4xx_HAL_Driver/Src/stm32g4xx_hal_flash.c ****   /* Check FLASH End of Operation flag  */
 359:Drivers/STM32G4xx_HAL_Driver/Src/stm32g4xx_hal_flash.c ****   if (__HAL_FLASH_GET_FLAG(FLASH_FLAG_EOP))
 360:Drivers/STM32G4xx_HAL_Driver/Src/stm32g4xx_hal_flash.c ****   {
 361:Drivers/STM32G4xx_HAL_Driver/Src/stm32g4xx_hal_flash.c ****     /* Clear FLASH End of Operation pending bit */
 362:Drivers/STM32G4xx_HAL_Driver/Src/stm32g4xx_hal_flash.c ****     __HAL_FLASH_CLEAR_FLAG(FLASH_FLAG_EOP);
 363:Drivers/STM32G4xx_HAL_Driver/Src/stm32g4xx_hal_flash.c **** 
 364:Drivers/STM32G4xx_HAL_Driver/Src/stm32g4xx_hal_flash.c ****     if (pFlash.ProcedureOnGoing == FLASH_PROC_PAGE_ERASE)
 365:Drivers/STM32G4xx_HAL_Driver/Src/stm32g4xx_hal_flash.c ****     {
 366:Drivers/STM32G4xx_HAL_Driver/Src/stm32g4xx_hal_flash.c ****       /* Nb of pages to erased can be decreased */
 367:Drivers/STM32G4xx_HAL_Driver/Src/stm32g4xx_hal_flash.c ****       pFlash.NbPagesToErase--;
 368:Drivers/STM32G4xx_HAL_Driver/Src/stm32g4xx_hal_flash.c **** 
 369:Drivers/STM32G4xx_HAL_Driver/Src/stm32g4xx_hal_flash.c ****       /* Check if there are still pages to erase*/
 370:Drivers/STM32G4xx_HAL_Driver/Src/stm32g4xx_hal_flash.c ****       if (pFlash.NbPagesToErase != 0U)
ARM GAS  /tmp/ccaSLnfD.s 			page 8


 371:Drivers/STM32G4xx_HAL_Driver/Src/stm32g4xx_hal_flash.c ****       {
 372:Drivers/STM32G4xx_HAL_Driver/Src/stm32g4xx_hal_flash.c ****         /* Indicate user which page has been erased*/
 373:Drivers/STM32G4xx_HAL_Driver/Src/stm32g4xx_hal_flash.c ****         HAL_FLASH_EndOfOperationCallback(pFlash.Page);
 374:Drivers/STM32G4xx_HAL_Driver/Src/stm32g4xx_hal_flash.c **** 
 375:Drivers/STM32G4xx_HAL_Driver/Src/stm32g4xx_hal_flash.c ****         /* Increment page number */
 376:Drivers/STM32G4xx_HAL_Driver/Src/stm32g4xx_hal_flash.c ****         pFlash.Page++;
 377:Drivers/STM32G4xx_HAL_Driver/Src/stm32g4xx_hal_flash.c ****         tmp_page = pFlash.Page;
 378:Drivers/STM32G4xx_HAL_Driver/Src/stm32g4xx_hal_flash.c ****         FLASH_PageErase(tmp_page, pFlash.Bank);
 379:Drivers/STM32G4xx_HAL_Driver/Src/stm32g4xx_hal_flash.c ****       }
 380:Drivers/STM32G4xx_HAL_Driver/Src/stm32g4xx_hal_flash.c ****       else
 381:Drivers/STM32G4xx_HAL_Driver/Src/stm32g4xx_hal_flash.c ****       {
 382:Drivers/STM32G4xx_HAL_Driver/Src/stm32g4xx_hal_flash.c ****         /* No more pages to Erase */
 383:Drivers/STM32G4xx_HAL_Driver/Src/stm32g4xx_hal_flash.c ****         /* Reset Address and stop Erase pages procedure */
 384:Drivers/STM32G4xx_HAL_Driver/Src/stm32g4xx_hal_flash.c ****         pFlash.Page = 0xFFFFFFFFU;
 385:Drivers/STM32G4xx_HAL_Driver/Src/stm32g4xx_hal_flash.c ****         pFlash.ProcedureOnGoing = FLASH_PROC_NONE;
 386:Drivers/STM32G4xx_HAL_Driver/Src/stm32g4xx_hal_flash.c **** 
 387:Drivers/STM32G4xx_HAL_Driver/Src/stm32g4xx_hal_flash.c ****         /* Flush the caches to be sure of the data consistency */
 388:Drivers/STM32G4xx_HAL_Driver/Src/stm32g4xx_hal_flash.c ****         FLASH_FlushCaches() ;
 389:Drivers/STM32G4xx_HAL_Driver/Src/stm32g4xx_hal_flash.c **** 
 390:Drivers/STM32G4xx_HAL_Driver/Src/stm32g4xx_hal_flash.c ****         /* FLASH EOP interrupt user callback */
 391:Drivers/STM32G4xx_HAL_Driver/Src/stm32g4xx_hal_flash.c ****         HAL_FLASH_EndOfOperationCallback(pFlash.Page);
 392:Drivers/STM32G4xx_HAL_Driver/Src/stm32g4xx_hal_flash.c ****       }
 393:Drivers/STM32G4xx_HAL_Driver/Src/stm32g4xx_hal_flash.c ****     }
 394:Drivers/STM32G4xx_HAL_Driver/Src/stm32g4xx_hal_flash.c ****     else
 395:Drivers/STM32G4xx_HAL_Driver/Src/stm32g4xx_hal_flash.c ****     {
 396:Drivers/STM32G4xx_HAL_Driver/Src/stm32g4xx_hal_flash.c ****       /* Flush the caches to be sure of the data consistency */
 397:Drivers/STM32G4xx_HAL_Driver/Src/stm32g4xx_hal_flash.c ****       FLASH_FlushCaches() ;
 398:Drivers/STM32G4xx_HAL_Driver/Src/stm32g4xx_hal_flash.c **** 
 399:Drivers/STM32G4xx_HAL_Driver/Src/stm32g4xx_hal_flash.c ****       procedure = pFlash.ProcedureOnGoing;
 400:Drivers/STM32G4xx_HAL_Driver/Src/stm32g4xx_hal_flash.c ****       if (procedure == FLASH_PROC_MASS_ERASE)
 401:Drivers/STM32G4xx_HAL_Driver/Src/stm32g4xx_hal_flash.c ****       {
 402:Drivers/STM32G4xx_HAL_Driver/Src/stm32g4xx_hal_flash.c ****         /* MassErase ended. Return the selected bank */
 403:Drivers/STM32G4xx_HAL_Driver/Src/stm32g4xx_hal_flash.c ****         /* FLASH EOP interrupt user callback */
 404:Drivers/STM32G4xx_HAL_Driver/Src/stm32g4xx_hal_flash.c ****         HAL_FLASH_EndOfOperationCallback(pFlash.Bank);
 405:Drivers/STM32G4xx_HAL_Driver/Src/stm32g4xx_hal_flash.c ****       }
 406:Drivers/STM32G4xx_HAL_Driver/Src/stm32g4xx_hal_flash.c ****       else if ((procedure == FLASH_PROC_PROGRAM) ||
 407:Drivers/STM32G4xx_HAL_Driver/Src/stm32g4xx_hal_flash.c ****                (procedure == FLASH_PROC_PROGRAM_LAST))
 408:Drivers/STM32G4xx_HAL_Driver/Src/stm32g4xx_hal_flash.c ****       {
 409:Drivers/STM32G4xx_HAL_Driver/Src/stm32g4xx_hal_flash.c ****         /* Program ended. Return the selected address */
 410:Drivers/STM32G4xx_HAL_Driver/Src/stm32g4xx_hal_flash.c ****         /* FLASH EOP interrupt user callback */
 411:Drivers/STM32G4xx_HAL_Driver/Src/stm32g4xx_hal_flash.c ****         HAL_FLASH_EndOfOperationCallback(pFlash.Address);
 412:Drivers/STM32G4xx_HAL_Driver/Src/stm32g4xx_hal_flash.c ****       }
 413:Drivers/STM32G4xx_HAL_Driver/Src/stm32g4xx_hal_flash.c ****       else
 414:Drivers/STM32G4xx_HAL_Driver/Src/stm32g4xx_hal_flash.c ****       {
 415:Drivers/STM32G4xx_HAL_Driver/Src/stm32g4xx_hal_flash.c ****         /* Nothing to do */
 416:Drivers/STM32G4xx_HAL_Driver/Src/stm32g4xx_hal_flash.c ****       }
 417:Drivers/STM32G4xx_HAL_Driver/Src/stm32g4xx_hal_flash.c **** 
 418:Drivers/STM32G4xx_HAL_Driver/Src/stm32g4xx_hal_flash.c ****       /*Clear the procedure ongoing*/
 419:Drivers/STM32G4xx_HAL_Driver/Src/stm32g4xx_hal_flash.c ****       pFlash.ProcedureOnGoing = FLASH_PROC_NONE;
 420:Drivers/STM32G4xx_HAL_Driver/Src/stm32g4xx_hal_flash.c ****     }
 421:Drivers/STM32G4xx_HAL_Driver/Src/stm32g4xx_hal_flash.c ****   }
 422:Drivers/STM32G4xx_HAL_Driver/Src/stm32g4xx_hal_flash.c **** 
 423:Drivers/STM32G4xx_HAL_Driver/Src/stm32g4xx_hal_flash.c ****   if (pFlash.ProcedureOnGoing == FLASH_PROC_NONE)
 424:Drivers/STM32G4xx_HAL_Driver/Src/stm32g4xx_hal_flash.c ****   {
 425:Drivers/STM32G4xx_HAL_Driver/Src/stm32g4xx_hal_flash.c ****     /* Disable End of Operation and Error interrupts */
 426:Drivers/STM32G4xx_HAL_Driver/Src/stm32g4xx_hal_flash.c ****     __HAL_FLASH_DISABLE_IT(FLASH_IT_EOP | FLASH_IT_OPERR);
 427:Drivers/STM32G4xx_HAL_Driver/Src/stm32g4xx_hal_flash.c **** 
ARM GAS  /tmp/ccaSLnfD.s 			page 9


 428:Drivers/STM32G4xx_HAL_Driver/Src/stm32g4xx_hal_flash.c ****     /* Process Unlocked */
 429:Drivers/STM32G4xx_HAL_Driver/Src/stm32g4xx_hal_flash.c ****     __HAL_UNLOCK(&pFlash);
 430:Drivers/STM32G4xx_HAL_Driver/Src/stm32g4xx_hal_flash.c ****   }
 431:Drivers/STM32G4xx_HAL_Driver/Src/stm32g4xx_hal_flash.c **** }
 432:Drivers/STM32G4xx_HAL_Driver/Src/stm32g4xx_hal_flash.c **** 
 433:Drivers/STM32G4xx_HAL_Driver/Src/stm32g4xx_hal_flash.c **** /**
 434:Drivers/STM32G4xx_HAL_Driver/Src/stm32g4xx_hal_flash.c ****   * @brief  FLASH end of operation interrupt callback.
 435:Drivers/STM32G4xx_HAL_Driver/Src/stm32g4xx_hal_flash.c ****   * @param  ReturnValue The value saved in this parameter depends on the ongoing procedure:
 436:Drivers/STM32G4xx_HAL_Driver/Src/stm32g4xx_hal_flash.c ****   *           @arg Mass Erase: Bank number which has been requested to erase
 437:Drivers/STM32G4xx_HAL_Driver/Src/stm32g4xx_hal_flash.c ****   *           @arg Page Erase: Page which has been erased
 438:Drivers/STM32G4xx_HAL_Driver/Src/stm32g4xx_hal_flash.c ****   *                            (if 0xFFFFFFFF, it means that all the selected pages have been erase
 439:Drivers/STM32G4xx_HAL_Driver/Src/stm32g4xx_hal_flash.c ****   *           @arg Program: Address which was selected for data program
 440:Drivers/STM32G4xx_HAL_Driver/Src/stm32g4xx_hal_flash.c ****   * @retval None
 441:Drivers/STM32G4xx_HAL_Driver/Src/stm32g4xx_hal_flash.c ****   */
 442:Drivers/STM32G4xx_HAL_Driver/Src/stm32g4xx_hal_flash.c **** __weak void HAL_FLASH_EndOfOperationCallback(uint32_t ReturnValue)
 443:Drivers/STM32G4xx_HAL_Driver/Src/stm32g4xx_hal_flash.c **** {
  31              		.loc 1 443 1 view -0
  32              		.cfi_startproc
  33              		@ args = 0, pretend = 0, frame = 0
  34              		@ frame_needed = 0, uses_anonymous_args = 0
  35              		@ link register save eliminated.
 444:Drivers/STM32G4xx_HAL_Driver/Src/stm32g4xx_hal_flash.c ****   /* Prevent unused argument(s) compilation warning */
 445:Drivers/STM32G4xx_HAL_Driver/Src/stm32g4xx_hal_flash.c ****   UNUSED(ReturnValue);
  36              		.loc 1 445 3 view .LVU1
 446:Drivers/STM32G4xx_HAL_Driver/Src/stm32g4xx_hal_flash.c **** 
 447:Drivers/STM32G4xx_HAL_Driver/Src/stm32g4xx_hal_flash.c ****   /* NOTE : This function should not be modified, when the callback is needed,
 448:Drivers/STM32G4xx_HAL_Driver/Src/stm32g4xx_hal_flash.c ****             the HAL_FLASH_EndOfOperationCallback could be implemented in the user file
 449:Drivers/STM32G4xx_HAL_Driver/Src/stm32g4xx_hal_flash.c ****    */
 450:Drivers/STM32G4xx_HAL_Driver/Src/stm32g4xx_hal_flash.c **** }
  37              		.loc 1 450 1 is_stmt 0 view .LVU2
  38 0000 7047     		bx	lr
  39              		.cfi_endproc
  40              	.LFE332:
  42 0002 00BF     		.section	.text.HAL_FLASH_OperationErrorCallback,"ax",%progbits
  43              		.align	1
  44              		.p2align 2,,3
  45              		.weak	HAL_FLASH_OperationErrorCallback
  46              		.syntax unified
  47              		.thumb
  48              		.thumb_func
  49              		.fpu fpv4-sp-d16
  51              	HAL_FLASH_OperationErrorCallback:
  52              	.LFB345:
  53              		.cfi_startproc
  54              		@ args = 0, pretend = 0, frame = 0
  55              		@ frame_needed = 0, uses_anonymous_args = 0
  56              		@ link register save eliminated.
  57 0000 7047     		bx	lr
  58              		.cfi_endproc
  59              	.LFE345:
  61 0002 00BF     		.section	.text.HAL_FLASH_IRQHandler,"ax",%progbits
  62              		.align	1
  63              		.p2align 2,,3
  64              		.global	HAL_FLASH_IRQHandler
  65              		.syntax unified
  66              		.thumb
  67              		.thumb_func
ARM GAS  /tmp/ccaSLnfD.s 			page 10


  68              		.fpu fpv4-sp-d16
  70              	HAL_FLASH_IRQHandler:
  71              	.LFB331:
 303:Drivers/STM32G4xx_HAL_Driver/Src/stm32g4xx_hal_flash.c ****   uint32_t tmp_page;
  72              		.loc 1 303 1 is_stmt 1 view -0
  73              		.cfi_startproc
  74              		@ args = 0, pretend = 0, frame = 0
  75              		@ frame_needed = 0, uses_anonymous_args = 0
 304:Drivers/STM32G4xx_HAL_Driver/Src/stm32g4xx_hal_flash.c ****   uint32_t error;
  76              		.loc 1 304 3 view .LVU4
 305:Drivers/STM32G4xx_HAL_Driver/Src/stm32g4xx_hal_flash.c ****   FLASH_ProcedureTypeDef procedure;
  77              		.loc 1 305 3 view .LVU5
 306:Drivers/STM32G4xx_HAL_Driver/Src/stm32g4xx_hal_flash.c **** 
  78              		.loc 1 306 3 view .LVU6
 309:Drivers/STM32G4xx_HAL_Driver/Src/stm32g4xx_hal_flash.c **** #if defined (FLASH_OPTR_DBANK)
  79              		.loc 1 309 3 view .LVU7
  80 0000 3C4A     		ldr	r2, .L29
  81 0002 5369     		ldr	r3, [r2, #20]
  82 0004 23F47F73 		bic	r3, r3, #1020
  83 0008 23F00303 		bic	r3, r3, #3
 303:Drivers/STM32G4xx_HAL_Driver/Src/stm32g4xx_hal_flash.c ****   uint32_t tmp_page;
  84              		.loc 1 303 1 is_stmt 0 view .LVU8
  85 000c 10B5     		push	{r4, lr}
  86              	.LCFI0:
  87              		.cfi_def_cfa_offset 8
  88              		.cfi_offset 4, -8
  89              		.cfi_offset 14, -4
 309:Drivers/STM32G4xx_HAL_Driver/Src/stm32g4xx_hal_flash.c **** #if defined (FLASH_OPTR_DBANK)
  90              		.loc 1 309 3 view .LVU9
  91 000e 5361     		str	r3, [r2, #20]
 311:Drivers/STM32G4xx_HAL_Driver/Src/stm32g4xx_hal_flash.c **** #endif
  92              		.loc 1 311 3 is_stmt 1 view .LVU10
  93 0010 5369     		ldr	r3, [r2, #20]
 315:Drivers/STM32G4xx_HAL_Driver/Src/stm32g4xx_hal_flash.c ****   {
  94              		.loc 1 315 13 is_stmt 0 view .LVU11
  95 0012 394C     		ldr	r4, .L29+4
 311:Drivers/STM32G4xx_HAL_Driver/Src/stm32g4xx_hal_flash.c **** #endif
  96              		.loc 1 311 3 view .LVU12
  97 0014 23F40043 		bic	r3, r3, #32768
  98 0018 5361     		str	r3, [r2, #20]
 315:Drivers/STM32G4xx_HAL_Driver/Src/stm32g4xx_hal_flash.c ****   {
  99              		.loc 1 315 3 is_stmt 1 view .LVU13
 315:Drivers/STM32G4xx_HAL_Driver/Src/stm32g4xx_hal_flash.c ****   {
 100              		.loc 1 315 13 is_stmt 0 view .LVU14
 101 001a 237A     		ldrb	r3, [r4, #8]	@ zero_extendqisi2
 315:Drivers/STM32G4xx_HAL_Driver/Src/stm32g4xx_hal_flash.c ****   {
 102              		.loc 1 315 6 view .LVU15
 103 001c 042B     		cmp	r3, #4
 104 001e 03D1     		bne	.L5
 317:Drivers/STM32G4xx_HAL_Driver/Src/stm32g4xx_hal_flash.c ****   }
 105              		.loc 1 317 5 is_stmt 1 view .LVU16
 106 0020 5369     		ldr	r3, [r2, #20]
 107 0022 23F48023 		bic	r3, r3, #262144
 108 0026 5361     		str	r3, [r2, #20]
 109              	.L5:
 321:Drivers/STM32G4xx_HAL_Driver/Src/stm32g4xx_hal_flash.c **** 
 110              		.loc 1 321 3 view .LVU17
ARM GAS  /tmp/ccaSLnfD.s 			page 11


 321:Drivers/STM32G4xx_HAL_Driver/Src/stm32g4xx_hal_flash.c **** 
 111              		.loc 1 321 17 is_stmt 0 view .LVU18
 112 0028 3249     		ldr	r1, .L29
 113 002a 0B69     		ldr	r3, [r1, #16]
 321:Drivers/STM32G4xx_HAL_Driver/Src/stm32g4xx_hal_flash.c **** 
 114              		.loc 1 321 9 view .LVU19
 115 002c 4CF2FA32 		movw	r2, #50170
 116              	.LVL1:
 323:Drivers/STM32G4xx_HAL_Driver/Src/stm32g4xx_hal_flash.c ****   {
 117              		.loc 1 323 3 is_stmt 1 view .LVU20
 323:Drivers/STM32G4xx_HAL_Driver/Src/stm32g4xx_hal_flash.c ****   {
 118              		.loc 1 323 6 is_stmt 0 view .LVU21
 119 0030 1340     		ands	r3, r3, r2
 120              	.LVL2:
 323:Drivers/STM32G4xx_HAL_Driver/Src/stm32g4xx_hal_flash.c ****   {
 121              		.loc 1 323 6 view .LVU22
 122 0032 2FD1     		bne	.L23
 123              	.LVL3:
 124              	.L6:
 359:Drivers/STM32G4xx_HAL_Driver/Src/stm32g4xx_hal_flash.c ****   {
 125              		.loc 1 359 3 is_stmt 1 view .LVU23
 359:Drivers/STM32G4xx_HAL_Driver/Src/stm32g4xx_hal_flash.c ****   {
 126              		.loc 1 359 7 is_stmt 0 view .LVU24
 127 0034 2F4B     		ldr	r3, .L29
 128 0036 1A69     		ldr	r2, [r3, #16]
 359:Drivers/STM32G4xx_HAL_Driver/Src/stm32g4xx_hal_flash.c ****   {
 129              		.loc 1 359 6 view .LVU25
 130 0038 D207     		lsls	r2, r2, #31
 131 003a 14D5     		bpl	.L10
 362:Drivers/STM32G4xx_HAL_Driver/Src/stm32g4xx_hal_flash.c **** 
 132              		.loc 1 362 5 is_stmt 1 discriminator 4 view .LVU26
 362:Drivers/STM32G4xx_HAL_Driver/Src/stm32g4xx_hal_flash.c **** 
 133              		.loc 1 362 5 discriminator 4 view .LVU27
 362:Drivers/STM32G4xx_HAL_Driver/Src/stm32g4xx_hal_flash.c **** 
 134              		.loc 1 362 5 discriminator 4 view .LVU28
 362:Drivers/STM32G4xx_HAL_Driver/Src/stm32g4xx_hal_flash.c **** 
 135              		.loc 1 362 5 discriminator 4 view .LVU29
 136 003c 0122     		movs	r2, #1
 137 003e 1A61     		str	r2, [r3, #16]
 362:Drivers/STM32G4xx_HAL_Driver/Src/stm32g4xx_hal_flash.c **** 
 138              		.loc 1 362 5 discriminator 4 view .LVU30
 364:Drivers/STM32G4xx_HAL_Driver/Src/stm32g4xx_hal_flash.c ****     {
 139              		.loc 1 364 5 discriminator 4 view .LVU31
 364:Drivers/STM32G4xx_HAL_Driver/Src/stm32g4xx_hal_flash.c ****     {
 140              		.loc 1 364 15 is_stmt 0 discriminator 4 view .LVU32
 141 0040 237A     		ldrb	r3, [r4, #8]	@ zero_extendqisi2
 364:Drivers/STM32G4xx_HAL_Driver/Src/stm32g4xx_hal_flash.c ****     {
 142              		.loc 1 364 8 discriminator 4 view .LVU33
 143 0042 9342     		cmp	r3, r2
 144 0044 1AD1     		bne	.L11
 367:Drivers/STM32G4xx_HAL_Driver/Src/stm32g4xx_hal_flash.c **** 
 145              		.loc 1 367 7 is_stmt 1 view .LVU34
 367:Drivers/STM32G4xx_HAL_Driver/Src/stm32g4xx_hal_flash.c **** 
 146              		.loc 1 367 13 is_stmt 0 view .LVU35
 147 0046 A369     		ldr	r3, [r4, #24]
 367:Drivers/STM32G4xx_HAL_Driver/Src/stm32g4xx_hal_flash.c **** 
 148              		.loc 1 367 28 view .LVU36
ARM GAS  /tmp/ccaSLnfD.s 			page 12


 149 0048 013B     		subs	r3, r3, #1
 150 004a A361     		str	r3, [r4, #24]
 370:Drivers/STM32G4xx_HAL_Driver/Src/stm32g4xx_hal_flash.c ****       {
 151              		.loc 1 370 7 is_stmt 1 view .LVU37
 370:Drivers/STM32G4xx_HAL_Driver/Src/stm32g4xx_hal_flash.c ****       {
 152              		.loc 1 370 17 is_stmt 0 view .LVU38
 153 004c A369     		ldr	r3, [r4, #24]
 370:Drivers/STM32G4xx_HAL_Driver/Src/stm32g4xx_hal_flash.c ****       {
 154              		.loc 1 370 10 view .LVU39
 155 004e 002B     		cmp	r3, #0
 156 0050 32D0     		beq	.L12
 373:Drivers/STM32G4xx_HAL_Driver/Src/stm32g4xx_hal_flash.c **** 
 157              		.loc 1 373 9 is_stmt 1 view .LVU40
 158 0052 6069     		ldr	r0, [r4, #20]
 159 0054 FFF7FEFF 		bl	HAL_FLASH_EndOfOperationCallback
 160              	.LVL4:
 376:Drivers/STM32G4xx_HAL_Driver/Src/stm32g4xx_hal_flash.c ****         tmp_page = pFlash.Page;
 161              		.loc 1 376 9 view .LVU41
 376:Drivers/STM32G4xx_HAL_Driver/Src/stm32g4xx_hal_flash.c ****         tmp_page = pFlash.Page;
 162              		.loc 1 376 15 is_stmt 0 view .LVU42
 163 0058 6369     		ldr	r3, [r4, #20]
 376:Drivers/STM32G4xx_HAL_Driver/Src/stm32g4xx_hal_flash.c ****         tmp_page = pFlash.Page;
 164              		.loc 1 376 20 view .LVU43
 165 005a 0133     		adds	r3, r3, #1
 166 005c 6361     		str	r3, [r4, #20]
 377:Drivers/STM32G4xx_HAL_Driver/Src/stm32g4xx_hal_flash.c ****         FLASH_PageErase(tmp_page, pFlash.Bank);
 167              		.loc 1 377 9 is_stmt 1 view .LVU44
 377:Drivers/STM32G4xx_HAL_Driver/Src/stm32g4xx_hal_flash.c ****         FLASH_PageErase(tmp_page, pFlash.Bank);
 168              		.loc 1 377 18 is_stmt 0 view .LVU45
 169 005e 6069     		ldr	r0, [r4, #20]
 170              	.LVL5:
 378:Drivers/STM32G4xx_HAL_Driver/Src/stm32g4xx_hal_flash.c ****       }
 171              		.loc 1 378 9 is_stmt 1 view .LVU46
 172 0060 2169     		ldr	r1, [r4, #16]
 173 0062 FFF7FEFF 		bl	FLASH_PageErase
 174              	.LVL6:
 175              	.L10:
 423:Drivers/STM32G4xx_HAL_Driver/Src/stm32g4xx_hal_flash.c ****   {
 176              		.loc 1 423 3 view .LVU47
 423:Drivers/STM32G4xx_HAL_Driver/Src/stm32g4xx_hal_flash.c ****   {
 177              		.loc 1 423 13 is_stmt 0 view .LVU48
 178 0066 237A     		ldrb	r3, [r4, #8]	@ zero_extendqisi2
 423:Drivers/STM32G4xx_HAL_Driver/Src/stm32g4xx_hal_flash.c ****   {
 179              		.loc 1 423 6 view .LVU49
 180 0068 03F0FF02 		and	r2, r3, #255
 181 006c 2BB9     		cbnz	r3, .L4
 426:Drivers/STM32G4xx_HAL_Driver/Src/stm32g4xx_hal_flash.c **** 
 182              		.loc 1 426 5 is_stmt 1 discriminator 4 view .LVU50
 426:Drivers/STM32G4xx_HAL_Driver/Src/stm32g4xx_hal_flash.c **** 
 183              		.loc 1 426 5 discriminator 4 view .LVU51
 426:Drivers/STM32G4xx_HAL_Driver/Src/stm32g4xx_hal_flash.c **** 
 184              		.loc 1 426 5 discriminator 4 view .LVU52
 426:Drivers/STM32G4xx_HAL_Driver/Src/stm32g4xx_hal_flash.c **** 
 185              		.loc 1 426 5 discriminator 4 view .LVU53
 186 006e 2149     		ldr	r1, .L29
 187 0070 4B69     		ldr	r3, [r1, #20]
 188 0072 23F04073 		bic	r3, r3, #50331648
ARM GAS  /tmp/ccaSLnfD.s 			page 13


 189 0076 4B61     		str	r3, [r1, #20]
 426:Drivers/STM32G4xx_HAL_Driver/Src/stm32g4xx_hal_flash.c **** 
 190              		.loc 1 426 5 discriminator 4 view .LVU54
 429:Drivers/STM32G4xx_HAL_Driver/Src/stm32g4xx_hal_flash.c ****   }
 191              		.loc 1 429 5 discriminator 4 view .LVU55
 429:Drivers/STM32G4xx_HAL_Driver/Src/stm32g4xx_hal_flash.c ****   }
 192              		.loc 1 429 5 discriminator 4 view .LVU56
 193 0078 2270     		strb	r2, [r4]
 429:Drivers/STM32G4xx_HAL_Driver/Src/stm32g4xx_hal_flash.c ****   }
 194              		.loc 1 429 5 discriminator 4 view .LVU57
 195              	.L4:
 431:Drivers/STM32G4xx_HAL_Driver/Src/stm32g4xx_hal_flash.c **** 
 196              		.loc 1 431 1 is_stmt 0 view .LVU58
 197 007a 10BD     		pop	{r4, pc}
 198              	.L11:
 397:Drivers/STM32G4xx_HAL_Driver/Src/stm32g4xx_hal_flash.c **** 
 199              		.loc 1 397 7 is_stmt 1 view .LVU59
 200 007c FFF7FEFF 		bl	FLASH_FlushCaches
 201              	.LVL7:
 399:Drivers/STM32G4xx_HAL_Driver/Src/stm32g4xx_hal_flash.c ****       if (procedure == FLASH_PROC_MASS_ERASE)
 202              		.loc 1 399 7 view .LVU60
 399:Drivers/STM32G4xx_HAL_Driver/Src/stm32g4xx_hal_flash.c ****       if (procedure == FLASH_PROC_MASS_ERASE)
 203              		.loc 1 399 17 is_stmt 0 view .LVU61
 204 0080 227A     		ldrb	r2, [r4, #8]	@ zero_extendqisi2
 400:Drivers/STM32G4xx_HAL_Driver/Src/stm32g4xx_hal_flash.c ****       {
 205              		.loc 1 400 10 view .LVU62
 206 0082 022A     		cmp	r2, #2
 399:Drivers/STM32G4xx_HAL_Driver/Src/stm32g4xx_hal_flash.c ****       if (procedure == FLASH_PROC_MASS_ERASE)
 207              		.loc 1 399 17 view .LVU63
 208 0084 D3B2     		uxtb	r3, r2
 209              	.LVL8:
 400:Drivers/STM32G4xx_HAL_Driver/Src/stm32g4xx_hal_flash.c ****       {
 210              		.loc 1 400 7 is_stmt 1 view .LVU64
 400:Drivers/STM32G4xx_HAL_Driver/Src/stm32g4xx_hal_flash.c ****       {
 211              		.loc 1 400 10 is_stmt 0 view .LVU65
 212 0086 2DD0     		beq	.L24
 406:Drivers/STM32G4xx_HAL_Driver/Src/stm32g4xx_hal_flash.c ****                (procedure == FLASH_PROC_PROGRAM_LAST))
 213              		.loc 1 406 12 is_stmt 1 view .LVU66
 406:Drivers/STM32G4xx_HAL_Driver/Src/stm32g4xx_hal_flash.c ****                (procedure == FLASH_PROC_PROGRAM_LAST))
 214              		.loc 1 406 15 is_stmt 0 view .LVU67
 215 0088 033B     		subs	r3, r3, #3
 216              	.LVL9:
 406:Drivers/STM32G4xx_HAL_Driver/Src/stm32g4xx_hal_flash.c ****                (procedure == FLASH_PROC_PROGRAM_LAST))
 217              		.loc 1 406 15 view .LVU68
 218 008a 012B     		cmp	r3, #1
 219 008c 2ED9     		bls	.L25
 220              	.LVL10:
 221              	.L14:
 416:Drivers/STM32G4xx_HAL_Driver/Src/stm32g4xx_hal_flash.c **** 
 222              		.loc 1 416 7 is_stmt 1 view .LVU69
 419:Drivers/STM32G4xx_HAL_Driver/Src/stm32g4xx_hal_flash.c ****     }
 223              		.loc 1 419 7 view .LVU70
 419:Drivers/STM32G4xx_HAL_Driver/Src/stm32g4xx_hal_flash.c ****     }
 224              		.loc 1 419 31 is_stmt 0 view .LVU71
 225 008e 0023     		movs	r3, #0
 226 0090 2372     		strb	r3, [r4, #8]
 227 0092 E8E7     		b	.L10
ARM GAS  /tmp/ccaSLnfD.s 			page 14


 228              	.LVL11:
 229              	.L23:
 326:Drivers/STM32G4xx_HAL_Driver/Src/stm32g4xx_hal_flash.c **** 
 230              		.loc 1 326 5 is_stmt 1 view .LVU72
 326:Drivers/STM32G4xx_HAL_Driver/Src/stm32g4xx_hal_flash.c **** 
 231              		.loc 1 326 22 is_stmt 0 view .LVU73
 232 0094 6268     		ldr	r2, [r4, #4]
 233 0096 1A43     		orrs	r2, r2, r3
 234 0098 6260     		str	r2, [r4, #4]
 329:Drivers/STM32G4xx_HAL_Driver/Src/stm32g4xx_hal_flash.c **** 
 235              		.loc 1 329 5 is_stmt 1 view .LVU74
 329:Drivers/STM32G4xx_HAL_Driver/Src/stm32g4xx_hal_flash.c **** 
 236              		.loc 1 329 5 view .LVU75
 329:Drivers/STM32G4xx_HAL_Driver/Src/stm32g4xx_hal_flash.c **** 
 237              		.loc 1 329 5 view .LVU76
 329:Drivers/STM32G4xx_HAL_Driver/Src/stm32g4xx_hal_flash.c **** 
 238              		.loc 1 329 5 view .LVU77
 239 009a 0B61     		str	r3, [r1, #16]
 329:Drivers/STM32G4xx_HAL_Driver/Src/stm32g4xx_hal_flash.c **** 
 240              		.loc 1 329 5 view .LVU78
 332:Drivers/STM32G4xx_HAL_Driver/Src/stm32g4xx_hal_flash.c **** 
 241              		.loc 1 332 5 view .LVU79
 242 009c FFF7FEFF 		bl	FLASH_FlushCaches
 243              	.LVL12:
 335:Drivers/STM32G4xx_HAL_Driver/Src/stm32g4xx_hal_flash.c ****     if (procedure == FLASH_PROC_PAGE_ERASE)
 244              		.loc 1 335 5 view .LVU80
 335:Drivers/STM32G4xx_HAL_Driver/Src/stm32g4xx_hal_flash.c ****     if (procedure == FLASH_PROC_PAGE_ERASE)
 245              		.loc 1 335 15 is_stmt 0 view .LVU81
 246 00a0 227A     		ldrb	r2, [r4, #8]	@ zero_extendqisi2
 336:Drivers/STM32G4xx_HAL_Driver/Src/stm32g4xx_hal_flash.c ****     {
 247              		.loc 1 336 8 view .LVU82
 248 00a2 012A     		cmp	r2, #1
 335:Drivers/STM32G4xx_HAL_Driver/Src/stm32g4xx_hal_flash.c ****     if (procedure == FLASH_PROC_PAGE_ERASE)
 249              		.loc 1 335 15 view .LVU83
 250 00a4 D3B2     		uxtb	r3, r2
 251              	.LVL13:
 336:Drivers/STM32G4xx_HAL_Driver/Src/stm32g4xx_hal_flash.c ****     {
 252              		.loc 1 336 5 is_stmt 1 view .LVU84
 336:Drivers/STM32G4xx_HAL_Driver/Src/stm32g4xx_hal_flash.c ****     {
 253              		.loc 1 336 8 is_stmt 0 view .LVU85
 254 00a6 15D0     		beq	.L26
 340:Drivers/STM32G4xx_HAL_Driver/Src/stm32g4xx_hal_flash.c ****     {
 255              		.loc 1 340 10 is_stmt 1 view .LVU86
 340:Drivers/STM32G4xx_HAL_Driver/Src/stm32g4xx_hal_flash.c ****     {
 256              		.loc 1 340 13 is_stmt 0 view .LVU87
 257 00a8 022B     		cmp	r3, #2
 258 00aa 17D0     		beq	.L27
 344:Drivers/STM32G4xx_HAL_Driver/Src/stm32g4xx_hal_flash.c ****              (procedure == FLASH_PROC_PROGRAM_LAST))
 259              		.loc 1 344 10 is_stmt 1 view .LVU88
 344:Drivers/STM32G4xx_HAL_Driver/Src/stm32g4xx_hal_flash.c ****              (procedure == FLASH_PROC_PROGRAM_LAST))
 260              		.loc 1 344 13 is_stmt 0 view .LVU89
 261 00ac 033B     		subs	r3, r3, #3
 262              	.LVL14:
 344:Drivers/STM32G4xx_HAL_Driver/Src/stm32g4xx_hal_flash.c ****              (procedure == FLASH_PROC_PROGRAM_LAST))
 263              		.loc 1 344 13 view .LVU90
 264 00ae 012B     		cmp	r3, #1
 265 00b0 0CD9     		bls	.L28
ARM GAS  /tmp/ccaSLnfD.s 			page 15


 266              	.LVL15:
 267              	.L8:
 352:Drivers/STM32G4xx_HAL_Driver/Src/stm32g4xx_hal_flash.c **** 
 268              		.loc 1 352 5 is_stmt 1 view .LVU91
 355:Drivers/STM32G4xx_HAL_Driver/Src/stm32g4xx_hal_flash.c ****   }
 269              		.loc 1 355 5 view .LVU92
 355:Drivers/STM32G4xx_HAL_Driver/Src/stm32g4xx_hal_flash.c ****   }
 270              		.loc 1 355 29 is_stmt 0 view .LVU93
 271 00b2 0023     		movs	r3, #0
 272 00b4 2372     		strb	r3, [r4, #8]
 273 00b6 BDE7     		b	.L6
 274              	.L12:
 384:Drivers/STM32G4xx_HAL_Driver/Src/stm32g4xx_hal_flash.c ****         pFlash.ProcedureOnGoing = FLASH_PROC_NONE;
 275              		.loc 1 384 9 is_stmt 1 view .LVU94
 384:Drivers/STM32G4xx_HAL_Driver/Src/stm32g4xx_hal_flash.c ****         pFlash.ProcedureOnGoing = FLASH_PROC_NONE;
 276              		.loc 1 384 21 is_stmt 0 view .LVU95
 277 00b8 4FF0FF32 		mov	r2, #-1
 278 00bc 6261     		str	r2, [r4, #20]
 385:Drivers/STM32G4xx_HAL_Driver/Src/stm32g4xx_hal_flash.c **** 
 279              		.loc 1 385 9 is_stmt 1 view .LVU96
 385:Drivers/STM32G4xx_HAL_Driver/Src/stm32g4xx_hal_flash.c **** 
 280              		.loc 1 385 33 is_stmt 0 view .LVU97
 281 00be 2372     		strb	r3, [r4, #8]
 388:Drivers/STM32G4xx_HAL_Driver/Src/stm32g4xx_hal_flash.c **** 
 282              		.loc 1 388 9 is_stmt 1 view .LVU98
 283 00c0 FFF7FEFF 		bl	FLASH_FlushCaches
 284              	.LVL16:
 391:Drivers/STM32G4xx_HAL_Driver/Src/stm32g4xx_hal_flash.c ****       }
 285              		.loc 1 391 9 view .LVU99
 286 00c4 6069     		ldr	r0, [r4, #20]
 287 00c6 FFF7FEFF 		bl	HAL_FLASH_EndOfOperationCallback
 288              	.LVL17:
 289 00ca CCE7     		b	.L10
 290              	.LVL18:
 291              	.L28:
 347:Drivers/STM32G4xx_HAL_Driver/Src/stm32g4xx_hal_flash.c ****     }
 292              		.loc 1 347 7 view .LVU100
 293 00cc E068     		ldr	r0, [r4, #12]
 294 00ce FFF7FEFF 		bl	HAL_FLASH_OperationErrorCallback
 295              	.LVL19:
 347:Drivers/STM32G4xx_HAL_Driver/Src/stm32g4xx_hal_flash.c ****     }
 296              		.loc 1 347 7 is_stmt 0 view .LVU101
 297 00d2 EEE7     		b	.L8
 298              	.LVL20:
 299              	.L26:
 338:Drivers/STM32G4xx_HAL_Driver/Src/stm32g4xx_hal_flash.c ****     }
 300              		.loc 1 338 7 is_stmt 1 view .LVU102
 301 00d4 6069     		ldr	r0, [r4, #20]
 302 00d6 FFF7FEFF 		bl	HAL_FLASH_OperationErrorCallback
 303              	.LVL21:
 338:Drivers/STM32G4xx_HAL_Driver/Src/stm32g4xx_hal_flash.c ****     }
 304              		.loc 1 338 7 is_stmt 0 view .LVU103
 305 00da EAE7     		b	.L8
 306              	.LVL22:
 307              	.L27:
 342:Drivers/STM32G4xx_HAL_Driver/Src/stm32g4xx_hal_flash.c ****     }
 308              		.loc 1 342 7 is_stmt 1 view .LVU104
ARM GAS  /tmp/ccaSLnfD.s 			page 16


 309 00dc 2069     		ldr	r0, [r4, #16]
 310 00de FFF7FEFF 		bl	HAL_FLASH_OperationErrorCallback
 311              	.LVL23:
 342:Drivers/STM32G4xx_HAL_Driver/Src/stm32g4xx_hal_flash.c ****     }
 312              		.loc 1 342 7 is_stmt 0 view .LVU105
 313 00e2 E6E7     		b	.L8
 314              	.LVL24:
 315              	.L24:
 404:Drivers/STM32G4xx_HAL_Driver/Src/stm32g4xx_hal_flash.c ****       }
 316              		.loc 1 404 9 is_stmt 1 view .LVU106
 317 00e4 2069     		ldr	r0, [r4, #16]
 318 00e6 FFF7FEFF 		bl	HAL_FLASH_EndOfOperationCallback
 319              	.LVL25:
 404:Drivers/STM32G4xx_HAL_Driver/Src/stm32g4xx_hal_flash.c ****       }
 320              		.loc 1 404 9 is_stmt 0 view .LVU107
 321 00ea D0E7     		b	.L14
 322              	.LVL26:
 323              	.L25:
 411:Drivers/STM32G4xx_HAL_Driver/Src/stm32g4xx_hal_flash.c ****       }
 324              		.loc 1 411 9 is_stmt 1 view .LVU108
 325 00ec E068     		ldr	r0, [r4, #12]
 326 00ee FFF7FEFF 		bl	HAL_FLASH_EndOfOperationCallback
 327              	.LVL27:
 411:Drivers/STM32G4xx_HAL_Driver/Src/stm32g4xx_hal_flash.c ****       }
 328              		.loc 1 411 9 is_stmt 0 view .LVU109
 329 00f2 CCE7     		b	.L14
 330              	.L30:
 331              		.align	2
 332              	.L29:
 333 00f4 00200240 		.word	1073881088
 334 00f8 00000000 		.word	.LANCHOR0
 335              		.cfi_endproc
 336              	.LFE331:
 338              		.section	.text.HAL_FLASH_Unlock,"ax",%progbits
 339              		.align	1
 340              		.p2align 2,,3
 341              		.global	HAL_FLASH_Unlock
 342              		.syntax unified
 343              		.thumb
 344              		.thumb_func
 345              		.fpu fpv4-sp-d16
 347              	HAL_FLASH_Unlock:
 348              	.LFB334:
 451:Drivers/STM32G4xx_HAL_Driver/Src/stm32g4xx_hal_flash.c **** 
 452:Drivers/STM32G4xx_HAL_Driver/Src/stm32g4xx_hal_flash.c **** /**
 453:Drivers/STM32G4xx_HAL_Driver/Src/stm32g4xx_hal_flash.c ****   * @brief  FLASH operation error interrupt callback.
 454:Drivers/STM32G4xx_HAL_Driver/Src/stm32g4xx_hal_flash.c ****   * @param  ReturnValue The value saved in this parameter depends on the ongoing procedure:
 455:Drivers/STM32G4xx_HAL_Driver/Src/stm32g4xx_hal_flash.c ****   *           @arg Mass Erase: Bank number which has been requested to erase
 456:Drivers/STM32G4xx_HAL_Driver/Src/stm32g4xx_hal_flash.c ****   *           @arg Page Erase: Page number which returned an error
 457:Drivers/STM32G4xx_HAL_Driver/Src/stm32g4xx_hal_flash.c ****   *           @arg Program: Address which was selected for data program
 458:Drivers/STM32G4xx_HAL_Driver/Src/stm32g4xx_hal_flash.c ****   * @retval None
 459:Drivers/STM32G4xx_HAL_Driver/Src/stm32g4xx_hal_flash.c ****   */
 460:Drivers/STM32G4xx_HAL_Driver/Src/stm32g4xx_hal_flash.c **** __weak void HAL_FLASH_OperationErrorCallback(uint32_t ReturnValue)
 461:Drivers/STM32G4xx_HAL_Driver/Src/stm32g4xx_hal_flash.c **** {
 462:Drivers/STM32G4xx_HAL_Driver/Src/stm32g4xx_hal_flash.c ****   /* Prevent unused argument(s) compilation warning */
 463:Drivers/STM32G4xx_HAL_Driver/Src/stm32g4xx_hal_flash.c ****   UNUSED(ReturnValue);
 464:Drivers/STM32G4xx_HAL_Driver/Src/stm32g4xx_hal_flash.c **** 
ARM GAS  /tmp/ccaSLnfD.s 			page 17


 465:Drivers/STM32G4xx_HAL_Driver/Src/stm32g4xx_hal_flash.c ****   /* NOTE : This function should not be modified, when the callback is needed,
 466:Drivers/STM32G4xx_HAL_Driver/Src/stm32g4xx_hal_flash.c ****             the HAL_FLASH_OperationErrorCallback could be implemented in the user file
 467:Drivers/STM32G4xx_HAL_Driver/Src/stm32g4xx_hal_flash.c ****    */
 468:Drivers/STM32G4xx_HAL_Driver/Src/stm32g4xx_hal_flash.c **** }
 469:Drivers/STM32G4xx_HAL_Driver/Src/stm32g4xx_hal_flash.c **** 
 470:Drivers/STM32G4xx_HAL_Driver/Src/stm32g4xx_hal_flash.c **** /**
 471:Drivers/STM32G4xx_HAL_Driver/Src/stm32g4xx_hal_flash.c ****   * @}
 472:Drivers/STM32G4xx_HAL_Driver/Src/stm32g4xx_hal_flash.c ****   */
 473:Drivers/STM32G4xx_HAL_Driver/Src/stm32g4xx_hal_flash.c **** 
 474:Drivers/STM32G4xx_HAL_Driver/Src/stm32g4xx_hal_flash.c **** /** @defgroup FLASH_Exported_Functions_Group2 Peripheral Control functions
 475:Drivers/STM32G4xx_HAL_Driver/Src/stm32g4xx_hal_flash.c ****   * @brief   Management functions
 476:Drivers/STM32G4xx_HAL_Driver/Src/stm32g4xx_hal_flash.c ****   *
 477:Drivers/STM32G4xx_HAL_Driver/Src/stm32g4xx_hal_flash.c **** @verbatim
 478:Drivers/STM32G4xx_HAL_Driver/Src/stm32g4xx_hal_flash.c ****  ===============================================================================
 479:Drivers/STM32G4xx_HAL_Driver/Src/stm32g4xx_hal_flash.c ****                       ##### Peripheral Control functions #####
 480:Drivers/STM32G4xx_HAL_Driver/Src/stm32g4xx_hal_flash.c ****  ===============================================================================
 481:Drivers/STM32G4xx_HAL_Driver/Src/stm32g4xx_hal_flash.c ****     [..]
 482:Drivers/STM32G4xx_HAL_Driver/Src/stm32g4xx_hal_flash.c ****     This subsection provides a set of functions allowing to control the FLASH
 483:Drivers/STM32G4xx_HAL_Driver/Src/stm32g4xx_hal_flash.c ****     memory operations.
 484:Drivers/STM32G4xx_HAL_Driver/Src/stm32g4xx_hal_flash.c **** 
 485:Drivers/STM32G4xx_HAL_Driver/Src/stm32g4xx_hal_flash.c **** @endverbatim
 486:Drivers/STM32G4xx_HAL_Driver/Src/stm32g4xx_hal_flash.c ****   * @{
 487:Drivers/STM32G4xx_HAL_Driver/Src/stm32g4xx_hal_flash.c ****   */
 488:Drivers/STM32G4xx_HAL_Driver/Src/stm32g4xx_hal_flash.c **** 
 489:Drivers/STM32G4xx_HAL_Driver/Src/stm32g4xx_hal_flash.c **** /**
 490:Drivers/STM32G4xx_HAL_Driver/Src/stm32g4xx_hal_flash.c ****   * @brief  Unlock the FLASH control register access.
 491:Drivers/STM32G4xx_HAL_Driver/Src/stm32g4xx_hal_flash.c ****   * @retval HAL_Status
 492:Drivers/STM32G4xx_HAL_Driver/Src/stm32g4xx_hal_flash.c ****   */
 493:Drivers/STM32G4xx_HAL_Driver/Src/stm32g4xx_hal_flash.c **** HAL_StatusTypeDef HAL_FLASH_Unlock(void)
 494:Drivers/STM32G4xx_HAL_Driver/Src/stm32g4xx_hal_flash.c **** {
 349              		.loc 1 494 1 is_stmt 1 view -0
 350              		.cfi_startproc
 351              		@ args = 0, pretend = 0, frame = 0
 352              		@ frame_needed = 0, uses_anonymous_args = 0
 353              		@ link register save eliminated.
 495:Drivers/STM32G4xx_HAL_Driver/Src/stm32g4xx_hal_flash.c ****   HAL_StatusTypeDef status = HAL_OK;
 354              		.loc 1 495 3 view .LVU111
 355              	.LVL28:
 496:Drivers/STM32G4xx_HAL_Driver/Src/stm32g4xx_hal_flash.c **** 
 497:Drivers/STM32G4xx_HAL_Driver/Src/stm32g4xx_hal_flash.c ****   if (READ_BIT(FLASH->CR, FLASH_CR_LOCK) != 0U)
 356              		.loc 1 497 3 view .LVU112
 357              		.loc 1 497 7 is_stmt 0 view .LVU113
 358 0000 064B     		ldr	r3, .L35
 359 0002 5A69     		ldr	r2, [r3, #20]
 360              		.loc 1 497 6 view .LVU114
 361 0004 002A     		cmp	r2, #0
 362 0006 01DB     		blt	.L34
 495:Drivers/STM32G4xx_HAL_Driver/Src/stm32g4xx_hal_flash.c ****   HAL_StatusTypeDef status = HAL_OK;
 363              		.loc 1 495 21 view .LVU115
 364 0008 0020     		movs	r0, #0
 365              	.LVL29:
 498:Drivers/STM32G4xx_HAL_Driver/Src/stm32g4xx_hal_flash.c ****   {
 499:Drivers/STM32G4xx_HAL_Driver/Src/stm32g4xx_hal_flash.c ****     /* Authorize the FLASH Registers access */
 500:Drivers/STM32G4xx_HAL_Driver/Src/stm32g4xx_hal_flash.c ****     WRITE_REG(FLASH->KEYR, FLASH_KEY1);
 501:Drivers/STM32G4xx_HAL_Driver/Src/stm32g4xx_hal_flash.c ****     WRITE_REG(FLASH->KEYR, FLASH_KEY2);
 502:Drivers/STM32G4xx_HAL_Driver/Src/stm32g4xx_hal_flash.c **** 
 503:Drivers/STM32G4xx_HAL_Driver/Src/stm32g4xx_hal_flash.c ****     /* verify Flash is unlocked */
ARM GAS  /tmp/ccaSLnfD.s 			page 18


 504:Drivers/STM32G4xx_HAL_Driver/Src/stm32g4xx_hal_flash.c ****     if (READ_BIT(FLASH->CR, FLASH_CR_LOCK) != 0U)
 505:Drivers/STM32G4xx_HAL_Driver/Src/stm32g4xx_hal_flash.c ****     {
 506:Drivers/STM32G4xx_HAL_Driver/Src/stm32g4xx_hal_flash.c ****       status = HAL_ERROR;
 507:Drivers/STM32G4xx_HAL_Driver/Src/stm32g4xx_hal_flash.c ****     }
 508:Drivers/STM32G4xx_HAL_Driver/Src/stm32g4xx_hal_flash.c ****   }
 509:Drivers/STM32G4xx_HAL_Driver/Src/stm32g4xx_hal_flash.c **** 
 510:Drivers/STM32G4xx_HAL_Driver/Src/stm32g4xx_hal_flash.c ****   return status;
 366              		.loc 1 510 3 is_stmt 1 view .LVU116
 511:Drivers/STM32G4xx_HAL_Driver/Src/stm32g4xx_hal_flash.c **** }
 367              		.loc 1 511 1 is_stmt 0 view .LVU117
 368 000a 7047     		bx	lr
 369              	.LVL30:
 370              	.L34:
 500:Drivers/STM32G4xx_HAL_Driver/Src/stm32g4xx_hal_flash.c ****     WRITE_REG(FLASH->KEYR, FLASH_KEY2);
 371              		.loc 1 500 5 is_stmt 1 view .LVU118
 372 000c 0449     		ldr	r1, .L35+4
 501:Drivers/STM32G4xx_HAL_Driver/Src/stm32g4xx_hal_flash.c **** 
 373              		.loc 1 501 5 is_stmt 0 view .LVU119
 374 000e 054A     		ldr	r2, .L35+8
 500:Drivers/STM32G4xx_HAL_Driver/Src/stm32g4xx_hal_flash.c ****     WRITE_REG(FLASH->KEYR, FLASH_KEY2);
 375              		.loc 1 500 5 view .LVU120
 376 0010 9960     		str	r1, [r3, #8]
 501:Drivers/STM32G4xx_HAL_Driver/Src/stm32g4xx_hal_flash.c **** 
 377              		.loc 1 501 5 is_stmt 1 view .LVU121
 378 0012 9A60     		str	r2, [r3, #8]
 504:Drivers/STM32G4xx_HAL_Driver/Src/stm32g4xx_hal_flash.c ****     {
 379              		.loc 1 504 5 view .LVU122
 504:Drivers/STM32G4xx_HAL_Driver/Src/stm32g4xx_hal_flash.c ****     {
 380              		.loc 1 504 9 is_stmt 0 view .LVU123
 381 0014 5869     		ldr	r0, [r3, #20]
 495:Drivers/STM32G4xx_HAL_Driver/Src/stm32g4xx_hal_flash.c **** 
 382              		.loc 1 495 21 view .LVU124
 383 0016 C00F     		lsrs	r0, r0, #31
 384 0018 7047     		bx	lr
 385              	.L36:
 386 001a 00BF     		.align	2
 387              	.L35:
 388 001c 00200240 		.word	1073881088
 389 0020 23016745 		.word	1164378403
 390 0024 AB89EFCD 		.word	-839939669
 391              		.cfi_endproc
 392              	.LFE334:
 394              		.section	.text.HAL_FLASH_Lock,"ax",%progbits
 395              		.align	1
 396              		.p2align 2,,3
 397              		.global	HAL_FLASH_Lock
 398              		.syntax unified
 399              		.thumb
 400              		.thumb_func
 401              		.fpu fpv4-sp-d16
 403              	HAL_FLASH_Lock:
 404              	.LFB335:
 512:Drivers/STM32G4xx_HAL_Driver/Src/stm32g4xx_hal_flash.c **** 
 513:Drivers/STM32G4xx_HAL_Driver/Src/stm32g4xx_hal_flash.c **** /**
 514:Drivers/STM32G4xx_HAL_Driver/Src/stm32g4xx_hal_flash.c ****   * @brief  Lock the FLASH control register access.
 515:Drivers/STM32G4xx_HAL_Driver/Src/stm32g4xx_hal_flash.c ****   * @retval HAL_Status
 516:Drivers/STM32G4xx_HAL_Driver/Src/stm32g4xx_hal_flash.c ****   */
ARM GAS  /tmp/ccaSLnfD.s 			page 19


 517:Drivers/STM32G4xx_HAL_Driver/Src/stm32g4xx_hal_flash.c **** HAL_StatusTypeDef HAL_FLASH_Lock(void)
 518:Drivers/STM32G4xx_HAL_Driver/Src/stm32g4xx_hal_flash.c **** {
 405              		.loc 1 518 1 is_stmt 1 view -0
 406              		.cfi_startproc
 407              		@ args = 0, pretend = 0, frame = 0
 408              		@ frame_needed = 0, uses_anonymous_args = 0
 409              		@ link register save eliminated.
 519:Drivers/STM32G4xx_HAL_Driver/Src/stm32g4xx_hal_flash.c ****   HAL_StatusTypeDef status = HAL_ERROR;
 410              		.loc 1 519 3 view .LVU126
 411              	.LVL31:
 520:Drivers/STM32G4xx_HAL_Driver/Src/stm32g4xx_hal_flash.c **** 
 521:Drivers/STM32G4xx_HAL_Driver/Src/stm32g4xx_hal_flash.c ****   /* Set the LOCK Bit to lock the FLASH Registers access */
 522:Drivers/STM32G4xx_HAL_Driver/Src/stm32g4xx_hal_flash.c ****   SET_BIT(FLASH->CR, FLASH_CR_LOCK);
 412              		.loc 1 522 3 view .LVU127
 413 0000 044B     		ldr	r3, .L38
 414 0002 5A69     		ldr	r2, [r3, #20]
 415 0004 42F00042 		orr	r2, r2, #-2147483648
 416 0008 5A61     		str	r2, [r3, #20]
 523:Drivers/STM32G4xx_HAL_Driver/Src/stm32g4xx_hal_flash.c **** 
 524:Drivers/STM32G4xx_HAL_Driver/Src/stm32g4xx_hal_flash.c ****   /* verify Flash is locked */
 525:Drivers/STM32G4xx_HAL_Driver/Src/stm32g4xx_hal_flash.c ****   if (READ_BIT(FLASH->CR, FLASH_CR_LOCK) != 0U)
 417              		.loc 1 525 3 view .LVU128
 418              		.loc 1 525 7 is_stmt 0 view .LVU129
 419 000a 5869     		ldr	r0, [r3, #20]
 420              	.LVL32:
 526:Drivers/STM32G4xx_HAL_Driver/Src/stm32g4xx_hal_flash.c ****   {
 527:Drivers/STM32G4xx_HAL_Driver/Src/stm32g4xx_hal_flash.c ****     status = HAL_OK;
 528:Drivers/STM32G4xx_HAL_Driver/Src/stm32g4xx_hal_flash.c ****   }
 529:Drivers/STM32G4xx_HAL_Driver/Src/stm32g4xx_hal_flash.c **** 
 530:Drivers/STM32G4xx_HAL_Driver/Src/stm32g4xx_hal_flash.c ****   return status;
 421              		.loc 1 530 3 is_stmt 1 view .LVU130
 531:Drivers/STM32G4xx_HAL_Driver/Src/stm32g4xx_hal_flash.c **** }
 422              		.loc 1 531 1 is_stmt 0 view .LVU131
 423 000c C043     		mvns	r0, r0
 424              	.LVL33:
 425              		.loc 1 531 1 view .LVU132
 426 000e C00F     		lsrs	r0, r0, #31
 427              	.LVL34:
 428              		.loc 1 531 1 view .LVU133
 429 0010 7047     		bx	lr
 430              	.L39:
 431 0012 00BF     		.align	2
 432              	.L38:
 433 0014 00200240 		.word	1073881088
 434              		.cfi_endproc
 435              	.LFE335:
 437              		.section	.text.HAL_FLASH_OB_Unlock,"ax",%progbits
 438              		.align	1
 439              		.p2align 2,,3
 440              		.global	HAL_FLASH_OB_Unlock
 441              		.syntax unified
 442              		.thumb
 443              		.thumb_func
 444              		.fpu fpv4-sp-d16
 446              	HAL_FLASH_OB_Unlock:
 447              	.LFB336:
 532:Drivers/STM32G4xx_HAL_Driver/Src/stm32g4xx_hal_flash.c **** 
ARM GAS  /tmp/ccaSLnfD.s 			page 20


 533:Drivers/STM32G4xx_HAL_Driver/Src/stm32g4xx_hal_flash.c **** /**
 534:Drivers/STM32G4xx_HAL_Driver/Src/stm32g4xx_hal_flash.c ****   * @brief  Unlock the FLASH Option Bytes Registers access.
 535:Drivers/STM32G4xx_HAL_Driver/Src/stm32g4xx_hal_flash.c ****   * @retval HAL_Status
 536:Drivers/STM32G4xx_HAL_Driver/Src/stm32g4xx_hal_flash.c ****   */
 537:Drivers/STM32G4xx_HAL_Driver/Src/stm32g4xx_hal_flash.c **** HAL_StatusTypeDef HAL_FLASH_OB_Unlock(void)
 538:Drivers/STM32G4xx_HAL_Driver/Src/stm32g4xx_hal_flash.c **** {
 448              		.loc 1 538 1 is_stmt 1 view -0
 449              		.cfi_startproc
 450              		@ args = 0, pretend = 0, frame = 0
 451              		@ frame_needed = 0, uses_anonymous_args = 0
 452              		@ link register save eliminated.
 539:Drivers/STM32G4xx_HAL_Driver/Src/stm32g4xx_hal_flash.c ****   HAL_StatusTypeDef status = HAL_OK;
 453              		.loc 1 539 3 view .LVU135
 454              	.LVL35:
 540:Drivers/STM32G4xx_HAL_Driver/Src/stm32g4xx_hal_flash.c **** 
 541:Drivers/STM32G4xx_HAL_Driver/Src/stm32g4xx_hal_flash.c ****   if (READ_BIT(FLASH->CR, FLASH_CR_OPTLOCK) != 0U)
 455              		.loc 1 541 3 view .LVU136
 456              		.loc 1 541 7 is_stmt 0 view .LVU137
 457 0000 064B     		ldr	r3, .L43
 458 0002 5869     		ldr	r0, [r3, #20]
 459              		.loc 1 541 6 view .LVU138
 460 0004 10F08040 		ands	r0, r0, #1073741824
 461 0008 06D0     		beq	.L41
 542:Drivers/STM32G4xx_HAL_Driver/Src/stm32g4xx_hal_flash.c ****   {
 543:Drivers/STM32G4xx_HAL_Driver/Src/stm32g4xx_hal_flash.c ****     /* Authorizes the Option Byte register programming */
 544:Drivers/STM32G4xx_HAL_Driver/Src/stm32g4xx_hal_flash.c ****     WRITE_REG(FLASH->OPTKEYR, FLASH_OPTKEY1);
 462              		.loc 1 544 5 is_stmt 1 view .LVU139
 463 000a 0549     		ldr	r1, .L43+4
 545:Drivers/STM32G4xx_HAL_Driver/Src/stm32g4xx_hal_flash.c ****     WRITE_REG(FLASH->OPTKEYR, FLASH_OPTKEY2);
 464              		.loc 1 545 5 is_stmt 0 view .LVU140
 465 000c 054A     		ldr	r2, .L43+8
 544:Drivers/STM32G4xx_HAL_Driver/Src/stm32g4xx_hal_flash.c ****     WRITE_REG(FLASH->OPTKEYR, FLASH_OPTKEY2);
 466              		.loc 1 544 5 view .LVU141
 467 000e D960     		str	r1, [r3, #12]
 468              		.loc 1 545 5 is_stmt 1 view .LVU142
 469 0010 DA60     		str	r2, [r3, #12]
 546:Drivers/STM32G4xx_HAL_Driver/Src/stm32g4xx_hal_flash.c **** 
 547:Drivers/STM32G4xx_HAL_Driver/Src/stm32g4xx_hal_flash.c ****     /* verify option bytes are unlocked */
 548:Drivers/STM32G4xx_HAL_Driver/Src/stm32g4xx_hal_flash.c ****     if (READ_BIT(FLASH->CR, FLASH_CR_OPTLOCK) != 0U)
 470              		.loc 1 548 5 view .LVU143
 471              		.loc 1 548 9 is_stmt 0 view .LVU144
 472 0012 5869     		ldr	r0, [r3, #20]
 539:Drivers/STM32G4xx_HAL_Driver/Src/stm32g4xx_hal_flash.c **** 
 473              		.loc 1 539 21 view .LVU145
 474 0014 C0F38070 		ubfx	r0, r0, #30, #1
 475              	.L41:
 476              	.LVL36:
 549:Drivers/STM32G4xx_HAL_Driver/Src/stm32g4xx_hal_flash.c ****     {
 550:Drivers/STM32G4xx_HAL_Driver/Src/stm32g4xx_hal_flash.c ****       status = HAL_ERROR;
 551:Drivers/STM32G4xx_HAL_Driver/Src/stm32g4xx_hal_flash.c ****     }
 552:Drivers/STM32G4xx_HAL_Driver/Src/stm32g4xx_hal_flash.c ****   }
 553:Drivers/STM32G4xx_HAL_Driver/Src/stm32g4xx_hal_flash.c **** 
 554:Drivers/STM32G4xx_HAL_Driver/Src/stm32g4xx_hal_flash.c ****   return status;
 477              		.loc 1 554 3 is_stmt 1 view .LVU146
 555:Drivers/STM32G4xx_HAL_Driver/Src/stm32g4xx_hal_flash.c **** }
 478              		.loc 1 555 1 is_stmt 0 view .LVU147
 479 0018 7047     		bx	lr
ARM GAS  /tmp/ccaSLnfD.s 			page 21


 480              	.L44:
 481 001a 00BF     		.align	2
 482              	.L43:
 483 001c 00200240 		.word	1073881088
 484 0020 3B2A1908 		.word	135866939
 485 0024 7F6E5D4C 		.word	1281191551
 486              		.cfi_endproc
 487              	.LFE336:
 489              		.section	.text.HAL_FLASH_OB_Lock,"ax",%progbits
 490              		.align	1
 491              		.p2align 2,,3
 492              		.global	HAL_FLASH_OB_Lock
 493              		.syntax unified
 494              		.thumb
 495              		.thumb_func
 496              		.fpu fpv4-sp-d16
 498              	HAL_FLASH_OB_Lock:
 499              	.LFB337:
 556:Drivers/STM32G4xx_HAL_Driver/Src/stm32g4xx_hal_flash.c **** 
 557:Drivers/STM32G4xx_HAL_Driver/Src/stm32g4xx_hal_flash.c **** /**
 558:Drivers/STM32G4xx_HAL_Driver/Src/stm32g4xx_hal_flash.c ****   * @brief  Lock the FLASH Option Bytes Registers access.
 559:Drivers/STM32G4xx_HAL_Driver/Src/stm32g4xx_hal_flash.c ****   * @retval HAL_Status
 560:Drivers/STM32G4xx_HAL_Driver/Src/stm32g4xx_hal_flash.c ****   */
 561:Drivers/STM32G4xx_HAL_Driver/Src/stm32g4xx_hal_flash.c **** HAL_StatusTypeDef HAL_FLASH_OB_Lock(void)
 562:Drivers/STM32G4xx_HAL_Driver/Src/stm32g4xx_hal_flash.c **** {
 500              		.loc 1 562 1 is_stmt 1 view -0
 501              		.cfi_startproc
 502              		@ args = 0, pretend = 0, frame = 0
 503              		@ frame_needed = 0, uses_anonymous_args = 0
 504              		@ link register save eliminated.
 563:Drivers/STM32G4xx_HAL_Driver/Src/stm32g4xx_hal_flash.c ****   HAL_StatusTypeDef status = HAL_ERROR;
 505              		.loc 1 563 3 view .LVU149
 506              	.LVL37:
 564:Drivers/STM32G4xx_HAL_Driver/Src/stm32g4xx_hal_flash.c **** 
 565:Drivers/STM32G4xx_HAL_Driver/Src/stm32g4xx_hal_flash.c ****   /* Set the OPTLOCK Bit to lock the FLASH Option Byte Registers access */
 566:Drivers/STM32G4xx_HAL_Driver/Src/stm32g4xx_hal_flash.c ****   SET_BIT(FLASH->CR, FLASH_CR_OPTLOCK);
 507              		.loc 1 566 3 view .LVU150
 508 0000 054B     		ldr	r3, .L46
 509 0002 5A69     		ldr	r2, [r3, #20]
 510 0004 42F08042 		orr	r2, r2, #1073741824
 511 0008 5A61     		str	r2, [r3, #20]
 567:Drivers/STM32G4xx_HAL_Driver/Src/stm32g4xx_hal_flash.c **** 
 568:Drivers/STM32G4xx_HAL_Driver/Src/stm32g4xx_hal_flash.c ****   /* Verify option bytes are locked */
 569:Drivers/STM32G4xx_HAL_Driver/Src/stm32g4xx_hal_flash.c ****   if (READ_BIT(FLASH->CR, FLASH_CR_OPTLOCK) != 0U)
 512              		.loc 1 569 3 view .LVU151
 513              		.loc 1 569 7 is_stmt 0 view .LVU152
 514 000a 5869     		ldr	r0, [r3, #20]
 515              	.LVL38:
 570:Drivers/STM32G4xx_HAL_Driver/Src/stm32g4xx_hal_flash.c ****   {
 571:Drivers/STM32G4xx_HAL_Driver/Src/stm32g4xx_hal_flash.c ****     status = HAL_OK;
 572:Drivers/STM32G4xx_HAL_Driver/Src/stm32g4xx_hal_flash.c ****   }
 573:Drivers/STM32G4xx_HAL_Driver/Src/stm32g4xx_hal_flash.c **** 
 574:Drivers/STM32G4xx_HAL_Driver/Src/stm32g4xx_hal_flash.c ****   return status;
 516              		.loc 1 574 3 is_stmt 1 view .LVU153
 569:Drivers/STM32G4xx_HAL_Driver/Src/stm32g4xx_hal_flash.c ****   {
 517              		.loc 1 569 6 is_stmt 0 view .LVU154
 518 000c 80F08040 		eor	r0, r0, #1073741824
ARM GAS  /tmp/ccaSLnfD.s 			page 22


 519              	.LVL39:
 575:Drivers/STM32G4xx_HAL_Driver/Src/stm32g4xx_hal_flash.c **** }
 520              		.loc 1 575 1 view .LVU155
 521 0010 C0F38070 		ubfx	r0, r0, #30, #1
 522              	.LVL40:
 523              		.loc 1 575 1 view .LVU156
 524 0014 7047     		bx	lr
 525              	.L47:
 526 0016 00BF     		.align	2
 527              	.L46:
 528 0018 00200240 		.word	1073881088
 529              		.cfi_endproc
 530              	.LFE337:
 532              		.section	.text.HAL_FLASH_GetError,"ax",%progbits
 533              		.align	1
 534              		.p2align 2,,3
 535              		.global	HAL_FLASH_GetError
 536              		.syntax unified
 537              		.thumb
 538              		.thumb_func
 539              		.fpu fpv4-sp-d16
 541              	HAL_FLASH_GetError:
 542              	.LFB339:
 576:Drivers/STM32G4xx_HAL_Driver/Src/stm32g4xx_hal_flash.c **** 
 577:Drivers/STM32G4xx_HAL_Driver/Src/stm32g4xx_hal_flash.c **** /**
 578:Drivers/STM32G4xx_HAL_Driver/Src/stm32g4xx_hal_flash.c ****   * @brief  Launch the option byte loading.
 579:Drivers/STM32G4xx_HAL_Driver/Src/stm32g4xx_hal_flash.c ****   * @retval HAL_Status
 580:Drivers/STM32G4xx_HAL_Driver/Src/stm32g4xx_hal_flash.c ****   */
 581:Drivers/STM32G4xx_HAL_Driver/Src/stm32g4xx_hal_flash.c **** HAL_StatusTypeDef HAL_FLASH_OB_Launch(void)
 582:Drivers/STM32G4xx_HAL_Driver/Src/stm32g4xx_hal_flash.c **** {
 583:Drivers/STM32G4xx_HAL_Driver/Src/stm32g4xx_hal_flash.c ****   /* Set the bit to force the option byte reloading */
 584:Drivers/STM32G4xx_HAL_Driver/Src/stm32g4xx_hal_flash.c ****   SET_BIT(FLASH->CR, FLASH_CR_OBL_LAUNCH);
 585:Drivers/STM32G4xx_HAL_Driver/Src/stm32g4xx_hal_flash.c **** 
 586:Drivers/STM32G4xx_HAL_Driver/Src/stm32g4xx_hal_flash.c ****   /* Wait for last operation to be completed */
 587:Drivers/STM32G4xx_HAL_Driver/Src/stm32g4xx_hal_flash.c ****   return (FLASH_WaitForLastOperation((uint32_t)FLASH_TIMEOUT_VALUE));
 588:Drivers/STM32G4xx_HAL_Driver/Src/stm32g4xx_hal_flash.c **** }
 589:Drivers/STM32G4xx_HAL_Driver/Src/stm32g4xx_hal_flash.c **** 
 590:Drivers/STM32G4xx_HAL_Driver/Src/stm32g4xx_hal_flash.c **** /**
 591:Drivers/STM32G4xx_HAL_Driver/Src/stm32g4xx_hal_flash.c ****   * @}
 592:Drivers/STM32G4xx_HAL_Driver/Src/stm32g4xx_hal_flash.c ****   */
 593:Drivers/STM32G4xx_HAL_Driver/Src/stm32g4xx_hal_flash.c **** 
 594:Drivers/STM32G4xx_HAL_Driver/Src/stm32g4xx_hal_flash.c **** /** @defgroup FLASH_Exported_Functions_Group3 Peripheral State and Errors functions
 595:Drivers/STM32G4xx_HAL_Driver/Src/stm32g4xx_hal_flash.c ****   * @brief   Peripheral Errors functions
 596:Drivers/STM32G4xx_HAL_Driver/Src/stm32g4xx_hal_flash.c ****   *
 597:Drivers/STM32G4xx_HAL_Driver/Src/stm32g4xx_hal_flash.c **** @verbatim
 598:Drivers/STM32G4xx_HAL_Driver/Src/stm32g4xx_hal_flash.c ****  ===============================================================================
 599:Drivers/STM32G4xx_HAL_Driver/Src/stm32g4xx_hal_flash.c ****                 ##### Peripheral Errors functions #####
 600:Drivers/STM32G4xx_HAL_Driver/Src/stm32g4xx_hal_flash.c ****  ===============================================================================
 601:Drivers/STM32G4xx_HAL_Driver/Src/stm32g4xx_hal_flash.c ****     [..]
 602:Drivers/STM32G4xx_HAL_Driver/Src/stm32g4xx_hal_flash.c ****     This subsection permits to get in run-time Errors of the FLASH peripheral.
 603:Drivers/STM32G4xx_HAL_Driver/Src/stm32g4xx_hal_flash.c **** 
 604:Drivers/STM32G4xx_HAL_Driver/Src/stm32g4xx_hal_flash.c **** @endverbatim
 605:Drivers/STM32G4xx_HAL_Driver/Src/stm32g4xx_hal_flash.c ****   * @{
 606:Drivers/STM32G4xx_HAL_Driver/Src/stm32g4xx_hal_flash.c ****   */
 607:Drivers/STM32G4xx_HAL_Driver/Src/stm32g4xx_hal_flash.c **** 
 608:Drivers/STM32G4xx_HAL_Driver/Src/stm32g4xx_hal_flash.c **** /**
 609:Drivers/STM32G4xx_HAL_Driver/Src/stm32g4xx_hal_flash.c ****   * @brief  Get the specific FLASH error flag.
ARM GAS  /tmp/ccaSLnfD.s 			page 23


 610:Drivers/STM32G4xx_HAL_Driver/Src/stm32g4xx_hal_flash.c ****   * @retval FLASH_ErrorCode. The returned value can be:
 611:Drivers/STM32G4xx_HAL_Driver/Src/stm32g4xx_hal_flash.c ****   *            @arg HAL_FLASH_ERROR_RD: FLASH Read Protection error flag (PCROP)
 612:Drivers/STM32G4xx_HAL_Driver/Src/stm32g4xx_hal_flash.c ****   *            @arg HAL_FLASH_ERROR_PGS: FLASH Programming Sequence error flag
 613:Drivers/STM32G4xx_HAL_Driver/Src/stm32g4xx_hal_flash.c ****   *            @arg HAL_FLASH_ERROR_PGP: FLASH Programming Parallelism error flag
 614:Drivers/STM32G4xx_HAL_Driver/Src/stm32g4xx_hal_flash.c ****   *            @arg HAL_FLASH_ERROR_PGA: FLASH Programming Alignment error flag
 615:Drivers/STM32G4xx_HAL_Driver/Src/stm32g4xx_hal_flash.c ****   *            @arg HAL_FLASH_ERROR_WRP: FLASH Write protected error flag
 616:Drivers/STM32G4xx_HAL_Driver/Src/stm32g4xx_hal_flash.c ****   *            @arg HAL_FLASH_ERROR_OPERATION: FLASH operation Error flag
 617:Drivers/STM32G4xx_HAL_Driver/Src/stm32g4xx_hal_flash.c ****   *            @arg HAL_FLASH_ERROR_NONE: No error set
 618:Drivers/STM32G4xx_HAL_Driver/Src/stm32g4xx_hal_flash.c ****   *            @arg HAL_FLASH_ERROR_OP: FLASH Operation error
 619:Drivers/STM32G4xx_HAL_Driver/Src/stm32g4xx_hal_flash.c ****   *            @arg HAL_FLASH_ERROR_PROG: FLASH Programming error
 620:Drivers/STM32G4xx_HAL_Driver/Src/stm32g4xx_hal_flash.c ****   *            @arg HAL_FLASH_ERROR_WRP: FLASH Write protection error
 621:Drivers/STM32G4xx_HAL_Driver/Src/stm32g4xx_hal_flash.c ****   *            @arg HAL_FLASH_ERROR_PGA: FLASH Programming alignment error
 622:Drivers/STM32G4xx_HAL_Driver/Src/stm32g4xx_hal_flash.c ****   *            @arg HAL_FLASH_ERROR_SIZ: FLASH Size error
 623:Drivers/STM32G4xx_HAL_Driver/Src/stm32g4xx_hal_flash.c ****   *            @arg HAL_FLASH_ERROR_PGS: FLASH Programming sequence error
 624:Drivers/STM32G4xx_HAL_Driver/Src/stm32g4xx_hal_flash.c ****   *            @arg HAL_FLASH_ERROR_MIS: FLASH Fast programming data miss error
 625:Drivers/STM32G4xx_HAL_Driver/Src/stm32g4xx_hal_flash.c ****   *            @arg HAL_FLASH_ERROR_FAST: FLASH Fast programming error
 626:Drivers/STM32G4xx_HAL_Driver/Src/stm32g4xx_hal_flash.c ****   *            @arg HAL_FLASH_ERROR_RD: FLASH PCROP read error
 627:Drivers/STM32G4xx_HAL_Driver/Src/stm32g4xx_hal_flash.c ****   *            @arg HAL_FLASH_ERROR_OPTV: FLASH Option validity error
 628:Drivers/STM32G4xx_HAL_Driver/Src/stm32g4xx_hal_flash.c ****   */
 629:Drivers/STM32G4xx_HAL_Driver/Src/stm32g4xx_hal_flash.c **** uint32_t HAL_FLASH_GetError(void)
 630:Drivers/STM32G4xx_HAL_Driver/Src/stm32g4xx_hal_flash.c **** {
 543              		.loc 1 630 1 is_stmt 1 view -0
 544              		.cfi_startproc
 545              		@ args = 0, pretend = 0, frame = 0
 546              		@ frame_needed = 0, uses_anonymous_args = 0
 547              		@ link register save eliminated.
 631:Drivers/STM32G4xx_HAL_Driver/Src/stm32g4xx_hal_flash.c ****   return pFlash.ErrorCode;
 548              		.loc 1 631 3 view .LVU158
 549              		.loc 1 631 16 is_stmt 0 view .LVU159
 550 0000 014B     		ldr	r3, .L49
 551 0002 5868     		ldr	r0, [r3, #4]
 632:Drivers/STM32G4xx_HAL_Driver/Src/stm32g4xx_hal_flash.c **** }
 552              		.loc 1 632 1 view .LVU160
 553 0004 7047     		bx	lr
 554              	.L50:
 555 0006 00BF     		.align	2
 556              	.L49:
 557 0008 00000000 		.word	.LANCHOR0
 558              		.cfi_endproc
 559              	.LFE339:
 561              		.section	.text.FLASH_WaitForLastOperation,"ax",%progbits
 562              		.align	1
 563              		.p2align 2,,3
 564              		.global	FLASH_WaitForLastOperation
 565              		.syntax unified
 566              		.thumb
 567              		.thumb_func
 568              		.fpu fpv4-sp-d16
 570              	FLASH_WaitForLastOperation:
 571              	.LVL41:
 572              	.LFB340:
 633:Drivers/STM32G4xx_HAL_Driver/Src/stm32g4xx_hal_flash.c **** 
 634:Drivers/STM32G4xx_HAL_Driver/Src/stm32g4xx_hal_flash.c **** /**
 635:Drivers/STM32G4xx_HAL_Driver/Src/stm32g4xx_hal_flash.c ****   * @}
 636:Drivers/STM32G4xx_HAL_Driver/Src/stm32g4xx_hal_flash.c ****   */
 637:Drivers/STM32G4xx_HAL_Driver/Src/stm32g4xx_hal_flash.c **** 
 638:Drivers/STM32G4xx_HAL_Driver/Src/stm32g4xx_hal_flash.c **** /**
ARM GAS  /tmp/ccaSLnfD.s 			page 24


 639:Drivers/STM32G4xx_HAL_Driver/Src/stm32g4xx_hal_flash.c ****   * @}
 640:Drivers/STM32G4xx_HAL_Driver/Src/stm32g4xx_hal_flash.c ****   */
 641:Drivers/STM32G4xx_HAL_Driver/Src/stm32g4xx_hal_flash.c **** 
 642:Drivers/STM32G4xx_HAL_Driver/Src/stm32g4xx_hal_flash.c **** /* Private functions ---------------------------------------------------------*/
 643:Drivers/STM32G4xx_HAL_Driver/Src/stm32g4xx_hal_flash.c **** 
 644:Drivers/STM32G4xx_HAL_Driver/Src/stm32g4xx_hal_flash.c **** /** @addtogroup FLASH_Private_Functions
 645:Drivers/STM32G4xx_HAL_Driver/Src/stm32g4xx_hal_flash.c ****   * @{
 646:Drivers/STM32G4xx_HAL_Driver/Src/stm32g4xx_hal_flash.c ****   */
 647:Drivers/STM32G4xx_HAL_Driver/Src/stm32g4xx_hal_flash.c **** 
 648:Drivers/STM32G4xx_HAL_Driver/Src/stm32g4xx_hal_flash.c **** /**
 649:Drivers/STM32G4xx_HAL_Driver/Src/stm32g4xx_hal_flash.c ****   * @brief  Wait for a FLASH operation to complete.
 650:Drivers/STM32G4xx_HAL_Driver/Src/stm32g4xx_hal_flash.c ****   * @param  Timeout maximum flash operation timeout.
 651:Drivers/STM32G4xx_HAL_Driver/Src/stm32g4xx_hal_flash.c ****   * @retval HAL_Status
 652:Drivers/STM32G4xx_HAL_Driver/Src/stm32g4xx_hal_flash.c ****   */
 653:Drivers/STM32G4xx_HAL_Driver/Src/stm32g4xx_hal_flash.c **** HAL_StatusTypeDef FLASH_WaitForLastOperation(uint32_t Timeout)
 654:Drivers/STM32G4xx_HAL_Driver/Src/stm32g4xx_hal_flash.c **** {
 573              		.loc 1 654 1 is_stmt 1 view -0
 574              		.cfi_startproc
 575              		@ args = 0, pretend = 0, frame = 0
 576              		@ frame_needed = 0, uses_anonymous_args = 0
 655:Drivers/STM32G4xx_HAL_Driver/Src/stm32g4xx_hal_flash.c ****   /* Wait for the FLASH operation to complete by polling on BUSY flag to be reset.
 656:Drivers/STM32G4xx_HAL_Driver/Src/stm32g4xx_hal_flash.c ****      Even if the FLASH operation fails, the BUSY flag will be reset and an error
 657:Drivers/STM32G4xx_HAL_Driver/Src/stm32g4xx_hal_flash.c ****      flag will be set */
 658:Drivers/STM32G4xx_HAL_Driver/Src/stm32g4xx_hal_flash.c **** 
 659:Drivers/STM32G4xx_HAL_Driver/Src/stm32g4xx_hal_flash.c ****   uint32_t tickstart = HAL_GetTick();
 577              		.loc 1 659 3 view .LVU162
 654:Drivers/STM32G4xx_HAL_Driver/Src/stm32g4xx_hal_flash.c ****   /* Wait for the FLASH operation to complete by polling on BUSY flag to be reset.
 578              		.loc 1 654 1 is_stmt 0 view .LVU163
 579 0000 70B5     		push	{r4, r5, r6, lr}
 580              	.LCFI1:
 581              		.cfi_def_cfa_offset 16
 582              		.cfi_offset 4, -16
 583              		.cfi_offset 5, -12
 584              		.cfi_offset 6, -8
 585              		.cfi_offset 14, -4
 654:Drivers/STM32G4xx_HAL_Driver/Src/stm32g4xx_hal_flash.c ****   /* Wait for the FLASH operation to complete by polling on BUSY flag to be reset.
 586              		.loc 1 654 1 view .LVU164
 587 0002 0546     		mov	r5, r0
 588              		.loc 1 659 24 view .LVU165
 589 0004 FFF7FEFF 		bl	HAL_GetTick
 590              	.LVL42:
 660:Drivers/STM32G4xx_HAL_Driver/Src/stm32g4xx_hal_flash.c ****   uint32_t error;
 661:Drivers/STM32G4xx_HAL_Driver/Src/stm32g4xx_hal_flash.c **** 
 662:Drivers/STM32G4xx_HAL_Driver/Src/stm32g4xx_hal_flash.c ****   while (__HAL_FLASH_GET_FLAG(FLASH_FLAG_BSY))
 591              		.loc 1 662 10 view .LVU166
 592 0008 104E     		ldr	r6, .L60
 659:Drivers/STM32G4xx_HAL_Driver/Src/stm32g4xx_hal_flash.c ****   uint32_t error;
 593              		.loc 1 659 24 view .LVU167
 594 000a 0446     		mov	r4, r0
 595              	.LVL43:
 660:Drivers/STM32G4xx_HAL_Driver/Src/stm32g4xx_hal_flash.c ****   uint32_t error;
 596              		.loc 1 660 3 is_stmt 1 view .LVU168
 597              		.loc 1 662 3 view .LVU169
 598              		.loc 1 662 9 is_stmt 0 view .LVU170
 599 000c 04E0     		b	.L52
 600              	.LVL44:
 601              	.L54:
ARM GAS  /tmp/ccaSLnfD.s 			page 25


 663:Drivers/STM32G4xx_HAL_Driver/Src/stm32g4xx_hal_flash.c ****   {
 664:Drivers/STM32G4xx_HAL_Driver/Src/stm32g4xx_hal_flash.c ****     if ((HAL_GetTick() - tickstart) > Timeout)
 602              		.loc 1 664 10 view .LVU171
 603 000e FFF7FEFF 		bl	HAL_GetTick
 604              	.LVL45:
 605              		.loc 1 664 24 view .LVU172
 606 0012 031B     		subs	r3, r0, r4
 607              		.loc 1 664 8 view .LVU173
 608 0014 AB42     		cmp	r3, r5
 609 0016 0FD8     		bhi	.L56
 610              	.L52:
 611              		.loc 1 664 5 is_stmt 1 view .LVU174
 662:Drivers/STM32G4xx_HAL_Driver/Src/stm32g4xx_hal_flash.c ****   {
 612              		.loc 1 662 9 view .LVU175
 662:Drivers/STM32G4xx_HAL_Driver/Src/stm32g4xx_hal_flash.c ****   {
 613              		.loc 1 662 10 is_stmt 0 view .LVU176
 614 0018 3369     		ldr	r3, [r6, #16]
 662:Drivers/STM32G4xx_HAL_Driver/Src/stm32g4xx_hal_flash.c ****   {
 615              		.loc 1 662 9 view .LVU177
 616 001a DB03     		lsls	r3, r3, #15
 617 001c F7D4     		bmi	.L54
 665:Drivers/STM32G4xx_HAL_Driver/Src/stm32g4xx_hal_flash.c ****     {
 666:Drivers/STM32G4xx_HAL_Driver/Src/stm32g4xx_hal_flash.c ****       return HAL_TIMEOUT;
 667:Drivers/STM32G4xx_HAL_Driver/Src/stm32g4xx_hal_flash.c ****     }
 668:Drivers/STM32G4xx_HAL_Driver/Src/stm32g4xx_hal_flash.c ****   }
 669:Drivers/STM32G4xx_HAL_Driver/Src/stm32g4xx_hal_flash.c **** 
 670:Drivers/STM32G4xx_HAL_Driver/Src/stm32g4xx_hal_flash.c ****   /* Check FLASH operation error flags */
 671:Drivers/STM32G4xx_HAL_Driver/Src/stm32g4xx_hal_flash.c ****   error = (FLASH->SR & FLASH_FLAG_SR_ERRORS);
 618              		.loc 1 671 3 is_stmt 1 view .LVU178
 619              		.loc 1 671 17 is_stmt 0 view .LVU179
 620 001e 3369     		ldr	r3, [r6, #16]
 621              		.loc 1 671 9 view .LVU180
 622 0020 4CF2FA32 		movw	r2, #50170
 623              	.LVL46:
 672:Drivers/STM32G4xx_HAL_Driver/Src/stm32g4xx_hal_flash.c ****   if (error != 0u)
 624              		.loc 1 672 3 is_stmt 1 view .LVU181
 625              		.loc 1 672 6 is_stmt 0 view .LVU182
 626 0024 1340     		ands	r3, r3, r2
 627              	.LVL47:
 628              		.loc 1 672 6 view .LVU183
 629 0026 09D1     		bne	.L59
 630              	.LBB36:
 631              	.LBI36:
 653:Drivers/STM32G4xx_HAL_Driver/Src/stm32g4xx_hal_flash.c **** {
 632              		.loc 1 653 19 is_stmt 1 view .LVU184
 633              	.LVL48:
 634              	.LBB37:
 673:Drivers/STM32G4xx_HAL_Driver/Src/stm32g4xx_hal_flash.c ****   {
 674:Drivers/STM32G4xx_HAL_Driver/Src/stm32g4xx_hal_flash.c ****     /* Save the error code */
 675:Drivers/STM32G4xx_HAL_Driver/Src/stm32g4xx_hal_flash.c ****     pFlash.ErrorCode |= error;
 676:Drivers/STM32G4xx_HAL_Driver/Src/stm32g4xx_hal_flash.c **** 
 677:Drivers/STM32G4xx_HAL_Driver/Src/stm32g4xx_hal_flash.c ****     /* Clear error programming flags */
 678:Drivers/STM32G4xx_HAL_Driver/Src/stm32g4xx_hal_flash.c ****     __HAL_FLASH_CLEAR_FLAG(error);
 679:Drivers/STM32G4xx_HAL_Driver/Src/stm32g4xx_hal_flash.c **** 
 680:Drivers/STM32G4xx_HAL_Driver/Src/stm32g4xx_hal_flash.c ****     return HAL_ERROR;
 681:Drivers/STM32G4xx_HAL_Driver/Src/stm32g4xx_hal_flash.c ****   }
 682:Drivers/STM32G4xx_HAL_Driver/Src/stm32g4xx_hal_flash.c **** 
ARM GAS  /tmp/ccaSLnfD.s 			page 26


 683:Drivers/STM32G4xx_HAL_Driver/Src/stm32g4xx_hal_flash.c ****   /* Check FLASH End of Operation flag  */
 684:Drivers/STM32G4xx_HAL_Driver/Src/stm32g4xx_hal_flash.c ****   if (__HAL_FLASH_GET_FLAG(FLASH_FLAG_EOP))
 635              		.loc 1 684 3 view .LVU185
 636              		.loc 1 684 7 is_stmt 0 view .LVU186
 637 0028 3069     		ldr	r0, [r6, #16]
 638              		.loc 1 684 6 view .LVU187
 639 002a 10F00100 		ands	r0, r0, #1
 640 002e 02D0     		beq	.L53
 685:Drivers/STM32G4xx_HAL_Driver/Src/stm32g4xx_hal_flash.c ****   {
 686:Drivers/STM32G4xx_HAL_Driver/Src/stm32g4xx_hal_flash.c ****     /* Clear FLASH End of Operation pending bit */
 687:Drivers/STM32G4xx_HAL_Driver/Src/stm32g4xx_hal_flash.c ****     __HAL_FLASH_CLEAR_FLAG(FLASH_FLAG_EOP);
 641              		.loc 1 687 5 is_stmt 1 view .LVU188
 642              		.loc 1 687 5 view .LVU189
 643              		.loc 1 687 5 view .LVU190
 644              		.loc 1 687 5 view .LVU191
 645 0030 0122     		movs	r2, #1
 646 0032 1846     		mov	r0, r3
 647 0034 3261     		str	r2, [r6, #16]
 648              	.L53:
 649              	.LVL49:
 650              		.loc 1 687 5 is_stmt 0 view .LVU192
 651              	.LBE37:
 652              	.LBE36:
 688:Drivers/STM32G4xx_HAL_Driver/Src/stm32g4xx_hal_flash.c ****   }
 689:Drivers/STM32G4xx_HAL_Driver/Src/stm32g4xx_hal_flash.c **** 
 690:Drivers/STM32G4xx_HAL_Driver/Src/stm32g4xx_hal_flash.c ****   /* If there is an error flag set */
 691:Drivers/STM32G4xx_HAL_Driver/Src/stm32g4xx_hal_flash.c ****   return HAL_OK;
 692:Drivers/STM32G4xx_HAL_Driver/Src/stm32g4xx_hal_flash.c **** }
 653              		.loc 1 692 1 view .LVU193
 654 0036 70BD     		pop	{r4, r5, r6, pc}
 655              	.LVL50:
 656              	.L56:
 666:Drivers/STM32G4xx_HAL_Driver/Src/stm32g4xx_hal_flash.c ****     }
 657              		.loc 1 666 14 view .LVU194
 658 0038 0320     		movs	r0, #3
 659              		.loc 1 692 1 view .LVU195
 660 003a 70BD     		pop	{r4, r5, r6, pc}
 661              	.LVL51:
 662              	.L59:
 675:Drivers/STM32G4xx_HAL_Driver/Src/stm32g4xx_hal_flash.c **** 
 663              		.loc 1 675 5 is_stmt 1 view .LVU196
 675:Drivers/STM32G4xx_HAL_Driver/Src/stm32g4xx_hal_flash.c **** 
 664              		.loc 1 675 22 is_stmt 0 view .LVU197
 665 003c 0449     		ldr	r1, .L60+4
 666 003e 4A68     		ldr	r2, [r1, #4]
 667 0040 1A43     		orrs	r2, r2, r3
 668 0042 4A60     		str	r2, [r1, #4]
 678:Drivers/STM32G4xx_HAL_Driver/Src/stm32g4xx_hal_flash.c **** 
 669              		.loc 1 678 5 is_stmt 1 view .LVU198
 678:Drivers/STM32G4xx_HAL_Driver/Src/stm32g4xx_hal_flash.c **** 
 670              		.loc 1 678 5 view .LVU199
 678:Drivers/STM32G4xx_HAL_Driver/Src/stm32g4xx_hal_flash.c **** 
 671              		.loc 1 678 5 view .LVU200
 678:Drivers/STM32G4xx_HAL_Driver/Src/stm32g4xx_hal_flash.c **** 
 672              		.loc 1 678 5 view .LVU201
 680:Drivers/STM32G4xx_HAL_Driver/Src/stm32g4xx_hal_flash.c ****   }
 673              		.loc 1 680 12 is_stmt 0 view .LVU202
ARM GAS  /tmp/ccaSLnfD.s 			page 27


 674 0044 0120     		movs	r0, #1
 678:Drivers/STM32G4xx_HAL_Driver/Src/stm32g4xx_hal_flash.c **** 
 675              		.loc 1 678 5 view .LVU203
 676 0046 3361     		str	r3, [r6, #16]
 678:Drivers/STM32G4xx_HAL_Driver/Src/stm32g4xx_hal_flash.c **** 
 677              		.loc 1 678 5 is_stmt 1 view .LVU204
 680:Drivers/STM32G4xx_HAL_Driver/Src/stm32g4xx_hal_flash.c ****   }
 678              		.loc 1 680 5 view .LVU205
 679              		.loc 1 692 1 is_stmt 0 view .LVU206
 680 0048 70BD     		pop	{r4, r5, r6, pc}
 681              	.LVL52:
 682              	.L61:
 683              		.loc 1 692 1 view .LVU207
 684 004a 00BF     		.align	2
 685              	.L60:
 686 004c 00200240 		.word	1073881088
 687 0050 00000000 		.word	.LANCHOR0
 688              		.cfi_endproc
 689              	.LFE340:
 691              		.section	.text.HAL_FLASH_Program,"ax",%progbits
 692              		.align	1
 693              		.p2align 2,,3
 694              		.global	HAL_FLASH_Program
 695              		.syntax unified
 696              		.thumb
 697              		.thumb_func
 698              		.fpu fpv4-sp-d16
 700              	HAL_FLASH_Program:
 701              	.LVL53:
 702              	.LFB329:
 175:Drivers/STM32G4xx_HAL_Driver/Src/stm32g4xx_hal_flash.c ****   HAL_StatusTypeDef status;
 703              		.loc 1 175 1 is_stmt 1 view -0
 704              		.cfi_startproc
 705              		@ args = 0, pretend = 0, frame = 0
 706              		@ frame_needed = 0, uses_anonymous_args = 0
 175:Drivers/STM32G4xx_HAL_Driver/Src/stm32g4xx_hal_flash.c ****   HAL_StatusTypeDef status;
 707              		.loc 1 175 1 is_stmt 0 view .LVU209
 708 0000 2DE9F041 		push	{r4, r5, r6, r7, r8, lr}
 709              	.LCFI2:
 710              		.cfi_def_cfa_offset 24
 711              		.cfi_offset 4, -24
 712              		.cfi_offset 5, -20
 713              		.cfi_offset 6, -16
 714              		.cfi_offset 7, -12
 715              		.cfi_offset 8, -8
 716              		.cfi_offset 14, -4
 183:Drivers/STM32G4xx_HAL_Driver/Src/stm32g4xx_hal_flash.c **** 
 717              		.loc 1 183 3 view .LVU210
 718 0004 294E     		ldr	r6, .L77
 719 0006 96F800C0 		ldrb	ip, [r6]	@ zero_extendqisi2
 176:Drivers/STM32G4xx_HAL_Driver/Src/stm32g4xx_hal_flash.c ****   uint32_t prog_bit = 0;
 720              		.loc 1 176 3 is_stmt 1 view .LVU211
 177:Drivers/STM32G4xx_HAL_Driver/Src/stm32g4xx_hal_flash.c **** 
 721              		.loc 1 177 3 view .LVU212
 722              	.LVL54:
 180:Drivers/STM32G4xx_HAL_Driver/Src/stm32g4xx_hal_flash.c **** 
 723              		.loc 1 180 3 view .LVU213
ARM GAS  /tmp/ccaSLnfD.s 			page 28


 183:Drivers/STM32G4xx_HAL_Driver/Src/stm32g4xx_hal_flash.c **** 
 724              		.loc 1 183 3 view .LVU214
 183:Drivers/STM32G4xx_HAL_Driver/Src/stm32g4xx_hal_flash.c **** 
 725              		.loc 1 183 3 view .LVU215
 726 000a BCF1010F 		cmp	ip, #1
 727 000e 18D0     		beq	.L70
 183:Drivers/STM32G4xx_HAL_Driver/Src/stm32g4xx_hal_flash.c **** 
 728              		.loc 1 183 3 discriminator 2 view .LVU216
 729 0010 0746     		mov	r7, r0
 730 0012 9846     		mov	r8, r3
 186:Drivers/STM32G4xx_HAL_Driver/Src/stm32g4xx_hal_flash.c **** 
 731              		.loc 1 186 12 is_stmt 0 discriminator 2 view .LVU217
 732 0014 4FF47A70 		mov	r0, #1000
 733              	.LVL55:
 183:Drivers/STM32G4xx_HAL_Driver/Src/stm32g4xx_hal_flash.c **** 
 734              		.loc 1 183 3 discriminator 2 view .LVU218
 735 0018 0123     		movs	r3, #1
 736 001a 0D46     		mov	r5, r1
 737 001c 1446     		mov	r4, r2
 738 001e 3370     		strb	r3, [r6]
 183:Drivers/STM32G4xx_HAL_Driver/Src/stm32g4xx_hal_flash.c **** 
 739              		.loc 1 183 3 is_stmt 1 discriminator 2 view .LVU219
 186:Drivers/STM32G4xx_HAL_Driver/Src/stm32g4xx_hal_flash.c **** 
 740              		.loc 1 186 3 discriminator 2 view .LVU220
 186:Drivers/STM32G4xx_HAL_Driver/Src/stm32g4xx_hal_flash.c **** 
 741              		.loc 1 186 12 is_stmt 0 discriminator 2 view .LVU221
 742 0020 FFF7FEFF 		bl	FLASH_WaitForLastOperation
 743              	.LVL56:
 188:Drivers/STM32G4xx_HAL_Driver/Src/stm32g4xx_hal_flash.c ****   {
 744              		.loc 1 188 3 is_stmt 1 discriminator 2 view .LVU222
 188:Drivers/STM32G4xx_HAL_Driver/Src/stm32g4xx_hal_flash.c ****   {
 745              		.loc 1 188 6 is_stmt 0 discriminator 2 view .LVU223
 746 0024 18B1     		cbz	r0, .L74
 747              	.LVL57:
 748              	.L64:
 225:Drivers/STM32G4xx_HAL_Driver/Src/stm32g4xx_hal_flash.c **** 
 749              		.loc 1 225 3 is_stmt 1 view .LVU224
 225:Drivers/STM32G4xx_HAL_Driver/Src/stm32g4xx_hal_flash.c **** 
 750              		.loc 1 225 3 view .LVU225
 751 0026 0023     		movs	r3, #0
 752 0028 3370     		strb	r3, [r6]
 225:Drivers/STM32G4xx_HAL_Driver/Src/stm32g4xx_hal_flash.c **** 
 753              		.loc 1 225 3 view .LVU226
 228:Drivers/STM32G4xx_HAL_Driver/Src/stm32g4xx_hal_flash.c **** }
 754              		.loc 1 228 3 view .LVU227
 229:Drivers/STM32G4xx_HAL_Driver/Src/stm32g4xx_hal_flash.c **** 
 755              		.loc 1 229 1 is_stmt 0 view .LVU228
 756 002a BDE8F081 		pop	{r4, r5, r6, r7, r8, pc}
 757              	.LVL58:
 758              	.L74:
 190:Drivers/STM32G4xx_HAL_Driver/Src/stm32g4xx_hal_flash.c **** 
 759              		.loc 1 190 5 is_stmt 1 view .LVU229
 190:Drivers/STM32G4xx_HAL_Driver/Src/stm32g4xx_hal_flash.c **** 
 760              		.loc 1 190 22 is_stmt 0 view .LVU230
 761 002e 7060     		str	r0, [r6, #4]
 192:Drivers/STM32G4xx_HAL_Driver/Src/stm32g4xx_hal_flash.c ****     {
 762              		.loc 1 192 5 is_stmt 1 view .LVU231
ARM GAS  /tmp/ccaSLnfD.s 			page 29


 192:Drivers/STM32G4xx_HAL_Driver/Src/stm32g4xx_hal_flash.c ****     {
 763              		.loc 1 192 8 is_stmt 0 view .LVU232
 764 0030 57B1     		cbz	r7, .L75
 198:Drivers/STM32G4xx_HAL_Driver/Src/stm32g4xx_hal_flash.c ****     {
 765              		.loc 1 198 10 is_stmt 1 view .LVU233
 198:Drivers/STM32G4xx_HAL_Driver/Src/stm32g4xx_hal_flash.c ****     {
 766              		.loc 1 198 54 is_stmt 0 view .LVU234
 767 0032 7B1E     		subs	r3, r7, #1
 198:Drivers/STM32G4xx_HAL_Driver/Src/stm32g4xx_hal_flash.c ****     {
 768              		.loc 1 198 13 view .LVU235
 769 0034 012B     		cmp	r3, #1
 770 0036 1CD9     		bls	.L76
 212:Drivers/STM32G4xx_HAL_Driver/Src/stm32g4xx_hal_flash.c **** 
 771              		.loc 1 212 5 is_stmt 1 view .LVU236
 215:Drivers/STM32G4xx_HAL_Driver/Src/stm32g4xx_hal_flash.c **** 
 772              		.loc 1 215 5 view .LVU237
 215:Drivers/STM32G4xx_HAL_Driver/Src/stm32g4xx_hal_flash.c **** 
 773              		.loc 1 215 14 is_stmt 0 view .LVU238
 774 0038 4FF47A70 		mov	r0, #1000
 775              	.LVL59:
 776              	.L73:
 215:Drivers/STM32G4xx_HAL_Driver/Src/stm32g4xx_hal_flash.c **** 
 777              		.loc 1 215 14 view .LVU239
 778 003c FFF7FEFF 		bl	FLASH_WaitForLastOperation
 779              	.LVL60:
 218:Drivers/STM32G4xx_HAL_Driver/Src/stm32g4xx_hal_flash.c ****     {
 780              		.loc 1 218 5 is_stmt 1 view .LVU240
 781 0040 F1E7     		b	.L64
 782              	.LVL61:
 783              	.L70:
 183:Drivers/STM32G4xx_HAL_Driver/Src/stm32g4xx_hal_flash.c **** 
 784              		.loc 1 183 3 is_stmt 0 view .LVU241
 785 0042 0220     		movs	r0, #2
 786              	.LVL62:
 229:Drivers/STM32G4xx_HAL_Driver/Src/stm32g4xx_hal_flash.c **** 
 787              		.loc 1 229 1 view .LVU242
 788 0044 BDE8F081 		pop	{r4, r5, r6, r7, r8, pc}
 789              	.LVL63:
 790              	.L75:
 195:Drivers/STM32G4xx_HAL_Driver/Src/stm32g4xx_hal_flash.c ****       prog_bit = FLASH_CR_PG;
 791              		.loc 1 195 7 is_stmt 1 view .LVU243
 792              	.LBB38:
 793              	.LBI38:
 693:Drivers/STM32G4xx_HAL_Driver/Src/stm32g4xx_hal_flash.c **** 
 694:Drivers/STM32G4xx_HAL_Driver/Src/stm32g4xx_hal_flash.c **** /**
 695:Drivers/STM32G4xx_HAL_Driver/Src/stm32g4xx_hal_flash.c ****   * @brief  Program double-word (64-bit) at a specified address.
 696:Drivers/STM32G4xx_HAL_Driver/Src/stm32g4xx_hal_flash.c ****   * @param  Address specifies the address to be programmed.
 697:Drivers/STM32G4xx_HAL_Driver/Src/stm32g4xx_hal_flash.c ****   * @param  Data specifies the data to be programmed.
 698:Drivers/STM32G4xx_HAL_Driver/Src/stm32g4xx_hal_flash.c ****   * @retval None
 699:Drivers/STM32G4xx_HAL_Driver/Src/stm32g4xx_hal_flash.c ****   */
 700:Drivers/STM32G4xx_HAL_Driver/Src/stm32g4xx_hal_flash.c **** static void FLASH_Program_DoubleWord(uint32_t Address, uint64_t Data)
 794              		.loc 1 700 13 view .LVU244
 795              	.LBB39:
 701:Drivers/STM32G4xx_HAL_Driver/Src/stm32g4xx_hal_flash.c **** {
 702:Drivers/STM32G4xx_HAL_Driver/Src/stm32g4xx_hal_flash.c ****   /* Check the parameters */
 703:Drivers/STM32G4xx_HAL_Driver/Src/stm32g4xx_hal_flash.c ****   assert_param(IS_FLASH_PROGRAM_ADDRESS(Address));
 796              		.loc 1 703 3 view .LVU245
ARM GAS  /tmp/ccaSLnfD.s 			page 30


 704:Drivers/STM32G4xx_HAL_Driver/Src/stm32g4xx_hal_flash.c **** 
 705:Drivers/STM32G4xx_HAL_Driver/Src/stm32g4xx_hal_flash.c ****   /* Set PG bit */
 706:Drivers/STM32G4xx_HAL_Driver/Src/stm32g4xx_hal_flash.c ****   SET_BIT(FLASH->CR, FLASH_CR_PG);
 797              		.loc 1 706 3 view .LVU246
 798 0048 194A     		ldr	r2, .L77+4
 799 004a 5369     		ldr	r3, [r2, #20]
 800 004c 43F00103 		orr	r3, r3, #1
 801 0050 5361     		str	r3, [r2, #20]
 707:Drivers/STM32G4xx_HAL_Driver/Src/stm32g4xx_hal_flash.c **** 
 708:Drivers/STM32G4xx_HAL_Driver/Src/stm32g4xx_hal_flash.c ****   /* Program first word */
 709:Drivers/STM32G4xx_HAL_Driver/Src/stm32g4xx_hal_flash.c ****   *(uint32_t *)Address = (uint32_t)Data;
 802              		.loc 1 709 3 view .LVU247
 803              		.loc 1 709 26 is_stmt 0 view .LVU248
 804 0052 2C60     		str	r4, [r5]
 710:Drivers/STM32G4xx_HAL_Driver/Src/stm32g4xx_hal_flash.c **** 
 711:Drivers/STM32G4xx_HAL_Driver/Src/stm32g4xx_hal_flash.c ****   /* Barrier to ensure programming is performed in 2 steps, in right order
 712:Drivers/STM32G4xx_HAL_Driver/Src/stm32g4xx_hal_flash.c ****     (independently of compiler optimization behavior) */
 713:Drivers/STM32G4xx_HAL_Driver/Src/stm32g4xx_hal_flash.c ****   __ISB();
 805              		.loc 1 713 3 is_stmt 1 view .LVU249
 806              	.LBB40:
 807              	.LBI40:
 808              		.file 2 "Drivers/CMSIS/Include/cmsis_gcc.h"
   1:Drivers/CMSIS/Include/cmsis_gcc.h **** /**************************************************************************//**
   2:Drivers/CMSIS/Include/cmsis_gcc.h ****  * @file     cmsis_gcc.h
   3:Drivers/CMSIS/Include/cmsis_gcc.h ****  * @brief    CMSIS compiler GCC header file
   4:Drivers/CMSIS/Include/cmsis_gcc.h ****  * @version  V5.2.0
   5:Drivers/CMSIS/Include/cmsis_gcc.h ****  * @date     08. May 2019
   6:Drivers/CMSIS/Include/cmsis_gcc.h ****  ******************************************************************************/
   7:Drivers/CMSIS/Include/cmsis_gcc.h **** /*
   8:Drivers/CMSIS/Include/cmsis_gcc.h ****  * Copyright (c) 2009-2019 Arm Limited. All rights reserved.
   9:Drivers/CMSIS/Include/cmsis_gcc.h ****  *
  10:Drivers/CMSIS/Include/cmsis_gcc.h ****  * SPDX-License-Identifier: Apache-2.0
  11:Drivers/CMSIS/Include/cmsis_gcc.h ****  *
  12:Drivers/CMSIS/Include/cmsis_gcc.h ****  * Licensed under the Apache License, Version 2.0 (the License); you may
  13:Drivers/CMSIS/Include/cmsis_gcc.h ****  * not use this file except in compliance with the License.
  14:Drivers/CMSIS/Include/cmsis_gcc.h ****  * You may obtain a copy of the License at
  15:Drivers/CMSIS/Include/cmsis_gcc.h ****  *
  16:Drivers/CMSIS/Include/cmsis_gcc.h ****  * www.apache.org/licenses/LICENSE-2.0
  17:Drivers/CMSIS/Include/cmsis_gcc.h ****  *
  18:Drivers/CMSIS/Include/cmsis_gcc.h ****  * Unless required by applicable law or agreed to in writing, software
  19:Drivers/CMSIS/Include/cmsis_gcc.h ****  * distributed under the License is distributed on an AS IS BASIS, WITHOUT
  20:Drivers/CMSIS/Include/cmsis_gcc.h ****  * WARRANTIES OR CONDITIONS OF ANY KIND, either express or implied.
  21:Drivers/CMSIS/Include/cmsis_gcc.h ****  * See the License for the specific language governing permissions and
  22:Drivers/CMSIS/Include/cmsis_gcc.h ****  * limitations under the License.
  23:Drivers/CMSIS/Include/cmsis_gcc.h ****  */
  24:Drivers/CMSIS/Include/cmsis_gcc.h **** 
  25:Drivers/CMSIS/Include/cmsis_gcc.h **** #ifndef __CMSIS_GCC_H
  26:Drivers/CMSIS/Include/cmsis_gcc.h **** #define __CMSIS_GCC_H
  27:Drivers/CMSIS/Include/cmsis_gcc.h **** 
  28:Drivers/CMSIS/Include/cmsis_gcc.h **** /* ignore some GCC warnings */
  29:Drivers/CMSIS/Include/cmsis_gcc.h **** #pragma GCC diagnostic push
  30:Drivers/CMSIS/Include/cmsis_gcc.h **** #pragma GCC diagnostic ignored "-Wsign-conversion"
  31:Drivers/CMSIS/Include/cmsis_gcc.h **** #pragma GCC diagnostic ignored "-Wconversion"
  32:Drivers/CMSIS/Include/cmsis_gcc.h **** #pragma GCC diagnostic ignored "-Wunused-parameter"
  33:Drivers/CMSIS/Include/cmsis_gcc.h **** 
  34:Drivers/CMSIS/Include/cmsis_gcc.h **** /* Fallback for __has_builtin */
  35:Drivers/CMSIS/Include/cmsis_gcc.h **** #ifndef __has_builtin
ARM GAS  /tmp/ccaSLnfD.s 			page 31


  36:Drivers/CMSIS/Include/cmsis_gcc.h ****   #define __has_builtin(x) (0)
  37:Drivers/CMSIS/Include/cmsis_gcc.h **** #endif
  38:Drivers/CMSIS/Include/cmsis_gcc.h **** 
  39:Drivers/CMSIS/Include/cmsis_gcc.h **** /* CMSIS compiler specific defines */
  40:Drivers/CMSIS/Include/cmsis_gcc.h **** #ifndef   __ASM
  41:Drivers/CMSIS/Include/cmsis_gcc.h ****   #define __ASM                                  __asm
  42:Drivers/CMSIS/Include/cmsis_gcc.h **** #endif
  43:Drivers/CMSIS/Include/cmsis_gcc.h **** #ifndef   __INLINE
  44:Drivers/CMSIS/Include/cmsis_gcc.h ****   #define __INLINE                               inline
  45:Drivers/CMSIS/Include/cmsis_gcc.h **** #endif
  46:Drivers/CMSIS/Include/cmsis_gcc.h **** #ifndef   __STATIC_INLINE
  47:Drivers/CMSIS/Include/cmsis_gcc.h ****   #define __STATIC_INLINE                        static inline
  48:Drivers/CMSIS/Include/cmsis_gcc.h **** #endif
  49:Drivers/CMSIS/Include/cmsis_gcc.h **** #ifndef   __STATIC_FORCEINLINE                 
  50:Drivers/CMSIS/Include/cmsis_gcc.h ****   #define __STATIC_FORCEINLINE                   __attribute__((always_inline)) static inline
  51:Drivers/CMSIS/Include/cmsis_gcc.h **** #endif                                           
  52:Drivers/CMSIS/Include/cmsis_gcc.h **** #ifndef   __NO_RETURN
  53:Drivers/CMSIS/Include/cmsis_gcc.h ****   #define __NO_RETURN                            __attribute__((__noreturn__))
  54:Drivers/CMSIS/Include/cmsis_gcc.h **** #endif
  55:Drivers/CMSIS/Include/cmsis_gcc.h **** #ifndef   __USED
  56:Drivers/CMSIS/Include/cmsis_gcc.h ****   #define __USED                                 __attribute__((used))
  57:Drivers/CMSIS/Include/cmsis_gcc.h **** #endif
  58:Drivers/CMSIS/Include/cmsis_gcc.h **** #ifndef   __WEAK
  59:Drivers/CMSIS/Include/cmsis_gcc.h ****   #define __WEAK                                 __attribute__((weak))
  60:Drivers/CMSIS/Include/cmsis_gcc.h **** #endif
  61:Drivers/CMSIS/Include/cmsis_gcc.h **** #ifndef   __PACKED
  62:Drivers/CMSIS/Include/cmsis_gcc.h ****   #define __PACKED                               __attribute__((packed, aligned(1)))
  63:Drivers/CMSIS/Include/cmsis_gcc.h **** #endif
  64:Drivers/CMSIS/Include/cmsis_gcc.h **** #ifndef   __PACKED_STRUCT
  65:Drivers/CMSIS/Include/cmsis_gcc.h ****   #define __PACKED_STRUCT                        struct __attribute__((packed, aligned(1)))
  66:Drivers/CMSIS/Include/cmsis_gcc.h **** #endif
  67:Drivers/CMSIS/Include/cmsis_gcc.h **** #ifndef   __PACKED_UNION
  68:Drivers/CMSIS/Include/cmsis_gcc.h ****   #define __PACKED_UNION                         union __attribute__((packed, aligned(1)))
  69:Drivers/CMSIS/Include/cmsis_gcc.h **** #endif
  70:Drivers/CMSIS/Include/cmsis_gcc.h **** #ifndef   __UNALIGNED_UINT32        /* deprecated */
  71:Drivers/CMSIS/Include/cmsis_gcc.h ****   #pragma GCC diagnostic push
  72:Drivers/CMSIS/Include/cmsis_gcc.h ****   #pragma GCC diagnostic ignored "-Wpacked"
  73:Drivers/CMSIS/Include/cmsis_gcc.h ****   #pragma GCC diagnostic ignored "-Wattributes"
  74:Drivers/CMSIS/Include/cmsis_gcc.h ****   struct __attribute__((packed)) T_UINT32 { uint32_t v; };
  75:Drivers/CMSIS/Include/cmsis_gcc.h ****   #pragma GCC diagnostic pop
  76:Drivers/CMSIS/Include/cmsis_gcc.h ****   #define __UNALIGNED_UINT32(x)                  (((struct T_UINT32 *)(x))->v)
  77:Drivers/CMSIS/Include/cmsis_gcc.h **** #endif
  78:Drivers/CMSIS/Include/cmsis_gcc.h **** #ifndef   __UNALIGNED_UINT16_WRITE
  79:Drivers/CMSIS/Include/cmsis_gcc.h ****   #pragma GCC diagnostic push
  80:Drivers/CMSIS/Include/cmsis_gcc.h ****   #pragma GCC diagnostic ignored "-Wpacked"
  81:Drivers/CMSIS/Include/cmsis_gcc.h ****   #pragma GCC diagnostic ignored "-Wattributes"
  82:Drivers/CMSIS/Include/cmsis_gcc.h ****   __PACKED_STRUCT T_UINT16_WRITE { uint16_t v; };
  83:Drivers/CMSIS/Include/cmsis_gcc.h ****   #pragma GCC diagnostic pop
  84:Drivers/CMSIS/Include/cmsis_gcc.h ****   #define __UNALIGNED_UINT16_WRITE(addr, val)    (void)((((struct T_UINT16_WRITE *)(void *)(addr))-
  85:Drivers/CMSIS/Include/cmsis_gcc.h **** #endif
  86:Drivers/CMSIS/Include/cmsis_gcc.h **** #ifndef   __UNALIGNED_UINT16_READ
  87:Drivers/CMSIS/Include/cmsis_gcc.h ****   #pragma GCC diagnostic push
  88:Drivers/CMSIS/Include/cmsis_gcc.h ****   #pragma GCC diagnostic ignored "-Wpacked"
  89:Drivers/CMSIS/Include/cmsis_gcc.h ****   #pragma GCC diagnostic ignored "-Wattributes"
  90:Drivers/CMSIS/Include/cmsis_gcc.h ****   __PACKED_STRUCT T_UINT16_READ { uint16_t v; };
  91:Drivers/CMSIS/Include/cmsis_gcc.h ****   #pragma GCC diagnostic pop
  92:Drivers/CMSIS/Include/cmsis_gcc.h ****   #define __UNALIGNED_UINT16_READ(addr)          (((const struct T_UINT16_READ *)(const void *)(add
ARM GAS  /tmp/ccaSLnfD.s 			page 32


  93:Drivers/CMSIS/Include/cmsis_gcc.h **** #endif
  94:Drivers/CMSIS/Include/cmsis_gcc.h **** #ifndef   __UNALIGNED_UINT32_WRITE
  95:Drivers/CMSIS/Include/cmsis_gcc.h ****   #pragma GCC diagnostic push
  96:Drivers/CMSIS/Include/cmsis_gcc.h ****   #pragma GCC diagnostic ignored "-Wpacked"
  97:Drivers/CMSIS/Include/cmsis_gcc.h ****   #pragma GCC diagnostic ignored "-Wattributes"
  98:Drivers/CMSIS/Include/cmsis_gcc.h ****   __PACKED_STRUCT T_UINT32_WRITE { uint32_t v; };
  99:Drivers/CMSIS/Include/cmsis_gcc.h ****   #pragma GCC diagnostic pop
 100:Drivers/CMSIS/Include/cmsis_gcc.h ****   #define __UNALIGNED_UINT32_WRITE(addr, val)    (void)((((struct T_UINT32_WRITE *)(void *)(addr))-
 101:Drivers/CMSIS/Include/cmsis_gcc.h **** #endif
 102:Drivers/CMSIS/Include/cmsis_gcc.h **** #ifndef   __UNALIGNED_UINT32_READ
 103:Drivers/CMSIS/Include/cmsis_gcc.h ****   #pragma GCC diagnostic push
 104:Drivers/CMSIS/Include/cmsis_gcc.h ****   #pragma GCC diagnostic ignored "-Wpacked"
 105:Drivers/CMSIS/Include/cmsis_gcc.h ****   #pragma GCC diagnostic ignored "-Wattributes"
 106:Drivers/CMSIS/Include/cmsis_gcc.h ****   __PACKED_STRUCT T_UINT32_READ { uint32_t v; };
 107:Drivers/CMSIS/Include/cmsis_gcc.h ****   #pragma GCC diagnostic pop
 108:Drivers/CMSIS/Include/cmsis_gcc.h ****   #define __UNALIGNED_UINT32_READ(addr)          (((const struct T_UINT32_READ *)(const void *)(add
 109:Drivers/CMSIS/Include/cmsis_gcc.h **** #endif
 110:Drivers/CMSIS/Include/cmsis_gcc.h **** #ifndef   __ALIGNED
 111:Drivers/CMSIS/Include/cmsis_gcc.h ****   #define __ALIGNED(x)                           __attribute__((aligned(x)))
 112:Drivers/CMSIS/Include/cmsis_gcc.h **** #endif
 113:Drivers/CMSIS/Include/cmsis_gcc.h **** #ifndef   __RESTRICT
 114:Drivers/CMSIS/Include/cmsis_gcc.h ****   #define __RESTRICT                             __restrict
 115:Drivers/CMSIS/Include/cmsis_gcc.h **** #endif
 116:Drivers/CMSIS/Include/cmsis_gcc.h **** #ifndef   __COMPILER_BARRIER
 117:Drivers/CMSIS/Include/cmsis_gcc.h ****   #define __COMPILER_BARRIER()                   __ASM volatile("":::"memory")
 118:Drivers/CMSIS/Include/cmsis_gcc.h **** #endif
 119:Drivers/CMSIS/Include/cmsis_gcc.h **** 
 120:Drivers/CMSIS/Include/cmsis_gcc.h **** /* #########################  Startup and Lowlevel Init  ######################## */
 121:Drivers/CMSIS/Include/cmsis_gcc.h **** 
 122:Drivers/CMSIS/Include/cmsis_gcc.h **** #ifndef __PROGRAM_START
 123:Drivers/CMSIS/Include/cmsis_gcc.h **** 
 124:Drivers/CMSIS/Include/cmsis_gcc.h **** /**
 125:Drivers/CMSIS/Include/cmsis_gcc.h ****   \brief   Initializes data and bss sections
 126:Drivers/CMSIS/Include/cmsis_gcc.h ****   \details This default implementations initialized all data and additional bss
 127:Drivers/CMSIS/Include/cmsis_gcc.h ****            sections relying on .copy.table and .zero.table specified properly
 128:Drivers/CMSIS/Include/cmsis_gcc.h ****            in the used linker script.
 129:Drivers/CMSIS/Include/cmsis_gcc.h ****   
 130:Drivers/CMSIS/Include/cmsis_gcc.h ****  */
 131:Drivers/CMSIS/Include/cmsis_gcc.h **** __STATIC_FORCEINLINE __NO_RETURN void __cmsis_start(void)
 132:Drivers/CMSIS/Include/cmsis_gcc.h **** {
 133:Drivers/CMSIS/Include/cmsis_gcc.h ****   extern void _start(void) __NO_RETURN;
 134:Drivers/CMSIS/Include/cmsis_gcc.h ****   
 135:Drivers/CMSIS/Include/cmsis_gcc.h ****   typedef struct {
 136:Drivers/CMSIS/Include/cmsis_gcc.h ****     uint32_t const* src;
 137:Drivers/CMSIS/Include/cmsis_gcc.h ****     uint32_t* dest;
 138:Drivers/CMSIS/Include/cmsis_gcc.h ****     uint32_t  wlen;
 139:Drivers/CMSIS/Include/cmsis_gcc.h ****   } __copy_table_t;
 140:Drivers/CMSIS/Include/cmsis_gcc.h ****   
 141:Drivers/CMSIS/Include/cmsis_gcc.h ****   typedef struct {
 142:Drivers/CMSIS/Include/cmsis_gcc.h ****     uint32_t* dest;
 143:Drivers/CMSIS/Include/cmsis_gcc.h ****     uint32_t  wlen;
 144:Drivers/CMSIS/Include/cmsis_gcc.h ****   } __zero_table_t;
 145:Drivers/CMSIS/Include/cmsis_gcc.h ****   
 146:Drivers/CMSIS/Include/cmsis_gcc.h ****   extern const __copy_table_t __copy_table_start__;
 147:Drivers/CMSIS/Include/cmsis_gcc.h ****   extern const __copy_table_t __copy_table_end__;
 148:Drivers/CMSIS/Include/cmsis_gcc.h ****   extern const __zero_table_t __zero_table_start__;
 149:Drivers/CMSIS/Include/cmsis_gcc.h ****   extern const __zero_table_t __zero_table_end__;
ARM GAS  /tmp/ccaSLnfD.s 			page 33


 150:Drivers/CMSIS/Include/cmsis_gcc.h **** 
 151:Drivers/CMSIS/Include/cmsis_gcc.h ****   for (__copy_table_t const* pTable = &__copy_table_start__; pTable < &__copy_table_end__; ++pTable
 152:Drivers/CMSIS/Include/cmsis_gcc.h ****     for(uint32_t i=0u; i<pTable->wlen; ++i) {
 153:Drivers/CMSIS/Include/cmsis_gcc.h ****       pTable->dest[i] = pTable->src[i];
 154:Drivers/CMSIS/Include/cmsis_gcc.h ****     }
 155:Drivers/CMSIS/Include/cmsis_gcc.h ****   }
 156:Drivers/CMSIS/Include/cmsis_gcc.h ****  
 157:Drivers/CMSIS/Include/cmsis_gcc.h ****   for (__zero_table_t const* pTable = &__zero_table_start__; pTable < &__zero_table_end__; ++pTable
 158:Drivers/CMSIS/Include/cmsis_gcc.h ****     for(uint32_t i=0u; i<pTable->wlen; ++i) {
 159:Drivers/CMSIS/Include/cmsis_gcc.h ****       pTable->dest[i] = 0u;
 160:Drivers/CMSIS/Include/cmsis_gcc.h ****     }
 161:Drivers/CMSIS/Include/cmsis_gcc.h ****   }
 162:Drivers/CMSIS/Include/cmsis_gcc.h ****  
 163:Drivers/CMSIS/Include/cmsis_gcc.h ****   _start();
 164:Drivers/CMSIS/Include/cmsis_gcc.h **** }
 165:Drivers/CMSIS/Include/cmsis_gcc.h ****   
 166:Drivers/CMSIS/Include/cmsis_gcc.h **** #define __PROGRAM_START           __cmsis_start
 167:Drivers/CMSIS/Include/cmsis_gcc.h **** #endif
 168:Drivers/CMSIS/Include/cmsis_gcc.h **** 
 169:Drivers/CMSIS/Include/cmsis_gcc.h **** #ifndef __INITIAL_SP
 170:Drivers/CMSIS/Include/cmsis_gcc.h **** #define __INITIAL_SP              __StackTop
 171:Drivers/CMSIS/Include/cmsis_gcc.h **** #endif
 172:Drivers/CMSIS/Include/cmsis_gcc.h **** 
 173:Drivers/CMSIS/Include/cmsis_gcc.h **** #ifndef __STACK_LIMIT
 174:Drivers/CMSIS/Include/cmsis_gcc.h **** #define __STACK_LIMIT             __StackLimit
 175:Drivers/CMSIS/Include/cmsis_gcc.h **** #endif
 176:Drivers/CMSIS/Include/cmsis_gcc.h **** 
 177:Drivers/CMSIS/Include/cmsis_gcc.h **** #ifndef __VECTOR_TABLE
 178:Drivers/CMSIS/Include/cmsis_gcc.h **** #define __VECTOR_TABLE            __Vectors
 179:Drivers/CMSIS/Include/cmsis_gcc.h **** #endif
 180:Drivers/CMSIS/Include/cmsis_gcc.h **** 
 181:Drivers/CMSIS/Include/cmsis_gcc.h **** #ifndef __VECTOR_TABLE_ATTRIBUTE
 182:Drivers/CMSIS/Include/cmsis_gcc.h **** #define __VECTOR_TABLE_ATTRIBUTE  __attribute((used, section(".vectors")))
 183:Drivers/CMSIS/Include/cmsis_gcc.h **** #endif
 184:Drivers/CMSIS/Include/cmsis_gcc.h **** 
 185:Drivers/CMSIS/Include/cmsis_gcc.h **** /* ###########################  Core Function Access  ########################### */
 186:Drivers/CMSIS/Include/cmsis_gcc.h **** /** \ingroup  CMSIS_Core_FunctionInterface
 187:Drivers/CMSIS/Include/cmsis_gcc.h ****     \defgroup CMSIS_Core_RegAccFunctions CMSIS Core Register Access Functions
 188:Drivers/CMSIS/Include/cmsis_gcc.h ****   @{
 189:Drivers/CMSIS/Include/cmsis_gcc.h ****  */
 190:Drivers/CMSIS/Include/cmsis_gcc.h **** 
 191:Drivers/CMSIS/Include/cmsis_gcc.h **** /**
 192:Drivers/CMSIS/Include/cmsis_gcc.h ****   \brief   Enable IRQ Interrupts
 193:Drivers/CMSIS/Include/cmsis_gcc.h ****   \details Enables IRQ interrupts by clearing the I-bit in the CPSR.
 194:Drivers/CMSIS/Include/cmsis_gcc.h ****            Can only be executed in Privileged modes.
 195:Drivers/CMSIS/Include/cmsis_gcc.h ****  */
 196:Drivers/CMSIS/Include/cmsis_gcc.h **** __STATIC_FORCEINLINE void __enable_irq(void)
 197:Drivers/CMSIS/Include/cmsis_gcc.h **** {
 198:Drivers/CMSIS/Include/cmsis_gcc.h ****   __ASM volatile ("cpsie i" : : : "memory");
 199:Drivers/CMSIS/Include/cmsis_gcc.h **** }
 200:Drivers/CMSIS/Include/cmsis_gcc.h **** 
 201:Drivers/CMSIS/Include/cmsis_gcc.h **** 
 202:Drivers/CMSIS/Include/cmsis_gcc.h **** /**
 203:Drivers/CMSIS/Include/cmsis_gcc.h ****   \brief   Disable IRQ Interrupts
 204:Drivers/CMSIS/Include/cmsis_gcc.h ****   \details Disables IRQ interrupts by setting the I-bit in the CPSR.
 205:Drivers/CMSIS/Include/cmsis_gcc.h ****            Can only be executed in Privileged modes.
 206:Drivers/CMSIS/Include/cmsis_gcc.h ****  */
ARM GAS  /tmp/ccaSLnfD.s 			page 34


 207:Drivers/CMSIS/Include/cmsis_gcc.h **** __STATIC_FORCEINLINE void __disable_irq(void)
 208:Drivers/CMSIS/Include/cmsis_gcc.h **** {
 209:Drivers/CMSIS/Include/cmsis_gcc.h ****   __ASM volatile ("cpsid i" : : : "memory");
 210:Drivers/CMSIS/Include/cmsis_gcc.h **** }
 211:Drivers/CMSIS/Include/cmsis_gcc.h **** 
 212:Drivers/CMSIS/Include/cmsis_gcc.h **** 
 213:Drivers/CMSIS/Include/cmsis_gcc.h **** /**
 214:Drivers/CMSIS/Include/cmsis_gcc.h ****   \brief   Get Control Register
 215:Drivers/CMSIS/Include/cmsis_gcc.h ****   \details Returns the content of the Control Register.
 216:Drivers/CMSIS/Include/cmsis_gcc.h ****   \return               Control Register value
 217:Drivers/CMSIS/Include/cmsis_gcc.h ****  */
 218:Drivers/CMSIS/Include/cmsis_gcc.h **** __STATIC_FORCEINLINE uint32_t __get_CONTROL(void)
 219:Drivers/CMSIS/Include/cmsis_gcc.h **** {
 220:Drivers/CMSIS/Include/cmsis_gcc.h ****   uint32_t result;
 221:Drivers/CMSIS/Include/cmsis_gcc.h **** 
 222:Drivers/CMSIS/Include/cmsis_gcc.h ****   __ASM volatile ("MRS %0, control" : "=r" (result) );
 223:Drivers/CMSIS/Include/cmsis_gcc.h ****   return(result);
 224:Drivers/CMSIS/Include/cmsis_gcc.h **** }
 225:Drivers/CMSIS/Include/cmsis_gcc.h **** 
 226:Drivers/CMSIS/Include/cmsis_gcc.h **** 
 227:Drivers/CMSIS/Include/cmsis_gcc.h **** #if (defined (__ARM_FEATURE_CMSE ) && (__ARM_FEATURE_CMSE == 3))
 228:Drivers/CMSIS/Include/cmsis_gcc.h **** /**
 229:Drivers/CMSIS/Include/cmsis_gcc.h ****   \brief   Get Control Register (non-secure)
 230:Drivers/CMSIS/Include/cmsis_gcc.h ****   \details Returns the content of the non-secure Control Register when in secure mode.
 231:Drivers/CMSIS/Include/cmsis_gcc.h ****   \return               non-secure Control Register value
 232:Drivers/CMSIS/Include/cmsis_gcc.h ****  */
 233:Drivers/CMSIS/Include/cmsis_gcc.h **** __STATIC_FORCEINLINE uint32_t __TZ_get_CONTROL_NS(void)
 234:Drivers/CMSIS/Include/cmsis_gcc.h **** {
 235:Drivers/CMSIS/Include/cmsis_gcc.h ****   uint32_t result;
 236:Drivers/CMSIS/Include/cmsis_gcc.h **** 
 237:Drivers/CMSIS/Include/cmsis_gcc.h ****   __ASM volatile ("MRS %0, control_ns" : "=r" (result) );
 238:Drivers/CMSIS/Include/cmsis_gcc.h ****   return(result);
 239:Drivers/CMSIS/Include/cmsis_gcc.h **** }
 240:Drivers/CMSIS/Include/cmsis_gcc.h **** #endif
 241:Drivers/CMSIS/Include/cmsis_gcc.h **** 
 242:Drivers/CMSIS/Include/cmsis_gcc.h **** 
 243:Drivers/CMSIS/Include/cmsis_gcc.h **** /**
 244:Drivers/CMSIS/Include/cmsis_gcc.h ****   \brief   Set Control Register
 245:Drivers/CMSIS/Include/cmsis_gcc.h ****   \details Writes the given value to the Control Register.
 246:Drivers/CMSIS/Include/cmsis_gcc.h ****   \param [in]    control  Control Register value to set
 247:Drivers/CMSIS/Include/cmsis_gcc.h ****  */
 248:Drivers/CMSIS/Include/cmsis_gcc.h **** __STATIC_FORCEINLINE void __set_CONTROL(uint32_t control)
 249:Drivers/CMSIS/Include/cmsis_gcc.h **** {
 250:Drivers/CMSIS/Include/cmsis_gcc.h ****   __ASM volatile ("MSR control, %0" : : "r" (control) : "memory");
 251:Drivers/CMSIS/Include/cmsis_gcc.h **** }
 252:Drivers/CMSIS/Include/cmsis_gcc.h **** 
 253:Drivers/CMSIS/Include/cmsis_gcc.h **** 
 254:Drivers/CMSIS/Include/cmsis_gcc.h **** #if (defined (__ARM_FEATURE_CMSE ) && (__ARM_FEATURE_CMSE == 3))
 255:Drivers/CMSIS/Include/cmsis_gcc.h **** /**
 256:Drivers/CMSIS/Include/cmsis_gcc.h ****   \brief   Set Control Register (non-secure)
 257:Drivers/CMSIS/Include/cmsis_gcc.h ****   \details Writes the given value to the non-secure Control Register when in secure state.
 258:Drivers/CMSIS/Include/cmsis_gcc.h ****   \param [in]    control  Control Register value to set
 259:Drivers/CMSIS/Include/cmsis_gcc.h ****  */
 260:Drivers/CMSIS/Include/cmsis_gcc.h **** __STATIC_FORCEINLINE void __TZ_set_CONTROL_NS(uint32_t control)
 261:Drivers/CMSIS/Include/cmsis_gcc.h **** {
 262:Drivers/CMSIS/Include/cmsis_gcc.h ****   __ASM volatile ("MSR control_ns, %0" : : "r" (control) : "memory");
 263:Drivers/CMSIS/Include/cmsis_gcc.h **** }
ARM GAS  /tmp/ccaSLnfD.s 			page 35


 264:Drivers/CMSIS/Include/cmsis_gcc.h **** #endif
 265:Drivers/CMSIS/Include/cmsis_gcc.h **** 
 266:Drivers/CMSIS/Include/cmsis_gcc.h **** 
 267:Drivers/CMSIS/Include/cmsis_gcc.h **** /**
 268:Drivers/CMSIS/Include/cmsis_gcc.h ****   \brief   Get IPSR Register
 269:Drivers/CMSIS/Include/cmsis_gcc.h ****   \details Returns the content of the IPSR Register.
 270:Drivers/CMSIS/Include/cmsis_gcc.h ****   \return               IPSR Register value
 271:Drivers/CMSIS/Include/cmsis_gcc.h ****  */
 272:Drivers/CMSIS/Include/cmsis_gcc.h **** __STATIC_FORCEINLINE uint32_t __get_IPSR(void)
 273:Drivers/CMSIS/Include/cmsis_gcc.h **** {
 274:Drivers/CMSIS/Include/cmsis_gcc.h ****   uint32_t result;
 275:Drivers/CMSIS/Include/cmsis_gcc.h **** 
 276:Drivers/CMSIS/Include/cmsis_gcc.h ****   __ASM volatile ("MRS %0, ipsr" : "=r" (result) );
 277:Drivers/CMSIS/Include/cmsis_gcc.h ****   return(result);
 278:Drivers/CMSIS/Include/cmsis_gcc.h **** }
 279:Drivers/CMSIS/Include/cmsis_gcc.h **** 
 280:Drivers/CMSIS/Include/cmsis_gcc.h **** 
 281:Drivers/CMSIS/Include/cmsis_gcc.h **** /**
 282:Drivers/CMSIS/Include/cmsis_gcc.h ****   \brief   Get APSR Register
 283:Drivers/CMSIS/Include/cmsis_gcc.h ****   \details Returns the content of the APSR Register.
 284:Drivers/CMSIS/Include/cmsis_gcc.h ****   \return               APSR Register value
 285:Drivers/CMSIS/Include/cmsis_gcc.h ****  */
 286:Drivers/CMSIS/Include/cmsis_gcc.h **** __STATIC_FORCEINLINE uint32_t __get_APSR(void)
 287:Drivers/CMSIS/Include/cmsis_gcc.h **** {
 288:Drivers/CMSIS/Include/cmsis_gcc.h ****   uint32_t result;
 289:Drivers/CMSIS/Include/cmsis_gcc.h **** 
 290:Drivers/CMSIS/Include/cmsis_gcc.h ****   __ASM volatile ("MRS %0, apsr" : "=r" (result) );
 291:Drivers/CMSIS/Include/cmsis_gcc.h ****   return(result);
 292:Drivers/CMSIS/Include/cmsis_gcc.h **** }
 293:Drivers/CMSIS/Include/cmsis_gcc.h **** 
 294:Drivers/CMSIS/Include/cmsis_gcc.h **** 
 295:Drivers/CMSIS/Include/cmsis_gcc.h **** /**
 296:Drivers/CMSIS/Include/cmsis_gcc.h ****   \brief   Get xPSR Register
 297:Drivers/CMSIS/Include/cmsis_gcc.h ****   \details Returns the content of the xPSR Register.
 298:Drivers/CMSIS/Include/cmsis_gcc.h ****   \return               xPSR Register value
 299:Drivers/CMSIS/Include/cmsis_gcc.h ****  */
 300:Drivers/CMSIS/Include/cmsis_gcc.h **** __STATIC_FORCEINLINE uint32_t __get_xPSR(void)
 301:Drivers/CMSIS/Include/cmsis_gcc.h **** {
 302:Drivers/CMSIS/Include/cmsis_gcc.h ****   uint32_t result;
 303:Drivers/CMSIS/Include/cmsis_gcc.h **** 
 304:Drivers/CMSIS/Include/cmsis_gcc.h ****   __ASM volatile ("MRS %0, xpsr" : "=r" (result) );
 305:Drivers/CMSIS/Include/cmsis_gcc.h ****   return(result);
 306:Drivers/CMSIS/Include/cmsis_gcc.h **** }
 307:Drivers/CMSIS/Include/cmsis_gcc.h **** 
 308:Drivers/CMSIS/Include/cmsis_gcc.h **** 
 309:Drivers/CMSIS/Include/cmsis_gcc.h **** /**
 310:Drivers/CMSIS/Include/cmsis_gcc.h ****   \brief   Get Process Stack Pointer
 311:Drivers/CMSIS/Include/cmsis_gcc.h ****   \details Returns the current value of the Process Stack Pointer (PSP).
 312:Drivers/CMSIS/Include/cmsis_gcc.h ****   \return               PSP Register value
 313:Drivers/CMSIS/Include/cmsis_gcc.h ****  */
 314:Drivers/CMSIS/Include/cmsis_gcc.h **** __STATIC_FORCEINLINE uint32_t __get_PSP(void)
 315:Drivers/CMSIS/Include/cmsis_gcc.h **** {
 316:Drivers/CMSIS/Include/cmsis_gcc.h ****   uint32_t result;
 317:Drivers/CMSIS/Include/cmsis_gcc.h **** 
 318:Drivers/CMSIS/Include/cmsis_gcc.h ****   __ASM volatile ("MRS %0, psp"  : "=r" (result) );
 319:Drivers/CMSIS/Include/cmsis_gcc.h ****   return(result);
 320:Drivers/CMSIS/Include/cmsis_gcc.h **** }
ARM GAS  /tmp/ccaSLnfD.s 			page 36


 321:Drivers/CMSIS/Include/cmsis_gcc.h **** 
 322:Drivers/CMSIS/Include/cmsis_gcc.h **** 
 323:Drivers/CMSIS/Include/cmsis_gcc.h **** #if (defined (__ARM_FEATURE_CMSE ) && (__ARM_FEATURE_CMSE == 3))
 324:Drivers/CMSIS/Include/cmsis_gcc.h **** /**
 325:Drivers/CMSIS/Include/cmsis_gcc.h ****   \brief   Get Process Stack Pointer (non-secure)
 326:Drivers/CMSIS/Include/cmsis_gcc.h ****   \details Returns the current value of the non-secure Process Stack Pointer (PSP) when in secure s
 327:Drivers/CMSIS/Include/cmsis_gcc.h ****   \return               PSP Register value
 328:Drivers/CMSIS/Include/cmsis_gcc.h ****  */
 329:Drivers/CMSIS/Include/cmsis_gcc.h **** __STATIC_FORCEINLINE uint32_t __TZ_get_PSP_NS(void)
 330:Drivers/CMSIS/Include/cmsis_gcc.h **** {
 331:Drivers/CMSIS/Include/cmsis_gcc.h ****   uint32_t result;
 332:Drivers/CMSIS/Include/cmsis_gcc.h **** 
 333:Drivers/CMSIS/Include/cmsis_gcc.h ****   __ASM volatile ("MRS %0, psp_ns"  : "=r" (result) );
 334:Drivers/CMSIS/Include/cmsis_gcc.h ****   return(result);
 335:Drivers/CMSIS/Include/cmsis_gcc.h **** }
 336:Drivers/CMSIS/Include/cmsis_gcc.h **** #endif
 337:Drivers/CMSIS/Include/cmsis_gcc.h **** 
 338:Drivers/CMSIS/Include/cmsis_gcc.h **** 
 339:Drivers/CMSIS/Include/cmsis_gcc.h **** /**
 340:Drivers/CMSIS/Include/cmsis_gcc.h ****   \brief   Set Process Stack Pointer
 341:Drivers/CMSIS/Include/cmsis_gcc.h ****   \details Assigns the given value to the Process Stack Pointer (PSP).
 342:Drivers/CMSIS/Include/cmsis_gcc.h ****   \param [in]    topOfProcStack  Process Stack Pointer value to set
 343:Drivers/CMSIS/Include/cmsis_gcc.h ****  */
 344:Drivers/CMSIS/Include/cmsis_gcc.h **** __STATIC_FORCEINLINE void __set_PSP(uint32_t topOfProcStack)
 345:Drivers/CMSIS/Include/cmsis_gcc.h **** {
 346:Drivers/CMSIS/Include/cmsis_gcc.h ****   __ASM volatile ("MSR psp, %0" : : "r" (topOfProcStack) : );
 347:Drivers/CMSIS/Include/cmsis_gcc.h **** }
 348:Drivers/CMSIS/Include/cmsis_gcc.h **** 
 349:Drivers/CMSIS/Include/cmsis_gcc.h **** 
 350:Drivers/CMSIS/Include/cmsis_gcc.h **** #if (defined (__ARM_FEATURE_CMSE ) && (__ARM_FEATURE_CMSE == 3))
 351:Drivers/CMSIS/Include/cmsis_gcc.h **** /**
 352:Drivers/CMSIS/Include/cmsis_gcc.h ****   \brief   Set Process Stack Pointer (non-secure)
 353:Drivers/CMSIS/Include/cmsis_gcc.h ****   \details Assigns the given value to the non-secure Process Stack Pointer (PSP) when in secure sta
 354:Drivers/CMSIS/Include/cmsis_gcc.h ****   \param [in]    topOfProcStack  Process Stack Pointer value to set
 355:Drivers/CMSIS/Include/cmsis_gcc.h ****  */
 356:Drivers/CMSIS/Include/cmsis_gcc.h **** __STATIC_FORCEINLINE void __TZ_set_PSP_NS(uint32_t topOfProcStack)
 357:Drivers/CMSIS/Include/cmsis_gcc.h **** {
 358:Drivers/CMSIS/Include/cmsis_gcc.h ****   __ASM volatile ("MSR psp_ns, %0" : : "r" (topOfProcStack) : );
 359:Drivers/CMSIS/Include/cmsis_gcc.h **** }
 360:Drivers/CMSIS/Include/cmsis_gcc.h **** #endif
 361:Drivers/CMSIS/Include/cmsis_gcc.h **** 
 362:Drivers/CMSIS/Include/cmsis_gcc.h **** 
 363:Drivers/CMSIS/Include/cmsis_gcc.h **** /**
 364:Drivers/CMSIS/Include/cmsis_gcc.h ****   \brief   Get Main Stack Pointer
 365:Drivers/CMSIS/Include/cmsis_gcc.h ****   \details Returns the current value of the Main Stack Pointer (MSP).
 366:Drivers/CMSIS/Include/cmsis_gcc.h ****   \return               MSP Register value
 367:Drivers/CMSIS/Include/cmsis_gcc.h ****  */
 368:Drivers/CMSIS/Include/cmsis_gcc.h **** __STATIC_FORCEINLINE uint32_t __get_MSP(void)
 369:Drivers/CMSIS/Include/cmsis_gcc.h **** {
 370:Drivers/CMSIS/Include/cmsis_gcc.h ****   uint32_t result;
 371:Drivers/CMSIS/Include/cmsis_gcc.h **** 
 372:Drivers/CMSIS/Include/cmsis_gcc.h ****   __ASM volatile ("MRS %0, msp" : "=r" (result) );
 373:Drivers/CMSIS/Include/cmsis_gcc.h ****   return(result);
 374:Drivers/CMSIS/Include/cmsis_gcc.h **** }
 375:Drivers/CMSIS/Include/cmsis_gcc.h **** 
 376:Drivers/CMSIS/Include/cmsis_gcc.h **** 
 377:Drivers/CMSIS/Include/cmsis_gcc.h **** #if (defined (__ARM_FEATURE_CMSE ) && (__ARM_FEATURE_CMSE == 3))
ARM GAS  /tmp/ccaSLnfD.s 			page 37


 378:Drivers/CMSIS/Include/cmsis_gcc.h **** /**
 379:Drivers/CMSIS/Include/cmsis_gcc.h ****   \brief   Get Main Stack Pointer (non-secure)
 380:Drivers/CMSIS/Include/cmsis_gcc.h ****   \details Returns the current value of the non-secure Main Stack Pointer (MSP) when in secure stat
 381:Drivers/CMSIS/Include/cmsis_gcc.h ****   \return               MSP Register value
 382:Drivers/CMSIS/Include/cmsis_gcc.h ****  */
 383:Drivers/CMSIS/Include/cmsis_gcc.h **** __STATIC_FORCEINLINE uint32_t __TZ_get_MSP_NS(void)
 384:Drivers/CMSIS/Include/cmsis_gcc.h **** {
 385:Drivers/CMSIS/Include/cmsis_gcc.h ****   uint32_t result;
 386:Drivers/CMSIS/Include/cmsis_gcc.h **** 
 387:Drivers/CMSIS/Include/cmsis_gcc.h ****   __ASM volatile ("MRS %0, msp_ns" : "=r" (result) );
 388:Drivers/CMSIS/Include/cmsis_gcc.h ****   return(result);
 389:Drivers/CMSIS/Include/cmsis_gcc.h **** }
 390:Drivers/CMSIS/Include/cmsis_gcc.h **** #endif
 391:Drivers/CMSIS/Include/cmsis_gcc.h **** 
 392:Drivers/CMSIS/Include/cmsis_gcc.h **** 
 393:Drivers/CMSIS/Include/cmsis_gcc.h **** /**
 394:Drivers/CMSIS/Include/cmsis_gcc.h ****   \brief   Set Main Stack Pointer
 395:Drivers/CMSIS/Include/cmsis_gcc.h ****   \details Assigns the given value to the Main Stack Pointer (MSP).
 396:Drivers/CMSIS/Include/cmsis_gcc.h ****   \param [in]    topOfMainStack  Main Stack Pointer value to set
 397:Drivers/CMSIS/Include/cmsis_gcc.h ****  */
 398:Drivers/CMSIS/Include/cmsis_gcc.h **** __STATIC_FORCEINLINE void __set_MSP(uint32_t topOfMainStack)
 399:Drivers/CMSIS/Include/cmsis_gcc.h **** {
 400:Drivers/CMSIS/Include/cmsis_gcc.h ****   __ASM volatile ("MSR msp, %0" : : "r" (topOfMainStack) : );
 401:Drivers/CMSIS/Include/cmsis_gcc.h **** }
 402:Drivers/CMSIS/Include/cmsis_gcc.h **** 
 403:Drivers/CMSIS/Include/cmsis_gcc.h **** 
 404:Drivers/CMSIS/Include/cmsis_gcc.h **** #if (defined (__ARM_FEATURE_CMSE ) && (__ARM_FEATURE_CMSE == 3))
 405:Drivers/CMSIS/Include/cmsis_gcc.h **** /**
 406:Drivers/CMSIS/Include/cmsis_gcc.h ****   \brief   Set Main Stack Pointer (non-secure)
 407:Drivers/CMSIS/Include/cmsis_gcc.h ****   \details Assigns the given value to the non-secure Main Stack Pointer (MSP) when in secure state.
 408:Drivers/CMSIS/Include/cmsis_gcc.h ****   \param [in]    topOfMainStack  Main Stack Pointer value to set
 409:Drivers/CMSIS/Include/cmsis_gcc.h ****  */
 410:Drivers/CMSIS/Include/cmsis_gcc.h **** __STATIC_FORCEINLINE void __TZ_set_MSP_NS(uint32_t topOfMainStack)
 411:Drivers/CMSIS/Include/cmsis_gcc.h **** {
 412:Drivers/CMSIS/Include/cmsis_gcc.h ****   __ASM volatile ("MSR msp_ns, %0" : : "r" (topOfMainStack) : );
 413:Drivers/CMSIS/Include/cmsis_gcc.h **** }
 414:Drivers/CMSIS/Include/cmsis_gcc.h **** #endif
 415:Drivers/CMSIS/Include/cmsis_gcc.h **** 
 416:Drivers/CMSIS/Include/cmsis_gcc.h **** 
 417:Drivers/CMSIS/Include/cmsis_gcc.h **** #if (defined (__ARM_FEATURE_CMSE ) && (__ARM_FEATURE_CMSE == 3))
 418:Drivers/CMSIS/Include/cmsis_gcc.h **** /**
 419:Drivers/CMSIS/Include/cmsis_gcc.h ****   \brief   Get Stack Pointer (non-secure)
 420:Drivers/CMSIS/Include/cmsis_gcc.h ****   \details Returns the current value of the non-secure Stack Pointer (SP) when in secure state.
 421:Drivers/CMSIS/Include/cmsis_gcc.h ****   \return               SP Register value
 422:Drivers/CMSIS/Include/cmsis_gcc.h ****  */
 423:Drivers/CMSIS/Include/cmsis_gcc.h **** __STATIC_FORCEINLINE uint32_t __TZ_get_SP_NS(void)
 424:Drivers/CMSIS/Include/cmsis_gcc.h **** {
 425:Drivers/CMSIS/Include/cmsis_gcc.h ****   uint32_t result;
 426:Drivers/CMSIS/Include/cmsis_gcc.h **** 
 427:Drivers/CMSIS/Include/cmsis_gcc.h ****   __ASM volatile ("MRS %0, sp_ns" : "=r" (result) );
 428:Drivers/CMSIS/Include/cmsis_gcc.h ****   return(result);
 429:Drivers/CMSIS/Include/cmsis_gcc.h **** }
 430:Drivers/CMSIS/Include/cmsis_gcc.h **** 
 431:Drivers/CMSIS/Include/cmsis_gcc.h **** 
 432:Drivers/CMSIS/Include/cmsis_gcc.h **** /**
 433:Drivers/CMSIS/Include/cmsis_gcc.h ****   \brief   Set Stack Pointer (non-secure)
 434:Drivers/CMSIS/Include/cmsis_gcc.h ****   \details Assigns the given value to the non-secure Stack Pointer (SP) when in secure state.
ARM GAS  /tmp/ccaSLnfD.s 			page 38


 435:Drivers/CMSIS/Include/cmsis_gcc.h ****   \param [in]    topOfStack  Stack Pointer value to set
 436:Drivers/CMSIS/Include/cmsis_gcc.h ****  */
 437:Drivers/CMSIS/Include/cmsis_gcc.h **** __STATIC_FORCEINLINE void __TZ_set_SP_NS(uint32_t topOfStack)
 438:Drivers/CMSIS/Include/cmsis_gcc.h **** {
 439:Drivers/CMSIS/Include/cmsis_gcc.h ****   __ASM volatile ("MSR sp_ns, %0" : : "r" (topOfStack) : );
 440:Drivers/CMSIS/Include/cmsis_gcc.h **** }
 441:Drivers/CMSIS/Include/cmsis_gcc.h **** #endif
 442:Drivers/CMSIS/Include/cmsis_gcc.h **** 
 443:Drivers/CMSIS/Include/cmsis_gcc.h **** 
 444:Drivers/CMSIS/Include/cmsis_gcc.h **** /**
 445:Drivers/CMSIS/Include/cmsis_gcc.h ****   \brief   Get Priority Mask
 446:Drivers/CMSIS/Include/cmsis_gcc.h ****   \details Returns the current state of the priority mask bit from the Priority Mask Register.
 447:Drivers/CMSIS/Include/cmsis_gcc.h ****   \return               Priority Mask value
 448:Drivers/CMSIS/Include/cmsis_gcc.h ****  */
 449:Drivers/CMSIS/Include/cmsis_gcc.h **** __STATIC_FORCEINLINE uint32_t __get_PRIMASK(void)
 450:Drivers/CMSIS/Include/cmsis_gcc.h **** {
 451:Drivers/CMSIS/Include/cmsis_gcc.h ****   uint32_t result;
 452:Drivers/CMSIS/Include/cmsis_gcc.h **** 
 453:Drivers/CMSIS/Include/cmsis_gcc.h ****   __ASM volatile ("MRS %0, primask" : "=r" (result) :: "memory");
 454:Drivers/CMSIS/Include/cmsis_gcc.h ****   return(result);
 455:Drivers/CMSIS/Include/cmsis_gcc.h **** }
 456:Drivers/CMSIS/Include/cmsis_gcc.h **** 
 457:Drivers/CMSIS/Include/cmsis_gcc.h **** 
 458:Drivers/CMSIS/Include/cmsis_gcc.h **** #if (defined (__ARM_FEATURE_CMSE ) && (__ARM_FEATURE_CMSE == 3))
 459:Drivers/CMSIS/Include/cmsis_gcc.h **** /**
 460:Drivers/CMSIS/Include/cmsis_gcc.h ****   \brief   Get Priority Mask (non-secure)
 461:Drivers/CMSIS/Include/cmsis_gcc.h ****   \details Returns the current state of the non-secure priority mask bit from the Priority Mask Reg
 462:Drivers/CMSIS/Include/cmsis_gcc.h ****   \return               Priority Mask value
 463:Drivers/CMSIS/Include/cmsis_gcc.h ****  */
 464:Drivers/CMSIS/Include/cmsis_gcc.h **** __STATIC_FORCEINLINE uint32_t __TZ_get_PRIMASK_NS(void)
 465:Drivers/CMSIS/Include/cmsis_gcc.h **** {
 466:Drivers/CMSIS/Include/cmsis_gcc.h ****   uint32_t result;
 467:Drivers/CMSIS/Include/cmsis_gcc.h **** 
 468:Drivers/CMSIS/Include/cmsis_gcc.h ****   __ASM volatile ("MRS %0, primask_ns" : "=r" (result) :: "memory");
 469:Drivers/CMSIS/Include/cmsis_gcc.h ****   return(result);
 470:Drivers/CMSIS/Include/cmsis_gcc.h **** }
 471:Drivers/CMSIS/Include/cmsis_gcc.h **** #endif
 472:Drivers/CMSIS/Include/cmsis_gcc.h **** 
 473:Drivers/CMSIS/Include/cmsis_gcc.h **** 
 474:Drivers/CMSIS/Include/cmsis_gcc.h **** /**
 475:Drivers/CMSIS/Include/cmsis_gcc.h ****   \brief   Set Priority Mask
 476:Drivers/CMSIS/Include/cmsis_gcc.h ****   \details Assigns the given value to the Priority Mask Register.
 477:Drivers/CMSIS/Include/cmsis_gcc.h ****   \param [in]    priMask  Priority Mask
 478:Drivers/CMSIS/Include/cmsis_gcc.h ****  */
 479:Drivers/CMSIS/Include/cmsis_gcc.h **** __STATIC_FORCEINLINE void __set_PRIMASK(uint32_t priMask)
 480:Drivers/CMSIS/Include/cmsis_gcc.h **** {
 481:Drivers/CMSIS/Include/cmsis_gcc.h ****   __ASM volatile ("MSR primask, %0" : : "r" (priMask) : "memory");
 482:Drivers/CMSIS/Include/cmsis_gcc.h **** }
 483:Drivers/CMSIS/Include/cmsis_gcc.h **** 
 484:Drivers/CMSIS/Include/cmsis_gcc.h **** 
 485:Drivers/CMSIS/Include/cmsis_gcc.h **** #if (defined (__ARM_FEATURE_CMSE ) && (__ARM_FEATURE_CMSE == 3))
 486:Drivers/CMSIS/Include/cmsis_gcc.h **** /**
 487:Drivers/CMSIS/Include/cmsis_gcc.h ****   \brief   Set Priority Mask (non-secure)
 488:Drivers/CMSIS/Include/cmsis_gcc.h ****   \details Assigns the given value to the non-secure Priority Mask Register when in secure state.
 489:Drivers/CMSIS/Include/cmsis_gcc.h ****   \param [in]    priMask  Priority Mask
 490:Drivers/CMSIS/Include/cmsis_gcc.h ****  */
 491:Drivers/CMSIS/Include/cmsis_gcc.h **** __STATIC_FORCEINLINE void __TZ_set_PRIMASK_NS(uint32_t priMask)
ARM GAS  /tmp/ccaSLnfD.s 			page 39


 492:Drivers/CMSIS/Include/cmsis_gcc.h **** {
 493:Drivers/CMSIS/Include/cmsis_gcc.h ****   __ASM volatile ("MSR primask_ns, %0" : : "r" (priMask) : "memory");
 494:Drivers/CMSIS/Include/cmsis_gcc.h **** }
 495:Drivers/CMSIS/Include/cmsis_gcc.h **** #endif
 496:Drivers/CMSIS/Include/cmsis_gcc.h **** 
 497:Drivers/CMSIS/Include/cmsis_gcc.h **** 
 498:Drivers/CMSIS/Include/cmsis_gcc.h **** #if ((defined (__ARM_ARCH_7M__      ) && (__ARM_ARCH_7M__      == 1)) || \
 499:Drivers/CMSIS/Include/cmsis_gcc.h ****      (defined (__ARM_ARCH_7EM__     ) && (__ARM_ARCH_7EM__     == 1)) || \
 500:Drivers/CMSIS/Include/cmsis_gcc.h ****      (defined (__ARM_ARCH_8M_MAIN__ ) && (__ARM_ARCH_8M_MAIN__ == 1))    )
 501:Drivers/CMSIS/Include/cmsis_gcc.h **** /**
 502:Drivers/CMSIS/Include/cmsis_gcc.h ****   \brief   Enable FIQ
 503:Drivers/CMSIS/Include/cmsis_gcc.h ****   \details Enables FIQ interrupts by clearing the F-bit in the CPSR.
 504:Drivers/CMSIS/Include/cmsis_gcc.h ****            Can only be executed in Privileged modes.
 505:Drivers/CMSIS/Include/cmsis_gcc.h ****  */
 506:Drivers/CMSIS/Include/cmsis_gcc.h **** __STATIC_FORCEINLINE void __enable_fault_irq(void)
 507:Drivers/CMSIS/Include/cmsis_gcc.h **** {
 508:Drivers/CMSIS/Include/cmsis_gcc.h ****   __ASM volatile ("cpsie f" : : : "memory");
 509:Drivers/CMSIS/Include/cmsis_gcc.h **** }
 510:Drivers/CMSIS/Include/cmsis_gcc.h **** 
 511:Drivers/CMSIS/Include/cmsis_gcc.h **** 
 512:Drivers/CMSIS/Include/cmsis_gcc.h **** /**
 513:Drivers/CMSIS/Include/cmsis_gcc.h ****   \brief   Disable FIQ
 514:Drivers/CMSIS/Include/cmsis_gcc.h ****   \details Disables FIQ interrupts by setting the F-bit in the CPSR.
 515:Drivers/CMSIS/Include/cmsis_gcc.h ****            Can only be executed in Privileged modes.
 516:Drivers/CMSIS/Include/cmsis_gcc.h ****  */
 517:Drivers/CMSIS/Include/cmsis_gcc.h **** __STATIC_FORCEINLINE void __disable_fault_irq(void)
 518:Drivers/CMSIS/Include/cmsis_gcc.h **** {
 519:Drivers/CMSIS/Include/cmsis_gcc.h ****   __ASM volatile ("cpsid f" : : : "memory");
 520:Drivers/CMSIS/Include/cmsis_gcc.h **** }
 521:Drivers/CMSIS/Include/cmsis_gcc.h **** 
 522:Drivers/CMSIS/Include/cmsis_gcc.h **** 
 523:Drivers/CMSIS/Include/cmsis_gcc.h **** /**
 524:Drivers/CMSIS/Include/cmsis_gcc.h ****   \brief   Get Base Priority
 525:Drivers/CMSIS/Include/cmsis_gcc.h ****   \details Returns the current value of the Base Priority register.
 526:Drivers/CMSIS/Include/cmsis_gcc.h ****   \return               Base Priority register value
 527:Drivers/CMSIS/Include/cmsis_gcc.h ****  */
 528:Drivers/CMSIS/Include/cmsis_gcc.h **** __STATIC_FORCEINLINE uint32_t __get_BASEPRI(void)
 529:Drivers/CMSIS/Include/cmsis_gcc.h **** {
 530:Drivers/CMSIS/Include/cmsis_gcc.h ****   uint32_t result;
 531:Drivers/CMSIS/Include/cmsis_gcc.h **** 
 532:Drivers/CMSIS/Include/cmsis_gcc.h ****   __ASM volatile ("MRS %0, basepri" : "=r" (result) );
 533:Drivers/CMSIS/Include/cmsis_gcc.h ****   return(result);
 534:Drivers/CMSIS/Include/cmsis_gcc.h **** }
 535:Drivers/CMSIS/Include/cmsis_gcc.h **** 
 536:Drivers/CMSIS/Include/cmsis_gcc.h **** 
 537:Drivers/CMSIS/Include/cmsis_gcc.h **** #if (defined (__ARM_FEATURE_CMSE ) && (__ARM_FEATURE_CMSE == 3))
 538:Drivers/CMSIS/Include/cmsis_gcc.h **** /**
 539:Drivers/CMSIS/Include/cmsis_gcc.h ****   \brief   Get Base Priority (non-secure)
 540:Drivers/CMSIS/Include/cmsis_gcc.h ****   \details Returns the current value of the non-secure Base Priority register when in secure state.
 541:Drivers/CMSIS/Include/cmsis_gcc.h ****   \return               Base Priority register value
 542:Drivers/CMSIS/Include/cmsis_gcc.h ****  */
 543:Drivers/CMSIS/Include/cmsis_gcc.h **** __STATIC_FORCEINLINE uint32_t __TZ_get_BASEPRI_NS(void)
 544:Drivers/CMSIS/Include/cmsis_gcc.h **** {
 545:Drivers/CMSIS/Include/cmsis_gcc.h ****   uint32_t result;
 546:Drivers/CMSIS/Include/cmsis_gcc.h **** 
 547:Drivers/CMSIS/Include/cmsis_gcc.h ****   __ASM volatile ("MRS %0, basepri_ns" : "=r" (result) );
 548:Drivers/CMSIS/Include/cmsis_gcc.h ****   return(result);
ARM GAS  /tmp/ccaSLnfD.s 			page 40


 549:Drivers/CMSIS/Include/cmsis_gcc.h **** }
 550:Drivers/CMSIS/Include/cmsis_gcc.h **** #endif
 551:Drivers/CMSIS/Include/cmsis_gcc.h **** 
 552:Drivers/CMSIS/Include/cmsis_gcc.h **** 
 553:Drivers/CMSIS/Include/cmsis_gcc.h **** /**
 554:Drivers/CMSIS/Include/cmsis_gcc.h ****   \brief   Set Base Priority
 555:Drivers/CMSIS/Include/cmsis_gcc.h ****   \details Assigns the given value to the Base Priority register.
 556:Drivers/CMSIS/Include/cmsis_gcc.h ****   \param [in]    basePri  Base Priority value to set
 557:Drivers/CMSIS/Include/cmsis_gcc.h ****  */
 558:Drivers/CMSIS/Include/cmsis_gcc.h **** __STATIC_FORCEINLINE void __set_BASEPRI(uint32_t basePri)
 559:Drivers/CMSIS/Include/cmsis_gcc.h **** {
 560:Drivers/CMSIS/Include/cmsis_gcc.h ****   __ASM volatile ("MSR basepri, %0" : : "r" (basePri) : "memory");
 561:Drivers/CMSIS/Include/cmsis_gcc.h **** }
 562:Drivers/CMSIS/Include/cmsis_gcc.h **** 
 563:Drivers/CMSIS/Include/cmsis_gcc.h **** 
 564:Drivers/CMSIS/Include/cmsis_gcc.h **** #if (defined (__ARM_FEATURE_CMSE ) && (__ARM_FEATURE_CMSE == 3))
 565:Drivers/CMSIS/Include/cmsis_gcc.h **** /**
 566:Drivers/CMSIS/Include/cmsis_gcc.h ****   \brief   Set Base Priority (non-secure)
 567:Drivers/CMSIS/Include/cmsis_gcc.h ****   \details Assigns the given value to the non-secure Base Priority register when in secure state.
 568:Drivers/CMSIS/Include/cmsis_gcc.h ****   \param [in]    basePri  Base Priority value to set
 569:Drivers/CMSIS/Include/cmsis_gcc.h ****  */
 570:Drivers/CMSIS/Include/cmsis_gcc.h **** __STATIC_FORCEINLINE void __TZ_set_BASEPRI_NS(uint32_t basePri)
 571:Drivers/CMSIS/Include/cmsis_gcc.h **** {
 572:Drivers/CMSIS/Include/cmsis_gcc.h ****   __ASM volatile ("MSR basepri_ns, %0" : : "r" (basePri) : "memory");
 573:Drivers/CMSIS/Include/cmsis_gcc.h **** }
 574:Drivers/CMSIS/Include/cmsis_gcc.h **** #endif
 575:Drivers/CMSIS/Include/cmsis_gcc.h **** 
 576:Drivers/CMSIS/Include/cmsis_gcc.h **** 
 577:Drivers/CMSIS/Include/cmsis_gcc.h **** /**
 578:Drivers/CMSIS/Include/cmsis_gcc.h ****   \brief   Set Base Priority with condition
 579:Drivers/CMSIS/Include/cmsis_gcc.h ****   \details Assigns the given value to the Base Priority register only if BASEPRI masking is disable
 580:Drivers/CMSIS/Include/cmsis_gcc.h ****            or the new value increases the BASEPRI priority level.
 581:Drivers/CMSIS/Include/cmsis_gcc.h ****   \param [in]    basePri  Base Priority value to set
 582:Drivers/CMSIS/Include/cmsis_gcc.h ****  */
 583:Drivers/CMSIS/Include/cmsis_gcc.h **** __STATIC_FORCEINLINE void __set_BASEPRI_MAX(uint32_t basePri)
 584:Drivers/CMSIS/Include/cmsis_gcc.h **** {
 585:Drivers/CMSIS/Include/cmsis_gcc.h ****   __ASM volatile ("MSR basepri_max, %0" : : "r" (basePri) : "memory");
 586:Drivers/CMSIS/Include/cmsis_gcc.h **** }
 587:Drivers/CMSIS/Include/cmsis_gcc.h **** 
 588:Drivers/CMSIS/Include/cmsis_gcc.h **** 
 589:Drivers/CMSIS/Include/cmsis_gcc.h **** /**
 590:Drivers/CMSIS/Include/cmsis_gcc.h ****   \brief   Get Fault Mask
 591:Drivers/CMSIS/Include/cmsis_gcc.h ****   \details Returns the current value of the Fault Mask register.
 592:Drivers/CMSIS/Include/cmsis_gcc.h ****   \return               Fault Mask register value
 593:Drivers/CMSIS/Include/cmsis_gcc.h ****  */
 594:Drivers/CMSIS/Include/cmsis_gcc.h **** __STATIC_FORCEINLINE uint32_t __get_FAULTMASK(void)
 595:Drivers/CMSIS/Include/cmsis_gcc.h **** {
 596:Drivers/CMSIS/Include/cmsis_gcc.h ****   uint32_t result;
 597:Drivers/CMSIS/Include/cmsis_gcc.h **** 
 598:Drivers/CMSIS/Include/cmsis_gcc.h ****   __ASM volatile ("MRS %0, faultmask" : "=r" (result) );
 599:Drivers/CMSIS/Include/cmsis_gcc.h ****   return(result);
 600:Drivers/CMSIS/Include/cmsis_gcc.h **** }
 601:Drivers/CMSIS/Include/cmsis_gcc.h **** 
 602:Drivers/CMSIS/Include/cmsis_gcc.h **** 
 603:Drivers/CMSIS/Include/cmsis_gcc.h **** #if (defined (__ARM_FEATURE_CMSE ) && (__ARM_FEATURE_CMSE == 3))
 604:Drivers/CMSIS/Include/cmsis_gcc.h **** /**
 605:Drivers/CMSIS/Include/cmsis_gcc.h ****   \brief   Get Fault Mask (non-secure)
ARM GAS  /tmp/ccaSLnfD.s 			page 41


 606:Drivers/CMSIS/Include/cmsis_gcc.h ****   \details Returns the current value of the non-secure Fault Mask register when in secure state.
 607:Drivers/CMSIS/Include/cmsis_gcc.h ****   \return               Fault Mask register value
 608:Drivers/CMSIS/Include/cmsis_gcc.h ****  */
 609:Drivers/CMSIS/Include/cmsis_gcc.h **** __STATIC_FORCEINLINE uint32_t __TZ_get_FAULTMASK_NS(void)
 610:Drivers/CMSIS/Include/cmsis_gcc.h **** {
 611:Drivers/CMSIS/Include/cmsis_gcc.h ****   uint32_t result;
 612:Drivers/CMSIS/Include/cmsis_gcc.h **** 
 613:Drivers/CMSIS/Include/cmsis_gcc.h ****   __ASM volatile ("MRS %0, faultmask_ns" : "=r" (result) );
 614:Drivers/CMSIS/Include/cmsis_gcc.h ****   return(result);
 615:Drivers/CMSIS/Include/cmsis_gcc.h **** }
 616:Drivers/CMSIS/Include/cmsis_gcc.h **** #endif
 617:Drivers/CMSIS/Include/cmsis_gcc.h **** 
 618:Drivers/CMSIS/Include/cmsis_gcc.h **** 
 619:Drivers/CMSIS/Include/cmsis_gcc.h **** /**
 620:Drivers/CMSIS/Include/cmsis_gcc.h ****   \brief   Set Fault Mask
 621:Drivers/CMSIS/Include/cmsis_gcc.h ****   \details Assigns the given value to the Fault Mask register.
 622:Drivers/CMSIS/Include/cmsis_gcc.h ****   \param [in]    faultMask  Fault Mask value to set
 623:Drivers/CMSIS/Include/cmsis_gcc.h ****  */
 624:Drivers/CMSIS/Include/cmsis_gcc.h **** __STATIC_FORCEINLINE void __set_FAULTMASK(uint32_t faultMask)
 625:Drivers/CMSIS/Include/cmsis_gcc.h **** {
 626:Drivers/CMSIS/Include/cmsis_gcc.h ****   __ASM volatile ("MSR faultmask, %0" : : "r" (faultMask) : "memory");
 627:Drivers/CMSIS/Include/cmsis_gcc.h **** }
 628:Drivers/CMSIS/Include/cmsis_gcc.h **** 
 629:Drivers/CMSIS/Include/cmsis_gcc.h **** 
 630:Drivers/CMSIS/Include/cmsis_gcc.h **** #if (defined (__ARM_FEATURE_CMSE ) && (__ARM_FEATURE_CMSE == 3))
 631:Drivers/CMSIS/Include/cmsis_gcc.h **** /**
 632:Drivers/CMSIS/Include/cmsis_gcc.h ****   \brief   Set Fault Mask (non-secure)
 633:Drivers/CMSIS/Include/cmsis_gcc.h ****   \details Assigns the given value to the non-secure Fault Mask register when in secure state.
 634:Drivers/CMSIS/Include/cmsis_gcc.h ****   \param [in]    faultMask  Fault Mask value to set
 635:Drivers/CMSIS/Include/cmsis_gcc.h ****  */
 636:Drivers/CMSIS/Include/cmsis_gcc.h **** __STATIC_FORCEINLINE void __TZ_set_FAULTMASK_NS(uint32_t faultMask)
 637:Drivers/CMSIS/Include/cmsis_gcc.h **** {
 638:Drivers/CMSIS/Include/cmsis_gcc.h ****   __ASM volatile ("MSR faultmask_ns, %0" : : "r" (faultMask) : "memory");
 639:Drivers/CMSIS/Include/cmsis_gcc.h **** }
 640:Drivers/CMSIS/Include/cmsis_gcc.h **** #endif
 641:Drivers/CMSIS/Include/cmsis_gcc.h **** 
 642:Drivers/CMSIS/Include/cmsis_gcc.h **** #endif /* ((defined (__ARM_ARCH_7M__      ) && (__ARM_ARCH_7M__      == 1)) || \
 643:Drivers/CMSIS/Include/cmsis_gcc.h ****            (defined (__ARM_ARCH_7EM__     ) && (__ARM_ARCH_7EM__     == 1)) || \
 644:Drivers/CMSIS/Include/cmsis_gcc.h ****            (defined (__ARM_ARCH_8M_MAIN__ ) && (__ARM_ARCH_8M_MAIN__ == 1))    ) */
 645:Drivers/CMSIS/Include/cmsis_gcc.h **** 
 646:Drivers/CMSIS/Include/cmsis_gcc.h **** 
 647:Drivers/CMSIS/Include/cmsis_gcc.h **** #if ((defined (__ARM_ARCH_8M_MAIN__ ) && (__ARM_ARCH_8M_MAIN__ == 1)) || \
 648:Drivers/CMSIS/Include/cmsis_gcc.h ****      (defined (__ARM_ARCH_8M_BASE__ ) && (__ARM_ARCH_8M_BASE__ == 1))    )
 649:Drivers/CMSIS/Include/cmsis_gcc.h **** 
 650:Drivers/CMSIS/Include/cmsis_gcc.h **** /**
 651:Drivers/CMSIS/Include/cmsis_gcc.h ****   \brief   Get Process Stack Pointer Limit
 652:Drivers/CMSIS/Include/cmsis_gcc.h ****   Devices without ARMv8-M Main Extensions (i.e. Cortex-M23) lack the non-secure
 653:Drivers/CMSIS/Include/cmsis_gcc.h ****   Stack Pointer Limit register hence zero is returned always in non-secure
 654:Drivers/CMSIS/Include/cmsis_gcc.h ****   mode.
 655:Drivers/CMSIS/Include/cmsis_gcc.h ****   
 656:Drivers/CMSIS/Include/cmsis_gcc.h ****   \details Returns the current value of the Process Stack Pointer Limit (PSPLIM).
 657:Drivers/CMSIS/Include/cmsis_gcc.h ****   \return               PSPLIM Register value
 658:Drivers/CMSIS/Include/cmsis_gcc.h ****  */
 659:Drivers/CMSIS/Include/cmsis_gcc.h **** __STATIC_FORCEINLINE uint32_t __get_PSPLIM(void)
 660:Drivers/CMSIS/Include/cmsis_gcc.h **** {
 661:Drivers/CMSIS/Include/cmsis_gcc.h **** #if (!(defined (__ARM_ARCH_8M_MAIN__ ) && (__ARM_ARCH_8M_MAIN__ == 1)) && \
 662:Drivers/CMSIS/Include/cmsis_gcc.h ****     (!defined (__ARM_FEATURE_CMSE) || (__ARM_FEATURE_CMSE < 3)))
ARM GAS  /tmp/ccaSLnfD.s 			page 42


 663:Drivers/CMSIS/Include/cmsis_gcc.h ****     // without main extensions, the non-secure PSPLIM is RAZ/WI
 664:Drivers/CMSIS/Include/cmsis_gcc.h ****   return 0U;
 665:Drivers/CMSIS/Include/cmsis_gcc.h **** #else
 666:Drivers/CMSIS/Include/cmsis_gcc.h ****   uint32_t result;
 667:Drivers/CMSIS/Include/cmsis_gcc.h ****   __ASM volatile ("MRS %0, psplim"  : "=r" (result) );
 668:Drivers/CMSIS/Include/cmsis_gcc.h ****   return result;
 669:Drivers/CMSIS/Include/cmsis_gcc.h **** #endif
 670:Drivers/CMSIS/Include/cmsis_gcc.h **** }
 671:Drivers/CMSIS/Include/cmsis_gcc.h **** 
 672:Drivers/CMSIS/Include/cmsis_gcc.h **** #if (defined (__ARM_FEATURE_CMSE) && (__ARM_FEATURE_CMSE == 3))
 673:Drivers/CMSIS/Include/cmsis_gcc.h **** /**
 674:Drivers/CMSIS/Include/cmsis_gcc.h ****   \brief   Get Process Stack Pointer Limit (non-secure)
 675:Drivers/CMSIS/Include/cmsis_gcc.h ****   Devices without ARMv8-M Main Extensions (i.e. Cortex-M23) lack the non-secure
 676:Drivers/CMSIS/Include/cmsis_gcc.h ****   Stack Pointer Limit register hence zero is returned always.
 677:Drivers/CMSIS/Include/cmsis_gcc.h **** 
 678:Drivers/CMSIS/Include/cmsis_gcc.h ****   \details Returns the current value of the non-secure Process Stack Pointer Limit (PSPLIM) when in
 679:Drivers/CMSIS/Include/cmsis_gcc.h ****   \return               PSPLIM Register value
 680:Drivers/CMSIS/Include/cmsis_gcc.h ****  */
 681:Drivers/CMSIS/Include/cmsis_gcc.h **** __STATIC_FORCEINLINE uint32_t __TZ_get_PSPLIM_NS(void)
 682:Drivers/CMSIS/Include/cmsis_gcc.h **** {
 683:Drivers/CMSIS/Include/cmsis_gcc.h **** #if (!(defined (__ARM_ARCH_8M_MAIN__ ) && (__ARM_ARCH_8M_MAIN__ == 1)))
 684:Drivers/CMSIS/Include/cmsis_gcc.h ****   // without main extensions, the non-secure PSPLIM is RAZ/WI
 685:Drivers/CMSIS/Include/cmsis_gcc.h ****   return 0U;
 686:Drivers/CMSIS/Include/cmsis_gcc.h **** #else
 687:Drivers/CMSIS/Include/cmsis_gcc.h ****   uint32_t result;
 688:Drivers/CMSIS/Include/cmsis_gcc.h ****   __ASM volatile ("MRS %0, psplim_ns"  : "=r" (result) );
 689:Drivers/CMSIS/Include/cmsis_gcc.h ****   return result;
 690:Drivers/CMSIS/Include/cmsis_gcc.h **** #endif
 691:Drivers/CMSIS/Include/cmsis_gcc.h **** }
 692:Drivers/CMSIS/Include/cmsis_gcc.h **** #endif
 693:Drivers/CMSIS/Include/cmsis_gcc.h **** 
 694:Drivers/CMSIS/Include/cmsis_gcc.h **** 
 695:Drivers/CMSIS/Include/cmsis_gcc.h **** /**
 696:Drivers/CMSIS/Include/cmsis_gcc.h ****   \brief   Set Process Stack Pointer Limit
 697:Drivers/CMSIS/Include/cmsis_gcc.h ****   Devices without ARMv8-M Main Extensions (i.e. Cortex-M23) lack the non-secure
 698:Drivers/CMSIS/Include/cmsis_gcc.h ****   Stack Pointer Limit register hence the write is silently ignored in non-secure
 699:Drivers/CMSIS/Include/cmsis_gcc.h ****   mode.
 700:Drivers/CMSIS/Include/cmsis_gcc.h ****   
 701:Drivers/CMSIS/Include/cmsis_gcc.h ****   \details Assigns the given value to the Process Stack Pointer Limit (PSPLIM).
 702:Drivers/CMSIS/Include/cmsis_gcc.h ****   \param [in]    ProcStackPtrLimit  Process Stack Pointer Limit value to set
 703:Drivers/CMSIS/Include/cmsis_gcc.h ****  */
 704:Drivers/CMSIS/Include/cmsis_gcc.h **** __STATIC_FORCEINLINE void __set_PSPLIM(uint32_t ProcStackPtrLimit)
 705:Drivers/CMSIS/Include/cmsis_gcc.h **** {
 706:Drivers/CMSIS/Include/cmsis_gcc.h **** #if (!(defined (__ARM_ARCH_8M_MAIN__ ) && (__ARM_ARCH_8M_MAIN__ == 1)) && \
 707:Drivers/CMSIS/Include/cmsis_gcc.h ****     (!defined (__ARM_FEATURE_CMSE) || (__ARM_FEATURE_CMSE < 3)))
 708:Drivers/CMSIS/Include/cmsis_gcc.h ****   // without main extensions, the non-secure PSPLIM is RAZ/WI
 709:Drivers/CMSIS/Include/cmsis_gcc.h ****   (void)ProcStackPtrLimit;
 710:Drivers/CMSIS/Include/cmsis_gcc.h **** #else
 711:Drivers/CMSIS/Include/cmsis_gcc.h ****   __ASM volatile ("MSR psplim, %0" : : "r" (ProcStackPtrLimit));
 712:Drivers/CMSIS/Include/cmsis_gcc.h **** #endif
 713:Drivers/CMSIS/Include/cmsis_gcc.h **** }
 714:Drivers/CMSIS/Include/cmsis_gcc.h **** 
 715:Drivers/CMSIS/Include/cmsis_gcc.h **** 
 716:Drivers/CMSIS/Include/cmsis_gcc.h **** #if (defined (__ARM_FEATURE_CMSE  ) && (__ARM_FEATURE_CMSE   == 3))
 717:Drivers/CMSIS/Include/cmsis_gcc.h **** /**
 718:Drivers/CMSIS/Include/cmsis_gcc.h ****   \brief   Set Process Stack Pointer (non-secure)
 719:Drivers/CMSIS/Include/cmsis_gcc.h ****   Devices without ARMv8-M Main Extensions (i.e. Cortex-M23) lack the non-secure
ARM GAS  /tmp/ccaSLnfD.s 			page 43


 720:Drivers/CMSIS/Include/cmsis_gcc.h ****   Stack Pointer Limit register hence the write is silently ignored.
 721:Drivers/CMSIS/Include/cmsis_gcc.h **** 
 722:Drivers/CMSIS/Include/cmsis_gcc.h ****   \details Assigns the given value to the non-secure Process Stack Pointer Limit (PSPLIM) when in s
 723:Drivers/CMSIS/Include/cmsis_gcc.h ****   \param [in]    ProcStackPtrLimit  Process Stack Pointer Limit value to set
 724:Drivers/CMSIS/Include/cmsis_gcc.h ****  */
 725:Drivers/CMSIS/Include/cmsis_gcc.h **** __STATIC_FORCEINLINE void __TZ_set_PSPLIM_NS(uint32_t ProcStackPtrLimit)
 726:Drivers/CMSIS/Include/cmsis_gcc.h **** {
 727:Drivers/CMSIS/Include/cmsis_gcc.h **** #if (!(defined (__ARM_ARCH_8M_MAIN__ ) && (__ARM_ARCH_8M_MAIN__ == 1)))
 728:Drivers/CMSIS/Include/cmsis_gcc.h ****   // without main extensions, the non-secure PSPLIM is RAZ/WI
 729:Drivers/CMSIS/Include/cmsis_gcc.h ****   (void)ProcStackPtrLimit;
 730:Drivers/CMSIS/Include/cmsis_gcc.h **** #else
 731:Drivers/CMSIS/Include/cmsis_gcc.h ****   __ASM volatile ("MSR psplim_ns, %0\n" : : "r" (ProcStackPtrLimit));
 732:Drivers/CMSIS/Include/cmsis_gcc.h **** #endif
 733:Drivers/CMSIS/Include/cmsis_gcc.h **** }
 734:Drivers/CMSIS/Include/cmsis_gcc.h **** #endif
 735:Drivers/CMSIS/Include/cmsis_gcc.h **** 
 736:Drivers/CMSIS/Include/cmsis_gcc.h **** 
 737:Drivers/CMSIS/Include/cmsis_gcc.h **** /**
 738:Drivers/CMSIS/Include/cmsis_gcc.h ****   \brief   Get Main Stack Pointer Limit
 739:Drivers/CMSIS/Include/cmsis_gcc.h ****   Devices without ARMv8-M Main Extensions (i.e. Cortex-M23) lack the non-secure
 740:Drivers/CMSIS/Include/cmsis_gcc.h ****   Stack Pointer Limit register hence zero is returned always in non-secure
 741:Drivers/CMSIS/Include/cmsis_gcc.h ****   mode.
 742:Drivers/CMSIS/Include/cmsis_gcc.h **** 
 743:Drivers/CMSIS/Include/cmsis_gcc.h ****   \details Returns the current value of the Main Stack Pointer Limit (MSPLIM).
 744:Drivers/CMSIS/Include/cmsis_gcc.h ****   \return               MSPLIM Register value
 745:Drivers/CMSIS/Include/cmsis_gcc.h ****  */
 746:Drivers/CMSIS/Include/cmsis_gcc.h **** __STATIC_FORCEINLINE uint32_t __get_MSPLIM(void)
 747:Drivers/CMSIS/Include/cmsis_gcc.h **** {
 748:Drivers/CMSIS/Include/cmsis_gcc.h **** #if (!(defined (__ARM_ARCH_8M_MAIN__ ) && (__ARM_ARCH_8M_MAIN__ == 1)) && \
 749:Drivers/CMSIS/Include/cmsis_gcc.h ****     (!defined (__ARM_FEATURE_CMSE) || (__ARM_FEATURE_CMSE < 3)))
 750:Drivers/CMSIS/Include/cmsis_gcc.h ****   // without main extensions, the non-secure MSPLIM is RAZ/WI
 751:Drivers/CMSIS/Include/cmsis_gcc.h ****   return 0U;
 752:Drivers/CMSIS/Include/cmsis_gcc.h **** #else
 753:Drivers/CMSIS/Include/cmsis_gcc.h ****   uint32_t result;
 754:Drivers/CMSIS/Include/cmsis_gcc.h ****   __ASM volatile ("MRS %0, msplim" : "=r" (result) );
 755:Drivers/CMSIS/Include/cmsis_gcc.h ****   return result;
 756:Drivers/CMSIS/Include/cmsis_gcc.h **** #endif
 757:Drivers/CMSIS/Include/cmsis_gcc.h **** }
 758:Drivers/CMSIS/Include/cmsis_gcc.h **** 
 759:Drivers/CMSIS/Include/cmsis_gcc.h **** 
 760:Drivers/CMSIS/Include/cmsis_gcc.h **** #if (defined (__ARM_FEATURE_CMSE  ) && (__ARM_FEATURE_CMSE   == 3))
 761:Drivers/CMSIS/Include/cmsis_gcc.h **** /**
 762:Drivers/CMSIS/Include/cmsis_gcc.h ****   \brief   Get Main Stack Pointer Limit (non-secure)
 763:Drivers/CMSIS/Include/cmsis_gcc.h ****   Devices without ARMv8-M Main Extensions (i.e. Cortex-M23) lack the non-secure
 764:Drivers/CMSIS/Include/cmsis_gcc.h ****   Stack Pointer Limit register hence zero is returned always.
 765:Drivers/CMSIS/Include/cmsis_gcc.h **** 
 766:Drivers/CMSIS/Include/cmsis_gcc.h ****   \details Returns the current value of the non-secure Main Stack Pointer Limit(MSPLIM) when in sec
 767:Drivers/CMSIS/Include/cmsis_gcc.h ****   \return               MSPLIM Register value
 768:Drivers/CMSIS/Include/cmsis_gcc.h ****  */
 769:Drivers/CMSIS/Include/cmsis_gcc.h **** __STATIC_FORCEINLINE uint32_t __TZ_get_MSPLIM_NS(void)
 770:Drivers/CMSIS/Include/cmsis_gcc.h **** {
 771:Drivers/CMSIS/Include/cmsis_gcc.h **** #if (!(defined (__ARM_ARCH_8M_MAIN__ ) && (__ARM_ARCH_8M_MAIN__ == 1)))
 772:Drivers/CMSIS/Include/cmsis_gcc.h ****   // without main extensions, the non-secure MSPLIM is RAZ/WI
 773:Drivers/CMSIS/Include/cmsis_gcc.h ****   return 0U;
 774:Drivers/CMSIS/Include/cmsis_gcc.h **** #else
 775:Drivers/CMSIS/Include/cmsis_gcc.h ****   uint32_t result;
 776:Drivers/CMSIS/Include/cmsis_gcc.h ****   __ASM volatile ("MRS %0, msplim_ns" : "=r" (result) );
ARM GAS  /tmp/ccaSLnfD.s 			page 44


 777:Drivers/CMSIS/Include/cmsis_gcc.h ****   return result;
 778:Drivers/CMSIS/Include/cmsis_gcc.h **** #endif
 779:Drivers/CMSIS/Include/cmsis_gcc.h **** }
 780:Drivers/CMSIS/Include/cmsis_gcc.h **** #endif
 781:Drivers/CMSIS/Include/cmsis_gcc.h **** 
 782:Drivers/CMSIS/Include/cmsis_gcc.h **** 
 783:Drivers/CMSIS/Include/cmsis_gcc.h **** /**
 784:Drivers/CMSIS/Include/cmsis_gcc.h ****   \brief   Set Main Stack Pointer Limit
 785:Drivers/CMSIS/Include/cmsis_gcc.h ****   Devices without ARMv8-M Main Extensions (i.e. Cortex-M23) lack the non-secure
 786:Drivers/CMSIS/Include/cmsis_gcc.h ****   Stack Pointer Limit register hence the write is silently ignored in non-secure
 787:Drivers/CMSIS/Include/cmsis_gcc.h ****   mode.
 788:Drivers/CMSIS/Include/cmsis_gcc.h **** 
 789:Drivers/CMSIS/Include/cmsis_gcc.h ****   \details Assigns the given value to the Main Stack Pointer Limit (MSPLIM).
 790:Drivers/CMSIS/Include/cmsis_gcc.h ****   \param [in]    MainStackPtrLimit  Main Stack Pointer Limit value to set
 791:Drivers/CMSIS/Include/cmsis_gcc.h ****  */
 792:Drivers/CMSIS/Include/cmsis_gcc.h **** __STATIC_FORCEINLINE void __set_MSPLIM(uint32_t MainStackPtrLimit)
 793:Drivers/CMSIS/Include/cmsis_gcc.h **** {
 794:Drivers/CMSIS/Include/cmsis_gcc.h **** #if (!(defined (__ARM_ARCH_8M_MAIN__ ) && (__ARM_ARCH_8M_MAIN__ == 1)) && \
 795:Drivers/CMSIS/Include/cmsis_gcc.h ****     (!defined (__ARM_FEATURE_CMSE) || (__ARM_FEATURE_CMSE < 3)))
 796:Drivers/CMSIS/Include/cmsis_gcc.h ****   // without main extensions, the non-secure MSPLIM is RAZ/WI
 797:Drivers/CMSIS/Include/cmsis_gcc.h ****   (void)MainStackPtrLimit;
 798:Drivers/CMSIS/Include/cmsis_gcc.h **** #else
 799:Drivers/CMSIS/Include/cmsis_gcc.h ****   __ASM volatile ("MSR msplim, %0" : : "r" (MainStackPtrLimit));
 800:Drivers/CMSIS/Include/cmsis_gcc.h **** #endif
 801:Drivers/CMSIS/Include/cmsis_gcc.h **** }
 802:Drivers/CMSIS/Include/cmsis_gcc.h **** 
 803:Drivers/CMSIS/Include/cmsis_gcc.h **** 
 804:Drivers/CMSIS/Include/cmsis_gcc.h **** #if (defined (__ARM_FEATURE_CMSE  ) && (__ARM_FEATURE_CMSE   == 3))
 805:Drivers/CMSIS/Include/cmsis_gcc.h **** /**
 806:Drivers/CMSIS/Include/cmsis_gcc.h ****   \brief   Set Main Stack Pointer Limit (non-secure)
 807:Drivers/CMSIS/Include/cmsis_gcc.h ****   Devices without ARMv8-M Main Extensions (i.e. Cortex-M23) lack the non-secure
 808:Drivers/CMSIS/Include/cmsis_gcc.h ****   Stack Pointer Limit register hence the write is silently ignored.
 809:Drivers/CMSIS/Include/cmsis_gcc.h **** 
 810:Drivers/CMSIS/Include/cmsis_gcc.h ****   \details Assigns the given value to the non-secure Main Stack Pointer Limit (MSPLIM) when in secu
 811:Drivers/CMSIS/Include/cmsis_gcc.h ****   \param [in]    MainStackPtrLimit  Main Stack Pointer value to set
 812:Drivers/CMSIS/Include/cmsis_gcc.h ****  */
 813:Drivers/CMSIS/Include/cmsis_gcc.h **** __STATIC_FORCEINLINE void __TZ_set_MSPLIM_NS(uint32_t MainStackPtrLimit)
 814:Drivers/CMSIS/Include/cmsis_gcc.h **** {
 815:Drivers/CMSIS/Include/cmsis_gcc.h **** #if (!(defined (__ARM_ARCH_8M_MAIN__ ) && (__ARM_ARCH_8M_MAIN__ == 1)))
 816:Drivers/CMSIS/Include/cmsis_gcc.h ****   // without main extensions, the non-secure MSPLIM is RAZ/WI
 817:Drivers/CMSIS/Include/cmsis_gcc.h ****   (void)MainStackPtrLimit;
 818:Drivers/CMSIS/Include/cmsis_gcc.h **** #else
 819:Drivers/CMSIS/Include/cmsis_gcc.h ****   __ASM volatile ("MSR msplim_ns, %0" : : "r" (MainStackPtrLimit));
 820:Drivers/CMSIS/Include/cmsis_gcc.h **** #endif
 821:Drivers/CMSIS/Include/cmsis_gcc.h **** }
 822:Drivers/CMSIS/Include/cmsis_gcc.h **** #endif
 823:Drivers/CMSIS/Include/cmsis_gcc.h **** 
 824:Drivers/CMSIS/Include/cmsis_gcc.h **** #endif /* ((defined (__ARM_ARCH_8M_MAIN__ ) && (__ARM_ARCH_8M_MAIN__ == 1)) || \
 825:Drivers/CMSIS/Include/cmsis_gcc.h ****            (defined (__ARM_ARCH_8M_BASE__ ) && (__ARM_ARCH_8M_BASE__ == 1))    ) */
 826:Drivers/CMSIS/Include/cmsis_gcc.h **** 
 827:Drivers/CMSIS/Include/cmsis_gcc.h **** 
 828:Drivers/CMSIS/Include/cmsis_gcc.h **** /**
 829:Drivers/CMSIS/Include/cmsis_gcc.h ****   \brief   Get FPSCR
 830:Drivers/CMSIS/Include/cmsis_gcc.h ****   \details Returns the current value of the Floating Point Status/Control register.
 831:Drivers/CMSIS/Include/cmsis_gcc.h ****   \return               Floating Point Status/Control register value
 832:Drivers/CMSIS/Include/cmsis_gcc.h ****  */
 833:Drivers/CMSIS/Include/cmsis_gcc.h **** __STATIC_FORCEINLINE uint32_t __get_FPSCR(void)
ARM GAS  /tmp/ccaSLnfD.s 			page 45


 834:Drivers/CMSIS/Include/cmsis_gcc.h **** {
 835:Drivers/CMSIS/Include/cmsis_gcc.h **** #if ((defined (__FPU_PRESENT) && (__FPU_PRESENT == 1U)) && \
 836:Drivers/CMSIS/Include/cmsis_gcc.h ****      (defined (__FPU_USED   ) && (__FPU_USED    == 1U))     )
 837:Drivers/CMSIS/Include/cmsis_gcc.h **** #if __has_builtin(__builtin_arm_get_fpscr) 
 838:Drivers/CMSIS/Include/cmsis_gcc.h **** // Re-enable using built-in when GCC has been fixed
 839:Drivers/CMSIS/Include/cmsis_gcc.h **** // || (__GNUC__ > 7) || (__GNUC__ == 7 && __GNUC_MINOR__ >= 2)
 840:Drivers/CMSIS/Include/cmsis_gcc.h ****   /* see https://gcc.gnu.org/ml/gcc-patches/2017-04/msg00443.html */
 841:Drivers/CMSIS/Include/cmsis_gcc.h ****   return __builtin_arm_get_fpscr();
 842:Drivers/CMSIS/Include/cmsis_gcc.h **** #else
 843:Drivers/CMSIS/Include/cmsis_gcc.h ****   uint32_t result;
 844:Drivers/CMSIS/Include/cmsis_gcc.h **** 
 845:Drivers/CMSIS/Include/cmsis_gcc.h ****   __ASM volatile ("VMRS %0, fpscr" : "=r" (result) );
 846:Drivers/CMSIS/Include/cmsis_gcc.h ****   return(result);
 847:Drivers/CMSIS/Include/cmsis_gcc.h **** #endif
 848:Drivers/CMSIS/Include/cmsis_gcc.h **** #else
 849:Drivers/CMSIS/Include/cmsis_gcc.h ****   return(0U);
 850:Drivers/CMSIS/Include/cmsis_gcc.h **** #endif
 851:Drivers/CMSIS/Include/cmsis_gcc.h **** }
 852:Drivers/CMSIS/Include/cmsis_gcc.h **** 
 853:Drivers/CMSIS/Include/cmsis_gcc.h **** 
 854:Drivers/CMSIS/Include/cmsis_gcc.h **** /**
 855:Drivers/CMSIS/Include/cmsis_gcc.h ****   \brief   Set FPSCR
 856:Drivers/CMSIS/Include/cmsis_gcc.h ****   \details Assigns the given value to the Floating Point Status/Control register.
 857:Drivers/CMSIS/Include/cmsis_gcc.h ****   \param [in]    fpscr  Floating Point Status/Control value to set
 858:Drivers/CMSIS/Include/cmsis_gcc.h ****  */
 859:Drivers/CMSIS/Include/cmsis_gcc.h **** __STATIC_FORCEINLINE void __set_FPSCR(uint32_t fpscr)
 860:Drivers/CMSIS/Include/cmsis_gcc.h **** {
 861:Drivers/CMSIS/Include/cmsis_gcc.h **** #if ((defined (__FPU_PRESENT) && (__FPU_PRESENT == 1U)) && \
 862:Drivers/CMSIS/Include/cmsis_gcc.h ****      (defined (__FPU_USED   ) && (__FPU_USED    == 1U))     )
 863:Drivers/CMSIS/Include/cmsis_gcc.h **** #if __has_builtin(__builtin_arm_set_fpscr)
 864:Drivers/CMSIS/Include/cmsis_gcc.h **** // Re-enable using built-in when GCC has been fixed
 865:Drivers/CMSIS/Include/cmsis_gcc.h **** // || (__GNUC__ > 7) || (__GNUC__ == 7 && __GNUC_MINOR__ >= 2)
 866:Drivers/CMSIS/Include/cmsis_gcc.h ****   /* see https://gcc.gnu.org/ml/gcc-patches/2017-04/msg00443.html */
 867:Drivers/CMSIS/Include/cmsis_gcc.h ****   __builtin_arm_set_fpscr(fpscr);
 868:Drivers/CMSIS/Include/cmsis_gcc.h **** #else
 869:Drivers/CMSIS/Include/cmsis_gcc.h ****   __ASM volatile ("VMSR fpscr, %0" : : "r" (fpscr) : "vfpcc", "memory");
 870:Drivers/CMSIS/Include/cmsis_gcc.h **** #endif
 871:Drivers/CMSIS/Include/cmsis_gcc.h **** #else
 872:Drivers/CMSIS/Include/cmsis_gcc.h ****   (void)fpscr;
 873:Drivers/CMSIS/Include/cmsis_gcc.h **** #endif
 874:Drivers/CMSIS/Include/cmsis_gcc.h **** }
 875:Drivers/CMSIS/Include/cmsis_gcc.h **** 
 876:Drivers/CMSIS/Include/cmsis_gcc.h **** 
 877:Drivers/CMSIS/Include/cmsis_gcc.h **** /*@} end of CMSIS_Core_RegAccFunctions */
 878:Drivers/CMSIS/Include/cmsis_gcc.h **** 
 879:Drivers/CMSIS/Include/cmsis_gcc.h **** 
 880:Drivers/CMSIS/Include/cmsis_gcc.h **** /* ##########################  Core Instruction Access  ######################### */
 881:Drivers/CMSIS/Include/cmsis_gcc.h **** /** \defgroup CMSIS_Core_InstructionInterface CMSIS Core Instruction Interface
 882:Drivers/CMSIS/Include/cmsis_gcc.h ****   Access to dedicated instructions
 883:Drivers/CMSIS/Include/cmsis_gcc.h ****   @{
 884:Drivers/CMSIS/Include/cmsis_gcc.h **** */
 885:Drivers/CMSIS/Include/cmsis_gcc.h **** 
 886:Drivers/CMSIS/Include/cmsis_gcc.h **** /* Define macros for porting to both thumb1 and thumb2.
 887:Drivers/CMSIS/Include/cmsis_gcc.h ****  * For thumb1, use low register (r0-r7), specified by constraint "l"
 888:Drivers/CMSIS/Include/cmsis_gcc.h ****  * Otherwise, use general registers, specified by constraint "r" */
 889:Drivers/CMSIS/Include/cmsis_gcc.h **** #if defined (__thumb__) && !defined (__thumb2__)
 890:Drivers/CMSIS/Include/cmsis_gcc.h **** #define __CMSIS_GCC_OUT_REG(r) "=l" (r)
ARM GAS  /tmp/ccaSLnfD.s 			page 46


 891:Drivers/CMSIS/Include/cmsis_gcc.h **** #define __CMSIS_GCC_RW_REG(r) "+l" (r)
 892:Drivers/CMSIS/Include/cmsis_gcc.h **** #define __CMSIS_GCC_USE_REG(r) "l" (r)
 893:Drivers/CMSIS/Include/cmsis_gcc.h **** #else
 894:Drivers/CMSIS/Include/cmsis_gcc.h **** #define __CMSIS_GCC_OUT_REG(r) "=r" (r)
 895:Drivers/CMSIS/Include/cmsis_gcc.h **** #define __CMSIS_GCC_RW_REG(r) "+r" (r)
 896:Drivers/CMSIS/Include/cmsis_gcc.h **** #define __CMSIS_GCC_USE_REG(r) "r" (r)
 897:Drivers/CMSIS/Include/cmsis_gcc.h **** #endif
 898:Drivers/CMSIS/Include/cmsis_gcc.h **** 
 899:Drivers/CMSIS/Include/cmsis_gcc.h **** /**
 900:Drivers/CMSIS/Include/cmsis_gcc.h ****   \brief   No Operation
 901:Drivers/CMSIS/Include/cmsis_gcc.h ****   \details No Operation does nothing. This instruction can be used for code alignment purposes.
 902:Drivers/CMSIS/Include/cmsis_gcc.h ****  */
 903:Drivers/CMSIS/Include/cmsis_gcc.h **** #define __NOP()                             __ASM volatile ("nop")
 904:Drivers/CMSIS/Include/cmsis_gcc.h **** 
 905:Drivers/CMSIS/Include/cmsis_gcc.h **** /**
 906:Drivers/CMSIS/Include/cmsis_gcc.h ****   \brief   Wait For Interrupt
 907:Drivers/CMSIS/Include/cmsis_gcc.h ****   \details Wait For Interrupt is a hint instruction that suspends execution until one of a number o
 908:Drivers/CMSIS/Include/cmsis_gcc.h ****  */
 909:Drivers/CMSIS/Include/cmsis_gcc.h **** #define __WFI()                             __ASM volatile ("wfi")
 910:Drivers/CMSIS/Include/cmsis_gcc.h **** 
 911:Drivers/CMSIS/Include/cmsis_gcc.h **** 
 912:Drivers/CMSIS/Include/cmsis_gcc.h **** /**
 913:Drivers/CMSIS/Include/cmsis_gcc.h ****   \brief   Wait For Event
 914:Drivers/CMSIS/Include/cmsis_gcc.h ****   \details Wait For Event is a hint instruction that permits the processor to enter
 915:Drivers/CMSIS/Include/cmsis_gcc.h ****            a low-power state until one of a number of events occurs.
 916:Drivers/CMSIS/Include/cmsis_gcc.h ****  */
 917:Drivers/CMSIS/Include/cmsis_gcc.h **** #define __WFE()                             __ASM volatile ("wfe")
 918:Drivers/CMSIS/Include/cmsis_gcc.h **** 
 919:Drivers/CMSIS/Include/cmsis_gcc.h **** 
 920:Drivers/CMSIS/Include/cmsis_gcc.h **** /**
 921:Drivers/CMSIS/Include/cmsis_gcc.h ****   \brief   Send Event
 922:Drivers/CMSIS/Include/cmsis_gcc.h ****   \details Send Event is a hint instruction. It causes an event to be signaled to the CPU.
 923:Drivers/CMSIS/Include/cmsis_gcc.h ****  */
 924:Drivers/CMSIS/Include/cmsis_gcc.h **** #define __SEV()                             __ASM volatile ("sev")
 925:Drivers/CMSIS/Include/cmsis_gcc.h **** 
 926:Drivers/CMSIS/Include/cmsis_gcc.h **** 
 927:Drivers/CMSIS/Include/cmsis_gcc.h **** /**
 928:Drivers/CMSIS/Include/cmsis_gcc.h ****   \brief   Instruction Synchronization Barrier
 929:Drivers/CMSIS/Include/cmsis_gcc.h ****   \details Instruction Synchronization Barrier flushes the pipeline in the processor,
 930:Drivers/CMSIS/Include/cmsis_gcc.h ****            so that all instructions following the ISB are fetched from cache or memory,
 931:Drivers/CMSIS/Include/cmsis_gcc.h ****            after the instruction has been completed.
 932:Drivers/CMSIS/Include/cmsis_gcc.h ****  */
 933:Drivers/CMSIS/Include/cmsis_gcc.h **** __STATIC_FORCEINLINE void __ISB(void)
 809              		.loc 2 933 27 view .LVU250
 810              	.LBB41:
 934:Drivers/CMSIS/Include/cmsis_gcc.h **** {
 935:Drivers/CMSIS/Include/cmsis_gcc.h ****   __ASM volatile ("isb 0xF":::"memory");
 811              		.loc 2 935 3 view .LVU251
 812              		.syntax unified
 813              	@ 935 "Drivers/CMSIS/Include/cmsis_gcc.h" 1
 814 0054 BFF36F8F 		isb 0xF
 815              	@ 0 "" 2
 816              		.thumb
 817              		.syntax unified
 818              	.LBE41:
 819              	.LBE40:
 714:Drivers/STM32G4xx_HAL_Driver/Src/stm32g4xx_hal_flash.c **** 
ARM GAS  /tmp/ccaSLnfD.s 			page 47


 715:Drivers/STM32G4xx_HAL_Driver/Src/stm32g4xx_hal_flash.c ****   /* Program second word */
 716:Drivers/STM32G4xx_HAL_Driver/Src/stm32g4xx_hal_flash.c ****   *(uint32_t *)(Address + 4U) = (uint32_t)(Data >> 32U);
 820              		.loc 1 716 3 view .LVU252
 821              	.LBE39:
 822              	.LBE38:
 215:Drivers/STM32G4xx_HAL_Driver/Src/stm32g4xx_hal_flash.c **** 
 823              		.loc 1 215 14 is_stmt 0 view .LVU253
 824 0058 4FF47A70 		mov	r0, #1000
 825              	.LVL64:
 826              	.LBB43:
 827              	.LBB42:
 828              		.loc 1 716 33 view .LVU254
 829 005c C5F80480 		str	r8, [r5, #4]
 830              	.LVL65:
 831              		.loc 1 716 33 view .LVU255
 832              	.LBE42:
 833              	.LBE43:
 196:Drivers/STM32G4xx_HAL_Driver/Src/stm32g4xx_hal_flash.c ****     }
 834              		.loc 1 196 7 is_stmt 1 view .LVU256
 212:Drivers/STM32G4xx_HAL_Driver/Src/stm32g4xx_hal_flash.c **** 
 835              		.loc 1 212 5 view .LVU257
 215:Drivers/STM32G4xx_HAL_Driver/Src/stm32g4xx_hal_flash.c **** 
 836              		.loc 1 215 5 view .LVU258
 215:Drivers/STM32G4xx_HAL_Driver/Src/stm32g4xx_hal_flash.c **** 
 837              		.loc 1 215 14 is_stmt 0 view .LVU259
 838 0060 FFF7FEFF 		bl	FLASH_WaitForLastOperation
 839              	.LVL66:
 218:Drivers/STM32G4xx_HAL_Driver/Src/stm32g4xx_hal_flash.c ****     {
 840              		.loc 1 218 5 is_stmt 1 view .LVU260
 215:Drivers/STM32G4xx_HAL_Driver/Src/stm32g4xx_hal_flash.c **** 
 841              		.loc 1 215 14 is_stmt 0 view .LVU261
 842 0064 6FF00101 		mvn	r1, #1
 843              	.LVL67:
 844              	.L66:
 220:Drivers/STM32G4xx_HAL_Driver/Src/stm32g4xx_hal_flash.c ****     }
 845              		.loc 1 220 7 is_stmt 1 view .LVU262
 846 0068 114A     		ldr	r2, .L77+4
 847 006a 5369     		ldr	r3, [r2, #20]
 848 006c 0B40     		ands	r3, r3, r1
 849 006e 5361     		str	r3, [r2, #20]
 850 0070 D9E7     		b	.L64
 851              	.LVL68:
 852              	.L76:
 201:Drivers/STM32G4xx_HAL_Driver/Src/stm32g4xx_hal_flash.c **** 
 853              		.loc 1 201 7 view .LVU263
 854              	.LBB44:
 855              	.LBI44:
 717:Drivers/STM32G4xx_HAL_Driver/Src/stm32g4xx_hal_flash.c **** }
 718:Drivers/STM32G4xx_HAL_Driver/Src/stm32g4xx_hal_flash.c **** 
 719:Drivers/STM32G4xx_HAL_Driver/Src/stm32g4xx_hal_flash.c **** /**
 720:Drivers/STM32G4xx_HAL_Driver/Src/stm32g4xx_hal_flash.c ****   * @brief  Fast program a row double-word (64-bit) at a specified address.
 721:Drivers/STM32G4xx_HAL_Driver/Src/stm32g4xx_hal_flash.c ****   * @param  Address specifies the address to be programmed.
 722:Drivers/STM32G4xx_HAL_Driver/Src/stm32g4xx_hal_flash.c ****   * @param  DataAddress specifies the address where the data are stored.
 723:Drivers/STM32G4xx_HAL_Driver/Src/stm32g4xx_hal_flash.c ****   * @retval None
 724:Drivers/STM32G4xx_HAL_Driver/Src/stm32g4xx_hal_flash.c ****   */
 725:Drivers/STM32G4xx_HAL_Driver/Src/stm32g4xx_hal_flash.c **** static void FLASH_Program_Fast(uint32_t Address, uint32_t DataAddress)
 856              		.loc 1 725 13 view .LVU264
ARM GAS  /tmp/ccaSLnfD.s 			page 48


 857              	.LBB45:
 726:Drivers/STM32G4xx_HAL_Driver/Src/stm32g4xx_hal_flash.c **** {
 727:Drivers/STM32G4xx_HAL_Driver/Src/stm32g4xx_hal_flash.c ****   uint8_t row_index = (2 * FLASH_NB_DOUBLE_WORDS_IN_ROW);
 858              		.loc 1 727 3 view .LVU265
 728:Drivers/STM32G4xx_HAL_Driver/Src/stm32g4xx_hal_flash.c ****   uint32_t *dest_addr = (uint32_t *)Address;
 859              		.loc 1 728 3 view .LVU266
 729:Drivers/STM32G4xx_HAL_Driver/Src/stm32g4xx_hal_flash.c ****   uint32_t *src_addr = (uint32_t *)DataAddress;
 860              		.loc 1 729 3 view .LVU267
 730:Drivers/STM32G4xx_HAL_Driver/Src/stm32g4xx_hal_flash.c ****   uint32_t primask_bit;
 731:Drivers/STM32G4xx_HAL_Driver/Src/stm32g4xx_hal_flash.c **** 
 732:Drivers/STM32G4xx_HAL_Driver/Src/stm32g4xx_hal_flash.c ****   /* Check the parameters */
 733:Drivers/STM32G4xx_HAL_Driver/Src/stm32g4xx_hal_flash.c ****   assert_param(IS_FLASH_MAIN_MEM_ADDRESS(Address));
 734:Drivers/STM32G4xx_HAL_Driver/Src/stm32g4xx_hal_flash.c **** 
 735:Drivers/STM32G4xx_HAL_Driver/Src/stm32g4xx_hal_flash.c ****   /* Set FSTPG bit */
 736:Drivers/STM32G4xx_HAL_Driver/Src/stm32g4xx_hal_flash.c ****   SET_BIT(FLASH->CR, FLASH_CR_FSTPG);
 861              		.loc 1 736 3 is_stmt 0 view .LVU268
 862 0072 0F49     		ldr	r1, .L77+4
 863 0074 4B69     		ldr	r3, [r1, #20]
 864 0076 43F48023 		orr	r3, r3, #262144
 729:Drivers/STM32G4xx_HAL_Driver/Src/stm32g4xx_hal_flash.c ****   uint32_t *src_addr = (uint32_t *)DataAddress;
 865              		.loc 1 729 13 view .LVU269
 866 007a 2246     		mov	r2, r4
 867              	.LVL69:
 730:Drivers/STM32G4xx_HAL_Driver/Src/stm32g4xx_hal_flash.c ****   uint32_t primask_bit;
 868              		.loc 1 730 3 is_stmt 1 view .LVU270
 733:Drivers/STM32G4xx_HAL_Driver/Src/stm32g4xx_hal_flash.c **** 
 869              		.loc 1 733 3 view .LVU271
 870              		.loc 1 736 3 view .LVU272
 871 007c 4B61     		str	r3, [r1, #20]
 737:Drivers/STM32G4xx_HAL_Driver/Src/stm32g4xx_hal_flash.c **** 
 738:Drivers/STM32G4xx_HAL_Driver/Src/stm32g4xx_hal_flash.c ****   /* Enter critical section: Disable interrupts to avoid any interruption during the loop */
 739:Drivers/STM32G4xx_HAL_Driver/Src/stm32g4xx_hal_flash.c ****   primask_bit = __get_PRIMASK();
 872              		.loc 1 739 3 view .LVU273
 873              	.LBB46:
 874              	.LBI46:
 449:Drivers/CMSIS/Include/cmsis_gcc.h **** {
 875              		.loc 2 449 31 view .LVU274
 876              	.LBB47:
 451:Drivers/CMSIS/Include/cmsis_gcc.h **** 
 877              		.loc 2 451 3 view .LVU275
 453:Drivers/CMSIS/Include/cmsis_gcc.h ****   return(result);
 878              		.loc 2 453 3 view .LVU276
 879              		.syntax unified
 880              	@ 453 "Drivers/CMSIS/Include/cmsis_gcc.h" 1
 881 007e EFF31080 		MRS r0, primask
 882              	@ 0 "" 2
 883              	.LVL70:
 454:Drivers/CMSIS/Include/cmsis_gcc.h **** }
 884              		.loc 2 454 3 view .LVU277
 454:Drivers/CMSIS/Include/cmsis_gcc.h **** }
 885              		.loc 2 454 3 is_stmt 0 view .LVU278
 886              		.thumb
 887              		.syntax unified
 888              	.LBE47:
 889              	.LBE46:
 740:Drivers/STM32G4xx_HAL_Driver/Src/stm32g4xx_hal_flash.c ****   __disable_irq();
 890              		.loc 1 740 3 is_stmt 1 view .LVU279
ARM GAS  /tmp/ccaSLnfD.s 			page 49


 891              	.LBB48:
 892              	.LBI48:
 207:Drivers/CMSIS/Include/cmsis_gcc.h **** {
 893              		.loc 2 207 27 view .LVU280
 894              	.LBB49:
 209:Drivers/CMSIS/Include/cmsis_gcc.h **** }
 895              		.loc 2 209 3 view .LVU281
 896              		.syntax unified
 897              	@ 209 "Drivers/CMSIS/Include/cmsis_gcc.h" 1
 898 0082 72B6     		cpsid i
 899              	@ 0 "" 2
 900              		.thumb
 901              		.syntax unified
 902 0084 291B     		subs	r1, r5, r4
 903 0086 04F58074 		add	r4, r4, #256
 904              	.LVL71:
 905              	.L68:
 209:Drivers/CMSIS/Include/cmsis_gcc.h **** }
 906              		.loc 2 209 3 is_stmt 0 view .LVU282
 907              	.LBE49:
 908              	.LBE48:
 741:Drivers/STM32G4xx_HAL_Driver/Src/stm32g4xx_hal_flash.c **** 
 742:Drivers/STM32G4xx_HAL_Driver/Src/stm32g4xx_hal_flash.c ****   /* Program the double words of the row */
 743:Drivers/STM32G4xx_HAL_Driver/Src/stm32g4xx_hal_flash.c ****   do
 909              		.loc 1 743 3 is_stmt 1 view .LVU283
 744:Drivers/STM32G4xx_HAL_Driver/Src/stm32g4xx_hal_flash.c ****   {
 745:Drivers/STM32G4xx_HAL_Driver/Src/stm32g4xx_hal_flash.c ****     *dest_addr = *src_addr;
 910              		.loc 1 745 5 view .LVU284
 911              		.loc 1 745 18 is_stmt 0 view .LVU285
 912 008a 1368     		ldr	r3, [r2]
 913              		.loc 1 745 16 view .LVU286
 914 008c 5350     		str	r3, [r2, r1]
 746:Drivers/STM32G4xx_HAL_Driver/Src/stm32g4xx_hal_flash.c ****     dest_addr++;
 915              		.loc 1 746 5 is_stmt 1 view .LVU287
 916              	.LVL72:
 747:Drivers/STM32G4xx_HAL_Driver/Src/stm32g4xx_hal_flash.c ****     src_addr++;
 917              		.loc 1 747 5 view .LVU288
 918              		.loc 1 747 13 is_stmt 0 view .LVU289
 919 008e 0432     		adds	r2, r2, #4
 920              	.LVL73:
 748:Drivers/STM32G4xx_HAL_Driver/Src/stm32g4xx_hal_flash.c ****     row_index--;
 921              		.loc 1 748 5 is_stmt 1 view .LVU290
 749:Drivers/STM32G4xx_HAL_Driver/Src/stm32g4xx_hal_flash.c ****   }
 750:Drivers/STM32G4xx_HAL_Driver/Src/stm32g4xx_hal_flash.c ****   while (row_index != 0U);
 922              		.loc 1 750 9 view .LVU291
 923              		.loc 1 750 3 is_stmt 0 view .LVU292
 924 0090 A242     		cmp	r2, r4
 925 0092 FAD1     		bne	.L68
 751:Drivers/STM32G4xx_HAL_Driver/Src/stm32g4xx_hal_flash.c **** 
 752:Drivers/STM32G4xx_HAL_Driver/Src/stm32g4xx_hal_flash.c ****   /* Exit critical section: restore previous priority mask */
 753:Drivers/STM32G4xx_HAL_Driver/Src/stm32g4xx_hal_flash.c ****   __set_PRIMASK(primask_bit);
 926              		.loc 1 753 3 is_stmt 1 view .LVU293
 927              	.LVL74:
 928              	.LBB50:
 929              	.LBI50:
 479:Drivers/CMSIS/Include/cmsis_gcc.h **** {
 930              		.loc 2 479 27 view .LVU294
ARM GAS  /tmp/ccaSLnfD.s 			page 50


 931              	.LBB51:
 481:Drivers/CMSIS/Include/cmsis_gcc.h **** }
 932              		.loc 2 481 3 view .LVU295
 933              		.syntax unified
 934              	@ 481 "Drivers/CMSIS/Include/cmsis_gcc.h" 1
 935 0094 80F31088 		MSR primask, r0
 936              	@ 0 "" 2
 937              	.LVL75:
 481:Drivers/CMSIS/Include/cmsis_gcc.h **** }
 938              		.loc 2 481 3 is_stmt 0 view .LVU296
 939              		.thumb
 940              		.syntax unified
 941              	.LBE51:
 942              	.LBE50:
 943              	.LBE45:
 944              	.LBE44:
 204:Drivers/STM32G4xx_HAL_Driver/Src/stm32g4xx_hal_flash.c ****       {
 945              		.loc 1 204 7 is_stmt 1 view .LVU297
 204:Drivers/STM32G4xx_HAL_Driver/Src/stm32g4xx_hal_flash.c ****       {
 946              		.loc 1 204 10 is_stmt 0 view .LVU298
 947 0098 022F     		cmp	r7, #2
 215:Drivers/STM32G4xx_HAL_Driver/Src/stm32g4xx_hal_flash.c **** 
 948              		.loc 1 215 14 view .LVU299
 949 009a 4FF47A70 		mov	r0, #1000
 950              	.LVL76:
 204:Drivers/STM32G4xx_HAL_Driver/Src/stm32g4xx_hal_flash.c ****       {
 951              		.loc 1 204 10 view .LVU300
 952 009e CDD1     		bne	.L73
 206:Drivers/STM32G4xx_HAL_Driver/Src/stm32g4xx_hal_flash.c ****       }
 953              		.loc 1 206 9 is_stmt 1 view .LVU301
 954              	.LVL77:
 212:Drivers/STM32G4xx_HAL_Driver/Src/stm32g4xx_hal_flash.c **** 
 955              		.loc 1 212 5 view .LVU302
 215:Drivers/STM32G4xx_HAL_Driver/Src/stm32g4xx_hal_flash.c **** 
 956              		.loc 1 215 5 view .LVU303
 215:Drivers/STM32G4xx_HAL_Driver/Src/stm32g4xx_hal_flash.c **** 
 957              		.loc 1 215 14 is_stmt 0 view .LVU304
 958 00a0 FFF7FEFF 		bl	FLASH_WaitForLastOperation
 959              	.LVL78:
 218:Drivers/STM32G4xx_HAL_Driver/Src/stm32g4xx_hal_flash.c ****     {
 960              		.loc 1 218 5 is_stmt 1 view .LVU305
 215:Drivers/STM32G4xx_HAL_Driver/Src/stm32g4xx_hal_flash.c **** 
 961              		.loc 1 215 14 is_stmt 0 view .LVU306
 962 00a4 6FF48021 		mvn	r1, #262144
 963 00a8 DEE7     		b	.L66
 964              	.L78:
 965 00aa 00BF     		.align	2
 966              	.L77:
 967 00ac 00000000 		.word	.LANCHOR0
 968 00b0 00200240 		.word	1073881088
 969              		.cfi_endproc
 970              	.LFE329:
 972              		.section	.text.HAL_FLASH_Program_IT,"ax",%progbits
 973              		.align	1
 974              		.p2align 2,,3
 975              		.global	HAL_FLASH_Program_IT
 976              		.syntax unified
ARM GAS  /tmp/ccaSLnfD.s 			page 51


 977              		.thumb
 978              		.thumb_func
 979              		.fpu fpv4-sp-d16
 981              	HAL_FLASH_Program_IT:
 982              	.LVL79:
 983              	.LFB330:
 243:Drivers/STM32G4xx_HAL_Driver/Src/stm32g4xx_hal_flash.c ****   HAL_StatusTypeDef status;
 984              		.loc 1 243 1 is_stmt 1 view -0
 985              		.cfi_startproc
 986              		@ args = 0, pretend = 0, frame = 0
 987              		@ frame_needed = 0, uses_anonymous_args = 0
 243:Drivers/STM32G4xx_HAL_Driver/Src/stm32g4xx_hal_flash.c ****   HAL_StatusTypeDef status;
 988              		.loc 1 243 1 is_stmt 0 view .LVU308
 989 0000 2DE9F843 		push	{r3, r4, r5, r6, r7, r8, r9, lr}
 990              	.LCFI3:
 991              		.cfi_def_cfa_offset 32
 992              		.cfi_offset 3, -32
 993              		.cfi_offset 4, -28
 994              		.cfi_offset 5, -24
 995              		.cfi_offset 6, -20
 996              		.cfi_offset 7, -16
 997              		.cfi_offset 8, -12
 998              		.cfi_offset 9, -8
 999              		.cfi_offset 14, -4
 250:Drivers/STM32G4xx_HAL_Driver/Src/stm32g4xx_hal_flash.c **** 
 1000              		.loc 1 250 3 view .LVU309
 1001 0004 294F     		ldr	r7, .L91
 1002 0006 3C78     		ldrb	r4, [r7]	@ zero_extendqisi2
 244:Drivers/STM32G4xx_HAL_Driver/Src/stm32g4xx_hal_flash.c **** 
 1003              		.loc 1 244 3 is_stmt 1 view .LVU310
 247:Drivers/STM32G4xx_HAL_Driver/Src/stm32g4xx_hal_flash.c **** 
 1004              		.loc 1 247 3 view .LVU311
 250:Drivers/STM32G4xx_HAL_Driver/Src/stm32g4xx_hal_flash.c **** 
 1005              		.loc 1 250 3 view .LVU312
 250:Drivers/STM32G4xx_HAL_Driver/Src/stm32g4xx_hal_flash.c **** 
 1006              		.loc 1 250 3 view .LVU313
 1007 0008 012C     		cmp	r4, #1
 1008 000a 28D0     		beq	.L86
 250:Drivers/STM32G4xx_HAL_Driver/Src/stm32g4xx_hal_flash.c **** 
 1009              		.loc 1 250 3 discriminator 2 view .LVU314
 1010 000c 8046     		mov	r8, r0
 1011 000e 9946     		mov	r9, r3
 253:Drivers/STM32G4xx_HAL_Driver/Src/stm32g4xx_hal_flash.c **** 
 1012              		.loc 1 253 20 is_stmt 0 discriminator 2 view .LVU315
 1013 0010 0024     		movs	r4, #0
 250:Drivers/STM32G4xx_HAL_Driver/Src/stm32g4xx_hal_flash.c **** 
 1014              		.loc 1 250 3 discriminator 2 view .LVU316
 1015 0012 0123     		movs	r3, #1
 256:Drivers/STM32G4xx_HAL_Driver/Src/stm32g4xx_hal_flash.c **** 
 1016              		.loc 1 256 12 discriminator 2 view .LVU317
 1017 0014 4FF47A70 		mov	r0, #1000
 1018              	.LVL80:
 256:Drivers/STM32G4xx_HAL_Driver/Src/stm32g4xx_hal_flash.c **** 
 1019              		.loc 1 256 12 discriminator 2 view .LVU318
 1020 0018 0E46     		mov	r6, r1
 1021 001a 1546     		mov	r5, r2
 250:Drivers/STM32G4xx_HAL_Driver/Src/stm32g4xx_hal_flash.c **** 
ARM GAS  /tmp/ccaSLnfD.s 			page 52


 1022              		.loc 1 250 3 discriminator 2 view .LVU319
 1023 001c 3B70     		strb	r3, [r7]
 250:Drivers/STM32G4xx_HAL_Driver/Src/stm32g4xx_hal_flash.c **** 
 1024              		.loc 1 250 3 is_stmt 1 discriminator 2 view .LVU320
 253:Drivers/STM32G4xx_HAL_Driver/Src/stm32g4xx_hal_flash.c **** 
 1025              		.loc 1 253 3 discriminator 2 view .LVU321
 253:Drivers/STM32G4xx_HAL_Driver/Src/stm32g4xx_hal_flash.c **** 
 1026              		.loc 1 253 20 is_stmt 0 discriminator 2 view .LVU322
 1027 001e 7C60     		str	r4, [r7, #4]
 256:Drivers/STM32G4xx_HAL_Driver/Src/stm32g4xx_hal_flash.c **** 
 1028              		.loc 1 256 3 is_stmt 1 discriminator 2 view .LVU323
 256:Drivers/STM32G4xx_HAL_Driver/Src/stm32g4xx_hal_flash.c **** 
 1029              		.loc 1 256 12 is_stmt 0 discriminator 2 view .LVU324
 1030 0020 FFF7FEFF 		bl	FLASH_WaitForLastOperation
 1031              	.LVL81:
 258:Drivers/STM32G4xx_HAL_Driver/Src/stm32g4xx_hal_flash.c ****   {
 1032              		.loc 1 258 3 is_stmt 1 discriminator 2 view .LVU325
 258:Drivers/STM32G4xx_HAL_Driver/Src/stm32g4xx_hal_flash.c ****   {
 1033              		.loc 1 258 6 is_stmt 0 discriminator 2 view .LVU326
 1034 0024 10B1     		cbz	r0, .L81
 261:Drivers/STM32G4xx_HAL_Driver/Src/stm32g4xx_hal_flash.c ****   }
 1035              		.loc 1 261 5 is_stmt 1 view .LVU327
 261:Drivers/STM32G4xx_HAL_Driver/Src/stm32g4xx_hal_flash.c ****   }
 1036              		.loc 1 261 5 view .LVU328
 1037 0026 3C70     		strb	r4, [r7]
 261:Drivers/STM32G4xx_HAL_Driver/Src/stm32g4xx_hal_flash.c ****   }
 1038              		.loc 1 261 5 view .LVU329
 1039              	.LVL82:
 1040              	.L80:
 296:Drivers/STM32G4xx_HAL_Driver/Src/stm32g4xx_hal_flash.c **** 
 1041              		.loc 1 296 1 is_stmt 0 view .LVU330
 1042 0028 BDE8F883 		pop	{r3, r4, r5, r6, r7, r8, r9, pc}
 1043              	.LVL83:
 1044              	.L81:
 266:Drivers/STM32G4xx_HAL_Driver/Src/stm32g4xx_hal_flash.c ****     {
 1045              		.loc 1 266 5 is_stmt 1 view .LVU331
 266:Drivers/STM32G4xx_HAL_Driver/Src/stm32g4xx_hal_flash.c ****     {
 1046              		.loc 1 266 8 is_stmt 0 view .LVU332
 1047 002c B8F1020F 		cmp	r8, #2
 1048 0030 1FD0     		beq	.L90
 272:Drivers/STM32G4xx_HAL_Driver/Src/stm32g4xx_hal_flash.c ****     }
 1049              		.loc 1 272 7 is_stmt 1 view .LVU333
 277:Drivers/STM32G4xx_HAL_Driver/Src/stm32g4xx_hal_flash.c **** 
 1050              		.loc 1 277 5 is_stmt 0 view .LVU334
 1051 0032 1F4B     		ldr	r3, .L91+4
 272:Drivers/STM32G4xx_HAL_Driver/Src/stm32g4xx_hal_flash.c ****     }
 1052              		.loc 1 272 31 view .LVU335
 1053 0034 0322     		movs	r2, #3
 1054 0036 3A72     		strb	r2, [r7, #8]
 274:Drivers/STM32G4xx_HAL_Driver/Src/stm32g4xx_hal_flash.c **** 
 1055              		.loc 1 274 5 is_stmt 1 view .LVU336
 274:Drivers/STM32G4xx_HAL_Driver/Src/stm32g4xx_hal_flash.c **** 
 1056              		.loc 1 274 20 is_stmt 0 view .LVU337
 1057 0038 FE60     		str	r6, [r7, #12]
 277:Drivers/STM32G4xx_HAL_Driver/Src/stm32g4xx_hal_flash.c **** 
 1058              		.loc 1 277 5 is_stmt 1 view .LVU338
 277:Drivers/STM32G4xx_HAL_Driver/Src/stm32g4xx_hal_flash.c **** 
ARM GAS  /tmp/ccaSLnfD.s 			page 53


 1059              		.loc 1 277 5 view .LVU339
 277:Drivers/STM32G4xx_HAL_Driver/Src/stm32g4xx_hal_flash.c **** 
 1060              		.loc 1 277 5 view .LVU340
 277:Drivers/STM32G4xx_HAL_Driver/Src/stm32g4xx_hal_flash.c **** 
 1061              		.loc 1 277 5 view .LVU341
 1062 003a 5A69     		ldr	r2, [r3, #20]
 1063 003c 42F04072 		orr	r2, r2, #50331648
 1064 0040 5A61     		str	r2, [r3, #20]
 277:Drivers/STM32G4xx_HAL_Driver/Src/stm32g4xx_hal_flash.c **** 
 1065              		.loc 1 277 5 view .LVU342
 279:Drivers/STM32G4xx_HAL_Driver/Src/stm32g4xx_hal_flash.c ****     {
 1066              		.loc 1 279 5 view .LVU343
 279:Drivers/STM32G4xx_HAL_Driver/Src/stm32g4xx_hal_flash.c ****     {
 1067              		.loc 1 279 8 is_stmt 0 view .LVU344
 1068 0042 B8F1000F 		cmp	r8, #0
 1069 0046 0DD1     		bne	.L84
 282:Drivers/STM32G4xx_HAL_Driver/Src/stm32g4xx_hal_flash.c ****     }
 1070              		.loc 1 282 7 is_stmt 1 view .LVU345
 1071              	.LVL84:
 1072              	.LBB52:
 1073              	.LBI52:
 700:Drivers/STM32G4xx_HAL_Driver/Src/stm32g4xx_hal_flash.c **** {
 1074              		.loc 1 700 13 view .LVU346
 1075              	.LBB53:
 703:Drivers/STM32G4xx_HAL_Driver/Src/stm32g4xx_hal_flash.c **** 
 1076              		.loc 1 703 3 view .LVU347
 706:Drivers/STM32G4xx_HAL_Driver/Src/stm32g4xx_hal_flash.c **** 
 1077              		.loc 1 706 3 view .LVU348
 1078 0048 5A69     		ldr	r2, [r3, #20]
 1079 004a 42F00102 		orr	r2, r2, #1
 1080 004e 5A61     		str	r2, [r3, #20]
 709:Drivers/STM32G4xx_HAL_Driver/Src/stm32g4xx_hal_flash.c **** 
 1081              		.loc 1 709 3 view .LVU349
 709:Drivers/STM32G4xx_HAL_Driver/Src/stm32g4xx_hal_flash.c **** 
 1082              		.loc 1 709 26 is_stmt 0 view .LVU350
 1083 0050 3560     		str	r5, [r6]
 713:Drivers/STM32G4xx_HAL_Driver/Src/stm32g4xx_hal_flash.c **** 
 1084              		.loc 1 713 3 is_stmt 1 view .LVU351
 1085              	.LBB54:
 1086              	.LBI54:
 933:Drivers/CMSIS/Include/cmsis_gcc.h **** {
 1087              		.loc 2 933 27 view .LVU352
 1088              	.LBB55:
 1089              		.loc 2 935 3 view .LVU353
 1090              		.syntax unified
 1091              	@ 935 "Drivers/CMSIS/Include/cmsis_gcc.h" 1
 1092 0052 BFF36F8F 		isb 0xF
 1093              	@ 0 "" 2
 1094              		.thumb
 1095              		.syntax unified
 1096              	.LBE55:
 1097              	.LBE54:
 716:Drivers/STM32G4xx_HAL_Driver/Src/stm32g4xx_hal_flash.c **** }
 1098              		.loc 1 716 3 view .LVU354
 716:Drivers/STM32G4xx_HAL_Driver/Src/stm32g4xx_hal_flash.c **** }
 1099              		.loc 1 716 33 is_stmt 0 view .LVU355
 1100 0056 C6F80490 		str	r9, [r6, #4]
ARM GAS  /tmp/ccaSLnfD.s 			page 54


 1101              	.LVL85:
 716:Drivers/STM32G4xx_HAL_Driver/Src/stm32g4xx_hal_flash.c **** }
 1102              		.loc 1 716 33 view .LVU356
 1103              	.LBE53:
 1104              	.LBE52:
 296:Drivers/STM32G4xx_HAL_Driver/Src/stm32g4xx_hal_flash.c **** 
 1105              		.loc 1 296 1 view .LVU357
 1106 005a BDE8F883 		pop	{r3, r4, r5, r6, r7, r8, r9, pc}
 1107              	.LVL86:
 1108              	.L86:
 250:Drivers/STM32G4xx_HAL_Driver/Src/stm32g4xx_hal_flash.c **** 
 1109              		.loc 1 250 3 view .LVU358
 1110 005e 0220     		movs	r0, #2
 1111              	.LVL87:
 296:Drivers/STM32G4xx_HAL_Driver/Src/stm32g4xx_hal_flash.c **** 
 1112              		.loc 1 296 1 view .LVU359
 1113 0060 BDE8F883 		pop	{r3, r4, r5, r6, r7, r8, r9, pc}
 1114              	.LVL88:
 1115              	.L84:
 284:Drivers/STM32G4xx_HAL_Driver/Src/stm32g4xx_hal_flash.c ****     {
 1116              		.loc 1 284 10 is_stmt 1 view .LVU360
 284:Drivers/STM32G4xx_HAL_Driver/Src/stm32g4xx_hal_flash.c ****     {
 1117              		.loc 1 284 54 is_stmt 0 view .LVU361
 1118 0064 08F1FF38 		add	r8, r8, #-1
 1119              	.LVL89:
 284:Drivers/STM32G4xx_HAL_Driver/Src/stm32g4xx_hal_flash.c ****     {
 1120              		.loc 1 284 13 view .LVU362
 1121 0068 B8F1010F 		cmp	r8, #1
 1122 006c 09D9     		bls	.L83
 296:Drivers/STM32G4xx_HAL_Driver/Src/stm32g4xx_hal_flash.c **** 
 1123              		.loc 1 296 1 view .LVU363
 1124 006e BDE8F883 		pop	{r3, r4, r5, r6, r7, r8, r9, pc}
 1125              	.LVL90:
 1126              	.L90:
 268:Drivers/STM32G4xx_HAL_Driver/Src/stm32g4xx_hal_flash.c ****     }
 1127              		.loc 1 268 7 is_stmt 1 view .LVU364
 277:Drivers/STM32G4xx_HAL_Driver/Src/stm32g4xx_hal_flash.c **** 
 1128              		.loc 1 277 5 is_stmt 0 view .LVU365
 1129 0072 0F4A     		ldr	r2, .L91+4
 268:Drivers/STM32G4xx_HAL_Driver/Src/stm32g4xx_hal_flash.c ****     }
 1130              		.loc 1 268 31 view .LVU366
 1131 0074 0423     		movs	r3, #4
 1132 0076 3B72     		strb	r3, [r7, #8]
 274:Drivers/STM32G4xx_HAL_Driver/Src/stm32g4xx_hal_flash.c **** 
 1133              		.loc 1 274 5 is_stmt 1 view .LVU367
 274:Drivers/STM32G4xx_HAL_Driver/Src/stm32g4xx_hal_flash.c **** 
 1134              		.loc 1 274 20 is_stmt 0 view .LVU368
 1135 0078 FE60     		str	r6, [r7, #12]
 277:Drivers/STM32G4xx_HAL_Driver/Src/stm32g4xx_hal_flash.c **** 
 1136              		.loc 1 277 5 is_stmt 1 view .LVU369
 277:Drivers/STM32G4xx_HAL_Driver/Src/stm32g4xx_hal_flash.c **** 
 1137              		.loc 1 277 5 view .LVU370
 277:Drivers/STM32G4xx_HAL_Driver/Src/stm32g4xx_hal_flash.c **** 
 1138              		.loc 1 277 5 view .LVU371
 277:Drivers/STM32G4xx_HAL_Driver/Src/stm32g4xx_hal_flash.c **** 
 1139              		.loc 1 277 5 view .LVU372
 1140 007a 5369     		ldr	r3, [r2, #20]
ARM GAS  /tmp/ccaSLnfD.s 			page 55


 1141 007c 43F04073 		orr	r3, r3, #50331648
 1142 0080 5361     		str	r3, [r2, #20]
 277:Drivers/STM32G4xx_HAL_Driver/Src/stm32g4xx_hal_flash.c **** 
 1143              		.loc 1 277 5 view .LVU373
 279:Drivers/STM32G4xx_HAL_Driver/Src/stm32g4xx_hal_flash.c ****     {
 1144              		.loc 1 279 5 view .LVU374
 284:Drivers/STM32G4xx_HAL_Driver/Src/stm32g4xx_hal_flash.c ****     {
 1145              		.loc 1 284 10 view .LVU375
 1146              	.LVL91:
 1147              	.L83:
 287:Drivers/STM32G4xx_HAL_Driver/Src/stm32g4xx_hal_flash.c ****     }
 1148              		.loc 1 287 7 view .LVU376
 1149              	.LBB56:
 1150              	.LBI56:
 725:Drivers/STM32G4xx_HAL_Driver/Src/stm32g4xx_hal_flash.c **** {
 1151              		.loc 1 725 13 view .LVU377
 1152              	.LBB57:
 727:Drivers/STM32G4xx_HAL_Driver/Src/stm32g4xx_hal_flash.c ****   uint32_t *dest_addr = (uint32_t *)Address;
 1153              		.loc 1 727 3 view .LVU378
 728:Drivers/STM32G4xx_HAL_Driver/Src/stm32g4xx_hal_flash.c ****   uint32_t *src_addr = (uint32_t *)DataAddress;
 1154              		.loc 1 728 3 view .LVU379
 729:Drivers/STM32G4xx_HAL_Driver/Src/stm32g4xx_hal_flash.c ****   uint32_t primask_bit;
 1155              		.loc 1 729 3 view .LVU380
 736:Drivers/STM32G4xx_HAL_Driver/Src/stm32g4xx_hal_flash.c **** 
 1156              		.loc 1 736 3 is_stmt 0 view .LVU381
 1157 0082 0B49     		ldr	r1, .L91+4
 1158 0084 4B69     		ldr	r3, [r1, #20]
 1159 0086 43F48023 		orr	r3, r3, #262144
 729:Drivers/STM32G4xx_HAL_Driver/Src/stm32g4xx_hal_flash.c ****   uint32_t primask_bit;
 1160              		.loc 1 729 13 view .LVU382
 1161 008a 2A46     		mov	r2, r5
 1162              	.LVL92:
 730:Drivers/STM32G4xx_HAL_Driver/Src/stm32g4xx_hal_flash.c **** 
 1163              		.loc 1 730 3 is_stmt 1 view .LVU383
 733:Drivers/STM32G4xx_HAL_Driver/Src/stm32g4xx_hal_flash.c **** 
 1164              		.loc 1 733 3 view .LVU384
 736:Drivers/STM32G4xx_HAL_Driver/Src/stm32g4xx_hal_flash.c **** 
 1165              		.loc 1 736 3 view .LVU385
 1166 008c 4B61     		str	r3, [r1, #20]
 739:Drivers/STM32G4xx_HAL_Driver/Src/stm32g4xx_hal_flash.c ****   __disable_irq();
 1167              		.loc 1 739 3 view .LVU386
 1168              	.LBB58:
 1169              	.LBI58:
 449:Drivers/CMSIS/Include/cmsis_gcc.h **** {
 1170              		.loc 2 449 31 view .LVU387
 1171              	.LBB59:
 451:Drivers/CMSIS/Include/cmsis_gcc.h **** 
 1172              		.loc 2 451 3 view .LVU388
 453:Drivers/CMSIS/Include/cmsis_gcc.h ****   return(result);
 1173              		.loc 2 453 3 view .LVU389
 1174              		.syntax unified
 1175              	@ 453 "Drivers/CMSIS/Include/cmsis_gcc.h" 1
 1176 008e EFF31085 		MRS r5, primask
 1177              	@ 0 "" 2
 1178              	.LVL93:
 454:Drivers/CMSIS/Include/cmsis_gcc.h **** }
 1179              		.loc 2 454 3 view .LVU390
ARM GAS  /tmp/ccaSLnfD.s 			page 56


 454:Drivers/CMSIS/Include/cmsis_gcc.h **** }
 1180              		.loc 2 454 3 is_stmt 0 view .LVU391
 1181              		.thumb
 1182              		.syntax unified
 1183              	.LBE59:
 1184              	.LBE58:
 740:Drivers/STM32G4xx_HAL_Driver/Src/stm32g4xx_hal_flash.c **** 
 1185              		.loc 1 740 3 is_stmt 1 view .LVU392
 1186              	.LBB60:
 1187              	.LBI60:
 207:Drivers/CMSIS/Include/cmsis_gcc.h **** {
 1188              		.loc 2 207 27 view .LVU393
 1189              	.LBB61:
 209:Drivers/CMSIS/Include/cmsis_gcc.h **** }
 1190              		.loc 2 209 3 view .LVU394
 1191              		.syntax unified
 1192              	@ 209 "Drivers/CMSIS/Include/cmsis_gcc.h" 1
 1193 0092 72B6     		cpsid i
 1194              	@ 0 "" 2
 1195              		.thumb
 1196              		.syntax unified
 1197 0094 B11A     		subs	r1, r6, r2
 1198 0096 02F58074 		add	r4, r2, #256
 1199              	.LVL94:
 1200              	.L85:
 209:Drivers/CMSIS/Include/cmsis_gcc.h **** }
 1201              		.loc 2 209 3 is_stmt 0 view .LVU395
 1202              	.LBE61:
 1203              	.LBE60:
 743:Drivers/STM32G4xx_HAL_Driver/Src/stm32g4xx_hal_flash.c ****   {
 1204              		.loc 1 743 3 is_stmt 1 view .LVU396
 745:Drivers/STM32G4xx_HAL_Driver/Src/stm32g4xx_hal_flash.c ****     dest_addr++;
 1205              		.loc 1 745 5 view .LVU397
 745:Drivers/STM32G4xx_HAL_Driver/Src/stm32g4xx_hal_flash.c ****     dest_addr++;
 1206              		.loc 1 745 18 is_stmt 0 view .LVU398
 1207 009a 1368     		ldr	r3, [r2]
 745:Drivers/STM32G4xx_HAL_Driver/Src/stm32g4xx_hal_flash.c ****     dest_addr++;
 1208              		.loc 1 745 16 view .LVU399
 1209 009c 5350     		str	r3, [r2, r1]
 746:Drivers/STM32G4xx_HAL_Driver/Src/stm32g4xx_hal_flash.c ****     src_addr++;
 1210              		.loc 1 746 5 is_stmt 1 view .LVU400
 1211              	.LVL95:
 747:Drivers/STM32G4xx_HAL_Driver/Src/stm32g4xx_hal_flash.c ****     row_index--;
 1212              		.loc 1 747 5 view .LVU401
 747:Drivers/STM32G4xx_HAL_Driver/Src/stm32g4xx_hal_flash.c ****     row_index--;
 1213              		.loc 1 747 13 is_stmt 0 view .LVU402
 1214 009e 0432     		adds	r2, r2, #4
 1215              	.LVL96:
 748:Drivers/STM32G4xx_HAL_Driver/Src/stm32g4xx_hal_flash.c ****   }
 1216              		.loc 1 748 5 is_stmt 1 view .LVU403
 750:Drivers/STM32G4xx_HAL_Driver/Src/stm32g4xx_hal_flash.c **** 
 1217              		.loc 1 750 9 view .LVU404
 750:Drivers/STM32G4xx_HAL_Driver/Src/stm32g4xx_hal_flash.c **** 
 1218              		.loc 1 750 3 is_stmt 0 view .LVU405
 1219 00a0 A242     		cmp	r2, r4
 1220 00a2 FAD1     		bne	.L85
 1221              		.loc 1 753 3 is_stmt 1 view .LVU406
ARM GAS  /tmp/ccaSLnfD.s 			page 57


 1222              	.LVL97:
 1223              	.LBB62:
 1224              	.LBI62:
 479:Drivers/CMSIS/Include/cmsis_gcc.h **** {
 1225              		.loc 2 479 27 view .LVU407
 1226              	.LBB63:
 481:Drivers/CMSIS/Include/cmsis_gcc.h **** }
 1227              		.loc 2 481 3 view .LVU408
 1228              		.syntax unified
 1229              	@ 481 "Drivers/CMSIS/Include/cmsis_gcc.h" 1
 1230 00a4 85F31088 		MSR primask, r5
 1231              	@ 0 "" 2
 1232              	.LVL98:
 481:Drivers/CMSIS/Include/cmsis_gcc.h **** }
 1233              		.loc 2 481 3 is_stmt 0 view .LVU409
 1234              		.thumb
 1235              		.syntax unified
 1236              	.LBE63:
 1237              	.LBE62:
 754:Drivers/STM32G4xx_HAL_Driver/Src/stm32g4xx_hal_flash.c **** }
 1238              		.loc 1 754 1 view .LVU410
 1239 00a8 BEE7     		b	.L80
 1240              	.L92:
 1241 00aa 00BF     		.align	2
 1242              	.L91:
 1243 00ac 00000000 		.word	.LANCHOR0
 1244 00b0 00200240 		.word	1073881088
 1245              	.LBE57:
 1246              	.LBE56:
 1247              		.cfi_endproc
 1248              	.LFE330:
 1250              		.section	.text.HAL_FLASH_OB_Launch,"ax",%progbits
 1251              		.align	1
 1252              		.p2align 2,,3
 1253              		.global	HAL_FLASH_OB_Launch
 1254              		.syntax unified
 1255              		.thumb
 1256              		.thumb_func
 1257              		.fpu fpv4-sp-d16
 1259              	HAL_FLASH_OB_Launch:
 1260              	.LFB338:
 582:Drivers/STM32G4xx_HAL_Driver/Src/stm32g4xx_hal_flash.c ****   /* Set the bit to force the option byte reloading */
 1261              		.loc 1 582 1 is_stmt 1 view -0
 1262              		.cfi_startproc
 1263              		@ args = 0, pretend = 0, frame = 0
 1264              		@ frame_needed = 0, uses_anonymous_args = 0
 1265              		@ link register save eliminated.
 584:Drivers/STM32G4xx_HAL_Driver/Src/stm32g4xx_hal_flash.c **** 
 1266              		.loc 1 584 3 view .LVU412
 1267 0000 044A     		ldr	r2, .L94
 1268 0002 5369     		ldr	r3, [r2, #20]
 1269 0004 43F00063 		orr	r3, r3, #134217728
 1270 0008 5361     		str	r3, [r2, #20]
 587:Drivers/STM32G4xx_HAL_Driver/Src/stm32g4xx_hal_flash.c **** }
 1271              		.loc 1 587 3 view .LVU413
 587:Drivers/STM32G4xx_HAL_Driver/Src/stm32g4xx_hal_flash.c **** }
 1272              		.loc 1 587 11 is_stmt 0 view .LVU414
ARM GAS  /tmp/ccaSLnfD.s 			page 58


 1273 000a 4FF47A70 		mov	r0, #1000
 1274 000e FFF7FEBF 		b	FLASH_WaitForLastOperation
 1275              	.LVL99:
 1276              	.L95:
 1277 0012 00BF     		.align	2
 1278              	.L94:
 1279 0014 00200240 		.word	1073881088
 1280              		.cfi_endproc
 1281              	.LFE338:
 1283              		.global	pFlash
 1284              		.section	.data.pFlash,"aw"
 1285              		.align	2
 1286              		.set	.LANCHOR0,. + 0
 1289              	pFlash:
 1290 0000 00       		.byte	0
 1291 0001 000000   		.space	3
 1292 0004 00000000 		.word	0
 1293 0008 00       		.byte	0
 1294 0009 000000   		.space	3
 1295 000c 00000000 		.word	0
 1296 0010 01000000 		.word	1
 1297 0014 00000000 		.word	0
 1298 0018 00000000 		.word	0
 1299 001c 00       		.byte	0
 1300 001d 000000   		.space	3
 1301              		.text
 1302              	.Letext0:
 1303              		.file 3 "/usr/lib/gcc/arm-none-eabi/9.2.1/include/stdint.h"
 1304              		.file 4 "Drivers/CMSIS/Include/core_cm4.h"
 1305              		.file 5 "Drivers/CMSIS/Device/ST/STM32G4xx/Include/system_stm32g4xx.h"
 1306              		.file 6 "Drivers/CMSIS/Device/ST/STM32G4xx/Include/stm32g474xx.h"
 1307              		.file 7 "Drivers/STM32G4xx_HAL_Driver/Inc/stm32g4xx_hal_def.h"
 1308              		.file 8 "Drivers/STM32G4xx_HAL_Driver/Inc/stm32g4xx_hal_flash.h"
 1309              		.file 9 "Drivers/STM32G4xx_HAL_Driver/Inc/stm32g4xx_hal.h"
 1310              		.file 10 "Drivers/STM32G4xx_HAL_Driver/Inc/stm32g4xx_hal_flash_ex.h"
ARM GAS  /tmp/ccaSLnfD.s 			page 59

