ARM GAS  /tmp/ccnaDHIW.s 			page 1


   1              		.cpu cortex-m4
   2              		.eabi_attribute 27, 1
   3              		.eabi_attribute 28, 1
   4              		.eabi_attribute 20, 1
   5              		.eabi_attribute 21, 1
   6              		.eabi_attribute 23, 3
   7              		.eabi_attribute 24, 1
   8              		.eabi_attribute 25, 1
   9              		.eabi_attribute 26, 1
  10              		.eabi_attribute 30, 2
  11              		.eabi_attribute 34, 1
  12              		.eabi_attribute 18, 4
  13              		.file	"stm32g4xx_hal_adc_ex.c"
  14              		.text
  15              	.Ltext0:
  16              		.cfi_sections	.debug_frame
  17              		.section	.text.HAL_ADCEx_Calibration_Start,"ax",%progbits
  18              		.align	1
  19              		.p2align 2,,3
  20              		.global	HAL_ADCEx_Calibration_Start
  21              		.arch armv7e-m
  22              		.syntax unified
  23              		.thumb
  24              		.thumb_func
  25              		.fpu fpv4-sp-d16
  27              	HAL_ADCEx_Calibration_Start:
  28              	.LVL0:
  29              	.LFB329:
  30              		.file 1 "Drivers/STM32G4xx_HAL_Driver/Src/stm32g4xx_hal_adc_ex.c"
   1:Drivers/STM32G4xx_HAL_Driver/Src/stm32g4xx_hal_adc_ex.c **** /**
   2:Drivers/STM32G4xx_HAL_Driver/Src/stm32g4xx_hal_adc_ex.c ****   ******************************************************************************
   3:Drivers/STM32G4xx_HAL_Driver/Src/stm32g4xx_hal_adc_ex.c ****   * @file    stm32g4xx_hal_adc_ex.c
   4:Drivers/STM32G4xx_HAL_Driver/Src/stm32g4xx_hal_adc_ex.c ****   * @author  MCD Application Team
   5:Drivers/STM32G4xx_HAL_Driver/Src/stm32g4xx_hal_adc_ex.c ****   * @brief   This file provides firmware functions to manage the following
   6:Drivers/STM32G4xx_HAL_Driver/Src/stm32g4xx_hal_adc_ex.c ****   *          functionalities of the Analog to Digital Converter (ADC)
   7:Drivers/STM32G4xx_HAL_Driver/Src/stm32g4xx_hal_adc_ex.c ****   *          peripheral:
   8:Drivers/STM32G4xx_HAL_Driver/Src/stm32g4xx_hal_adc_ex.c ****   *           + Operation functions
   9:Drivers/STM32G4xx_HAL_Driver/Src/stm32g4xx_hal_adc_ex.c ****   *             ++ Start, stop, get result of conversions of ADC group injected,
  10:Drivers/STM32G4xx_HAL_Driver/Src/stm32g4xx_hal_adc_ex.c ****   *                using 2 possible modes: polling, interruption.
  11:Drivers/STM32G4xx_HAL_Driver/Src/stm32g4xx_hal_adc_ex.c ****   *             ++ Calibration
  12:Drivers/STM32G4xx_HAL_Driver/Src/stm32g4xx_hal_adc_ex.c ****   *               +++ ADC automatic self-calibration
  13:Drivers/STM32G4xx_HAL_Driver/Src/stm32g4xx_hal_adc_ex.c ****   *               +++ Calibration factors get or set
  14:Drivers/STM32G4xx_HAL_Driver/Src/stm32g4xx_hal_adc_ex.c ****   *             ++ Multimode feature when available
  15:Drivers/STM32G4xx_HAL_Driver/Src/stm32g4xx_hal_adc_ex.c ****   *           + Control functions
  16:Drivers/STM32G4xx_HAL_Driver/Src/stm32g4xx_hal_adc_ex.c ****   *             ++ Channels configuration on ADC group injected
  17:Drivers/STM32G4xx_HAL_Driver/Src/stm32g4xx_hal_adc_ex.c ****   *           + State functions
  18:Drivers/STM32G4xx_HAL_Driver/Src/stm32g4xx_hal_adc_ex.c ****   *             ++ ADC group injected contexts queue management
  19:Drivers/STM32G4xx_HAL_Driver/Src/stm32g4xx_hal_adc_ex.c ****   *          Other functions (generic functions) are available in file
  20:Drivers/STM32G4xx_HAL_Driver/Src/stm32g4xx_hal_adc_ex.c ****   *          "stm32g4xx_hal_adc.c".
  21:Drivers/STM32G4xx_HAL_Driver/Src/stm32g4xx_hal_adc_ex.c ****   *
  22:Drivers/STM32G4xx_HAL_Driver/Src/stm32g4xx_hal_adc_ex.c ****   @verbatim
  23:Drivers/STM32G4xx_HAL_Driver/Src/stm32g4xx_hal_adc_ex.c ****   [..]
  24:Drivers/STM32G4xx_HAL_Driver/Src/stm32g4xx_hal_adc_ex.c ****   (@) Sections "ADC peripheral features" and "How to use this driver" are
  25:Drivers/STM32G4xx_HAL_Driver/Src/stm32g4xx_hal_adc_ex.c ****       available in file of generic functions "stm32g4xx_hal_adc.c".
  26:Drivers/STM32G4xx_HAL_Driver/Src/stm32g4xx_hal_adc_ex.c ****   [..]
  27:Drivers/STM32G4xx_HAL_Driver/Src/stm32g4xx_hal_adc_ex.c ****   @endverbatim
  28:Drivers/STM32G4xx_HAL_Driver/Src/stm32g4xx_hal_adc_ex.c ****   ******************************************************************************
ARM GAS  /tmp/ccnaDHIW.s 			page 2


  29:Drivers/STM32G4xx_HAL_Driver/Src/stm32g4xx_hal_adc_ex.c ****   * @attention
  30:Drivers/STM32G4xx_HAL_Driver/Src/stm32g4xx_hal_adc_ex.c ****   *
  31:Drivers/STM32G4xx_HAL_Driver/Src/stm32g4xx_hal_adc_ex.c ****   * <h2><center>&copy; Copyright (c) 2019 STMicroelectronics.
  32:Drivers/STM32G4xx_HAL_Driver/Src/stm32g4xx_hal_adc_ex.c ****   * All rights reserved.</center></h2>
  33:Drivers/STM32G4xx_HAL_Driver/Src/stm32g4xx_hal_adc_ex.c ****   *
  34:Drivers/STM32G4xx_HAL_Driver/Src/stm32g4xx_hal_adc_ex.c ****   * This software component is licensed by ST under BSD 3-Clause license,
  35:Drivers/STM32G4xx_HAL_Driver/Src/stm32g4xx_hal_adc_ex.c ****   * the "License"; You may not use this file except in compliance with the
  36:Drivers/STM32G4xx_HAL_Driver/Src/stm32g4xx_hal_adc_ex.c ****   * License. You may obtain a copy of the License at:
  37:Drivers/STM32G4xx_HAL_Driver/Src/stm32g4xx_hal_adc_ex.c ****   *                        opensource.org/licenses/BSD-3-Clause
  38:Drivers/STM32G4xx_HAL_Driver/Src/stm32g4xx_hal_adc_ex.c ****   *
  39:Drivers/STM32G4xx_HAL_Driver/Src/stm32g4xx_hal_adc_ex.c ****   ******************************************************************************
  40:Drivers/STM32G4xx_HAL_Driver/Src/stm32g4xx_hal_adc_ex.c ****   */
  41:Drivers/STM32G4xx_HAL_Driver/Src/stm32g4xx_hal_adc_ex.c **** 
  42:Drivers/STM32G4xx_HAL_Driver/Src/stm32g4xx_hal_adc_ex.c **** /* Includes ------------------------------------------------------------------*/
  43:Drivers/STM32G4xx_HAL_Driver/Src/stm32g4xx_hal_adc_ex.c **** #include "stm32g4xx_hal.h"
  44:Drivers/STM32G4xx_HAL_Driver/Src/stm32g4xx_hal_adc_ex.c **** 
  45:Drivers/STM32G4xx_HAL_Driver/Src/stm32g4xx_hal_adc_ex.c **** /** @addtogroup STM32G4xx_HAL_Driver
  46:Drivers/STM32G4xx_HAL_Driver/Src/stm32g4xx_hal_adc_ex.c ****   * @{
  47:Drivers/STM32G4xx_HAL_Driver/Src/stm32g4xx_hal_adc_ex.c ****   */
  48:Drivers/STM32G4xx_HAL_Driver/Src/stm32g4xx_hal_adc_ex.c **** 
  49:Drivers/STM32G4xx_HAL_Driver/Src/stm32g4xx_hal_adc_ex.c **** /** @defgroup ADCEx ADCEx
  50:Drivers/STM32G4xx_HAL_Driver/Src/stm32g4xx_hal_adc_ex.c ****   * @brief ADC Extended HAL module driver
  51:Drivers/STM32G4xx_HAL_Driver/Src/stm32g4xx_hal_adc_ex.c ****   * @{
  52:Drivers/STM32G4xx_HAL_Driver/Src/stm32g4xx_hal_adc_ex.c ****   */
  53:Drivers/STM32G4xx_HAL_Driver/Src/stm32g4xx_hal_adc_ex.c **** 
  54:Drivers/STM32G4xx_HAL_Driver/Src/stm32g4xx_hal_adc_ex.c **** #ifdef HAL_ADC_MODULE_ENABLED
  55:Drivers/STM32G4xx_HAL_Driver/Src/stm32g4xx_hal_adc_ex.c **** 
  56:Drivers/STM32G4xx_HAL_Driver/Src/stm32g4xx_hal_adc_ex.c **** /* Private typedef -----------------------------------------------------------*/
  57:Drivers/STM32G4xx_HAL_Driver/Src/stm32g4xx_hal_adc_ex.c **** /* Private define ------------------------------------------------------------*/
  58:Drivers/STM32G4xx_HAL_Driver/Src/stm32g4xx_hal_adc_ex.c **** 
  59:Drivers/STM32G4xx_HAL_Driver/Src/stm32g4xx_hal_adc_ex.c **** /** @defgroup ADCEx_Private_Constants ADC Extended Private Constants
  60:Drivers/STM32G4xx_HAL_Driver/Src/stm32g4xx_hal_adc_ex.c ****   * @{
  61:Drivers/STM32G4xx_HAL_Driver/Src/stm32g4xx_hal_adc_ex.c ****   */
  62:Drivers/STM32G4xx_HAL_Driver/Src/stm32g4xx_hal_adc_ex.c **** 
  63:Drivers/STM32G4xx_HAL_Driver/Src/stm32g4xx_hal_adc_ex.c **** #define ADC_JSQR_FIELDS  ((ADC_JSQR_JL | ADC_JSQR_JEXTSEL | ADC_JSQR_JEXTEN |\
  64:Drivers/STM32G4xx_HAL_Driver/Src/stm32g4xx_hal_adc_ex.c ****                            ADC_JSQR_JSQ1  | ADC_JSQR_JSQ2 |\
  65:Drivers/STM32G4xx_HAL_Driver/Src/stm32g4xx_hal_adc_ex.c ****                            ADC_JSQR_JSQ3 | ADC_JSQR_JSQ4 ))  /*!< ADC_JSQR fields of parameters tha
  66:Drivers/STM32G4xx_HAL_Driver/Src/stm32g4xx_hal_adc_ex.c ****                                                                   once the ADC is enabled */
  67:Drivers/STM32G4xx_HAL_Driver/Src/stm32g4xx_hal_adc_ex.c **** 
  68:Drivers/STM32G4xx_HAL_Driver/Src/stm32g4xx_hal_adc_ex.c **** /* Fixed timeout value for ADC calibration.                                   */
  69:Drivers/STM32G4xx_HAL_Driver/Src/stm32g4xx_hal_adc_ex.c **** /* Values defined to be higher than worst cases: low clock frequency,         */
  70:Drivers/STM32G4xx_HAL_Driver/Src/stm32g4xx_hal_adc_ex.c **** /* maximum prescalers.                                                        */
  71:Drivers/STM32G4xx_HAL_Driver/Src/stm32g4xx_hal_adc_ex.c **** /* Ex of profile low frequency : f_ADC at f_CPU/3968 (minimum value           */
  72:Drivers/STM32G4xx_HAL_Driver/Src/stm32g4xx_hal_adc_ex.c **** /* considering both possible ADC clocking scheme:                             */
  73:Drivers/STM32G4xx_HAL_Driver/Src/stm32g4xx_hal_adc_ex.c **** /*        - ADC clock from synchronous clock with AHB prescaler 512,          */
  74:Drivers/STM32G4xx_HAL_Driver/Src/stm32g4xx_hal_adc_ex.c **** /*          ADC prescaler 4.                                                  */
  75:Drivers/STM32G4xx_HAL_Driver/Src/stm32g4xx_hal_adc_ex.c **** /*           Ratio max = 512 *4 = 2048                                        */
  76:Drivers/STM32G4xx_HAL_Driver/Src/stm32g4xx_hal_adc_ex.c **** /*        - ADC clock from asynchronous clock (PLLP) with prescaler 256.      */
  77:Drivers/STM32G4xx_HAL_Driver/Src/stm32g4xx_hal_adc_ex.c **** /*          Highest CPU clock PLL (PLLR).                                     */
  78:Drivers/STM32G4xx_HAL_Driver/Src/stm32g4xx_hal_adc_ex.c **** /*           Ratio max = PLLRmax /PPLPmin * 256 = (VCO/2) / (VCO/31) * 256    */
  79:Drivers/STM32G4xx_HAL_Driver/Src/stm32g4xx_hal_adc_ex.c **** /*                     = 3968 )                                               */
  80:Drivers/STM32G4xx_HAL_Driver/Src/stm32g4xx_hal_adc_ex.c **** /* Calibration_time MAX = 81 / f_ADC                                          */
  81:Drivers/STM32G4xx_HAL_Driver/Src/stm32g4xx_hal_adc_ex.c **** /*                      = 81 / (f_CPU/3938) = 318978 CPU cycles               */
  82:Drivers/STM32G4xx_HAL_Driver/Src/stm32g4xx_hal_adc_ex.c **** #define ADC_CALIBRATION_TIMEOUT         (318978UL)   /*!< ADC calibration time-out value (unit: CPU
  83:Drivers/STM32G4xx_HAL_Driver/Src/stm32g4xx_hal_adc_ex.c **** 
  84:Drivers/STM32G4xx_HAL_Driver/Src/stm32g4xx_hal_adc_ex.c **** /**
  85:Drivers/STM32G4xx_HAL_Driver/Src/stm32g4xx_hal_adc_ex.c ****   * @}
ARM GAS  /tmp/ccnaDHIW.s 			page 3


  86:Drivers/STM32G4xx_HAL_Driver/Src/stm32g4xx_hal_adc_ex.c ****   */
  87:Drivers/STM32G4xx_HAL_Driver/Src/stm32g4xx_hal_adc_ex.c **** 
  88:Drivers/STM32G4xx_HAL_Driver/Src/stm32g4xx_hal_adc_ex.c **** /* Private macro -------------------------------------------------------------*/
  89:Drivers/STM32G4xx_HAL_Driver/Src/stm32g4xx_hal_adc_ex.c **** /* Private variables ---------------------------------------------------------*/
  90:Drivers/STM32G4xx_HAL_Driver/Src/stm32g4xx_hal_adc_ex.c **** /* Private function prototypes -----------------------------------------------*/
  91:Drivers/STM32G4xx_HAL_Driver/Src/stm32g4xx_hal_adc_ex.c **** /* Exported functions --------------------------------------------------------*/
  92:Drivers/STM32G4xx_HAL_Driver/Src/stm32g4xx_hal_adc_ex.c **** 
  93:Drivers/STM32G4xx_HAL_Driver/Src/stm32g4xx_hal_adc_ex.c **** /** @defgroup ADCEx_Exported_Functions ADC Extended Exported Functions
  94:Drivers/STM32G4xx_HAL_Driver/Src/stm32g4xx_hal_adc_ex.c ****   * @{
  95:Drivers/STM32G4xx_HAL_Driver/Src/stm32g4xx_hal_adc_ex.c ****   */
  96:Drivers/STM32G4xx_HAL_Driver/Src/stm32g4xx_hal_adc_ex.c **** 
  97:Drivers/STM32G4xx_HAL_Driver/Src/stm32g4xx_hal_adc_ex.c **** /** @defgroup ADCEx_Exported_Functions_Group1 Extended Input and Output operation functions
  98:Drivers/STM32G4xx_HAL_Driver/Src/stm32g4xx_hal_adc_ex.c ****   * @brief    Extended IO operation functions
  99:Drivers/STM32G4xx_HAL_Driver/Src/stm32g4xx_hal_adc_ex.c ****   *
 100:Drivers/STM32G4xx_HAL_Driver/Src/stm32g4xx_hal_adc_ex.c **** @verbatim
 101:Drivers/STM32G4xx_HAL_Driver/Src/stm32g4xx_hal_adc_ex.c ****  ===============================================================================
 102:Drivers/STM32G4xx_HAL_Driver/Src/stm32g4xx_hal_adc_ex.c ****                       ##### IO operation functions #####
 103:Drivers/STM32G4xx_HAL_Driver/Src/stm32g4xx_hal_adc_ex.c ****  ===============================================================================
 104:Drivers/STM32G4xx_HAL_Driver/Src/stm32g4xx_hal_adc_ex.c ****     [..]  This section provides functions allowing to:
 105:Drivers/STM32G4xx_HAL_Driver/Src/stm32g4xx_hal_adc_ex.c **** 
 106:Drivers/STM32G4xx_HAL_Driver/Src/stm32g4xx_hal_adc_ex.c ****       (+) Perform the ADC self-calibration for single or differential ending.
 107:Drivers/STM32G4xx_HAL_Driver/Src/stm32g4xx_hal_adc_ex.c ****       (+) Get calibration factors for single or differential ending.
 108:Drivers/STM32G4xx_HAL_Driver/Src/stm32g4xx_hal_adc_ex.c ****       (+) Set calibration factors for single or differential ending.
 109:Drivers/STM32G4xx_HAL_Driver/Src/stm32g4xx_hal_adc_ex.c **** 
 110:Drivers/STM32G4xx_HAL_Driver/Src/stm32g4xx_hal_adc_ex.c ****       (+) Start conversion of ADC group injected.
 111:Drivers/STM32G4xx_HAL_Driver/Src/stm32g4xx_hal_adc_ex.c ****       (+) Stop conversion of ADC group injected.
 112:Drivers/STM32G4xx_HAL_Driver/Src/stm32g4xx_hal_adc_ex.c ****       (+) Poll for conversion complete on ADC group injected.
 113:Drivers/STM32G4xx_HAL_Driver/Src/stm32g4xx_hal_adc_ex.c ****       (+) Get result of ADC group injected channel conversion.
 114:Drivers/STM32G4xx_HAL_Driver/Src/stm32g4xx_hal_adc_ex.c ****       (+) Start conversion of ADC group injected and enable interruptions.
 115:Drivers/STM32G4xx_HAL_Driver/Src/stm32g4xx_hal_adc_ex.c ****       (+) Stop conversion of ADC group injected and disable interruptions.
 116:Drivers/STM32G4xx_HAL_Driver/Src/stm32g4xx_hal_adc_ex.c **** 
 117:Drivers/STM32G4xx_HAL_Driver/Src/stm32g4xx_hal_adc_ex.c ****       (+) When multimode feature is available, start multimode and enable DMA transfer.
 118:Drivers/STM32G4xx_HAL_Driver/Src/stm32g4xx_hal_adc_ex.c ****       (+) Stop multimode and disable ADC DMA transfer.
 119:Drivers/STM32G4xx_HAL_Driver/Src/stm32g4xx_hal_adc_ex.c ****       (+) Get result of multimode conversion.
 120:Drivers/STM32G4xx_HAL_Driver/Src/stm32g4xx_hal_adc_ex.c **** 
 121:Drivers/STM32G4xx_HAL_Driver/Src/stm32g4xx_hal_adc_ex.c **** @endverbatim
 122:Drivers/STM32G4xx_HAL_Driver/Src/stm32g4xx_hal_adc_ex.c ****   * @{
 123:Drivers/STM32G4xx_HAL_Driver/Src/stm32g4xx_hal_adc_ex.c ****   */
 124:Drivers/STM32G4xx_HAL_Driver/Src/stm32g4xx_hal_adc_ex.c **** 
 125:Drivers/STM32G4xx_HAL_Driver/Src/stm32g4xx_hal_adc_ex.c **** /**
 126:Drivers/STM32G4xx_HAL_Driver/Src/stm32g4xx_hal_adc_ex.c ****   * @brief  Perform an ADC automatic self-calibration
 127:Drivers/STM32G4xx_HAL_Driver/Src/stm32g4xx_hal_adc_ex.c ****   *         Calibration prerequisite: ADC must be disabled (execute this
 128:Drivers/STM32G4xx_HAL_Driver/Src/stm32g4xx_hal_adc_ex.c ****   *         function before HAL_ADC_Start() or after HAL_ADC_Stop() ).
 129:Drivers/STM32G4xx_HAL_Driver/Src/stm32g4xx_hal_adc_ex.c ****   * @param  hadc       ADC handle
 130:Drivers/STM32G4xx_HAL_Driver/Src/stm32g4xx_hal_adc_ex.c ****   * @param  SingleDiff Selection of single-ended or differential input
 131:Drivers/STM32G4xx_HAL_Driver/Src/stm32g4xx_hal_adc_ex.c ****   *         This parameter can be one of the following values:
 132:Drivers/STM32G4xx_HAL_Driver/Src/stm32g4xx_hal_adc_ex.c ****   *           @arg @ref ADC_SINGLE_ENDED       Channel in mode input single ended
 133:Drivers/STM32G4xx_HAL_Driver/Src/stm32g4xx_hal_adc_ex.c ****   *           @arg @ref ADC_DIFFERENTIAL_ENDED Channel in mode input differential ended
 134:Drivers/STM32G4xx_HAL_Driver/Src/stm32g4xx_hal_adc_ex.c ****   * @retval HAL status
 135:Drivers/STM32G4xx_HAL_Driver/Src/stm32g4xx_hal_adc_ex.c ****   */
 136:Drivers/STM32G4xx_HAL_Driver/Src/stm32g4xx_hal_adc_ex.c **** HAL_StatusTypeDef HAL_ADCEx_Calibration_Start(ADC_HandleTypeDef *hadc, uint32_t SingleDiff)
 137:Drivers/STM32G4xx_HAL_Driver/Src/stm32g4xx_hal_adc_ex.c **** {
  31              		.loc 1 137 1 view -0
  32              		.cfi_startproc
  33              		@ args = 0, pretend = 0, frame = 8
  34              		@ frame_needed = 0, uses_anonymous_args = 0
 138:Drivers/STM32G4xx_HAL_Driver/Src/stm32g4xx_hal_adc_ex.c ****   HAL_StatusTypeDef tmp_hal_status;
ARM GAS  /tmp/ccnaDHIW.s 			page 4


  35              		.loc 1 138 3 view .LVU1
 139:Drivers/STM32G4xx_HAL_Driver/Src/stm32g4xx_hal_adc_ex.c ****   __IO uint32_t wait_loop_index = 0UL;
  36              		.loc 1 139 3 view .LVU2
 137:Drivers/STM32G4xx_HAL_Driver/Src/stm32g4xx_hal_adc_ex.c ****   HAL_StatusTypeDef tmp_hal_status;
  37              		.loc 1 137 1 is_stmt 0 view .LVU3
  38 0000 30B5     		push	{r4, r5, lr}
  39              	.LCFI0:
  40              		.cfi_def_cfa_offset 12
  41              		.cfi_offset 4, -12
  42              		.cfi_offset 5, -8
  43              		.cfi_offset 14, -4
 140:Drivers/STM32G4xx_HAL_Driver/Src/stm32g4xx_hal_adc_ex.c **** 
 141:Drivers/STM32G4xx_HAL_Driver/Src/stm32g4xx_hal_adc_ex.c ****   /* Check the parameters */
 142:Drivers/STM32G4xx_HAL_Driver/Src/stm32g4xx_hal_adc_ex.c ****   assert_param(IS_ADC_ALL_INSTANCE(hadc->Instance));
 143:Drivers/STM32G4xx_HAL_Driver/Src/stm32g4xx_hal_adc_ex.c ****   assert_param(IS_ADC_SINGLE_DIFFERENTIAL(SingleDiff));
 144:Drivers/STM32G4xx_HAL_Driver/Src/stm32g4xx_hal_adc_ex.c **** 
 145:Drivers/STM32G4xx_HAL_Driver/Src/stm32g4xx_hal_adc_ex.c ****   /* Process locked */
 146:Drivers/STM32G4xx_HAL_Driver/Src/stm32g4xx_hal_adc_ex.c ****   __HAL_LOCK(hadc);
  44              		.loc 1 146 3 view .LVU4
  45 0002 90F85830 		ldrb	r3, [r0, #88]	@ zero_extendqisi2
 137:Drivers/STM32G4xx_HAL_Driver/Src/stm32g4xx_hal_adc_ex.c ****   HAL_StatusTypeDef tmp_hal_status;
  46              		.loc 1 137 1 view .LVU5
  47 0006 83B0     		sub	sp, sp, #12
  48              	.LCFI1:
  49              		.cfi_def_cfa_offset 24
 139:Drivers/STM32G4xx_HAL_Driver/Src/stm32g4xx_hal_adc_ex.c **** 
  50              		.loc 1 139 17 view .LVU6
  51 0008 0022     		movs	r2, #0
  52              		.loc 1 146 3 view .LVU7
  53 000a 012B     		cmp	r3, #1
 139:Drivers/STM32G4xx_HAL_Driver/Src/stm32g4xx_hal_adc_ex.c **** 
  54              		.loc 1 139 17 view .LVU8
  55 000c 0192     		str	r2, [sp, #4]
 142:Drivers/STM32G4xx_HAL_Driver/Src/stm32g4xx_hal_adc_ex.c ****   assert_param(IS_ADC_SINGLE_DIFFERENTIAL(SingleDiff));
  56              		.loc 1 142 3 is_stmt 1 view .LVU9
 143:Drivers/STM32G4xx_HAL_Driver/Src/stm32g4xx_hal_adc_ex.c **** 
  57              		.loc 1 143 3 view .LVU10
  58              		.loc 1 146 3 view .LVU11
  59              		.loc 1 146 3 view .LVU12
  60 000e 3FD0     		beq	.L8
  61              		.loc 1 146 3 discriminator 2 view .LVU13
  62 0010 0123     		movs	r3, #1
  63 0012 80F85830 		strb	r3, [r0, #88]
  64              		.loc 1 146 3 discriminator 2 view .LVU14
 147:Drivers/STM32G4xx_HAL_Driver/Src/stm32g4xx_hal_adc_ex.c **** 
 148:Drivers/STM32G4xx_HAL_Driver/Src/stm32g4xx_hal_adc_ex.c ****   /* Calibration prerequisite: ADC must be disabled. */
 149:Drivers/STM32G4xx_HAL_Driver/Src/stm32g4xx_hal_adc_ex.c **** 
 150:Drivers/STM32G4xx_HAL_Driver/Src/stm32g4xx_hal_adc_ex.c ****   /* Disable the ADC (if not already disabled) */
 151:Drivers/STM32G4xx_HAL_Driver/Src/stm32g4xx_hal_adc_ex.c ****   tmp_hal_status = ADC_Disable(hadc);
  65              		.loc 1 151 3 discriminator 2 view .LVU15
  66 0016 0446     		mov	r4, r0
  67 0018 0D46     		mov	r5, r1
  68              		.loc 1 151 20 is_stmt 0 discriminator 2 view .LVU16
  69 001a FFF7FEFF 		bl	ADC_Disable
  70              	.LVL1:
 152:Drivers/STM32G4xx_HAL_Driver/Src/stm32g4xx_hal_adc_ex.c **** 
 153:Drivers/STM32G4xx_HAL_Driver/Src/stm32g4xx_hal_adc_ex.c ****   /* Check if ADC is effectively disabled */
ARM GAS  /tmp/ccnaDHIW.s 			page 5


 154:Drivers/STM32G4xx_HAL_Driver/Src/stm32g4xx_hal_adc_ex.c ****   if (tmp_hal_status == HAL_OK)
  71              		.loc 1 154 3 is_stmt 1 discriminator 2 view .LVU17
 155:Drivers/STM32G4xx_HAL_Driver/Src/stm32g4xx_hal_adc_ex.c ****   {
 156:Drivers/STM32G4xx_HAL_Driver/Src/stm32g4xx_hal_adc_ex.c ****     /* Set ADC state */
 157:Drivers/STM32G4xx_HAL_Driver/Src/stm32g4xx_hal_adc_ex.c ****     ADC_STATE_CLR_SET(hadc->State,
  72              		.loc 1 157 5 is_stmt 0 discriminator 2 view .LVU18
  73 001e E36D     		ldr	r3, [r4, #92]
 154:Drivers/STM32G4xx_HAL_Driver/Src/stm32g4xx_hal_adc_ex.c ****   {
  74              		.loc 1 154 6 discriminator 2 view .LVU19
  75 0020 E8B9     		cbnz	r0, .L3
  76              		.loc 1 157 5 is_stmt 1 view .LVU20
  77 0022 23F48853 		bic	r3, r3, #4352
  78 0026 23F00203 		bic	r3, r3, #2
 158:Drivers/STM32G4xx_HAL_Driver/Src/stm32g4xx_hal_adc_ex.c ****                       HAL_ADC_STATE_REG_BUSY | HAL_ADC_STATE_INJ_BUSY,
 159:Drivers/STM32G4xx_HAL_Driver/Src/stm32g4xx_hal_adc_ex.c ****                       HAL_ADC_STATE_BUSY_INTERNAL);
 160:Drivers/STM32G4xx_HAL_Driver/Src/stm32g4xx_hal_adc_ex.c **** 
 161:Drivers/STM32G4xx_HAL_Driver/Src/stm32g4xx_hal_adc_ex.c ****     /* Start ADC calibration in mode single-ended or differential */
 162:Drivers/STM32G4xx_HAL_Driver/Src/stm32g4xx_hal_adc_ex.c ****     LL_ADC_StartCalibration(hadc->Instance, SingleDiff);
  79              		.loc 1 162 5 is_stmt 0 view .LVU21
  80 002a 2268     		ldr	r2, [r4]
 163:Drivers/STM32G4xx_HAL_Driver/Src/stm32g4xx_hal_adc_ex.c **** 
 164:Drivers/STM32G4xx_HAL_Driver/Src/stm32g4xx_hal_adc_ex.c ****     /* Wait for calibration completion */
 165:Drivers/STM32G4xx_HAL_Driver/Src/stm32g4xx_hal_adc_ex.c ****     while (LL_ADC_IsCalibrationOnGoing(hadc->Instance) != 0UL)
 166:Drivers/STM32G4xx_HAL_Driver/Src/stm32g4xx_hal_adc_ex.c ****     {
 167:Drivers/STM32G4xx_HAL_Driver/Src/stm32g4xx_hal_adc_ex.c ****       wait_loop_index++;
 168:Drivers/STM32G4xx_HAL_Driver/Src/stm32g4xx_hal_adc_ex.c ****       if (wait_loop_index >= ADC_CALIBRATION_TIMEOUT)
  81              		.loc 1 168 10 view .LVU22
  82 002c 1A49     		ldr	r1, .L12
 157:Drivers/STM32G4xx_HAL_Driver/Src/stm32g4xx_hal_adc_ex.c ****                       HAL_ADC_STATE_REG_BUSY | HAL_ADC_STATE_INJ_BUSY,
  83              		.loc 1 157 5 view .LVU23
  84 002e 43F00203 		orr	r3, r3, #2
  85 0032 E365     		str	r3, [r4, #92]
 162:Drivers/STM32G4xx_HAL_Driver/Src/stm32g4xx_hal_adc_ex.c **** 
  86              		.loc 1 162 5 is_stmt 1 view .LVU24
  87              	.LVL2:
  88              	.LBB296:
  89              	.LBI296:
  90              		.file 2 "Drivers/STM32G4xx_HAL_Driver/Inc/stm32g4xx_ll_adc.h"
   1:Drivers/STM32G4xx_HAL_Driver/Inc/stm32g4xx_ll_adc.h **** /**
   2:Drivers/STM32G4xx_HAL_Driver/Inc/stm32g4xx_ll_adc.h ****   ******************************************************************************
   3:Drivers/STM32G4xx_HAL_Driver/Inc/stm32g4xx_ll_adc.h ****   * @file    stm32g4xx_ll_adc.h
   4:Drivers/STM32G4xx_HAL_Driver/Inc/stm32g4xx_ll_adc.h ****   * @author  MCD Application Team
   5:Drivers/STM32G4xx_HAL_Driver/Inc/stm32g4xx_ll_adc.h ****   * @brief   Header file of ADC LL module.
   6:Drivers/STM32G4xx_HAL_Driver/Inc/stm32g4xx_ll_adc.h ****   ******************************************************************************
   7:Drivers/STM32G4xx_HAL_Driver/Inc/stm32g4xx_ll_adc.h ****   * @attention
   8:Drivers/STM32G4xx_HAL_Driver/Inc/stm32g4xx_ll_adc.h ****   *
   9:Drivers/STM32G4xx_HAL_Driver/Inc/stm32g4xx_ll_adc.h ****   * <h2><center>&copy; Copyright (c) 2019 STMicroelectronics.
  10:Drivers/STM32G4xx_HAL_Driver/Inc/stm32g4xx_ll_adc.h ****   * All rights reserved.</center></h2>
  11:Drivers/STM32G4xx_HAL_Driver/Inc/stm32g4xx_ll_adc.h ****   *
  12:Drivers/STM32G4xx_HAL_Driver/Inc/stm32g4xx_ll_adc.h ****   * This software component is licensed by ST under BSD 3-Clause license,
  13:Drivers/STM32G4xx_HAL_Driver/Inc/stm32g4xx_ll_adc.h ****   * the "License"; You may not use this file except in compliance with the
  14:Drivers/STM32G4xx_HAL_Driver/Inc/stm32g4xx_ll_adc.h ****   * License. You may obtain a copy of the License at:
  15:Drivers/STM32G4xx_HAL_Driver/Inc/stm32g4xx_ll_adc.h ****   *                        opensource.org/licenses/BSD-3-Clause
  16:Drivers/STM32G4xx_HAL_Driver/Inc/stm32g4xx_ll_adc.h ****   *
  17:Drivers/STM32G4xx_HAL_Driver/Inc/stm32g4xx_ll_adc.h ****   ******************************************************************************
  18:Drivers/STM32G4xx_HAL_Driver/Inc/stm32g4xx_ll_adc.h ****   */
  19:Drivers/STM32G4xx_HAL_Driver/Inc/stm32g4xx_ll_adc.h **** 
ARM GAS  /tmp/ccnaDHIW.s 			page 6


  20:Drivers/STM32G4xx_HAL_Driver/Inc/stm32g4xx_ll_adc.h **** /* Define to prevent recursive inclusion -------------------------------------*/
  21:Drivers/STM32G4xx_HAL_Driver/Inc/stm32g4xx_ll_adc.h **** #ifndef STM32G4xx_LL_ADC_H
  22:Drivers/STM32G4xx_HAL_Driver/Inc/stm32g4xx_ll_adc.h **** #define STM32G4xx_LL_ADC_H
  23:Drivers/STM32G4xx_HAL_Driver/Inc/stm32g4xx_ll_adc.h **** 
  24:Drivers/STM32G4xx_HAL_Driver/Inc/stm32g4xx_ll_adc.h **** #ifdef __cplusplus
  25:Drivers/STM32G4xx_HAL_Driver/Inc/stm32g4xx_ll_adc.h **** extern "C" {
  26:Drivers/STM32G4xx_HAL_Driver/Inc/stm32g4xx_ll_adc.h **** #endif
  27:Drivers/STM32G4xx_HAL_Driver/Inc/stm32g4xx_ll_adc.h **** 
  28:Drivers/STM32G4xx_HAL_Driver/Inc/stm32g4xx_ll_adc.h **** /* Includes ------------------------------------------------------------------*/
  29:Drivers/STM32G4xx_HAL_Driver/Inc/stm32g4xx_ll_adc.h **** #include "stm32g4xx.h"
  30:Drivers/STM32G4xx_HAL_Driver/Inc/stm32g4xx_ll_adc.h **** 
  31:Drivers/STM32G4xx_HAL_Driver/Inc/stm32g4xx_ll_adc.h **** /** @addtogroup STM32G4xx_LL_Driver
  32:Drivers/STM32G4xx_HAL_Driver/Inc/stm32g4xx_ll_adc.h ****   * @{
  33:Drivers/STM32G4xx_HAL_Driver/Inc/stm32g4xx_ll_adc.h ****   */
  34:Drivers/STM32G4xx_HAL_Driver/Inc/stm32g4xx_ll_adc.h **** 
  35:Drivers/STM32G4xx_HAL_Driver/Inc/stm32g4xx_ll_adc.h **** #if defined (ADC1) || defined (ADC2) || defined (ADC3) || defined (ADC4) || defined (ADC5)
  36:Drivers/STM32G4xx_HAL_Driver/Inc/stm32g4xx_ll_adc.h **** 
  37:Drivers/STM32G4xx_HAL_Driver/Inc/stm32g4xx_ll_adc.h **** /** @defgroup ADC_LL ADC
  38:Drivers/STM32G4xx_HAL_Driver/Inc/stm32g4xx_ll_adc.h ****   * @{
  39:Drivers/STM32G4xx_HAL_Driver/Inc/stm32g4xx_ll_adc.h ****   */
  40:Drivers/STM32G4xx_HAL_Driver/Inc/stm32g4xx_ll_adc.h **** 
  41:Drivers/STM32G4xx_HAL_Driver/Inc/stm32g4xx_ll_adc.h **** /* Private types -------------------------------------------------------------*/
  42:Drivers/STM32G4xx_HAL_Driver/Inc/stm32g4xx_ll_adc.h **** /* Private variables ---------------------------------------------------------*/
  43:Drivers/STM32G4xx_HAL_Driver/Inc/stm32g4xx_ll_adc.h **** 
  44:Drivers/STM32G4xx_HAL_Driver/Inc/stm32g4xx_ll_adc.h **** /* Private constants ---------------------------------------------------------*/
  45:Drivers/STM32G4xx_HAL_Driver/Inc/stm32g4xx_ll_adc.h **** /** @defgroup ADC_LL_Private_Constants ADC Private Constants
  46:Drivers/STM32G4xx_HAL_Driver/Inc/stm32g4xx_ll_adc.h ****   * @{
  47:Drivers/STM32G4xx_HAL_Driver/Inc/stm32g4xx_ll_adc.h ****   */
  48:Drivers/STM32G4xx_HAL_Driver/Inc/stm32g4xx_ll_adc.h **** 
  49:Drivers/STM32G4xx_HAL_Driver/Inc/stm32g4xx_ll_adc.h **** /* Internal mask for ADC group regular sequencer:                             */
  50:Drivers/STM32G4xx_HAL_Driver/Inc/stm32g4xx_ll_adc.h **** /* To select into literal LL_ADC_REG_RANK_x the relevant bits for:            */
  51:Drivers/STM32G4xx_HAL_Driver/Inc/stm32g4xx_ll_adc.h **** /* - sequencer register offset                                                */
  52:Drivers/STM32G4xx_HAL_Driver/Inc/stm32g4xx_ll_adc.h **** /* - sequencer rank bits position into the selected register                  */
  53:Drivers/STM32G4xx_HAL_Driver/Inc/stm32g4xx_ll_adc.h **** 
  54:Drivers/STM32G4xx_HAL_Driver/Inc/stm32g4xx_ll_adc.h **** /* Internal register offset for ADC group regular sequencer configuration */
  55:Drivers/STM32G4xx_HAL_Driver/Inc/stm32g4xx_ll_adc.h **** /* (offset placed into a spare area of literal definition) */
  56:Drivers/STM32G4xx_HAL_Driver/Inc/stm32g4xx_ll_adc.h **** #define ADC_SQR1_REGOFFSET                 (0x00000000UL)
  57:Drivers/STM32G4xx_HAL_Driver/Inc/stm32g4xx_ll_adc.h **** #define ADC_SQR2_REGOFFSET                 (0x00000100UL)
  58:Drivers/STM32G4xx_HAL_Driver/Inc/stm32g4xx_ll_adc.h **** #define ADC_SQR3_REGOFFSET                 (0x00000200UL)
  59:Drivers/STM32G4xx_HAL_Driver/Inc/stm32g4xx_ll_adc.h **** #define ADC_SQR4_REGOFFSET                 (0x00000300UL)
  60:Drivers/STM32G4xx_HAL_Driver/Inc/stm32g4xx_ll_adc.h **** 
  61:Drivers/STM32G4xx_HAL_Driver/Inc/stm32g4xx_ll_adc.h **** #define ADC_REG_SQRX_REGOFFSET_MASK        (ADC_SQR1_REGOFFSET | ADC_SQR2_REGOFFSET | ADC_SQR3_REGO
  62:Drivers/STM32G4xx_HAL_Driver/Inc/stm32g4xx_ll_adc.h **** #define ADC_SQRX_REGOFFSET_POS             (8UL) /* Position of bits ADC_SQRx_REGOFFSET in ADC_REG_
  63:Drivers/STM32G4xx_HAL_Driver/Inc/stm32g4xx_ll_adc.h **** #define ADC_REG_RANK_ID_SQRX_MASK          (ADC_CHANNEL_ID_NUMBER_MASK_POSBIT0)
  64:Drivers/STM32G4xx_HAL_Driver/Inc/stm32g4xx_ll_adc.h **** 
  65:Drivers/STM32G4xx_HAL_Driver/Inc/stm32g4xx_ll_adc.h **** /* Definition of ADC group regular sequencer bits information to be inserted  */
  66:Drivers/STM32G4xx_HAL_Driver/Inc/stm32g4xx_ll_adc.h **** /* into ADC group regular sequencer ranks literals definition.                */
  67:Drivers/STM32G4xx_HAL_Driver/Inc/stm32g4xx_ll_adc.h **** #define ADC_REG_RANK_1_SQRX_BITOFFSET_POS  (ADC_SQR1_SQ1_Pos)
  68:Drivers/STM32G4xx_HAL_Driver/Inc/stm32g4xx_ll_adc.h **** #define ADC_REG_RANK_2_SQRX_BITOFFSET_POS  (ADC_SQR1_SQ2_Pos)
  69:Drivers/STM32G4xx_HAL_Driver/Inc/stm32g4xx_ll_adc.h **** #define ADC_REG_RANK_3_SQRX_BITOFFSET_POS  (ADC_SQR1_SQ3_Pos)
  70:Drivers/STM32G4xx_HAL_Driver/Inc/stm32g4xx_ll_adc.h **** #define ADC_REG_RANK_4_SQRX_BITOFFSET_POS  (ADC_SQR1_SQ4_Pos)
  71:Drivers/STM32G4xx_HAL_Driver/Inc/stm32g4xx_ll_adc.h **** #define ADC_REG_RANK_5_SQRX_BITOFFSET_POS  (ADC_SQR2_SQ5_Pos)
  72:Drivers/STM32G4xx_HAL_Driver/Inc/stm32g4xx_ll_adc.h **** #define ADC_REG_RANK_6_SQRX_BITOFFSET_POS  (ADC_SQR2_SQ6_Pos)
  73:Drivers/STM32G4xx_HAL_Driver/Inc/stm32g4xx_ll_adc.h **** #define ADC_REG_RANK_7_SQRX_BITOFFSET_POS  (ADC_SQR2_SQ7_Pos)
  74:Drivers/STM32G4xx_HAL_Driver/Inc/stm32g4xx_ll_adc.h **** #define ADC_REG_RANK_8_SQRX_BITOFFSET_POS  (ADC_SQR2_SQ8_Pos)
  75:Drivers/STM32G4xx_HAL_Driver/Inc/stm32g4xx_ll_adc.h **** #define ADC_REG_RANK_9_SQRX_BITOFFSET_POS  (ADC_SQR2_SQ9_Pos)
  76:Drivers/STM32G4xx_HAL_Driver/Inc/stm32g4xx_ll_adc.h **** #define ADC_REG_RANK_10_SQRX_BITOFFSET_POS (ADC_SQR3_SQ10_Pos)
ARM GAS  /tmp/ccnaDHIW.s 			page 7


  77:Drivers/STM32G4xx_HAL_Driver/Inc/stm32g4xx_ll_adc.h **** #define ADC_REG_RANK_11_SQRX_BITOFFSET_POS (ADC_SQR3_SQ11_Pos)
  78:Drivers/STM32G4xx_HAL_Driver/Inc/stm32g4xx_ll_adc.h **** #define ADC_REG_RANK_12_SQRX_BITOFFSET_POS (ADC_SQR3_SQ12_Pos)
  79:Drivers/STM32G4xx_HAL_Driver/Inc/stm32g4xx_ll_adc.h **** #define ADC_REG_RANK_13_SQRX_BITOFFSET_POS (ADC_SQR3_SQ13_Pos)
  80:Drivers/STM32G4xx_HAL_Driver/Inc/stm32g4xx_ll_adc.h **** #define ADC_REG_RANK_14_SQRX_BITOFFSET_POS (ADC_SQR3_SQ14_Pos)
  81:Drivers/STM32G4xx_HAL_Driver/Inc/stm32g4xx_ll_adc.h **** #define ADC_REG_RANK_15_SQRX_BITOFFSET_POS (ADC_SQR4_SQ15_Pos)
  82:Drivers/STM32G4xx_HAL_Driver/Inc/stm32g4xx_ll_adc.h **** #define ADC_REG_RANK_16_SQRX_BITOFFSET_POS (ADC_SQR4_SQ16_Pos)
  83:Drivers/STM32G4xx_HAL_Driver/Inc/stm32g4xx_ll_adc.h **** 
  84:Drivers/STM32G4xx_HAL_Driver/Inc/stm32g4xx_ll_adc.h **** 
  85:Drivers/STM32G4xx_HAL_Driver/Inc/stm32g4xx_ll_adc.h **** 
  86:Drivers/STM32G4xx_HAL_Driver/Inc/stm32g4xx_ll_adc.h **** /* Internal mask for ADC group injected sequencer:                            */
  87:Drivers/STM32G4xx_HAL_Driver/Inc/stm32g4xx_ll_adc.h **** /* To select into literal LL_ADC_INJ_RANK_x the relevant bits for:            */
  88:Drivers/STM32G4xx_HAL_Driver/Inc/stm32g4xx_ll_adc.h **** /* - data register offset                                                     */
  89:Drivers/STM32G4xx_HAL_Driver/Inc/stm32g4xx_ll_adc.h **** /* - sequencer rank bits position into the selected register                  */
  90:Drivers/STM32G4xx_HAL_Driver/Inc/stm32g4xx_ll_adc.h **** 
  91:Drivers/STM32G4xx_HAL_Driver/Inc/stm32g4xx_ll_adc.h **** /* Internal register offset for ADC group injected data register */
  92:Drivers/STM32G4xx_HAL_Driver/Inc/stm32g4xx_ll_adc.h **** /* (offset placed into a spare area of literal definition) */
  93:Drivers/STM32G4xx_HAL_Driver/Inc/stm32g4xx_ll_adc.h **** #define ADC_JDR1_REGOFFSET                 (0x00000000UL)
  94:Drivers/STM32G4xx_HAL_Driver/Inc/stm32g4xx_ll_adc.h **** #define ADC_JDR2_REGOFFSET                 (0x00000100UL)
  95:Drivers/STM32G4xx_HAL_Driver/Inc/stm32g4xx_ll_adc.h **** #define ADC_JDR3_REGOFFSET                 (0x00000200UL)
  96:Drivers/STM32G4xx_HAL_Driver/Inc/stm32g4xx_ll_adc.h **** #define ADC_JDR4_REGOFFSET                 (0x00000300UL)
  97:Drivers/STM32G4xx_HAL_Driver/Inc/stm32g4xx_ll_adc.h **** 
  98:Drivers/STM32G4xx_HAL_Driver/Inc/stm32g4xx_ll_adc.h **** #define ADC_INJ_JDRX_REGOFFSET_MASK        (ADC_JDR1_REGOFFSET | ADC_JDR2_REGOFFSET | ADC_JDR3_REGO
  99:Drivers/STM32G4xx_HAL_Driver/Inc/stm32g4xx_ll_adc.h **** #define ADC_INJ_RANK_ID_JSQR_MASK          (ADC_CHANNEL_ID_NUMBER_MASK_POSBIT0)
 100:Drivers/STM32G4xx_HAL_Driver/Inc/stm32g4xx_ll_adc.h **** #define ADC_JDRX_REGOFFSET_POS             (8UL) /* Position of bits ADC_JDRx_REGOFFSET in ADC_INJ_
 101:Drivers/STM32G4xx_HAL_Driver/Inc/stm32g4xx_ll_adc.h **** 
 102:Drivers/STM32G4xx_HAL_Driver/Inc/stm32g4xx_ll_adc.h **** /* Definition of ADC group injected sequencer bits information to be inserted */
 103:Drivers/STM32G4xx_HAL_Driver/Inc/stm32g4xx_ll_adc.h **** /* into ADC group injected sequencer ranks literals definition.               */
 104:Drivers/STM32G4xx_HAL_Driver/Inc/stm32g4xx_ll_adc.h **** #define ADC_INJ_RANK_1_JSQR_BITOFFSET_POS  (ADC_JSQR_JSQ1_Pos)
 105:Drivers/STM32G4xx_HAL_Driver/Inc/stm32g4xx_ll_adc.h **** #define ADC_INJ_RANK_2_JSQR_BITOFFSET_POS  (ADC_JSQR_JSQ2_Pos)
 106:Drivers/STM32G4xx_HAL_Driver/Inc/stm32g4xx_ll_adc.h **** #define ADC_INJ_RANK_3_JSQR_BITOFFSET_POS  (ADC_JSQR_JSQ3_Pos)
 107:Drivers/STM32G4xx_HAL_Driver/Inc/stm32g4xx_ll_adc.h **** #define ADC_INJ_RANK_4_JSQR_BITOFFSET_POS  (ADC_JSQR_JSQ4_Pos)
 108:Drivers/STM32G4xx_HAL_Driver/Inc/stm32g4xx_ll_adc.h **** 
 109:Drivers/STM32G4xx_HAL_Driver/Inc/stm32g4xx_ll_adc.h **** 
 110:Drivers/STM32G4xx_HAL_Driver/Inc/stm32g4xx_ll_adc.h **** 
 111:Drivers/STM32G4xx_HAL_Driver/Inc/stm32g4xx_ll_adc.h **** /* Internal mask for ADC group regular trigger:                               */
 112:Drivers/STM32G4xx_HAL_Driver/Inc/stm32g4xx_ll_adc.h **** /* To select into literal LL_ADC_REG_TRIG_x the relevant bits for:            */
 113:Drivers/STM32G4xx_HAL_Driver/Inc/stm32g4xx_ll_adc.h **** /* - regular trigger source                                                   */
 114:Drivers/STM32G4xx_HAL_Driver/Inc/stm32g4xx_ll_adc.h **** /* - regular trigger edge                                                     */
 115:Drivers/STM32G4xx_HAL_Driver/Inc/stm32g4xx_ll_adc.h **** #define ADC_REG_TRIG_EXT_EDGE_DEFAULT       (ADC_CFGR_EXTEN_0) /* Trigger edge set to rising edge (
 116:Drivers/STM32G4xx_HAL_Driver/Inc/stm32g4xx_ll_adc.h **** 
 117:Drivers/STM32G4xx_HAL_Driver/Inc/stm32g4xx_ll_adc.h **** /* Mask containing trigger source masks for each of possible                  */
 118:Drivers/STM32G4xx_HAL_Driver/Inc/stm32g4xx_ll_adc.h **** /* trigger edge selection duplicated with shifts [0; 4; 8; 12]                */
 119:Drivers/STM32G4xx_HAL_Driver/Inc/stm32g4xx_ll_adc.h **** /* corresponding to {SW start; ext trigger; ext trigger; ext trigger}.        */
 120:Drivers/STM32G4xx_HAL_Driver/Inc/stm32g4xx_ll_adc.h **** #define ADC_REG_TRIG_SOURCE_MASK            (((LL_ADC_REG_TRIG_SOFTWARE & ADC_CFGR_EXTSEL) << (4U *
 121:Drivers/STM32G4xx_HAL_Driver/Inc/stm32g4xx_ll_adc.h ****                                              ((ADC_CFGR_EXTSEL)                            << (4U *
 122:Drivers/STM32G4xx_HAL_Driver/Inc/stm32g4xx_ll_adc.h ****                                              ((ADC_CFGR_EXTSEL)                            << (4U *
 123:Drivers/STM32G4xx_HAL_Driver/Inc/stm32g4xx_ll_adc.h ****                                              ((ADC_CFGR_EXTSEL)                            << (4U *
 124:Drivers/STM32G4xx_HAL_Driver/Inc/stm32g4xx_ll_adc.h **** 
 125:Drivers/STM32G4xx_HAL_Driver/Inc/stm32g4xx_ll_adc.h **** /* Mask containing trigger edge masks for each of possible                    */
 126:Drivers/STM32G4xx_HAL_Driver/Inc/stm32g4xx_ll_adc.h **** /* trigger edge selection duplicated with shifts [0; 4; 8; 12]                */
 127:Drivers/STM32G4xx_HAL_Driver/Inc/stm32g4xx_ll_adc.h **** /* corresponding to {SW start; ext trigger; ext trigger; ext trigger}.        */
 128:Drivers/STM32G4xx_HAL_Driver/Inc/stm32g4xx_ll_adc.h **** #define ADC_REG_TRIG_EDGE_MASK              (((LL_ADC_REG_TRIG_SOFTWARE & ADC_CFGR_EXTEN) << (4U * 
 129:Drivers/STM32G4xx_HAL_Driver/Inc/stm32g4xx_ll_adc.h ****                                              ((ADC_REG_TRIG_EXT_EDGE_DEFAULT)             << (4U * 
 130:Drivers/STM32G4xx_HAL_Driver/Inc/stm32g4xx_ll_adc.h ****                                              ((ADC_REG_TRIG_EXT_EDGE_DEFAULT)             << (4U * 
 131:Drivers/STM32G4xx_HAL_Driver/Inc/stm32g4xx_ll_adc.h ****                                              ((ADC_REG_TRIG_EXT_EDGE_DEFAULT)             << (4U * 
 132:Drivers/STM32G4xx_HAL_Driver/Inc/stm32g4xx_ll_adc.h **** 
 133:Drivers/STM32G4xx_HAL_Driver/Inc/stm32g4xx_ll_adc.h **** /* Definition of ADC group regular trigger bits information.                  */
ARM GAS  /tmp/ccnaDHIW.s 			page 8


 134:Drivers/STM32G4xx_HAL_Driver/Inc/stm32g4xx_ll_adc.h **** #define ADC_REG_TRIG_EXTSEL_BITOFFSET_POS  (ADC_CFGR_EXTSEL_Pos)
 135:Drivers/STM32G4xx_HAL_Driver/Inc/stm32g4xx_ll_adc.h **** #define ADC_REG_TRIG_EXTEN_BITOFFSET_POS   (ADC_CFGR_EXTEN_Pos)
 136:Drivers/STM32G4xx_HAL_Driver/Inc/stm32g4xx_ll_adc.h **** 
 137:Drivers/STM32G4xx_HAL_Driver/Inc/stm32g4xx_ll_adc.h **** 
 138:Drivers/STM32G4xx_HAL_Driver/Inc/stm32g4xx_ll_adc.h **** 
 139:Drivers/STM32G4xx_HAL_Driver/Inc/stm32g4xx_ll_adc.h **** /* Internal mask for ADC group injected trigger:                              */
 140:Drivers/STM32G4xx_HAL_Driver/Inc/stm32g4xx_ll_adc.h **** /* To select into literal LL_ADC_INJ_TRIG_x the relevant bits for:            */
 141:Drivers/STM32G4xx_HAL_Driver/Inc/stm32g4xx_ll_adc.h **** /* - injected trigger source                                                  */
 142:Drivers/STM32G4xx_HAL_Driver/Inc/stm32g4xx_ll_adc.h **** /* - injected trigger edge                                                    */
 143:Drivers/STM32G4xx_HAL_Driver/Inc/stm32g4xx_ll_adc.h **** #define ADC_INJ_TRIG_EXT_EDGE_DEFAULT      (ADC_JSQR_JEXTEN_0) /* Trigger edge set to rising edge (
 144:Drivers/STM32G4xx_HAL_Driver/Inc/stm32g4xx_ll_adc.h **** 
 145:Drivers/STM32G4xx_HAL_Driver/Inc/stm32g4xx_ll_adc.h **** /* Mask containing trigger source masks for each of possible                  */
 146:Drivers/STM32G4xx_HAL_Driver/Inc/stm32g4xx_ll_adc.h **** /* trigger edge selection duplicated with shifts [0; 4; 8; 12]                */
 147:Drivers/STM32G4xx_HAL_Driver/Inc/stm32g4xx_ll_adc.h **** /* corresponding to {SW start; ext trigger; ext trigger; ext trigger}.        */
 148:Drivers/STM32G4xx_HAL_Driver/Inc/stm32g4xx_ll_adc.h **** #define ADC_INJ_TRIG_SOURCE_MASK            (((LL_ADC_INJ_TRIG_SOFTWARE & ADC_JSQR_JEXTSEL)  << (4U
 149:Drivers/STM32G4xx_HAL_Driver/Inc/stm32g4xx_ll_adc.h ****                                              ((ADC_JSQR_JEXTSEL)                             << (4U
 150:Drivers/STM32G4xx_HAL_Driver/Inc/stm32g4xx_ll_adc.h ****                                              ((ADC_JSQR_JEXTSEL)                             << (4U
 151:Drivers/STM32G4xx_HAL_Driver/Inc/stm32g4xx_ll_adc.h ****                                              ((ADC_JSQR_JEXTSEL)                             << (4U
 152:Drivers/STM32G4xx_HAL_Driver/Inc/stm32g4xx_ll_adc.h **** 
 153:Drivers/STM32G4xx_HAL_Driver/Inc/stm32g4xx_ll_adc.h **** /* Mask containing trigger edge masks for each of possible                    */
 154:Drivers/STM32G4xx_HAL_Driver/Inc/stm32g4xx_ll_adc.h **** /* trigger edge selection duplicated with shifts [0; 4; 8; 12]                */
 155:Drivers/STM32G4xx_HAL_Driver/Inc/stm32g4xx_ll_adc.h **** /* corresponding to {SW start; ext trigger; ext trigger; ext trigger}.        */
 156:Drivers/STM32G4xx_HAL_Driver/Inc/stm32g4xx_ll_adc.h **** #define ADC_INJ_TRIG_EDGE_MASK              (((LL_ADC_INJ_TRIG_SOFTWARE & ADC_JSQR_JEXTEN) << (4U *
 157:Drivers/STM32G4xx_HAL_Driver/Inc/stm32g4xx_ll_adc.h ****                                              ((ADC_INJ_TRIG_EXT_EDGE_DEFAULT)              << (4U *
 158:Drivers/STM32G4xx_HAL_Driver/Inc/stm32g4xx_ll_adc.h ****                                              ((ADC_INJ_TRIG_EXT_EDGE_DEFAULT)              << (4U *
 159:Drivers/STM32G4xx_HAL_Driver/Inc/stm32g4xx_ll_adc.h ****                                              ((ADC_INJ_TRIG_EXT_EDGE_DEFAULT)              << (4U *
 160:Drivers/STM32G4xx_HAL_Driver/Inc/stm32g4xx_ll_adc.h **** 
 161:Drivers/STM32G4xx_HAL_Driver/Inc/stm32g4xx_ll_adc.h **** /* Definition of ADC group injected trigger bits information.                 */
 162:Drivers/STM32G4xx_HAL_Driver/Inc/stm32g4xx_ll_adc.h **** #define ADC_INJ_TRIG_EXTSEL_BITOFFSET_POS  (ADC_JSQR_JEXTSEL_Pos)
 163:Drivers/STM32G4xx_HAL_Driver/Inc/stm32g4xx_ll_adc.h **** #define ADC_INJ_TRIG_EXTEN_BITOFFSET_POS   (ADC_JSQR_JEXTEN_Pos)
 164:Drivers/STM32G4xx_HAL_Driver/Inc/stm32g4xx_ll_adc.h **** 
 165:Drivers/STM32G4xx_HAL_Driver/Inc/stm32g4xx_ll_adc.h **** 
 166:Drivers/STM32G4xx_HAL_Driver/Inc/stm32g4xx_ll_adc.h **** 
 167:Drivers/STM32G4xx_HAL_Driver/Inc/stm32g4xx_ll_adc.h **** 
 168:Drivers/STM32G4xx_HAL_Driver/Inc/stm32g4xx_ll_adc.h **** 
 169:Drivers/STM32G4xx_HAL_Driver/Inc/stm32g4xx_ll_adc.h **** 
 170:Drivers/STM32G4xx_HAL_Driver/Inc/stm32g4xx_ll_adc.h **** /* Internal mask for ADC channel:                                             */
 171:Drivers/STM32G4xx_HAL_Driver/Inc/stm32g4xx_ll_adc.h **** /* To select into literal LL_ADC_CHANNEL_x the relevant bits for:             */
 172:Drivers/STM32G4xx_HAL_Driver/Inc/stm32g4xx_ll_adc.h **** /* - channel identifier defined by number                                     */
 173:Drivers/STM32G4xx_HAL_Driver/Inc/stm32g4xx_ll_adc.h **** /* - channel identifier defined by bitfield                                   */
 174:Drivers/STM32G4xx_HAL_Driver/Inc/stm32g4xx_ll_adc.h **** /* - channel differentiation between external channels (connected to          */
 175:Drivers/STM32G4xx_HAL_Driver/Inc/stm32g4xx_ll_adc.h **** /*   GPIO pins) and internal channels (connected to internal paths)           */
 176:Drivers/STM32G4xx_HAL_Driver/Inc/stm32g4xx_ll_adc.h **** /* - channel sampling time defined by SMPRx register offset                   */
 177:Drivers/STM32G4xx_HAL_Driver/Inc/stm32g4xx_ll_adc.h **** /*   and SMPx bits positions into SMPRx register                              */
 178:Drivers/STM32G4xx_HAL_Driver/Inc/stm32g4xx_ll_adc.h **** #define ADC_CHANNEL_ID_NUMBER_MASK         (ADC_CFGR_AWD1CH)
 179:Drivers/STM32G4xx_HAL_Driver/Inc/stm32g4xx_ll_adc.h **** #define ADC_CHANNEL_ID_BITFIELD_MASK       (ADC_AWD2CR_AWD2CH)
 180:Drivers/STM32G4xx_HAL_Driver/Inc/stm32g4xx_ll_adc.h **** #define ADC_CHANNEL_ID_NUMBER_BITOFFSET_POS (ADC_CFGR_AWD1CH_Pos)
 181:Drivers/STM32G4xx_HAL_Driver/Inc/stm32g4xx_ll_adc.h **** #define ADC_CHANNEL_ID_MASK                (ADC_CHANNEL_ID_NUMBER_MASK | ADC_CHANNEL_ID_BITFIELD_MA
 182:Drivers/STM32G4xx_HAL_Driver/Inc/stm32g4xx_ll_adc.h **** /* Equivalent mask of ADC_CHANNEL_NUMBER_MASK aligned on register LSB (bit 0) */
 183:Drivers/STM32G4xx_HAL_Driver/Inc/stm32g4xx_ll_adc.h **** #define ADC_CHANNEL_ID_NUMBER_MASK_POSBIT0 (ADC_SQR2_SQ5) /* Equivalent to shift: (ADC_CHANNEL_NUMB
 184:Drivers/STM32G4xx_HAL_Driver/Inc/stm32g4xx_ll_adc.h **** 
 185:Drivers/STM32G4xx_HAL_Driver/Inc/stm32g4xx_ll_adc.h **** /* Channel differentiation between external and internal channels */
 186:Drivers/STM32G4xx_HAL_Driver/Inc/stm32g4xx_ll_adc.h **** #define ADC_CHANNEL_ID_INTERNAL_CH         (0x80000000UL) /* Marker of internal channel */
 187:Drivers/STM32G4xx_HAL_Driver/Inc/stm32g4xx_ll_adc.h **** #define ADC_CHANNEL_ID_INTERNAL_CH_2       (0x00080000UL) /* Marker of internal channel for other A
 188:Drivers/STM32G4xx_HAL_Driver/Inc/stm32g4xx_ll_adc.h **** #define ADC_CHANNEL_ID_INTERNAL_CH_MASK    (ADC_CHANNEL_ID_INTERNAL_CH | ADC_CHANNEL_ID_INTERNAL_CH
 189:Drivers/STM32G4xx_HAL_Driver/Inc/stm32g4xx_ll_adc.h **** 
 190:Drivers/STM32G4xx_HAL_Driver/Inc/stm32g4xx_ll_adc.h **** /* Internal register offset for ADC channel sampling time configuration */
ARM GAS  /tmp/ccnaDHIW.s 			page 9


 191:Drivers/STM32G4xx_HAL_Driver/Inc/stm32g4xx_ll_adc.h **** /* (offset placed into a spare area of literal definition) */
 192:Drivers/STM32G4xx_HAL_Driver/Inc/stm32g4xx_ll_adc.h **** #define ADC_SMPR1_REGOFFSET                (0x00000000UL)
 193:Drivers/STM32G4xx_HAL_Driver/Inc/stm32g4xx_ll_adc.h **** #define ADC_SMPR2_REGOFFSET                (0x02000000UL)
 194:Drivers/STM32G4xx_HAL_Driver/Inc/stm32g4xx_ll_adc.h **** #define ADC_CHANNEL_SMPRX_REGOFFSET_MASK   (ADC_SMPR1_REGOFFSET | ADC_SMPR2_REGOFFSET)
 195:Drivers/STM32G4xx_HAL_Driver/Inc/stm32g4xx_ll_adc.h **** #define ADC_SMPRX_REGOFFSET_POS            (25UL) /* Position of bits ADC_SMPRx_REGOFFSET in ADC_CH
 196:Drivers/STM32G4xx_HAL_Driver/Inc/stm32g4xx_ll_adc.h **** 
 197:Drivers/STM32G4xx_HAL_Driver/Inc/stm32g4xx_ll_adc.h **** #define ADC_CHANNEL_SMPx_BITOFFSET_MASK    (0x01F00000UL)
 198:Drivers/STM32G4xx_HAL_Driver/Inc/stm32g4xx_ll_adc.h **** #define ADC_CHANNEL_SMPx_BITOFFSET_POS     (20UL)           /* Value equivalent to bitfield "ADC_CH
 199:Drivers/STM32G4xx_HAL_Driver/Inc/stm32g4xx_ll_adc.h **** 
 200:Drivers/STM32G4xx_HAL_Driver/Inc/stm32g4xx_ll_adc.h **** /* Definition of channels ID number information to be inserted into           */
 201:Drivers/STM32G4xx_HAL_Driver/Inc/stm32g4xx_ll_adc.h **** /* channels literals definition.                                              */
 202:Drivers/STM32G4xx_HAL_Driver/Inc/stm32g4xx_ll_adc.h **** #define ADC_CHANNEL_0_NUMBER               (0x00000000UL)
 203:Drivers/STM32G4xx_HAL_Driver/Inc/stm32g4xx_ll_adc.h **** #define ADC_CHANNEL_1_NUMBER               (                                                       
 204:Drivers/STM32G4xx_HAL_Driver/Inc/stm32g4xx_ll_adc.h **** #define ADC_CHANNEL_2_NUMBER               (                                                       
 205:Drivers/STM32G4xx_HAL_Driver/Inc/stm32g4xx_ll_adc.h **** #define ADC_CHANNEL_3_NUMBER               (                                                       
 206:Drivers/STM32G4xx_HAL_Driver/Inc/stm32g4xx_ll_adc.h **** #define ADC_CHANNEL_4_NUMBER               (                                        ADC_CFGR_AWD1CH
 207:Drivers/STM32G4xx_HAL_Driver/Inc/stm32g4xx_ll_adc.h **** #define ADC_CHANNEL_5_NUMBER               (                                        ADC_CFGR_AWD1CH
 208:Drivers/STM32G4xx_HAL_Driver/Inc/stm32g4xx_ll_adc.h **** #define ADC_CHANNEL_6_NUMBER               (                                        ADC_CFGR_AWD1CH
 209:Drivers/STM32G4xx_HAL_Driver/Inc/stm32g4xx_ll_adc.h **** #define ADC_CHANNEL_7_NUMBER               (                                        ADC_CFGR_AWD1CH
 210:Drivers/STM32G4xx_HAL_Driver/Inc/stm32g4xx_ll_adc.h **** #define ADC_CHANNEL_8_NUMBER               (                    ADC_CFGR_AWD1CH_3                  
 211:Drivers/STM32G4xx_HAL_Driver/Inc/stm32g4xx_ll_adc.h **** #define ADC_CHANNEL_9_NUMBER               (                    ADC_CFGR_AWD1CH_3                  
 212:Drivers/STM32G4xx_HAL_Driver/Inc/stm32g4xx_ll_adc.h **** #define ADC_CHANNEL_10_NUMBER              (                    ADC_CFGR_AWD1CH_3                  
 213:Drivers/STM32G4xx_HAL_Driver/Inc/stm32g4xx_ll_adc.h **** #define ADC_CHANNEL_11_NUMBER              (                    ADC_CFGR_AWD1CH_3                  
 214:Drivers/STM32G4xx_HAL_Driver/Inc/stm32g4xx_ll_adc.h **** #define ADC_CHANNEL_12_NUMBER              (                    ADC_CFGR_AWD1CH_3 | ADC_CFGR_AWD1CH
 215:Drivers/STM32G4xx_HAL_Driver/Inc/stm32g4xx_ll_adc.h **** #define ADC_CHANNEL_13_NUMBER              (                    ADC_CFGR_AWD1CH_3 | ADC_CFGR_AWD1CH
 216:Drivers/STM32G4xx_HAL_Driver/Inc/stm32g4xx_ll_adc.h **** #define ADC_CHANNEL_14_NUMBER              (                    ADC_CFGR_AWD1CH_3 | ADC_CFGR_AWD1CH
 217:Drivers/STM32G4xx_HAL_Driver/Inc/stm32g4xx_ll_adc.h **** #define ADC_CHANNEL_15_NUMBER              (                    ADC_CFGR_AWD1CH_3 | ADC_CFGR_AWD1CH
 218:Drivers/STM32G4xx_HAL_Driver/Inc/stm32g4xx_ll_adc.h **** #define ADC_CHANNEL_16_NUMBER              (ADC_CFGR_AWD1CH_4                                      
 219:Drivers/STM32G4xx_HAL_Driver/Inc/stm32g4xx_ll_adc.h **** #define ADC_CHANNEL_17_NUMBER              (ADC_CFGR_AWD1CH_4                                      
 220:Drivers/STM32G4xx_HAL_Driver/Inc/stm32g4xx_ll_adc.h **** #define ADC_CHANNEL_18_NUMBER              (ADC_CFGR_AWD1CH_4                                      
 221:Drivers/STM32G4xx_HAL_Driver/Inc/stm32g4xx_ll_adc.h **** 
 222:Drivers/STM32G4xx_HAL_Driver/Inc/stm32g4xx_ll_adc.h **** /* Definition of channels ID bitfield information to be inserted into         */
 223:Drivers/STM32G4xx_HAL_Driver/Inc/stm32g4xx_ll_adc.h **** /* channels literals definition.                                              */
 224:Drivers/STM32G4xx_HAL_Driver/Inc/stm32g4xx_ll_adc.h **** #define ADC_CHANNEL_0_BITFIELD             (ADC_AWD2CR_AWD2CH_0)
 225:Drivers/STM32G4xx_HAL_Driver/Inc/stm32g4xx_ll_adc.h **** #define ADC_CHANNEL_1_BITFIELD             (ADC_AWD2CR_AWD2CH_1)
 226:Drivers/STM32G4xx_HAL_Driver/Inc/stm32g4xx_ll_adc.h **** #define ADC_CHANNEL_2_BITFIELD             (ADC_AWD2CR_AWD2CH_2)
 227:Drivers/STM32G4xx_HAL_Driver/Inc/stm32g4xx_ll_adc.h **** #define ADC_CHANNEL_3_BITFIELD             (ADC_AWD2CR_AWD2CH_3)
 228:Drivers/STM32G4xx_HAL_Driver/Inc/stm32g4xx_ll_adc.h **** #define ADC_CHANNEL_4_BITFIELD             (ADC_AWD2CR_AWD2CH_4)
 229:Drivers/STM32G4xx_HAL_Driver/Inc/stm32g4xx_ll_adc.h **** #define ADC_CHANNEL_5_BITFIELD             (ADC_AWD2CR_AWD2CH_5)
 230:Drivers/STM32G4xx_HAL_Driver/Inc/stm32g4xx_ll_adc.h **** #define ADC_CHANNEL_6_BITFIELD             (ADC_AWD2CR_AWD2CH_6)
 231:Drivers/STM32G4xx_HAL_Driver/Inc/stm32g4xx_ll_adc.h **** #define ADC_CHANNEL_7_BITFIELD             (ADC_AWD2CR_AWD2CH_7)
 232:Drivers/STM32G4xx_HAL_Driver/Inc/stm32g4xx_ll_adc.h **** #define ADC_CHANNEL_8_BITFIELD             (ADC_AWD2CR_AWD2CH_8)
 233:Drivers/STM32G4xx_HAL_Driver/Inc/stm32g4xx_ll_adc.h **** #define ADC_CHANNEL_9_BITFIELD             (ADC_AWD2CR_AWD2CH_9)
 234:Drivers/STM32G4xx_HAL_Driver/Inc/stm32g4xx_ll_adc.h **** #define ADC_CHANNEL_10_BITFIELD            (ADC_AWD2CR_AWD2CH_10)
 235:Drivers/STM32G4xx_HAL_Driver/Inc/stm32g4xx_ll_adc.h **** #define ADC_CHANNEL_11_BITFIELD            (ADC_AWD2CR_AWD2CH_11)
 236:Drivers/STM32G4xx_HAL_Driver/Inc/stm32g4xx_ll_adc.h **** #define ADC_CHANNEL_12_BITFIELD            (ADC_AWD2CR_AWD2CH_12)
 237:Drivers/STM32G4xx_HAL_Driver/Inc/stm32g4xx_ll_adc.h **** #define ADC_CHANNEL_13_BITFIELD            (ADC_AWD2CR_AWD2CH_13)
 238:Drivers/STM32G4xx_HAL_Driver/Inc/stm32g4xx_ll_adc.h **** #define ADC_CHANNEL_14_BITFIELD            (ADC_AWD2CR_AWD2CH_14)
 239:Drivers/STM32G4xx_HAL_Driver/Inc/stm32g4xx_ll_adc.h **** #define ADC_CHANNEL_15_BITFIELD            (ADC_AWD2CR_AWD2CH_15)
 240:Drivers/STM32G4xx_HAL_Driver/Inc/stm32g4xx_ll_adc.h **** #define ADC_CHANNEL_16_BITFIELD            (ADC_AWD2CR_AWD2CH_16)
 241:Drivers/STM32G4xx_HAL_Driver/Inc/stm32g4xx_ll_adc.h **** #define ADC_CHANNEL_17_BITFIELD            (ADC_AWD2CR_AWD2CH_17)
 242:Drivers/STM32G4xx_HAL_Driver/Inc/stm32g4xx_ll_adc.h **** #define ADC_CHANNEL_18_BITFIELD            (ADC_AWD2CR_AWD2CH_18)
 243:Drivers/STM32G4xx_HAL_Driver/Inc/stm32g4xx_ll_adc.h **** 
 244:Drivers/STM32G4xx_HAL_Driver/Inc/stm32g4xx_ll_adc.h **** /* Definition of channels sampling time information to be inserted into       */
 245:Drivers/STM32G4xx_HAL_Driver/Inc/stm32g4xx_ll_adc.h **** /* channels literals definition.                                              */
 246:Drivers/STM32G4xx_HAL_Driver/Inc/stm32g4xx_ll_adc.h **** #define ADC_CHANNEL_0_SMP                  (ADC_SMPR1_REGOFFSET | (( 0UL) << ADC_CHANNEL_SMPx_BITOF
 247:Drivers/STM32G4xx_HAL_Driver/Inc/stm32g4xx_ll_adc.h **** #define ADC_CHANNEL_1_SMP                  (ADC_SMPR1_REGOFFSET | (( 3UL) << ADC_CHANNEL_SMPx_BITOF
ARM GAS  /tmp/ccnaDHIW.s 			page 10


 248:Drivers/STM32G4xx_HAL_Driver/Inc/stm32g4xx_ll_adc.h **** #define ADC_CHANNEL_2_SMP                  (ADC_SMPR1_REGOFFSET | (( 6UL) << ADC_CHANNEL_SMPx_BITOF
 249:Drivers/STM32G4xx_HAL_Driver/Inc/stm32g4xx_ll_adc.h **** #define ADC_CHANNEL_3_SMP                  (ADC_SMPR1_REGOFFSET | (( 9UL) << ADC_CHANNEL_SMPx_BITOF
 250:Drivers/STM32G4xx_HAL_Driver/Inc/stm32g4xx_ll_adc.h **** #define ADC_CHANNEL_4_SMP                  (ADC_SMPR1_REGOFFSET | ((12UL) << ADC_CHANNEL_SMPx_BITOF
 251:Drivers/STM32G4xx_HAL_Driver/Inc/stm32g4xx_ll_adc.h **** #define ADC_CHANNEL_5_SMP                  (ADC_SMPR1_REGOFFSET | ((15UL) << ADC_CHANNEL_SMPx_BITOF
 252:Drivers/STM32G4xx_HAL_Driver/Inc/stm32g4xx_ll_adc.h **** #define ADC_CHANNEL_6_SMP                  (ADC_SMPR1_REGOFFSET | ((18UL) << ADC_CHANNEL_SMPx_BITOF
 253:Drivers/STM32G4xx_HAL_Driver/Inc/stm32g4xx_ll_adc.h **** #define ADC_CHANNEL_7_SMP                  (ADC_SMPR1_REGOFFSET | ((21UL) << ADC_CHANNEL_SMPx_BITOF
 254:Drivers/STM32G4xx_HAL_Driver/Inc/stm32g4xx_ll_adc.h **** #define ADC_CHANNEL_8_SMP                  (ADC_SMPR1_REGOFFSET | ((24UL) << ADC_CHANNEL_SMPx_BITOF
 255:Drivers/STM32G4xx_HAL_Driver/Inc/stm32g4xx_ll_adc.h **** #define ADC_CHANNEL_9_SMP                  (ADC_SMPR1_REGOFFSET | ((27UL) << ADC_CHANNEL_SMPx_BITOF
 256:Drivers/STM32G4xx_HAL_Driver/Inc/stm32g4xx_ll_adc.h **** #define ADC_CHANNEL_10_SMP                 (ADC_SMPR2_REGOFFSET | (( 0UL) << ADC_CHANNEL_SMPx_BITOF
 257:Drivers/STM32G4xx_HAL_Driver/Inc/stm32g4xx_ll_adc.h **** #define ADC_CHANNEL_11_SMP                 (ADC_SMPR2_REGOFFSET | (( 3UL) << ADC_CHANNEL_SMPx_BITOF
 258:Drivers/STM32G4xx_HAL_Driver/Inc/stm32g4xx_ll_adc.h **** #define ADC_CHANNEL_12_SMP                 (ADC_SMPR2_REGOFFSET | (( 6UL) << ADC_CHANNEL_SMPx_BITOF
 259:Drivers/STM32G4xx_HAL_Driver/Inc/stm32g4xx_ll_adc.h **** #define ADC_CHANNEL_13_SMP                 (ADC_SMPR2_REGOFFSET | (( 9UL) << ADC_CHANNEL_SMPx_BITOF
 260:Drivers/STM32G4xx_HAL_Driver/Inc/stm32g4xx_ll_adc.h **** #define ADC_CHANNEL_14_SMP                 (ADC_SMPR2_REGOFFSET | ((12UL) << ADC_CHANNEL_SMPx_BITOF
 261:Drivers/STM32G4xx_HAL_Driver/Inc/stm32g4xx_ll_adc.h **** #define ADC_CHANNEL_15_SMP                 (ADC_SMPR2_REGOFFSET | ((15UL) << ADC_CHANNEL_SMPx_BITOF
 262:Drivers/STM32G4xx_HAL_Driver/Inc/stm32g4xx_ll_adc.h **** #define ADC_CHANNEL_16_SMP                 (ADC_SMPR2_REGOFFSET | ((18UL) << ADC_CHANNEL_SMPx_BITOF
 263:Drivers/STM32G4xx_HAL_Driver/Inc/stm32g4xx_ll_adc.h **** #define ADC_CHANNEL_17_SMP                 (ADC_SMPR2_REGOFFSET | ((21UL) << ADC_CHANNEL_SMPx_BITOF
 264:Drivers/STM32G4xx_HAL_Driver/Inc/stm32g4xx_ll_adc.h **** #define ADC_CHANNEL_18_SMP                 (ADC_SMPR2_REGOFFSET | ((24UL) << ADC_CHANNEL_SMPx_BITOF
 265:Drivers/STM32G4xx_HAL_Driver/Inc/stm32g4xx_ll_adc.h **** 
 266:Drivers/STM32G4xx_HAL_Driver/Inc/stm32g4xx_ll_adc.h **** 
 267:Drivers/STM32G4xx_HAL_Driver/Inc/stm32g4xx_ll_adc.h **** /* Internal mask for ADC mode single or differential ended:                   */
 268:Drivers/STM32G4xx_HAL_Driver/Inc/stm32g4xx_ll_adc.h **** /* To select into literals LL_ADC_SINGLE_ENDED or LL_ADC_SINGLE_DIFFERENTIAL  */
 269:Drivers/STM32G4xx_HAL_Driver/Inc/stm32g4xx_ll_adc.h **** /* the relevant bits for:                                                     */
 270:Drivers/STM32G4xx_HAL_Driver/Inc/stm32g4xx_ll_adc.h **** /* (concatenation of multiple bits used in different registers)               */
 271:Drivers/STM32G4xx_HAL_Driver/Inc/stm32g4xx_ll_adc.h **** /* - ADC calibration: calibration start, calibration factor get or set        */
 272:Drivers/STM32G4xx_HAL_Driver/Inc/stm32g4xx_ll_adc.h **** /* - ADC channels: set each ADC channel ending mode                           */
 273:Drivers/STM32G4xx_HAL_Driver/Inc/stm32g4xx_ll_adc.h **** #define ADC_SINGLEDIFF_CALIB_START_MASK    (ADC_CR_ADCALDIF)
 274:Drivers/STM32G4xx_HAL_Driver/Inc/stm32g4xx_ll_adc.h **** #define ADC_SINGLEDIFF_CALIB_FACTOR_MASK   (ADC_CALFACT_CALFACT_D | ADC_CALFACT_CALFACT_S)
 275:Drivers/STM32G4xx_HAL_Driver/Inc/stm32g4xx_ll_adc.h **** #define ADC_SINGLEDIFF_CHANNEL_MASK        (ADC_CHANNEL_ID_BITFIELD_MASK) /* Equivalent to ADC_DIFS
 276:Drivers/STM32G4xx_HAL_Driver/Inc/stm32g4xx_ll_adc.h **** #define ADC_SINGLEDIFF_CHANNEL_SHIFT_MASK  (ADC_CALFACT_CALFACT_S_4 | ADC_CALFACT_CALFACT_S_3) /* B
 277:Drivers/STM32G4xx_HAL_Driver/Inc/stm32g4xx_ll_adc.h **** #define ADC_SINGLEDIFF_CALIB_F_BIT_D_MASK   (0x00010000UL)                           /* Selection o
 278:Drivers/STM32G4xx_HAL_Driver/Inc/stm32g4xx_ll_adc.h **** #define ADC_SINGLEDIFF_CALIB_F_BIT_D_POS    (16UL)                                   /* Selection o
 279:Drivers/STM32G4xx_HAL_Driver/Inc/stm32g4xx_ll_adc.h **** #define ADC_SINGLEDIFF_CALIB_F_BIT_D_SHIFT4 (ADC_SINGLEDIFF_CALIB_F_BIT_D_POS - 4UL) /* Shift of bi
 280:Drivers/STM32G4xx_HAL_Driver/Inc/stm32g4xx_ll_adc.h **** 
 281:Drivers/STM32G4xx_HAL_Driver/Inc/stm32g4xx_ll_adc.h **** /* Internal mask for ADC analog watchdog:                                     */
 282:Drivers/STM32G4xx_HAL_Driver/Inc/stm32g4xx_ll_adc.h **** /* To select into literals LL_ADC_AWD_CHANNELx_xxx the relevant bits for:     */
 283:Drivers/STM32G4xx_HAL_Driver/Inc/stm32g4xx_ll_adc.h **** /* (concatenation of multiple bits used in different analog watchdogs,        */
 284:Drivers/STM32G4xx_HAL_Driver/Inc/stm32g4xx_ll_adc.h **** /* (feature of several watchdogs not available on all STM32 families)).       */
 285:Drivers/STM32G4xx_HAL_Driver/Inc/stm32g4xx_ll_adc.h **** /* - analog watchdog 1: monitored channel defined by number,                  */
 286:Drivers/STM32G4xx_HAL_Driver/Inc/stm32g4xx_ll_adc.h **** /*   selection of ADC group (ADC groups regular and-or injected).             */
 287:Drivers/STM32G4xx_HAL_Driver/Inc/stm32g4xx_ll_adc.h **** /* - analog watchdog 2 and 3: monitored channel defined by bitfield, no       */
 288:Drivers/STM32G4xx_HAL_Driver/Inc/stm32g4xx_ll_adc.h **** /*   selection on groups.                                                     */
 289:Drivers/STM32G4xx_HAL_Driver/Inc/stm32g4xx_ll_adc.h **** 
 290:Drivers/STM32G4xx_HAL_Driver/Inc/stm32g4xx_ll_adc.h **** /* Internal register offset for ADC analog watchdog channel configuration */
 291:Drivers/STM32G4xx_HAL_Driver/Inc/stm32g4xx_ll_adc.h **** #define ADC_AWD_CR1_REGOFFSET              (0x00000000UL)
 292:Drivers/STM32G4xx_HAL_Driver/Inc/stm32g4xx_ll_adc.h **** #define ADC_AWD_CR2_REGOFFSET              (0x00100000UL)
 293:Drivers/STM32G4xx_HAL_Driver/Inc/stm32g4xx_ll_adc.h **** #define ADC_AWD_CR3_REGOFFSET              (0x00200000UL)
 294:Drivers/STM32G4xx_HAL_Driver/Inc/stm32g4xx_ll_adc.h **** 
 295:Drivers/STM32G4xx_HAL_Driver/Inc/stm32g4xx_ll_adc.h **** /* Register offset gap between AWD1 and AWD2-AWD3 configuration registers */
 296:Drivers/STM32G4xx_HAL_Driver/Inc/stm32g4xx_ll_adc.h **** /* (Set separately as ADC_AWD_CRX_REGOFFSET to spare 32 bits space */
 297:Drivers/STM32G4xx_HAL_Driver/Inc/stm32g4xx_ll_adc.h **** #define ADC_AWD_CR12_REGOFFSETGAP_MASK     (ADC_AWD2CR_AWD2CH_0)
 298:Drivers/STM32G4xx_HAL_Driver/Inc/stm32g4xx_ll_adc.h **** #define ADC_AWD_CR12_REGOFFSETGAP_VAL      (0x00000024UL)
 299:Drivers/STM32G4xx_HAL_Driver/Inc/stm32g4xx_ll_adc.h **** 
 300:Drivers/STM32G4xx_HAL_Driver/Inc/stm32g4xx_ll_adc.h **** #define ADC_AWD_CRX_REGOFFSET_MASK         (ADC_AWD_CR1_REGOFFSET | ADC_AWD_CR2_REGOFFSET | ADC_AWD
 301:Drivers/STM32G4xx_HAL_Driver/Inc/stm32g4xx_ll_adc.h **** 
 302:Drivers/STM32G4xx_HAL_Driver/Inc/stm32g4xx_ll_adc.h **** #define ADC_AWD_CR1_CHANNEL_MASK           (ADC_CFGR_AWD1CH | ADC_CFGR_JAWD1EN | ADC_CFGR_AWD1EN | 
 303:Drivers/STM32G4xx_HAL_Driver/Inc/stm32g4xx_ll_adc.h **** #define ADC_AWD_CR23_CHANNEL_MASK          (ADC_AWD2CR_AWD2CH)
 304:Drivers/STM32G4xx_HAL_Driver/Inc/stm32g4xx_ll_adc.h **** #define ADC_AWD_CR_ALL_CHANNEL_MASK        (ADC_AWD_CR1_CHANNEL_MASK | ADC_AWD_CR23_CHANNEL_MASK)
ARM GAS  /tmp/ccnaDHIW.s 			page 11


 305:Drivers/STM32G4xx_HAL_Driver/Inc/stm32g4xx_ll_adc.h **** 
 306:Drivers/STM32G4xx_HAL_Driver/Inc/stm32g4xx_ll_adc.h **** #define ADC_AWD_CRX_REGOFFSET_POS          (20UL) /* Position of bits ADC_AWD_CRx_REGOFFSET in ADC_
 307:Drivers/STM32G4xx_HAL_Driver/Inc/stm32g4xx_ll_adc.h **** 
 308:Drivers/STM32G4xx_HAL_Driver/Inc/stm32g4xx_ll_adc.h **** /* Internal register offset for ADC analog watchdog threshold configuration */
 309:Drivers/STM32G4xx_HAL_Driver/Inc/stm32g4xx_ll_adc.h **** #define ADC_AWD_TR1_REGOFFSET              (ADC_AWD_CR1_REGOFFSET)
 310:Drivers/STM32G4xx_HAL_Driver/Inc/stm32g4xx_ll_adc.h **** #define ADC_AWD_TR2_REGOFFSET              (ADC_AWD_CR2_REGOFFSET)
 311:Drivers/STM32G4xx_HAL_Driver/Inc/stm32g4xx_ll_adc.h **** #define ADC_AWD_TR3_REGOFFSET              (ADC_AWD_CR3_REGOFFSET)
 312:Drivers/STM32G4xx_HAL_Driver/Inc/stm32g4xx_ll_adc.h **** #define ADC_AWD_TRX_REGOFFSET_MASK         (ADC_AWD_TR1_REGOFFSET | ADC_AWD_TR2_REGOFFSET | ADC_AWD
 313:Drivers/STM32G4xx_HAL_Driver/Inc/stm32g4xx_ll_adc.h **** #define ADC_AWD_TRX_REGOFFSET_POS          (ADC_AWD_CRX_REGOFFSET_POS)     /* Position of bits ADC_
 314:Drivers/STM32G4xx_HAL_Driver/Inc/stm32g4xx_ll_adc.h **** #define ADC_AWD_TRX_BIT_HIGH_MASK          (0x00010000UL)                   /* Selection of 1 bit t
 315:Drivers/STM32G4xx_HAL_Driver/Inc/stm32g4xx_ll_adc.h **** #define ADC_AWD_TRX_BIT_HIGH_POS           (16UL)                           /* Selection of 1 bit t
 316:Drivers/STM32G4xx_HAL_Driver/Inc/stm32g4xx_ll_adc.h **** #define ADC_AWD_TRX_BIT_HIGH_SHIFT4        (ADC_AWD_TRX_BIT_HIGH_POS - 4UL) /* Shift of bit ADC_AWD
 317:Drivers/STM32G4xx_HAL_Driver/Inc/stm32g4xx_ll_adc.h **** 
 318:Drivers/STM32G4xx_HAL_Driver/Inc/stm32g4xx_ll_adc.h **** /* Internal mask for ADC offset:                                              */
 319:Drivers/STM32G4xx_HAL_Driver/Inc/stm32g4xx_ll_adc.h **** /* Internal register offset for ADC offset number configuration */
 320:Drivers/STM32G4xx_HAL_Driver/Inc/stm32g4xx_ll_adc.h **** #define ADC_OFR1_REGOFFSET                 (0x00000000UL)
 321:Drivers/STM32G4xx_HAL_Driver/Inc/stm32g4xx_ll_adc.h **** #define ADC_OFR2_REGOFFSET                 (0x00000001UL)
 322:Drivers/STM32G4xx_HAL_Driver/Inc/stm32g4xx_ll_adc.h **** #define ADC_OFR3_REGOFFSET                 (0x00000002UL)
 323:Drivers/STM32G4xx_HAL_Driver/Inc/stm32g4xx_ll_adc.h **** #define ADC_OFR4_REGOFFSET                 (0x00000003UL)
 324:Drivers/STM32G4xx_HAL_Driver/Inc/stm32g4xx_ll_adc.h **** #define ADC_OFRx_REGOFFSET_MASK            (ADC_OFR1_REGOFFSET | ADC_OFR2_REGOFFSET | ADC_OFR3_REGO
 325:Drivers/STM32G4xx_HAL_Driver/Inc/stm32g4xx_ll_adc.h **** 
 326:Drivers/STM32G4xx_HAL_Driver/Inc/stm32g4xx_ll_adc.h **** 
 327:Drivers/STM32G4xx_HAL_Driver/Inc/stm32g4xx_ll_adc.h **** /* ADC registers bits positions */
 328:Drivers/STM32G4xx_HAL_Driver/Inc/stm32g4xx_ll_adc.h **** #define ADC_CFGR_RES_BITOFFSET_POS         (ADC_CFGR_RES_Pos)
 329:Drivers/STM32G4xx_HAL_Driver/Inc/stm32g4xx_ll_adc.h **** #define ADC_CFGR_AWD1SGL_BITOFFSET_POS     (ADC_CFGR_AWD1SGL_Pos)
 330:Drivers/STM32G4xx_HAL_Driver/Inc/stm32g4xx_ll_adc.h **** #define ADC_CFGR_AWD1EN_BITOFFSET_POS      (ADC_CFGR_AWD1EN_Pos)
 331:Drivers/STM32G4xx_HAL_Driver/Inc/stm32g4xx_ll_adc.h **** #define ADC_CFGR_JAWD1EN_BITOFFSET_POS     (ADC_CFGR_JAWD1EN_Pos)
 332:Drivers/STM32G4xx_HAL_Driver/Inc/stm32g4xx_ll_adc.h **** #define ADC_TR1_HT1_BITOFFSET_POS          (ADC_TR1_HT1_Pos)
 333:Drivers/STM32G4xx_HAL_Driver/Inc/stm32g4xx_ll_adc.h **** 
 334:Drivers/STM32G4xx_HAL_Driver/Inc/stm32g4xx_ll_adc.h **** 
 335:Drivers/STM32G4xx_HAL_Driver/Inc/stm32g4xx_ll_adc.h **** /* ADC registers bits groups */
 336:Drivers/STM32G4xx_HAL_Driver/Inc/stm32g4xx_ll_adc.h **** #define ADC_CR_BITS_PROPERTY_RS            (ADC_CR_ADCAL | ADC_CR_JADSTP | ADC_CR_ADSTP | ADC_CR_JA
 337:Drivers/STM32G4xx_HAL_Driver/Inc/stm32g4xx_ll_adc.h **** 
 338:Drivers/STM32G4xx_HAL_Driver/Inc/stm32g4xx_ll_adc.h **** 
 339:Drivers/STM32G4xx_HAL_Driver/Inc/stm32g4xx_ll_adc.h **** /* ADC internal channels related definitions */
 340:Drivers/STM32G4xx_HAL_Driver/Inc/stm32g4xx_ll_adc.h **** /* Internal voltage reference VrefInt */
 341:Drivers/STM32G4xx_HAL_Driver/Inc/stm32g4xx_ll_adc.h **** #define VREFINT_CAL_ADDR                   ((uint16_t*) (0x1FFF75AAUL)) /* Internal voltage referen
 342:Drivers/STM32G4xx_HAL_Driver/Inc/stm32g4xx_ll_adc.h **** #define VREFINT_CAL_VREF                   (3000UL)                     /* Analog voltage reference
 343:Drivers/STM32G4xx_HAL_Driver/Inc/stm32g4xx_ll_adc.h **** /* Temperature sensor */
 344:Drivers/STM32G4xx_HAL_Driver/Inc/stm32g4xx_ll_adc.h **** #define TEMPSENSOR_CAL1_ADDR               ((uint16_t*) (0x1FFF75A8UL)) /* Internal temperature sen
 345:Drivers/STM32G4xx_HAL_Driver/Inc/stm32g4xx_ll_adc.h **** #define TEMPSENSOR_CAL2_ADDR               ((uint16_t*) (0x1FFF75CAUL)) /* Internal temperature sen
 346:Drivers/STM32G4xx_HAL_Driver/Inc/stm32g4xx_ll_adc.h **** #define TEMPSENSOR_CAL1_TEMP               (30L)                        /* Internal temperature sen
 347:Drivers/STM32G4xx_HAL_Driver/Inc/stm32g4xx_ll_adc.h **** #define TEMPSENSOR_CAL2_TEMP               (110L)                       /* Internal temperature sen
 348:Drivers/STM32G4xx_HAL_Driver/Inc/stm32g4xx_ll_adc.h **** #define TEMPSENSOR_CAL_VREFANALOG          (3000UL)                     /* Analog voltage reference
 349:Drivers/STM32G4xx_HAL_Driver/Inc/stm32g4xx_ll_adc.h **** 
 350:Drivers/STM32G4xx_HAL_Driver/Inc/stm32g4xx_ll_adc.h **** 
 351:Drivers/STM32G4xx_HAL_Driver/Inc/stm32g4xx_ll_adc.h **** /**
 352:Drivers/STM32G4xx_HAL_Driver/Inc/stm32g4xx_ll_adc.h ****   * @}
 353:Drivers/STM32G4xx_HAL_Driver/Inc/stm32g4xx_ll_adc.h ****   */
 354:Drivers/STM32G4xx_HAL_Driver/Inc/stm32g4xx_ll_adc.h **** 
 355:Drivers/STM32G4xx_HAL_Driver/Inc/stm32g4xx_ll_adc.h **** 
 356:Drivers/STM32G4xx_HAL_Driver/Inc/stm32g4xx_ll_adc.h **** /* Private macros ------------------------------------------------------------*/
 357:Drivers/STM32G4xx_HAL_Driver/Inc/stm32g4xx_ll_adc.h **** /** @defgroup ADC_LL_Private_Macros ADC Private Macros
 358:Drivers/STM32G4xx_HAL_Driver/Inc/stm32g4xx_ll_adc.h ****   * @{
 359:Drivers/STM32G4xx_HAL_Driver/Inc/stm32g4xx_ll_adc.h ****   */
 360:Drivers/STM32G4xx_HAL_Driver/Inc/stm32g4xx_ll_adc.h **** 
 361:Drivers/STM32G4xx_HAL_Driver/Inc/stm32g4xx_ll_adc.h **** /**
ARM GAS  /tmp/ccnaDHIW.s 			page 12


 362:Drivers/STM32G4xx_HAL_Driver/Inc/stm32g4xx_ll_adc.h ****   * @brief  Driver macro reserved for internal use: set a pointer to
 363:Drivers/STM32G4xx_HAL_Driver/Inc/stm32g4xx_ll_adc.h ****   *         a register from a register basis from which an offset
 364:Drivers/STM32G4xx_HAL_Driver/Inc/stm32g4xx_ll_adc.h ****   *         is applied.
 365:Drivers/STM32G4xx_HAL_Driver/Inc/stm32g4xx_ll_adc.h ****   * @param  __REG__ Register basis from which the offset is applied.
 366:Drivers/STM32G4xx_HAL_Driver/Inc/stm32g4xx_ll_adc.h ****   * @param  __REG_OFFFSET__ Offset to be applied (unit: number of registers).
 367:Drivers/STM32G4xx_HAL_Driver/Inc/stm32g4xx_ll_adc.h ****   * @retval Pointer to register address
 368:Drivers/STM32G4xx_HAL_Driver/Inc/stm32g4xx_ll_adc.h ****   */
 369:Drivers/STM32G4xx_HAL_Driver/Inc/stm32g4xx_ll_adc.h **** #define __ADC_PTR_REG_OFFSET(__REG__, __REG_OFFFSET__)                         \
 370:Drivers/STM32G4xx_HAL_Driver/Inc/stm32g4xx_ll_adc.h ****   ((__IO uint32_t *)((uint32_t) ((uint32_t)(&(__REG__)) + ((__REG_OFFFSET__) << 2UL))))
 371:Drivers/STM32G4xx_HAL_Driver/Inc/stm32g4xx_ll_adc.h **** 
 372:Drivers/STM32G4xx_HAL_Driver/Inc/stm32g4xx_ll_adc.h **** /**
 373:Drivers/STM32G4xx_HAL_Driver/Inc/stm32g4xx_ll_adc.h ****   * @}
 374:Drivers/STM32G4xx_HAL_Driver/Inc/stm32g4xx_ll_adc.h ****   */
 375:Drivers/STM32G4xx_HAL_Driver/Inc/stm32g4xx_ll_adc.h **** 
 376:Drivers/STM32G4xx_HAL_Driver/Inc/stm32g4xx_ll_adc.h **** 
 377:Drivers/STM32G4xx_HAL_Driver/Inc/stm32g4xx_ll_adc.h **** /* Exported types ------------------------------------------------------------*/
 378:Drivers/STM32G4xx_HAL_Driver/Inc/stm32g4xx_ll_adc.h **** #if defined(USE_FULL_LL_DRIVER)
 379:Drivers/STM32G4xx_HAL_Driver/Inc/stm32g4xx_ll_adc.h **** /** @defgroup ADC_LL_ES_INIT ADC Exported Init structure
 380:Drivers/STM32G4xx_HAL_Driver/Inc/stm32g4xx_ll_adc.h ****   * @{
 381:Drivers/STM32G4xx_HAL_Driver/Inc/stm32g4xx_ll_adc.h ****   */
 382:Drivers/STM32G4xx_HAL_Driver/Inc/stm32g4xx_ll_adc.h **** 
 383:Drivers/STM32G4xx_HAL_Driver/Inc/stm32g4xx_ll_adc.h **** /**
 384:Drivers/STM32G4xx_HAL_Driver/Inc/stm32g4xx_ll_adc.h ****   * @brief  Structure definition of some features of ADC common parameters
 385:Drivers/STM32G4xx_HAL_Driver/Inc/stm32g4xx_ll_adc.h ****   *         and multimode
 386:Drivers/STM32G4xx_HAL_Driver/Inc/stm32g4xx_ll_adc.h ****   *         (all ADC instances belonging to the same ADC common instance).
 387:Drivers/STM32G4xx_HAL_Driver/Inc/stm32g4xx_ll_adc.h ****   * @note   The setting of these parameters by function @ref LL_ADC_CommonInit()
 388:Drivers/STM32G4xx_HAL_Driver/Inc/stm32g4xx_ll_adc.h ****   *         is conditioned to ADC instances state (all ADC instances
 389:Drivers/STM32G4xx_HAL_Driver/Inc/stm32g4xx_ll_adc.h ****   *         sharing the same ADC common instance):
 390:Drivers/STM32G4xx_HAL_Driver/Inc/stm32g4xx_ll_adc.h ****   *         All ADC instances sharing the same ADC common instance must be
 391:Drivers/STM32G4xx_HAL_Driver/Inc/stm32g4xx_ll_adc.h ****   *         disabled.
 392:Drivers/STM32G4xx_HAL_Driver/Inc/stm32g4xx_ll_adc.h ****   */
 393:Drivers/STM32G4xx_HAL_Driver/Inc/stm32g4xx_ll_adc.h **** typedef struct
 394:Drivers/STM32G4xx_HAL_Driver/Inc/stm32g4xx_ll_adc.h **** {
 395:Drivers/STM32G4xx_HAL_Driver/Inc/stm32g4xx_ll_adc.h ****   uint32_t CommonClock;                 /*!< Set parameter common to several ADC: Clock source and 
 396:Drivers/STM32G4xx_HAL_Driver/Inc/stm32g4xx_ll_adc.h ****                                              This parameter can be a value of @ref ADC_LL_EC_COMMON
 397:Drivers/STM32G4xx_HAL_Driver/Inc/stm32g4xx_ll_adc.h ****                                              @note On this STM32 series, if ADC group injected is u
 398:Drivers/STM32G4xx_HAL_Driver/Inc/stm32g4xx_ll_adc.h ****                                                    clock ratio constraints between ADC clock and AH
 399:Drivers/STM32G4xx_HAL_Driver/Inc/stm32g4xx_ll_adc.h ****                                                    must be respected. Refer to reference manual.
 400:Drivers/STM32G4xx_HAL_Driver/Inc/stm32g4xx_ll_adc.h **** 
 401:Drivers/STM32G4xx_HAL_Driver/Inc/stm32g4xx_ll_adc.h ****                                              This feature can be modified afterwards using unitary 
 402:Drivers/STM32G4xx_HAL_Driver/Inc/stm32g4xx_ll_adc.h **** 
 403:Drivers/STM32G4xx_HAL_Driver/Inc/stm32g4xx_ll_adc.h **** #if defined(ADC_MULTIMODE_SUPPORT)
 404:Drivers/STM32G4xx_HAL_Driver/Inc/stm32g4xx_ll_adc.h ****   uint32_t Multimode;                   /*!< Set ADC multimode configuration to operate in independ
 405:Drivers/STM32G4xx_HAL_Driver/Inc/stm32g4xx_ll_adc.h ****                                              This parameter can be a value of @ref ADC_LL_EC_MULTI_
 406:Drivers/STM32G4xx_HAL_Driver/Inc/stm32g4xx_ll_adc.h **** 
 407:Drivers/STM32G4xx_HAL_Driver/Inc/stm32g4xx_ll_adc.h ****                                              This feature can be modified afterwards using unitary 
 408:Drivers/STM32G4xx_HAL_Driver/Inc/stm32g4xx_ll_adc.h **** 
 409:Drivers/STM32G4xx_HAL_Driver/Inc/stm32g4xx_ll_adc.h ****   uint32_t MultiDMATransfer;            /*!< Set ADC multimode conversion data transfer: no transfe
 410:Drivers/STM32G4xx_HAL_Driver/Inc/stm32g4xx_ll_adc.h ****                                              This parameter can be a value of @ref ADC_LL_EC_MULTI_
 411:Drivers/STM32G4xx_HAL_Driver/Inc/stm32g4xx_ll_adc.h **** 
 412:Drivers/STM32G4xx_HAL_Driver/Inc/stm32g4xx_ll_adc.h ****                                              This feature can be modified afterwards using unitary 
 413:Drivers/STM32G4xx_HAL_Driver/Inc/stm32g4xx_ll_adc.h **** 
 414:Drivers/STM32G4xx_HAL_Driver/Inc/stm32g4xx_ll_adc.h ****   uint32_t MultiTwoSamplingDelay;       /*!< Set ADC multimode delay between 2 sampling phases.
 415:Drivers/STM32G4xx_HAL_Driver/Inc/stm32g4xx_ll_adc.h ****                                              This parameter can be a value of @ref ADC_LL_EC_MULTI_
 416:Drivers/STM32G4xx_HAL_Driver/Inc/stm32g4xx_ll_adc.h **** 
 417:Drivers/STM32G4xx_HAL_Driver/Inc/stm32g4xx_ll_adc.h ****                                              This feature can be modified afterwards using unitary 
 418:Drivers/STM32G4xx_HAL_Driver/Inc/stm32g4xx_ll_adc.h **** #endif /* ADC_MULTIMODE_SUPPORT */
ARM GAS  /tmp/ccnaDHIW.s 			page 13


 419:Drivers/STM32G4xx_HAL_Driver/Inc/stm32g4xx_ll_adc.h **** 
 420:Drivers/STM32G4xx_HAL_Driver/Inc/stm32g4xx_ll_adc.h **** } LL_ADC_CommonInitTypeDef;
 421:Drivers/STM32G4xx_HAL_Driver/Inc/stm32g4xx_ll_adc.h **** 
 422:Drivers/STM32G4xx_HAL_Driver/Inc/stm32g4xx_ll_adc.h **** /**
 423:Drivers/STM32G4xx_HAL_Driver/Inc/stm32g4xx_ll_adc.h ****   * @brief  Structure definition of some features of ADC instance.
 424:Drivers/STM32G4xx_HAL_Driver/Inc/stm32g4xx_ll_adc.h ****   * @note   These parameters have an impact on ADC scope: ADC instance.
 425:Drivers/STM32G4xx_HAL_Driver/Inc/stm32g4xx_ll_adc.h ****   *         Affects both group regular and group injected (availability
 426:Drivers/STM32G4xx_HAL_Driver/Inc/stm32g4xx_ll_adc.h ****   *         of ADC group injected depends on STM32 families).
 427:Drivers/STM32G4xx_HAL_Driver/Inc/stm32g4xx_ll_adc.h ****   *         Refer to corresponding unitary functions into
 428:Drivers/STM32G4xx_HAL_Driver/Inc/stm32g4xx_ll_adc.h ****   *         @ref ADC_LL_EF_Configuration_ADC_Instance .
 429:Drivers/STM32G4xx_HAL_Driver/Inc/stm32g4xx_ll_adc.h ****   * @note   The setting of these parameters by function @ref LL_ADC_Init()
 430:Drivers/STM32G4xx_HAL_Driver/Inc/stm32g4xx_ll_adc.h ****   *         is conditioned to ADC state:
 431:Drivers/STM32G4xx_HAL_Driver/Inc/stm32g4xx_ll_adc.h ****   *         ADC instance must be disabled.
 432:Drivers/STM32G4xx_HAL_Driver/Inc/stm32g4xx_ll_adc.h ****   *         This condition is applied to all ADC features, for efficiency
 433:Drivers/STM32G4xx_HAL_Driver/Inc/stm32g4xx_ll_adc.h ****   *         and compatibility over all STM32 families. However, the different
 434:Drivers/STM32G4xx_HAL_Driver/Inc/stm32g4xx_ll_adc.h ****   *         features can be set under different ADC state conditions
 435:Drivers/STM32G4xx_HAL_Driver/Inc/stm32g4xx_ll_adc.h ****   *         (setting possible with ADC enabled without conversion on going,
 436:Drivers/STM32G4xx_HAL_Driver/Inc/stm32g4xx_ll_adc.h ****   *         ADC enabled with conversion on going, ...)
 437:Drivers/STM32G4xx_HAL_Driver/Inc/stm32g4xx_ll_adc.h ****   *         Each feature can be updated afterwards with a unitary function
 438:Drivers/STM32G4xx_HAL_Driver/Inc/stm32g4xx_ll_adc.h ****   *         and potentially with ADC in a different state than disabled,
 439:Drivers/STM32G4xx_HAL_Driver/Inc/stm32g4xx_ll_adc.h ****   *         refer to description of each function for setting
 440:Drivers/STM32G4xx_HAL_Driver/Inc/stm32g4xx_ll_adc.h ****   *         conditioned to ADC state.
 441:Drivers/STM32G4xx_HAL_Driver/Inc/stm32g4xx_ll_adc.h ****   */
 442:Drivers/STM32G4xx_HAL_Driver/Inc/stm32g4xx_ll_adc.h **** typedef struct
 443:Drivers/STM32G4xx_HAL_Driver/Inc/stm32g4xx_ll_adc.h **** {
 444:Drivers/STM32G4xx_HAL_Driver/Inc/stm32g4xx_ll_adc.h ****   uint32_t Resolution;                  /*!< Set ADC resolution.
 445:Drivers/STM32G4xx_HAL_Driver/Inc/stm32g4xx_ll_adc.h ****                                              This parameter can be a value of @ref ADC_LL_EC_RESOLU
 446:Drivers/STM32G4xx_HAL_Driver/Inc/stm32g4xx_ll_adc.h **** 
 447:Drivers/STM32G4xx_HAL_Driver/Inc/stm32g4xx_ll_adc.h ****                                              This feature can be modified afterwards using unitary 
 448:Drivers/STM32G4xx_HAL_Driver/Inc/stm32g4xx_ll_adc.h **** 
 449:Drivers/STM32G4xx_HAL_Driver/Inc/stm32g4xx_ll_adc.h ****   uint32_t DataAlignment;               /*!< Set ADC conversion data alignment.
 450:Drivers/STM32G4xx_HAL_Driver/Inc/stm32g4xx_ll_adc.h ****                                              This parameter can be a value of @ref ADC_LL_EC_DATA_A
 451:Drivers/STM32G4xx_HAL_Driver/Inc/stm32g4xx_ll_adc.h **** 
 452:Drivers/STM32G4xx_HAL_Driver/Inc/stm32g4xx_ll_adc.h ****                                              This feature can be modified afterwards using unitary 
 453:Drivers/STM32G4xx_HAL_Driver/Inc/stm32g4xx_ll_adc.h **** 
 454:Drivers/STM32G4xx_HAL_Driver/Inc/stm32g4xx_ll_adc.h ****   uint32_t LowPowerMode;                /*!< Set ADC low power mode.
 455:Drivers/STM32G4xx_HAL_Driver/Inc/stm32g4xx_ll_adc.h ****                                              This parameter can be a value of @ref ADC_LL_EC_LP_MOD
 456:Drivers/STM32G4xx_HAL_Driver/Inc/stm32g4xx_ll_adc.h **** 
 457:Drivers/STM32G4xx_HAL_Driver/Inc/stm32g4xx_ll_adc.h ****                                              This feature can be modified afterwards using unitary 
 458:Drivers/STM32G4xx_HAL_Driver/Inc/stm32g4xx_ll_adc.h **** 
 459:Drivers/STM32G4xx_HAL_Driver/Inc/stm32g4xx_ll_adc.h **** } LL_ADC_InitTypeDef;
 460:Drivers/STM32G4xx_HAL_Driver/Inc/stm32g4xx_ll_adc.h **** 
 461:Drivers/STM32G4xx_HAL_Driver/Inc/stm32g4xx_ll_adc.h **** /**
 462:Drivers/STM32G4xx_HAL_Driver/Inc/stm32g4xx_ll_adc.h ****   * @brief  Structure definition of some features of ADC group regular.
 463:Drivers/STM32G4xx_HAL_Driver/Inc/stm32g4xx_ll_adc.h ****   * @note   These parameters have an impact on ADC scope: ADC group regular.
 464:Drivers/STM32G4xx_HAL_Driver/Inc/stm32g4xx_ll_adc.h ****   *         Refer to corresponding unitary functions into
 465:Drivers/STM32G4xx_HAL_Driver/Inc/stm32g4xx_ll_adc.h ****   *         @ref ADC_LL_EF_Configuration_ADC_Group_Regular
 466:Drivers/STM32G4xx_HAL_Driver/Inc/stm32g4xx_ll_adc.h ****   *         (functions with prefix "REG").
 467:Drivers/STM32G4xx_HAL_Driver/Inc/stm32g4xx_ll_adc.h ****   * @note   The setting of these parameters by function @ref LL_ADC_REG_Init()
 468:Drivers/STM32G4xx_HAL_Driver/Inc/stm32g4xx_ll_adc.h ****   *         is conditioned to ADC state:
 469:Drivers/STM32G4xx_HAL_Driver/Inc/stm32g4xx_ll_adc.h ****   *         ADC instance must be disabled.
 470:Drivers/STM32G4xx_HAL_Driver/Inc/stm32g4xx_ll_adc.h ****   *         This condition is applied to all ADC features, for efficiency
 471:Drivers/STM32G4xx_HAL_Driver/Inc/stm32g4xx_ll_adc.h ****   *         and compatibility over all STM32 families. However, the different
 472:Drivers/STM32G4xx_HAL_Driver/Inc/stm32g4xx_ll_adc.h ****   *         features can be set under different ADC state conditions
 473:Drivers/STM32G4xx_HAL_Driver/Inc/stm32g4xx_ll_adc.h ****   *         (setting possible with ADC enabled without conversion on going,
 474:Drivers/STM32G4xx_HAL_Driver/Inc/stm32g4xx_ll_adc.h ****   *         ADC enabled with conversion on going, ...)
 475:Drivers/STM32G4xx_HAL_Driver/Inc/stm32g4xx_ll_adc.h ****   *         Each feature can be updated afterwards with a unitary function
ARM GAS  /tmp/ccnaDHIW.s 			page 14


 476:Drivers/STM32G4xx_HAL_Driver/Inc/stm32g4xx_ll_adc.h ****   *         and potentially with ADC in a different state than disabled,
 477:Drivers/STM32G4xx_HAL_Driver/Inc/stm32g4xx_ll_adc.h ****   *         refer to description of each function for setting
 478:Drivers/STM32G4xx_HAL_Driver/Inc/stm32g4xx_ll_adc.h ****   *         conditioned to ADC state.
 479:Drivers/STM32G4xx_HAL_Driver/Inc/stm32g4xx_ll_adc.h ****   */
 480:Drivers/STM32G4xx_HAL_Driver/Inc/stm32g4xx_ll_adc.h **** typedef struct
 481:Drivers/STM32G4xx_HAL_Driver/Inc/stm32g4xx_ll_adc.h **** {
 482:Drivers/STM32G4xx_HAL_Driver/Inc/stm32g4xx_ll_adc.h ****   uint32_t TriggerSource;               /*!< Set ADC group regular conversion trigger source: inter
 483:Drivers/STM32G4xx_HAL_Driver/Inc/stm32g4xx_ll_adc.h ****                                              This parameter can be a value of @ref ADC_LL_EC_REG_TR
 484:Drivers/STM32G4xx_HAL_Driver/Inc/stm32g4xx_ll_adc.h ****                                              @note On this STM32 series, setting trigger source to 
 485:Drivers/STM32G4xx_HAL_Driver/Inc/stm32g4xx_ll_adc.h ****                                                    (default setting for compatibility with some ADC
 486:Drivers/STM32G4xx_HAL_Driver/Inc/stm32g4xx_ll_adc.h ****                                                    In case of need to modify trigger edge, use func
 487:Drivers/STM32G4xx_HAL_Driver/Inc/stm32g4xx_ll_adc.h **** 
 488:Drivers/STM32G4xx_HAL_Driver/Inc/stm32g4xx_ll_adc.h ****                                              This feature can be modified afterwards using unitary 
 489:Drivers/STM32G4xx_HAL_Driver/Inc/stm32g4xx_ll_adc.h **** 
 490:Drivers/STM32G4xx_HAL_Driver/Inc/stm32g4xx_ll_adc.h ****   uint32_t SequencerLength;             /*!< Set ADC group regular sequencer length.
 491:Drivers/STM32G4xx_HAL_Driver/Inc/stm32g4xx_ll_adc.h ****                                              This parameter can be a value of @ref ADC_LL_EC_REG_SE
 492:Drivers/STM32G4xx_HAL_Driver/Inc/stm32g4xx_ll_adc.h **** 
 493:Drivers/STM32G4xx_HAL_Driver/Inc/stm32g4xx_ll_adc.h ****                                              This feature can be modified afterwards using unitary 
 494:Drivers/STM32G4xx_HAL_Driver/Inc/stm32g4xx_ll_adc.h **** 
 495:Drivers/STM32G4xx_HAL_Driver/Inc/stm32g4xx_ll_adc.h ****   uint32_t SequencerDiscont;            /*!< Set ADC group regular sequencer discontinuous mode: se
 496:Drivers/STM32G4xx_HAL_Driver/Inc/stm32g4xx_ll_adc.h ****                                              This parameter can be a value of @ref ADC_LL_EC_REG_SE
 497:Drivers/STM32G4xx_HAL_Driver/Inc/stm32g4xx_ll_adc.h ****                                              @note This parameter has an effect only if group regul
 498:Drivers/STM32G4xx_HAL_Driver/Inc/stm32g4xx_ll_adc.h ****                                                    (scan length of 2 ranks or more).
 499:Drivers/STM32G4xx_HAL_Driver/Inc/stm32g4xx_ll_adc.h **** 
 500:Drivers/STM32G4xx_HAL_Driver/Inc/stm32g4xx_ll_adc.h ****                                              This feature can be modified afterwards using unitary 
 501:Drivers/STM32G4xx_HAL_Driver/Inc/stm32g4xx_ll_adc.h **** 
 502:Drivers/STM32G4xx_HAL_Driver/Inc/stm32g4xx_ll_adc.h ****   uint32_t ContinuousMode;              /*!< Set ADC continuous conversion mode on ADC group regula
 503:Drivers/STM32G4xx_HAL_Driver/Inc/stm32g4xx_ll_adc.h ****                                              This parameter can be a value of @ref ADC_LL_EC_REG_CO
 504:Drivers/STM32G4xx_HAL_Driver/Inc/stm32g4xx_ll_adc.h ****                                              Note: It is not possible to enable both ADC group regu
 505:Drivers/STM32G4xx_HAL_Driver/Inc/stm32g4xx_ll_adc.h **** 
 506:Drivers/STM32G4xx_HAL_Driver/Inc/stm32g4xx_ll_adc.h ****                                              This feature can be modified afterwards using unitary 
 507:Drivers/STM32G4xx_HAL_Driver/Inc/stm32g4xx_ll_adc.h **** 
 508:Drivers/STM32G4xx_HAL_Driver/Inc/stm32g4xx_ll_adc.h ****   uint32_t DMATransfer;                 /*!< Set ADC group regular conversion data transfer: no tra
 509:Drivers/STM32G4xx_HAL_Driver/Inc/stm32g4xx_ll_adc.h ****                                              This parameter can be a value of @ref ADC_LL_EC_REG_DM
 510:Drivers/STM32G4xx_HAL_Driver/Inc/stm32g4xx_ll_adc.h **** 
 511:Drivers/STM32G4xx_HAL_Driver/Inc/stm32g4xx_ll_adc.h ****                                              This feature can be modified afterwards using unitary 
 512:Drivers/STM32G4xx_HAL_Driver/Inc/stm32g4xx_ll_adc.h **** 
 513:Drivers/STM32G4xx_HAL_Driver/Inc/stm32g4xx_ll_adc.h ****   uint32_t Overrun;                     /*!< Set ADC group regular behavior in case of overrun:
 514:Drivers/STM32G4xx_HAL_Driver/Inc/stm32g4xx_ll_adc.h ****                                              data preserved or overwritten.
 515:Drivers/STM32G4xx_HAL_Driver/Inc/stm32g4xx_ll_adc.h ****                                              This parameter can be a value of @ref ADC_LL_EC_REG_OV
 516:Drivers/STM32G4xx_HAL_Driver/Inc/stm32g4xx_ll_adc.h **** 
 517:Drivers/STM32G4xx_HAL_Driver/Inc/stm32g4xx_ll_adc.h ****                                              This feature can be modified afterwards using unitary 
 518:Drivers/STM32G4xx_HAL_Driver/Inc/stm32g4xx_ll_adc.h **** 
 519:Drivers/STM32G4xx_HAL_Driver/Inc/stm32g4xx_ll_adc.h **** } LL_ADC_REG_InitTypeDef;
 520:Drivers/STM32G4xx_HAL_Driver/Inc/stm32g4xx_ll_adc.h **** 
 521:Drivers/STM32G4xx_HAL_Driver/Inc/stm32g4xx_ll_adc.h **** /**
 522:Drivers/STM32G4xx_HAL_Driver/Inc/stm32g4xx_ll_adc.h ****   * @brief  Structure definition of some features of ADC group injected.
 523:Drivers/STM32G4xx_HAL_Driver/Inc/stm32g4xx_ll_adc.h ****   * @note   These parameters have an impact on ADC scope: ADC group injected.
 524:Drivers/STM32G4xx_HAL_Driver/Inc/stm32g4xx_ll_adc.h ****   *         Refer to corresponding unitary functions into
 525:Drivers/STM32G4xx_HAL_Driver/Inc/stm32g4xx_ll_adc.h ****   *         @ref ADC_LL_EF_Configuration_ADC_Group_Regular
 526:Drivers/STM32G4xx_HAL_Driver/Inc/stm32g4xx_ll_adc.h ****   *         (functions with prefix "INJ").
 527:Drivers/STM32G4xx_HAL_Driver/Inc/stm32g4xx_ll_adc.h ****   * @note   The setting of these parameters by function @ref LL_ADC_INJ_Init()
 528:Drivers/STM32G4xx_HAL_Driver/Inc/stm32g4xx_ll_adc.h ****   *         is conditioned to ADC state:
 529:Drivers/STM32G4xx_HAL_Driver/Inc/stm32g4xx_ll_adc.h ****   *         ADC instance must be disabled.
 530:Drivers/STM32G4xx_HAL_Driver/Inc/stm32g4xx_ll_adc.h ****   *         This condition is applied to all ADC features, for efficiency
 531:Drivers/STM32G4xx_HAL_Driver/Inc/stm32g4xx_ll_adc.h ****   *         and compatibility over all STM32 families. However, the different
 532:Drivers/STM32G4xx_HAL_Driver/Inc/stm32g4xx_ll_adc.h ****   *         features can be set under different ADC state conditions
ARM GAS  /tmp/ccnaDHIW.s 			page 15


 533:Drivers/STM32G4xx_HAL_Driver/Inc/stm32g4xx_ll_adc.h ****   *         (setting possible with ADC enabled without conversion on going,
 534:Drivers/STM32G4xx_HAL_Driver/Inc/stm32g4xx_ll_adc.h ****   *         ADC enabled with conversion on going, ...)
 535:Drivers/STM32G4xx_HAL_Driver/Inc/stm32g4xx_ll_adc.h ****   *         Each feature can be updated afterwards with a unitary function
 536:Drivers/STM32G4xx_HAL_Driver/Inc/stm32g4xx_ll_adc.h ****   *         and potentially with ADC in a different state than disabled,
 537:Drivers/STM32G4xx_HAL_Driver/Inc/stm32g4xx_ll_adc.h ****   *         refer to description of each function for setting
 538:Drivers/STM32G4xx_HAL_Driver/Inc/stm32g4xx_ll_adc.h ****   *         conditioned to ADC state.
 539:Drivers/STM32G4xx_HAL_Driver/Inc/stm32g4xx_ll_adc.h ****   */
 540:Drivers/STM32G4xx_HAL_Driver/Inc/stm32g4xx_ll_adc.h **** typedef struct
 541:Drivers/STM32G4xx_HAL_Driver/Inc/stm32g4xx_ll_adc.h **** {
 542:Drivers/STM32G4xx_HAL_Driver/Inc/stm32g4xx_ll_adc.h ****   uint32_t TriggerSource;               /*!< Set ADC group injected conversion trigger source: inte
 543:Drivers/STM32G4xx_HAL_Driver/Inc/stm32g4xx_ll_adc.h ****                                              This parameter can be a value of @ref ADC_LL_EC_INJ_TR
 544:Drivers/STM32G4xx_HAL_Driver/Inc/stm32g4xx_ll_adc.h ****                                              @note On this STM32 series, setting trigger source to 
 545:Drivers/STM32G4xx_HAL_Driver/Inc/stm32g4xx_ll_adc.h ****                                                    (default setting for compatibility with some ADC
 546:Drivers/STM32G4xx_HAL_Driver/Inc/stm32g4xx_ll_adc.h ****                                                    In case of need to modify trigger edge, use func
 547:Drivers/STM32G4xx_HAL_Driver/Inc/stm32g4xx_ll_adc.h **** 
 548:Drivers/STM32G4xx_HAL_Driver/Inc/stm32g4xx_ll_adc.h ****                                              This feature can be modified afterwards using unitary 
 549:Drivers/STM32G4xx_HAL_Driver/Inc/stm32g4xx_ll_adc.h **** 
 550:Drivers/STM32G4xx_HAL_Driver/Inc/stm32g4xx_ll_adc.h ****   uint32_t SequencerLength;             /*!< Set ADC group injected sequencer length.
 551:Drivers/STM32G4xx_HAL_Driver/Inc/stm32g4xx_ll_adc.h ****                                              This parameter can be a value of @ref ADC_LL_EC_INJ_SE
 552:Drivers/STM32G4xx_HAL_Driver/Inc/stm32g4xx_ll_adc.h **** 
 553:Drivers/STM32G4xx_HAL_Driver/Inc/stm32g4xx_ll_adc.h ****                                              This feature can be modified afterwards using unitary 
 554:Drivers/STM32G4xx_HAL_Driver/Inc/stm32g4xx_ll_adc.h **** 
 555:Drivers/STM32G4xx_HAL_Driver/Inc/stm32g4xx_ll_adc.h ****   uint32_t SequencerDiscont;            /*!< Set ADC group injected sequencer discontinuous mode: s
 556:Drivers/STM32G4xx_HAL_Driver/Inc/stm32g4xx_ll_adc.h ****                                              This parameter can be a value of @ref ADC_LL_EC_INJ_SE
 557:Drivers/STM32G4xx_HAL_Driver/Inc/stm32g4xx_ll_adc.h ****                                              @note This parameter has an effect only if group injec
 558:Drivers/STM32G4xx_HAL_Driver/Inc/stm32g4xx_ll_adc.h ****                                                    (scan length of 2 ranks or more).
 559:Drivers/STM32G4xx_HAL_Driver/Inc/stm32g4xx_ll_adc.h **** 
 560:Drivers/STM32G4xx_HAL_Driver/Inc/stm32g4xx_ll_adc.h ****                                              This feature can be modified afterwards using unitary 
 561:Drivers/STM32G4xx_HAL_Driver/Inc/stm32g4xx_ll_adc.h **** 
 562:Drivers/STM32G4xx_HAL_Driver/Inc/stm32g4xx_ll_adc.h ****   uint32_t TrigAuto;                    /*!< Set ADC group injected conversion trigger: independent
 563:Drivers/STM32G4xx_HAL_Driver/Inc/stm32g4xx_ll_adc.h ****                                              This parameter can be a value of @ref ADC_LL_EC_INJ_TR
 564:Drivers/STM32G4xx_HAL_Driver/Inc/stm32g4xx_ll_adc.h ****                                              Note: This parameter must be set to set to independent
 565:Drivers/STM32G4xx_HAL_Driver/Inc/stm32g4xx_ll_adc.h **** 
 566:Drivers/STM32G4xx_HAL_Driver/Inc/stm32g4xx_ll_adc.h ****                                              This feature can be modified afterwards using unitary 
 567:Drivers/STM32G4xx_HAL_Driver/Inc/stm32g4xx_ll_adc.h **** 
 568:Drivers/STM32G4xx_HAL_Driver/Inc/stm32g4xx_ll_adc.h **** } LL_ADC_INJ_InitTypeDef;
 569:Drivers/STM32G4xx_HAL_Driver/Inc/stm32g4xx_ll_adc.h **** 
 570:Drivers/STM32G4xx_HAL_Driver/Inc/stm32g4xx_ll_adc.h **** /**
 571:Drivers/STM32G4xx_HAL_Driver/Inc/stm32g4xx_ll_adc.h ****   * @}
 572:Drivers/STM32G4xx_HAL_Driver/Inc/stm32g4xx_ll_adc.h ****   */
 573:Drivers/STM32G4xx_HAL_Driver/Inc/stm32g4xx_ll_adc.h **** #endif /* USE_FULL_LL_DRIVER */
 574:Drivers/STM32G4xx_HAL_Driver/Inc/stm32g4xx_ll_adc.h **** 
 575:Drivers/STM32G4xx_HAL_Driver/Inc/stm32g4xx_ll_adc.h **** /* Exported constants --------------------------------------------------------*/
 576:Drivers/STM32G4xx_HAL_Driver/Inc/stm32g4xx_ll_adc.h **** /** @defgroup ADC_LL_Exported_Constants ADC Exported Constants
 577:Drivers/STM32G4xx_HAL_Driver/Inc/stm32g4xx_ll_adc.h ****   * @{
 578:Drivers/STM32G4xx_HAL_Driver/Inc/stm32g4xx_ll_adc.h ****   */
 579:Drivers/STM32G4xx_HAL_Driver/Inc/stm32g4xx_ll_adc.h **** 
 580:Drivers/STM32G4xx_HAL_Driver/Inc/stm32g4xx_ll_adc.h **** /** @defgroup ADC_LL_EC_FLAG ADC flags
 581:Drivers/STM32G4xx_HAL_Driver/Inc/stm32g4xx_ll_adc.h ****   * @brief    Flags defines which can be used with LL_ADC_ReadReg function
 582:Drivers/STM32G4xx_HAL_Driver/Inc/stm32g4xx_ll_adc.h ****   * @{
 583:Drivers/STM32G4xx_HAL_Driver/Inc/stm32g4xx_ll_adc.h ****   */
 584:Drivers/STM32G4xx_HAL_Driver/Inc/stm32g4xx_ll_adc.h **** #define LL_ADC_FLAG_ADRDY                  ADC_ISR_ADRDY      /*!< ADC flag ADC instance ready */
 585:Drivers/STM32G4xx_HAL_Driver/Inc/stm32g4xx_ll_adc.h **** #define LL_ADC_FLAG_EOC                    ADC_ISR_EOC        /*!< ADC flag ADC group regular end o
 586:Drivers/STM32G4xx_HAL_Driver/Inc/stm32g4xx_ll_adc.h **** #define LL_ADC_FLAG_EOS                    ADC_ISR_EOS        /*!< ADC flag ADC group regular end o
 587:Drivers/STM32G4xx_HAL_Driver/Inc/stm32g4xx_ll_adc.h **** #define LL_ADC_FLAG_OVR                    ADC_ISR_OVR        /*!< ADC flag ADC group regular overr
 588:Drivers/STM32G4xx_HAL_Driver/Inc/stm32g4xx_ll_adc.h **** #define LL_ADC_FLAG_EOSMP                  ADC_ISR_EOSMP      /*!< ADC flag ADC group regular end o
 589:Drivers/STM32G4xx_HAL_Driver/Inc/stm32g4xx_ll_adc.h **** #define LL_ADC_FLAG_JEOC                   ADC_ISR_JEOC       /*!< ADC flag ADC group injected end 
ARM GAS  /tmp/ccnaDHIW.s 			page 16


 590:Drivers/STM32G4xx_HAL_Driver/Inc/stm32g4xx_ll_adc.h **** #define LL_ADC_FLAG_JEOS                   ADC_ISR_JEOS       /*!< ADC flag ADC group injected end 
 591:Drivers/STM32G4xx_HAL_Driver/Inc/stm32g4xx_ll_adc.h **** #define LL_ADC_FLAG_JQOVF                  ADC_ISR_JQOVF      /*!< ADC flag ADC group injected cont
 592:Drivers/STM32G4xx_HAL_Driver/Inc/stm32g4xx_ll_adc.h **** #define LL_ADC_FLAG_AWD1                   ADC_ISR_AWD1       /*!< ADC flag ADC analog watchdog 1 *
 593:Drivers/STM32G4xx_HAL_Driver/Inc/stm32g4xx_ll_adc.h **** #define LL_ADC_FLAG_AWD2                   ADC_ISR_AWD2       /*!< ADC flag ADC analog watchdog 2 *
 594:Drivers/STM32G4xx_HAL_Driver/Inc/stm32g4xx_ll_adc.h **** #define LL_ADC_FLAG_AWD3                   ADC_ISR_AWD3       /*!< ADC flag ADC analog watchdog 3 *
 595:Drivers/STM32G4xx_HAL_Driver/Inc/stm32g4xx_ll_adc.h **** #if defined(ADC_MULTIMODE_SUPPORT)
 596:Drivers/STM32G4xx_HAL_Driver/Inc/stm32g4xx_ll_adc.h **** #define LL_ADC_FLAG_ADRDY_MST              ADC_CSR_ADRDY_MST  /*!< ADC flag ADC multimode master in
 597:Drivers/STM32G4xx_HAL_Driver/Inc/stm32g4xx_ll_adc.h **** #define LL_ADC_FLAG_ADRDY_SLV              ADC_CSR_ADRDY_SLV  /*!< ADC flag ADC multimode slave ins
 598:Drivers/STM32G4xx_HAL_Driver/Inc/stm32g4xx_ll_adc.h **** #define LL_ADC_FLAG_EOC_MST                ADC_CSR_EOC_MST    /*!< ADC flag ADC multimode master gr
 599:Drivers/STM32G4xx_HAL_Driver/Inc/stm32g4xx_ll_adc.h **** #define LL_ADC_FLAG_EOC_SLV                ADC_CSR_EOC_SLV    /*!< ADC flag ADC multimode slave gro
 600:Drivers/STM32G4xx_HAL_Driver/Inc/stm32g4xx_ll_adc.h **** #define LL_ADC_FLAG_EOS_MST                ADC_CSR_EOS_MST    /*!< ADC flag ADC multimode master gr
 601:Drivers/STM32G4xx_HAL_Driver/Inc/stm32g4xx_ll_adc.h **** #define LL_ADC_FLAG_EOS_SLV                ADC_CSR_EOS_SLV    /*!< ADC flag ADC multimode slave gro
 602:Drivers/STM32G4xx_HAL_Driver/Inc/stm32g4xx_ll_adc.h **** #define LL_ADC_FLAG_OVR_MST                ADC_CSR_OVR_MST    /*!< ADC flag ADC multimode master gr
 603:Drivers/STM32G4xx_HAL_Driver/Inc/stm32g4xx_ll_adc.h **** #define LL_ADC_FLAG_OVR_SLV                ADC_CSR_OVR_SLV    /*!< ADC flag ADC multimode slave gro
 604:Drivers/STM32G4xx_HAL_Driver/Inc/stm32g4xx_ll_adc.h **** #define LL_ADC_FLAG_EOSMP_MST              ADC_CSR_EOSMP_MST  /*!< ADC flag ADC multimode master gr
 605:Drivers/STM32G4xx_HAL_Driver/Inc/stm32g4xx_ll_adc.h **** #define LL_ADC_FLAG_EOSMP_SLV              ADC_CSR_EOSMP_SLV  /*!< ADC flag ADC multimode slave gro
 606:Drivers/STM32G4xx_HAL_Driver/Inc/stm32g4xx_ll_adc.h **** #define LL_ADC_FLAG_JEOC_MST               ADC_CSR_JEOC_MST   /*!< ADC flag ADC multimode master gr
 607:Drivers/STM32G4xx_HAL_Driver/Inc/stm32g4xx_ll_adc.h **** #define LL_ADC_FLAG_JEOC_SLV               ADC_CSR_JEOC_SLV   /*!< ADC flag ADC multimode slave gro
 608:Drivers/STM32G4xx_HAL_Driver/Inc/stm32g4xx_ll_adc.h **** #define LL_ADC_FLAG_JEOS_MST               ADC_CSR_JEOS_MST   /*!< ADC flag ADC multimode master gr
 609:Drivers/STM32G4xx_HAL_Driver/Inc/stm32g4xx_ll_adc.h **** #define LL_ADC_FLAG_JEOS_SLV               ADC_CSR_JEOS_SLV   /*!< ADC flag ADC multimode slave gro
 610:Drivers/STM32G4xx_HAL_Driver/Inc/stm32g4xx_ll_adc.h **** #define LL_ADC_FLAG_JQOVF_MST              ADC_CSR_JQOVF_MST  /*!< ADC flag ADC multimode master gr
 611:Drivers/STM32G4xx_HAL_Driver/Inc/stm32g4xx_ll_adc.h **** #define LL_ADC_FLAG_JQOVF_SLV              ADC_CSR_JQOVF_SLV  /*!< ADC flag ADC multimode slave gro
 612:Drivers/STM32G4xx_HAL_Driver/Inc/stm32g4xx_ll_adc.h **** #define LL_ADC_FLAG_AWD1_MST               ADC_CSR_AWD1_MST   /*!< ADC flag ADC multimode master an
 613:Drivers/STM32G4xx_HAL_Driver/Inc/stm32g4xx_ll_adc.h **** #define LL_ADC_FLAG_AWD1_SLV               ADC_CSR_AWD1_SLV   /*!< ADC flag ADC multimode slave ana
 614:Drivers/STM32G4xx_HAL_Driver/Inc/stm32g4xx_ll_adc.h **** #define LL_ADC_FLAG_AWD2_MST               ADC_CSR_AWD2_MST   /*!< ADC flag ADC multimode master an
 615:Drivers/STM32G4xx_HAL_Driver/Inc/stm32g4xx_ll_adc.h **** #define LL_ADC_FLAG_AWD2_SLV               ADC_CSR_AWD2_SLV   /*!< ADC flag ADC multimode slave ana
 616:Drivers/STM32G4xx_HAL_Driver/Inc/stm32g4xx_ll_adc.h **** #define LL_ADC_FLAG_AWD3_MST               ADC_CSR_AWD3_MST   /*!< ADC flag ADC multimode master an
 617:Drivers/STM32G4xx_HAL_Driver/Inc/stm32g4xx_ll_adc.h **** #define LL_ADC_FLAG_AWD3_SLV               ADC_CSR_AWD3_SLV   /*!< ADC flag ADC multimode slave ana
 618:Drivers/STM32G4xx_HAL_Driver/Inc/stm32g4xx_ll_adc.h **** #endif
 619:Drivers/STM32G4xx_HAL_Driver/Inc/stm32g4xx_ll_adc.h **** /**
 620:Drivers/STM32G4xx_HAL_Driver/Inc/stm32g4xx_ll_adc.h ****   * @}
 621:Drivers/STM32G4xx_HAL_Driver/Inc/stm32g4xx_ll_adc.h ****   */
 622:Drivers/STM32G4xx_HAL_Driver/Inc/stm32g4xx_ll_adc.h **** 
 623:Drivers/STM32G4xx_HAL_Driver/Inc/stm32g4xx_ll_adc.h **** /** @defgroup ADC_LL_EC_IT ADC interruptions for configuration (interruption enable or disable)
 624:Drivers/STM32G4xx_HAL_Driver/Inc/stm32g4xx_ll_adc.h ****   * @brief    IT defines which can be used with LL_ADC_ReadReg and  LL_ADC_WriteReg functions
 625:Drivers/STM32G4xx_HAL_Driver/Inc/stm32g4xx_ll_adc.h ****   * @{
 626:Drivers/STM32G4xx_HAL_Driver/Inc/stm32g4xx_ll_adc.h ****   */
 627:Drivers/STM32G4xx_HAL_Driver/Inc/stm32g4xx_ll_adc.h **** #define LL_ADC_IT_ADRDY                    ADC_IER_ADRDYIE    /*!< ADC interruption ADC instance re
 628:Drivers/STM32G4xx_HAL_Driver/Inc/stm32g4xx_ll_adc.h **** #define LL_ADC_IT_EOC                      ADC_IER_EOCIE      /*!< ADC interruption ADC group regul
 629:Drivers/STM32G4xx_HAL_Driver/Inc/stm32g4xx_ll_adc.h **** #define LL_ADC_IT_EOS                      ADC_IER_EOSIE      /*!< ADC interruption ADC group regul
 630:Drivers/STM32G4xx_HAL_Driver/Inc/stm32g4xx_ll_adc.h **** #define LL_ADC_IT_OVR                      ADC_IER_OVRIE      /*!< ADC interruption ADC group regul
 631:Drivers/STM32G4xx_HAL_Driver/Inc/stm32g4xx_ll_adc.h **** #define LL_ADC_IT_EOSMP                    ADC_IER_EOSMPIE    /*!< ADC interruption ADC group regul
 632:Drivers/STM32G4xx_HAL_Driver/Inc/stm32g4xx_ll_adc.h **** #define LL_ADC_IT_JEOC                     ADC_IER_JEOCIE     /*!< ADC interruption ADC group injec
 633:Drivers/STM32G4xx_HAL_Driver/Inc/stm32g4xx_ll_adc.h **** #define LL_ADC_IT_JEOS                     ADC_IER_JEOSIE     /*!< ADC interruption ADC group injec
 634:Drivers/STM32G4xx_HAL_Driver/Inc/stm32g4xx_ll_adc.h **** #define LL_ADC_IT_JQOVF                    ADC_IER_JQOVFIE    /*!< ADC interruption ADC group injec
 635:Drivers/STM32G4xx_HAL_Driver/Inc/stm32g4xx_ll_adc.h **** #define LL_ADC_IT_AWD1                     ADC_IER_AWD1IE     /*!< ADC interruption ADC analog watc
 636:Drivers/STM32G4xx_HAL_Driver/Inc/stm32g4xx_ll_adc.h **** #define LL_ADC_IT_AWD2                     ADC_IER_AWD2IE     /*!< ADC interruption ADC analog watc
 637:Drivers/STM32G4xx_HAL_Driver/Inc/stm32g4xx_ll_adc.h **** #define LL_ADC_IT_AWD3                     ADC_IER_AWD3IE     /*!< ADC interruption ADC analog watc
 638:Drivers/STM32G4xx_HAL_Driver/Inc/stm32g4xx_ll_adc.h **** /**
 639:Drivers/STM32G4xx_HAL_Driver/Inc/stm32g4xx_ll_adc.h ****   * @}
 640:Drivers/STM32G4xx_HAL_Driver/Inc/stm32g4xx_ll_adc.h ****   */
 641:Drivers/STM32G4xx_HAL_Driver/Inc/stm32g4xx_ll_adc.h **** 
 642:Drivers/STM32G4xx_HAL_Driver/Inc/stm32g4xx_ll_adc.h **** /** @defgroup ADC_LL_EC_REGISTERS  ADC registers compliant with specific purpose
 643:Drivers/STM32G4xx_HAL_Driver/Inc/stm32g4xx_ll_adc.h ****   * @{
 644:Drivers/STM32G4xx_HAL_Driver/Inc/stm32g4xx_ll_adc.h ****   */
 645:Drivers/STM32G4xx_HAL_Driver/Inc/stm32g4xx_ll_adc.h **** /* List of ADC registers intended to be used (most commonly) with             */
 646:Drivers/STM32G4xx_HAL_Driver/Inc/stm32g4xx_ll_adc.h **** /* DMA transfer.                                                              */
ARM GAS  /tmp/ccnaDHIW.s 			page 17


 647:Drivers/STM32G4xx_HAL_Driver/Inc/stm32g4xx_ll_adc.h **** /* Refer to function @ref LL_ADC_DMA_GetRegAddr().                            */
 648:Drivers/STM32G4xx_HAL_Driver/Inc/stm32g4xx_ll_adc.h **** #define LL_ADC_DMA_REG_REGULAR_DATA          (0x00000000UL) /* ADC group regular conversion data re
 649:Drivers/STM32G4xx_HAL_Driver/Inc/stm32g4xx_ll_adc.h **** #if defined(ADC_MULTIMODE_SUPPORT)
 650:Drivers/STM32G4xx_HAL_Driver/Inc/stm32g4xx_ll_adc.h **** #define LL_ADC_DMA_REG_REGULAR_DATA_MULTI    (0x00000001UL) /* ADC group regular conversion data re
 651:Drivers/STM32G4xx_HAL_Driver/Inc/stm32g4xx_ll_adc.h **** #endif
 652:Drivers/STM32G4xx_HAL_Driver/Inc/stm32g4xx_ll_adc.h **** /**
 653:Drivers/STM32G4xx_HAL_Driver/Inc/stm32g4xx_ll_adc.h ****   * @}
 654:Drivers/STM32G4xx_HAL_Driver/Inc/stm32g4xx_ll_adc.h ****   */
 655:Drivers/STM32G4xx_HAL_Driver/Inc/stm32g4xx_ll_adc.h **** 
 656:Drivers/STM32G4xx_HAL_Driver/Inc/stm32g4xx_ll_adc.h **** /** @defgroup ADC_LL_EC_COMMON_CLOCK_SOURCE  ADC common - Clock source
 657:Drivers/STM32G4xx_HAL_Driver/Inc/stm32g4xx_ll_adc.h ****   * @{
 658:Drivers/STM32G4xx_HAL_Driver/Inc/stm32g4xx_ll_adc.h ****   */
 659:Drivers/STM32G4xx_HAL_Driver/Inc/stm32g4xx_ll_adc.h **** #define LL_ADC_CLOCK_SYNC_PCLK_DIV1        (ADC_CCR_CKMODE_0)                                    /*
 660:Drivers/STM32G4xx_HAL_Driver/Inc/stm32g4xx_ll_adc.h **** #define LL_ADC_CLOCK_SYNC_PCLK_DIV2        (ADC_CCR_CKMODE_1                   )                 /*
 661:Drivers/STM32G4xx_HAL_Driver/Inc/stm32g4xx_ll_adc.h **** #define LL_ADC_CLOCK_SYNC_PCLK_DIV4        (ADC_CCR_CKMODE_1 | ADC_CCR_CKMODE_0)                 /*
 662:Drivers/STM32G4xx_HAL_Driver/Inc/stm32g4xx_ll_adc.h **** #define LL_ADC_CLOCK_ASYNC_DIV1            (0x00000000UL)                                        /*
 663:Drivers/STM32G4xx_HAL_Driver/Inc/stm32g4xx_ll_adc.h **** #define LL_ADC_CLOCK_ASYNC_DIV2            (ADC_CCR_PRESC_0)                                     /*
 664:Drivers/STM32G4xx_HAL_Driver/Inc/stm32g4xx_ll_adc.h **** #define LL_ADC_CLOCK_ASYNC_DIV4            (ADC_CCR_PRESC_1                  )                   /*
 665:Drivers/STM32G4xx_HAL_Driver/Inc/stm32g4xx_ll_adc.h **** #define LL_ADC_CLOCK_ASYNC_DIV6            (ADC_CCR_PRESC_1 | ADC_CCR_PRESC_0)                   /*
 666:Drivers/STM32G4xx_HAL_Driver/Inc/stm32g4xx_ll_adc.h **** #define LL_ADC_CLOCK_ASYNC_DIV8            (ADC_CCR_PRESC_2                                    ) /*
 667:Drivers/STM32G4xx_HAL_Driver/Inc/stm32g4xx_ll_adc.h **** #define LL_ADC_CLOCK_ASYNC_DIV10           (ADC_CCR_PRESC_2                   | ADC_CCR_PRESC_0) /*
 668:Drivers/STM32G4xx_HAL_Driver/Inc/stm32g4xx_ll_adc.h **** #define LL_ADC_CLOCK_ASYNC_DIV12           (ADC_CCR_PRESC_2 | ADC_CCR_PRESC_1                  ) /*
 669:Drivers/STM32G4xx_HAL_Driver/Inc/stm32g4xx_ll_adc.h **** #define LL_ADC_CLOCK_ASYNC_DIV16           (ADC_CCR_PRESC_2 | ADC_CCR_PRESC_1 | ADC_CCR_PRESC_0) /*
 670:Drivers/STM32G4xx_HAL_Driver/Inc/stm32g4xx_ll_adc.h **** #define LL_ADC_CLOCK_ASYNC_DIV32           (ADC_CCR_PRESC_3)                                     /*
 671:Drivers/STM32G4xx_HAL_Driver/Inc/stm32g4xx_ll_adc.h **** #define LL_ADC_CLOCK_ASYNC_DIV64           (ADC_CCR_PRESC_3 | ADC_CCR_PRESC_0)                   /*
 672:Drivers/STM32G4xx_HAL_Driver/Inc/stm32g4xx_ll_adc.h **** #define LL_ADC_CLOCK_ASYNC_DIV128          (ADC_CCR_PRESC_3 | ADC_CCR_PRESC_1)                   /*
 673:Drivers/STM32G4xx_HAL_Driver/Inc/stm32g4xx_ll_adc.h **** #define LL_ADC_CLOCK_ASYNC_DIV256          (ADC_CCR_PRESC_3 | ADC_CCR_PRESC_1 | ADC_CCR_PRESC_0) /*
 674:Drivers/STM32G4xx_HAL_Driver/Inc/stm32g4xx_ll_adc.h **** /**
 675:Drivers/STM32G4xx_HAL_Driver/Inc/stm32g4xx_ll_adc.h ****   * @}
 676:Drivers/STM32G4xx_HAL_Driver/Inc/stm32g4xx_ll_adc.h ****   */
 677:Drivers/STM32G4xx_HAL_Driver/Inc/stm32g4xx_ll_adc.h **** 
 678:Drivers/STM32G4xx_HAL_Driver/Inc/stm32g4xx_ll_adc.h **** /** @defgroup ADC_LL_EC_COMMON_PATH_INTERNAL  ADC common - Measurement path to internal channels
 679:Drivers/STM32G4xx_HAL_Driver/Inc/stm32g4xx_ll_adc.h ****   * @{
 680:Drivers/STM32G4xx_HAL_Driver/Inc/stm32g4xx_ll_adc.h ****   */
 681:Drivers/STM32G4xx_HAL_Driver/Inc/stm32g4xx_ll_adc.h **** /* Note: Other measurement paths to internal channels may be available        */
 682:Drivers/STM32G4xx_HAL_Driver/Inc/stm32g4xx_ll_adc.h **** /*       (connections to other peripherals).                                  */
 683:Drivers/STM32G4xx_HAL_Driver/Inc/stm32g4xx_ll_adc.h **** /*       If they are not listed below, they do not require any specific       */
 684:Drivers/STM32G4xx_HAL_Driver/Inc/stm32g4xx_ll_adc.h **** /*       path enable. In this case, Access to measurement path is done        */
 685:Drivers/STM32G4xx_HAL_Driver/Inc/stm32g4xx_ll_adc.h **** /*       only by selecting the corresponding ADC internal channel.            */
 686:Drivers/STM32G4xx_HAL_Driver/Inc/stm32g4xx_ll_adc.h **** #define LL_ADC_PATH_INTERNAL_NONE          (0x00000000UL)         /*!< ADC measurement paths all di
 687:Drivers/STM32G4xx_HAL_Driver/Inc/stm32g4xx_ll_adc.h **** #define LL_ADC_PATH_INTERNAL_VREFINT       (ADC_CCR_VREFEN)       /*!< ADC measurement path to inte
 688:Drivers/STM32G4xx_HAL_Driver/Inc/stm32g4xx_ll_adc.h **** #define LL_ADC_PATH_INTERNAL_TEMPSENSOR    (ADC_CCR_VSENSESEL)    /*!< ADC measurement path to inte
 689:Drivers/STM32G4xx_HAL_Driver/Inc/stm32g4xx_ll_adc.h **** #define LL_ADC_PATH_INTERNAL_VBAT          (ADC_CCR_VBATSEL)      /*!< ADC measurement path to inte
 690:Drivers/STM32G4xx_HAL_Driver/Inc/stm32g4xx_ll_adc.h **** /**
 691:Drivers/STM32G4xx_HAL_Driver/Inc/stm32g4xx_ll_adc.h ****   * @}
 692:Drivers/STM32G4xx_HAL_Driver/Inc/stm32g4xx_ll_adc.h ****   */
 693:Drivers/STM32G4xx_HAL_Driver/Inc/stm32g4xx_ll_adc.h **** 
 694:Drivers/STM32G4xx_HAL_Driver/Inc/stm32g4xx_ll_adc.h **** /** @defgroup ADC_LL_EC_RESOLUTION  ADC instance - Resolution
 695:Drivers/STM32G4xx_HAL_Driver/Inc/stm32g4xx_ll_adc.h ****   * @{
 696:Drivers/STM32G4xx_HAL_Driver/Inc/stm32g4xx_ll_adc.h ****   */
 697:Drivers/STM32G4xx_HAL_Driver/Inc/stm32g4xx_ll_adc.h **** #define LL_ADC_RESOLUTION_12B              (0x00000000UL)                      /*!< ADC resolution 
 698:Drivers/STM32G4xx_HAL_Driver/Inc/stm32g4xx_ll_adc.h **** #define LL_ADC_RESOLUTION_10B              (                 ADC_CFGR_RES_0)   /*!< ADC resolution 
 699:Drivers/STM32G4xx_HAL_Driver/Inc/stm32g4xx_ll_adc.h **** #define LL_ADC_RESOLUTION_8B               (ADC_CFGR_RES_1                 )   /*!< ADC resolution 
 700:Drivers/STM32G4xx_HAL_Driver/Inc/stm32g4xx_ll_adc.h **** #define LL_ADC_RESOLUTION_6B               (ADC_CFGR_RES_1 | ADC_CFGR_RES_0)   /*!< ADC resolution 
 701:Drivers/STM32G4xx_HAL_Driver/Inc/stm32g4xx_ll_adc.h **** /**
 702:Drivers/STM32G4xx_HAL_Driver/Inc/stm32g4xx_ll_adc.h ****   * @}
 703:Drivers/STM32G4xx_HAL_Driver/Inc/stm32g4xx_ll_adc.h ****   */
ARM GAS  /tmp/ccnaDHIW.s 			page 18


 704:Drivers/STM32G4xx_HAL_Driver/Inc/stm32g4xx_ll_adc.h **** 
 705:Drivers/STM32G4xx_HAL_Driver/Inc/stm32g4xx_ll_adc.h **** /** @defgroup ADC_LL_EC_DATA_ALIGN  ADC instance - Data alignment
 706:Drivers/STM32G4xx_HAL_Driver/Inc/stm32g4xx_ll_adc.h ****   * @{
 707:Drivers/STM32G4xx_HAL_Driver/Inc/stm32g4xx_ll_adc.h ****   */
 708:Drivers/STM32G4xx_HAL_Driver/Inc/stm32g4xx_ll_adc.h **** #define LL_ADC_DATA_ALIGN_RIGHT            (0x00000000UL)         /*!< ADC conversion data alignmen
 709:Drivers/STM32G4xx_HAL_Driver/Inc/stm32g4xx_ll_adc.h **** #define LL_ADC_DATA_ALIGN_LEFT             (ADC_CFGR_ALIGN)       /*!< ADC conversion data alignmen
 710:Drivers/STM32G4xx_HAL_Driver/Inc/stm32g4xx_ll_adc.h **** /**
 711:Drivers/STM32G4xx_HAL_Driver/Inc/stm32g4xx_ll_adc.h ****   * @}
 712:Drivers/STM32G4xx_HAL_Driver/Inc/stm32g4xx_ll_adc.h ****   */
 713:Drivers/STM32G4xx_HAL_Driver/Inc/stm32g4xx_ll_adc.h **** 
 714:Drivers/STM32G4xx_HAL_Driver/Inc/stm32g4xx_ll_adc.h **** /** @defgroup ADC_LL_EC_LP_MODE  ADC instance - Low power mode
 715:Drivers/STM32G4xx_HAL_Driver/Inc/stm32g4xx_ll_adc.h ****   * @{
 716:Drivers/STM32G4xx_HAL_Driver/Inc/stm32g4xx_ll_adc.h ****   */
 717:Drivers/STM32G4xx_HAL_Driver/Inc/stm32g4xx_ll_adc.h **** #define LL_ADC_LP_MODE_NONE                (0x00000000UL)                      /*!< No ADC low powe
 718:Drivers/STM32G4xx_HAL_Driver/Inc/stm32g4xx_ll_adc.h **** #define LL_ADC_LP_AUTOWAIT                 (ADC_CFGR_AUTDLY)                   /*!< ADC low power m
 719:Drivers/STM32G4xx_HAL_Driver/Inc/stm32g4xx_ll_adc.h **** /**
 720:Drivers/STM32G4xx_HAL_Driver/Inc/stm32g4xx_ll_adc.h ****   * @}
 721:Drivers/STM32G4xx_HAL_Driver/Inc/stm32g4xx_ll_adc.h ****   */
 722:Drivers/STM32G4xx_HAL_Driver/Inc/stm32g4xx_ll_adc.h **** 
 723:Drivers/STM32G4xx_HAL_Driver/Inc/stm32g4xx_ll_adc.h **** /** @defgroup ADC_LL_EC_OFFSET_NB  ADC instance - Offset number
 724:Drivers/STM32G4xx_HAL_Driver/Inc/stm32g4xx_ll_adc.h ****   * @{
 725:Drivers/STM32G4xx_HAL_Driver/Inc/stm32g4xx_ll_adc.h ****   */
 726:Drivers/STM32G4xx_HAL_Driver/Inc/stm32g4xx_ll_adc.h **** #define LL_ADC_OFFSET_1                    ADC_OFR1_REGOFFSET /*!< ADC offset number 1: ADC channel
 727:Drivers/STM32G4xx_HAL_Driver/Inc/stm32g4xx_ll_adc.h **** #define LL_ADC_OFFSET_2                    ADC_OFR2_REGOFFSET /*!< ADC offset number 2: ADC channel
 728:Drivers/STM32G4xx_HAL_Driver/Inc/stm32g4xx_ll_adc.h **** #define LL_ADC_OFFSET_3                    ADC_OFR3_REGOFFSET /*!< ADC offset number 3: ADC channel
 729:Drivers/STM32G4xx_HAL_Driver/Inc/stm32g4xx_ll_adc.h **** #define LL_ADC_OFFSET_4                    ADC_OFR4_REGOFFSET /*!< ADC offset number 4: ADC channel
 730:Drivers/STM32G4xx_HAL_Driver/Inc/stm32g4xx_ll_adc.h **** /**
 731:Drivers/STM32G4xx_HAL_Driver/Inc/stm32g4xx_ll_adc.h ****   * @}
 732:Drivers/STM32G4xx_HAL_Driver/Inc/stm32g4xx_ll_adc.h ****   */
 733:Drivers/STM32G4xx_HAL_Driver/Inc/stm32g4xx_ll_adc.h **** 
 734:Drivers/STM32G4xx_HAL_Driver/Inc/stm32g4xx_ll_adc.h **** /** @defgroup ADC_LL_EC_OFFSET_STATE ADC instance - Offset state
 735:Drivers/STM32G4xx_HAL_Driver/Inc/stm32g4xx_ll_adc.h ****   * @{
 736:Drivers/STM32G4xx_HAL_Driver/Inc/stm32g4xx_ll_adc.h ****   */
 737:Drivers/STM32G4xx_HAL_Driver/Inc/stm32g4xx_ll_adc.h **** #define LL_ADC_OFFSET_DISABLE              (0x00000000UL)         /*!< ADC offset disabled (among A
 738:Drivers/STM32G4xx_HAL_Driver/Inc/stm32g4xx_ll_adc.h **** #define LL_ADC_OFFSET_ENABLE               (ADC_OFR1_OFFSET1_EN)  /*!< ADC offset enabled (among AD
 739:Drivers/STM32G4xx_HAL_Driver/Inc/stm32g4xx_ll_adc.h **** /**
 740:Drivers/STM32G4xx_HAL_Driver/Inc/stm32g4xx_ll_adc.h ****   * @}
 741:Drivers/STM32G4xx_HAL_Driver/Inc/stm32g4xx_ll_adc.h ****   */
 742:Drivers/STM32G4xx_HAL_Driver/Inc/stm32g4xx_ll_adc.h **** 
 743:Drivers/STM32G4xx_HAL_Driver/Inc/stm32g4xx_ll_adc.h **** /** @defgroup ADC_LL_EC_OFFSET_SIGN ADC instance - Offset sign
 744:Drivers/STM32G4xx_HAL_Driver/Inc/stm32g4xx_ll_adc.h ****   * @{
 745:Drivers/STM32G4xx_HAL_Driver/Inc/stm32g4xx_ll_adc.h ****   */
 746:Drivers/STM32G4xx_HAL_Driver/Inc/stm32g4xx_ll_adc.h **** #define LL_ADC_OFFSET_SIGN_NEGATIVE        (0x00000000UL)       /*!< ADC offset is negative (among 
 747:Drivers/STM32G4xx_HAL_Driver/Inc/stm32g4xx_ll_adc.h **** #define LL_ADC_OFFSET_SIGN_POSITIVE        (ADC_OFR1_OFFSETPOS) /*!< ADC offset is positive (among 
 748:Drivers/STM32G4xx_HAL_Driver/Inc/stm32g4xx_ll_adc.h **** /**
 749:Drivers/STM32G4xx_HAL_Driver/Inc/stm32g4xx_ll_adc.h ****   * @}
 750:Drivers/STM32G4xx_HAL_Driver/Inc/stm32g4xx_ll_adc.h ****   */
 751:Drivers/STM32G4xx_HAL_Driver/Inc/stm32g4xx_ll_adc.h **** 
 752:Drivers/STM32G4xx_HAL_Driver/Inc/stm32g4xx_ll_adc.h **** /** @defgroup ADC_LL_EC_OFFSET_SATURATION ADC instance - Offset saturation mode
 753:Drivers/STM32G4xx_HAL_Driver/Inc/stm32g4xx_ll_adc.h ****   * @{
 754:Drivers/STM32G4xx_HAL_Driver/Inc/stm32g4xx_ll_adc.h ****   */
 755:Drivers/STM32G4xx_HAL_Driver/Inc/stm32g4xx_ll_adc.h **** #define LL_ADC_OFFSET_SATURATION_DISABLE   (0x00000000UL)          /*!< ADC offset saturation is di
 756:Drivers/STM32G4xx_HAL_Driver/Inc/stm32g4xx_ll_adc.h **** #define LL_ADC_OFFSET_SATURATION_ENABLE    (ADC_OFR1_SATEN)        /*!< ADC offset saturation is en
 757:Drivers/STM32G4xx_HAL_Driver/Inc/stm32g4xx_ll_adc.h **** /**
 758:Drivers/STM32G4xx_HAL_Driver/Inc/stm32g4xx_ll_adc.h ****   * @}
 759:Drivers/STM32G4xx_HAL_Driver/Inc/stm32g4xx_ll_adc.h ****   */
 760:Drivers/STM32G4xx_HAL_Driver/Inc/stm32g4xx_ll_adc.h **** /** @defgroup ADC_LL_EC_GROUPS  ADC instance - Groups
ARM GAS  /tmp/ccnaDHIW.s 			page 19


 761:Drivers/STM32G4xx_HAL_Driver/Inc/stm32g4xx_ll_adc.h ****   * @{
 762:Drivers/STM32G4xx_HAL_Driver/Inc/stm32g4xx_ll_adc.h ****   */
 763:Drivers/STM32G4xx_HAL_Driver/Inc/stm32g4xx_ll_adc.h **** #define LL_ADC_GROUP_REGULAR               (0x00000001UL) /*!< ADC group regular (available on all 
 764:Drivers/STM32G4xx_HAL_Driver/Inc/stm32g4xx_ll_adc.h **** #define LL_ADC_GROUP_INJECTED              (0x00000002UL) /*!< ADC group injected (not available on
 765:Drivers/STM32G4xx_HAL_Driver/Inc/stm32g4xx_ll_adc.h **** #define LL_ADC_GROUP_REGULAR_INJECTED      (0x00000003UL) /*!< ADC both groups regular and injected
 766:Drivers/STM32G4xx_HAL_Driver/Inc/stm32g4xx_ll_adc.h **** /**
 767:Drivers/STM32G4xx_HAL_Driver/Inc/stm32g4xx_ll_adc.h ****   * @}
 768:Drivers/STM32G4xx_HAL_Driver/Inc/stm32g4xx_ll_adc.h ****   */
 769:Drivers/STM32G4xx_HAL_Driver/Inc/stm32g4xx_ll_adc.h **** 
 770:Drivers/STM32G4xx_HAL_Driver/Inc/stm32g4xx_ll_adc.h **** /** @defgroup ADC_LL_EC_CHANNEL  ADC instance - Channel number
 771:Drivers/STM32G4xx_HAL_Driver/Inc/stm32g4xx_ll_adc.h ****   * @{
 772:Drivers/STM32G4xx_HAL_Driver/Inc/stm32g4xx_ll_adc.h ****   */
 773:Drivers/STM32G4xx_HAL_Driver/Inc/stm32g4xx_ll_adc.h **** #define LL_ADC_CHANNEL_0                   (ADC_CHANNEL_0_NUMBER  | ADC_CHANNEL_0_SMP  | ADC_CHANNE
 774:Drivers/STM32G4xx_HAL_Driver/Inc/stm32g4xx_ll_adc.h **** #define LL_ADC_CHANNEL_1                   (ADC_CHANNEL_1_NUMBER  | ADC_CHANNEL_1_SMP  | ADC_CHANNE
 775:Drivers/STM32G4xx_HAL_Driver/Inc/stm32g4xx_ll_adc.h **** #define LL_ADC_CHANNEL_2                   (ADC_CHANNEL_2_NUMBER  | ADC_CHANNEL_2_SMP  | ADC_CHANNE
 776:Drivers/STM32G4xx_HAL_Driver/Inc/stm32g4xx_ll_adc.h **** #define LL_ADC_CHANNEL_3                   (ADC_CHANNEL_3_NUMBER  | ADC_CHANNEL_3_SMP  | ADC_CHANNE
 777:Drivers/STM32G4xx_HAL_Driver/Inc/stm32g4xx_ll_adc.h **** #define LL_ADC_CHANNEL_4                   (ADC_CHANNEL_4_NUMBER  | ADC_CHANNEL_4_SMP  | ADC_CHANNE
 778:Drivers/STM32G4xx_HAL_Driver/Inc/stm32g4xx_ll_adc.h **** #define LL_ADC_CHANNEL_5                   (ADC_CHANNEL_5_NUMBER  | ADC_CHANNEL_5_SMP  | ADC_CHANNE
 779:Drivers/STM32G4xx_HAL_Driver/Inc/stm32g4xx_ll_adc.h **** #define LL_ADC_CHANNEL_6                   (ADC_CHANNEL_6_NUMBER  | ADC_CHANNEL_6_SMP  | ADC_CHANNE
 780:Drivers/STM32G4xx_HAL_Driver/Inc/stm32g4xx_ll_adc.h **** #define LL_ADC_CHANNEL_7                   (ADC_CHANNEL_7_NUMBER  | ADC_CHANNEL_7_SMP  | ADC_CHANNE
 781:Drivers/STM32G4xx_HAL_Driver/Inc/stm32g4xx_ll_adc.h **** #define LL_ADC_CHANNEL_8                   (ADC_CHANNEL_8_NUMBER  | ADC_CHANNEL_8_SMP  | ADC_CHANNE
 782:Drivers/STM32G4xx_HAL_Driver/Inc/stm32g4xx_ll_adc.h **** #define LL_ADC_CHANNEL_9                   (ADC_CHANNEL_9_NUMBER  | ADC_CHANNEL_9_SMP  | ADC_CHANNE
 783:Drivers/STM32G4xx_HAL_Driver/Inc/stm32g4xx_ll_adc.h **** #define LL_ADC_CHANNEL_10                  (ADC_CHANNEL_10_NUMBER | ADC_CHANNEL_10_SMP | ADC_CHANNE
 784:Drivers/STM32G4xx_HAL_Driver/Inc/stm32g4xx_ll_adc.h **** #define LL_ADC_CHANNEL_11                  (ADC_CHANNEL_11_NUMBER | ADC_CHANNEL_11_SMP | ADC_CHANNE
 785:Drivers/STM32G4xx_HAL_Driver/Inc/stm32g4xx_ll_adc.h **** #define LL_ADC_CHANNEL_12                  (ADC_CHANNEL_12_NUMBER | ADC_CHANNEL_12_SMP | ADC_CHANNE
 786:Drivers/STM32G4xx_HAL_Driver/Inc/stm32g4xx_ll_adc.h **** #define LL_ADC_CHANNEL_13                  (ADC_CHANNEL_13_NUMBER | ADC_CHANNEL_13_SMP | ADC_CHANNE
 787:Drivers/STM32G4xx_HAL_Driver/Inc/stm32g4xx_ll_adc.h **** #define LL_ADC_CHANNEL_14                  (ADC_CHANNEL_14_NUMBER | ADC_CHANNEL_14_SMP | ADC_CHANNE
 788:Drivers/STM32G4xx_HAL_Driver/Inc/stm32g4xx_ll_adc.h **** #define LL_ADC_CHANNEL_15                  (ADC_CHANNEL_15_NUMBER | ADC_CHANNEL_15_SMP | ADC_CHANNE
 789:Drivers/STM32G4xx_HAL_Driver/Inc/stm32g4xx_ll_adc.h **** #define LL_ADC_CHANNEL_16                  (ADC_CHANNEL_16_NUMBER | ADC_CHANNEL_16_SMP | ADC_CHANNE
 790:Drivers/STM32G4xx_HAL_Driver/Inc/stm32g4xx_ll_adc.h **** #define LL_ADC_CHANNEL_17                  (ADC_CHANNEL_17_NUMBER | ADC_CHANNEL_17_SMP | ADC_CHANNE
 791:Drivers/STM32G4xx_HAL_Driver/Inc/stm32g4xx_ll_adc.h **** #define LL_ADC_CHANNEL_18                  (ADC_CHANNEL_18_NUMBER | ADC_CHANNEL_18_SMP | ADC_CHANNE
 792:Drivers/STM32G4xx_HAL_Driver/Inc/stm32g4xx_ll_adc.h **** #define LL_ADC_CHANNEL_VREFINT             (LL_ADC_CHANNEL_18 | ADC_CHANNEL_ID_INTERNAL_CH) /*!< AD
 793:Drivers/STM32G4xx_HAL_Driver/Inc/stm32g4xx_ll_adc.h **** #define LL_ADC_CHANNEL_TEMPSENSOR_ADC1     (LL_ADC_CHANNEL_16 | ADC_CHANNEL_ID_INTERNAL_CH) /*!< AD
 794:Drivers/STM32G4xx_HAL_Driver/Inc/stm32g4xx_ll_adc.h **** #define LL_ADC_CHANNEL_TEMPSENSOR_ADC5     (LL_ADC_CHANNEL_4  | ADC_CHANNEL_ID_INTERNAL_CH) /*!< AD
 795:Drivers/STM32G4xx_HAL_Driver/Inc/stm32g4xx_ll_adc.h **** #define LL_ADC_CHANNEL_VBAT                (LL_ADC_CHANNEL_17 | ADC_CHANNEL_ID_INTERNAL_CH) /*!< AD
 796:Drivers/STM32G4xx_HAL_Driver/Inc/stm32g4xx_ll_adc.h **** #define LL_ADC_CHANNEL_VOPAMP1             (LL_ADC_CHANNEL_13 | ADC_CHANNEL_ID_INTERNAL_CH) /*!< AD
 797:Drivers/STM32G4xx_HAL_Driver/Inc/stm32g4xx_ll_adc.h **** #define LL_ADC_CHANNEL_VOPAMP2             (LL_ADC_CHANNEL_16 | ADC_CHANNEL_ID_INTERNAL_CH | ADC_CH
 798:Drivers/STM32G4xx_HAL_Driver/Inc/stm32g4xx_ll_adc.h **** #define LL_ADC_CHANNEL_VOPAMP3_ADC2        (LL_ADC_CHANNEL_18 | ADC_CHANNEL_ID_INTERNAL_CH | ADC_CH
 799:Drivers/STM32G4xx_HAL_Driver/Inc/stm32g4xx_ll_adc.h **** #define LL_ADC_CHANNEL_VOPAMP3_ADC3        (LL_ADC_CHANNEL_13 | ADC_CHANNEL_ID_INTERNAL_CH | ADC_CH
 800:Drivers/STM32G4xx_HAL_Driver/Inc/stm32g4xx_ll_adc.h **** #define LL_ADC_CHANNEL_VOPAMP4             (LL_ADC_CHANNEL_5  | ADC_CHANNEL_ID_INTERNAL_CH) /*!< AD
 801:Drivers/STM32G4xx_HAL_Driver/Inc/stm32g4xx_ll_adc.h **** #define LL_ADC_CHANNEL_VOPAMP5             (LL_ADC_CHANNEL_3  | ADC_CHANNEL_ID_INTERNAL_CH) /*!< AD
 802:Drivers/STM32G4xx_HAL_Driver/Inc/stm32g4xx_ll_adc.h **** #define LL_ADC_CHANNEL_VOPAMP6             (LL_ADC_CHANNEL_17 | ADC_CHANNEL_ID_INTERNAL_CH | ADC_CH
 803:Drivers/STM32G4xx_HAL_Driver/Inc/stm32g4xx_ll_adc.h **** /**
 804:Drivers/STM32G4xx_HAL_Driver/Inc/stm32g4xx_ll_adc.h ****   * @}
 805:Drivers/STM32G4xx_HAL_Driver/Inc/stm32g4xx_ll_adc.h ****   */
 806:Drivers/STM32G4xx_HAL_Driver/Inc/stm32g4xx_ll_adc.h **** 
 807:Drivers/STM32G4xx_HAL_Driver/Inc/stm32g4xx_ll_adc.h **** /** @defgroup ADC_LL_EC_REG_TRIGGER_SOURCE  ADC group regular - Trigger source
 808:Drivers/STM32G4xx_HAL_Driver/Inc/stm32g4xx_ll_adc.h ****   * @{
 809:Drivers/STM32G4xx_HAL_Driver/Inc/stm32g4xx_ll_adc.h ****   */
 810:Drivers/STM32G4xx_HAL_Driver/Inc/stm32g4xx_ll_adc.h **** #define LL_ADC_REG_TRIG_SOFTWARE           (0x00000000UL)                                          
 811:Drivers/STM32G4xx_HAL_Driver/Inc/stm32g4xx_ll_adc.h ****                                            ADC group regular conversion trigger internal: SW start.
 812:Drivers/STM32G4xx_HAL_Driver/Inc/stm32g4xx_ll_adc.h **** #define LL_ADC_REG_TRIG_EXT_TIM1_TRGO      (ADC_CFGR_EXTSEL_3 | ADC_CFGR_EXTSEL_0 | ADC_REG_TRIG_EX
 813:Drivers/STM32G4xx_HAL_Driver/Inc/stm32g4xx_ll_adc.h ****                                            ADC group regular conversion trigger from external perip
 814:Drivers/STM32G4xx_HAL_Driver/Inc/stm32g4xx_ll_adc.h **** #define LL_ADC_REG_TRIG_EXT_TIM1_TRGO2     (ADC_CFGR_EXTSEL_3 | ADC_CFGR_EXTSEL_1 | ADC_REG_TRIG_EX
 815:Drivers/STM32G4xx_HAL_Driver/Inc/stm32g4xx_ll_adc.h ****                                            ADC group regular conversion trigger from external perip
 816:Drivers/STM32G4xx_HAL_Driver/Inc/stm32g4xx_ll_adc.h **** #define LL_ADC_REG_TRIG_EXT_TIM1_CH1       (ADC_REG_TRIG_EXT_EDGE_DEFAULT)                         
 817:Drivers/STM32G4xx_HAL_Driver/Inc/stm32g4xx_ll_adc.h ****                                            ADC group regular conversion trigger from external perip
ARM GAS  /tmp/ccnaDHIW.s 			page 20


 818:Drivers/STM32G4xx_HAL_Driver/Inc/stm32g4xx_ll_adc.h ****                                            Note: On this STM32 series, this trigger is available on
 819:Drivers/STM32G4xx_HAL_Driver/Inc/stm32g4xx_ll_adc.h **** #define LL_ADC_REG_TRIG_EXT_TIM1_CH2       (ADC_CFGR_EXTSEL_0 | ADC_REG_TRIG_EXT_EDGE_DEFAULT)     
 820:Drivers/STM32G4xx_HAL_Driver/Inc/stm32g4xx_ll_adc.h ****                                            ADC group regular conversion trigger from external perip
 821:Drivers/STM32G4xx_HAL_Driver/Inc/stm32g4xx_ll_adc.h ****                                            Note: On this STM32 series, this trigger is available on
 822:Drivers/STM32G4xx_HAL_Driver/Inc/stm32g4xx_ll_adc.h **** #define LL_ADC_REG_TRIG_EXT_TIM1_CH3       (ADC_CFGR_EXTSEL_1 | ADC_REG_TRIG_EXT_EDGE_DEFAULT)     
 823:Drivers/STM32G4xx_HAL_Driver/Inc/stm32g4xx_ll_adc.h ****                                            ADC group regular conversion trigger from external perip
 824:Drivers/STM32G4xx_HAL_Driver/Inc/stm32g4xx_ll_adc.h **** #define LL_ADC_REG_TRIG_EXT_TIM2_TRGO      (ADC_CFGR_EXTSEL_3 | ADC_CFGR_EXTSEL_1 | ADC_CFGR_EXTSEL
 825:Drivers/STM32G4xx_HAL_Driver/Inc/stm32g4xx_ll_adc.h ****                                            ADC group regular conversion trigger from external perip
 826:Drivers/STM32G4xx_HAL_Driver/Inc/stm32g4xx_ll_adc.h **** #define LL_ADC_REG_TRIG_EXT_TIM2_CH1       (ADC_CFGR_EXTSEL_3 | ADC_CFGR_EXTSEL_2 | ADC_CFGR_EXTSEL
 827:Drivers/STM32G4xx_HAL_Driver/Inc/stm32g4xx_ll_adc.h ****                                            ADC group regular conversion trigger from external perip
 828:Drivers/STM32G4xx_HAL_Driver/Inc/stm32g4xx_ll_adc.h ****                                            Note: On this STM32 series, this trigger is available on
 829:Drivers/STM32G4xx_HAL_Driver/Inc/stm32g4xx_ll_adc.h **** #define LL_ADC_REG_TRIG_EXT_TIM2_CH2       (ADC_CFGR_EXTSEL_1 | ADC_CFGR_EXTSEL_0 | ADC_REG_TRIG_EX
 830:Drivers/STM32G4xx_HAL_Driver/Inc/stm32g4xx_ll_adc.h ****                                            ADC group regular conversion trigger from external perip
 831:Drivers/STM32G4xx_HAL_Driver/Inc/stm32g4xx_ll_adc.h ****                                            Note: On this STM32 series, this trigger is available on
 832:Drivers/STM32G4xx_HAL_Driver/Inc/stm32g4xx_ll_adc.h **** #define LL_ADC_REG_TRIG_EXT_TIM2_CH3       (ADC_CFGR_EXTSEL_0 | ADC_REG_TRIG_EXT_EDGE_DEFAULT)     
 833:Drivers/STM32G4xx_HAL_Driver/Inc/stm32g4xx_ll_adc.h ****                                            ADC group regular conversion trigger from external perip
 834:Drivers/STM32G4xx_HAL_Driver/Inc/stm32g4xx_ll_adc.h ****                                            Note: On this STM32 series, this trigger is available on
 835:Drivers/STM32G4xx_HAL_Driver/Inc/stm32g4xx_ll_adc.h **** #define LL_ADC_REG_TRIG_EXT_TIM3_TRGO      (ADC_CFGR_EXTSEL_2 | ADC_REG_TRIG_EXT_EDGE_DEFAULT)     
 836:Drivers/STM32G4xx_HAL_Driver/Inc/stm32g4xx_ll_adc.h ****                                            ADC group regular conversion trigger from external perip
 837:Drivers/STM32G4xx_HAL_Driver/Inc/stm32g4xx_ll_adc.h **** #define LL_ADC_REG_TRIG_EXT_TIM3_CH1       (ADC_REG_TRIG_EXT_EDGE_DEFAULT)                         
 838:Drivers/STM32G4xx_HAL_Driver/Inc/stm32g4xx_ll_adc.h ****                                            ADC group regular conversion trigger from external perip
 839:Drivers/STM32G4xx_HAL_Driver/Inc/stm32g4xx_ll_adc.h ****                                            Note: On this STM32 series, this trigger is available on
 840:Drivers/STM32G4xx_HAL_Driver/Inc/stm32g4xx_ll_adc.h **** #define LL_ADC_REG_TRIG_EXT_TIM3_CH4       (ADC_CFGR_EXTSEL_3 | ADC_CFGR_EXTSEL_2 | ADC_CFGR_EXTSEL
 841:Drivers/STM32G4xx_HAL_Driver/Inc/stm32g4xx_ll_adc.h ****                                            ADC group regular conversion trigger from external perip
 842:Drivers/STM32G4xx_HAL_Driver/Inc/stm32g4xx_ll_adc.h ****                                            Note: On this STM32 series, this trigger is available on
 843:Drivers/STM32G4xx_HAL_Driver/Inc/stm32g4xx_ll_adc.h **** #define LL_ADC_REG_TRIG_EXT_TIM4_TRGO      (ADC_CFGR_EXTSEL_3 | ADC_CFGR_EXTSEL_2 | ADC_REG_TRIG_EX
 844:Drivers/STM32G4xx_HAL_Driver/Inc/stm32g4xx_ll_adc.h ****                                            ADC group regular conversion trigger from external perip
 845:Drivers/STM32G4xx_HAL_Driver/Inc/stm32g4xx_ll_adc.h **** #define LL_ADC_REG_TRIG_EXT_TIM4_CH1       (ADC_CFGR_EXTSEL_2 | ADC_CFGR_EXTSEL_1 | ADC_REG_TRIG_EX
 846:Drivers/STM32G4xx_HAL_Driver/Inc/stm32g4xx_ll_adc.h ****                                            ADC group regular conversion trigger from external perip
 847:Drivers/STM32G4xx_HAL_Driver/Inc/stm32g4xx_ll_adc.h ****                                            Note: On this STM32 series, this trigger is available on
 848:Drivers/STM32G4xx_HAL_Driver/Inc/stm32g4xx_ll_adc.h **** #define LL_ADC_REG_TRIG_EXT_TIM4_CH4       (ADC_CFGR_EXTSEL_2 | ADC_CFGR_EXTSEL_0 | ADC_REG_TRIG_EX
 849:Drivers/STM32G4xx_HAL_Driver/Inc/stm32g4xx_ll_adc.h ****                                            ADC group regular conversion trigger from external perip
 850:Drivers/STM32G4xx_HAL_Driver/Inc/stm32g4xx_ll_adc.h ****                                            Note: On this STM32 series, this trigger is available on
 851:Drivers/STM32G4xx_HAL_Driver/Inc/stm32g4xx_ll_adc.h **** #define LL_ADC_REG_TRIG_EXT_TIM6_TRGO      (ADC_CFGR_EXTSEL_3 | ADC_CFGR_EXTSEL_2 | ADC_CFGR_EXTSEL
 852:Drivers/STM32G4xx_HAL_Driver/Inc/stm32g4xx_ll_adc.h ****                                            ADC group regular conversion trigger from external perip
 853:Drivers/STM32G4xx_HAL_Driver/Inc/stm32g4xx_ll_adc.h **** #define LL_ADC_REG_TRIG_EXT_TIM7_TRGO      (ADC_CFGR_EXTSEL_4 | ADC_CFGR_EXTSEL_3 | ADC_CFGR_EXTSEL
 854:Drivers/STM32G4xx_HAL_Driver/Inc/stm32g4xx_ll_adc.h ****                                            ADC group regular conversion trigger from external perip
 855:Drivers/STM32G4xx_HAL_Driver/Inc/stm32g4xx_ll_adc.h **** #define LL_ADC_REG_TRIG_EXT_TIM8_TRGO      (ADC_CFGR_EXTSEL_2 | ADC_CFGR_EXTSEL_1 | ADC_CFGR_EXTSEL
 856:Drivers/STM32G4xx_HAL_Driver/Inc/stm32g4xx_ll_adc.h ****                                            ADC group regular conversion trigger from external perip
 857:Drivers/STM32G4xx_HAL_Driver/Inc/stm32g4xx_ll_adc.h **** #define LL_ADC_REG_TRIG_EXT_TIM8_TRGO2     (ADC_CFGR_EXTSEL_3 | ADC_REG_TRIG_EXT_EDGE_DEFAULT)     
 858:Drivers/STM32G4xx_HAL_Driver/Inc/stm32g4xx_ll_adc.h ****                                            ADC group regular conversion trigger from external perip
 859:Drivers/STM32G4xx_HAL_Driver/Inc/stm32g4xx_ll_adc.h **** #define LL_ADC_REG_TRIG_EXT_TIM8_CH1       (ADC_CFGR_EXTSEL_1 | ADC_CFGR_EXTSEL_0 | ADC_REG_TRIG_EX
 860:Drivers/STM32G4xx_HAL_Driver/Inc/stm32g4xx_ll_adc.h ****                                            ADC group regular conversion trigger from external perip
 861:Drivers/STM32G4xx_HAL_Driver/Inc/stm32g4xx_ll_adc.h ****                                            Note: On this STM32 series, this trigger is available on
 862:Drivers/STM32G4xx_HAL_Driver/Inc/stm32g4xx_ll_adc.h **** #define LL_ADC_REG_TRIG_EXT_TIM15_TRGO     (ADC_CFGR_EXTSEL_3 | ADC_CFGR_EXTSEL_2 | ADC_CFGR_EXTSEL
 863:Drivers/STM32G4xx_HAL_Driver/Inc/stm32g4xx_ll_adc.h ****                                            ADC group regular conversion trigger from external perip
 864:Drivers/STM32G4xx_HAL_Driver/Inc/stm32g4xx_ll_adc.h **** #define LL_ADC_REG_TRIG_EXT_TIM20_TRGO     (ADC_CFGR_EXTSEL_4 | ADC_REG_TRIG_EXT_EDGE_DEFAULT)     
 865:Drivers/STM32G4xx_HAL_Driver/Inc/stm32g4xx_ll_adc.h ****                                            ADC group regular conversion trigger from external perip
 866:Drivers/STM32G4xx_HAL_Driver/Inc/stm32g4xx_ll_adc.h ****                                            Note: On this STM32 series, TIM20 is not available on al
 867:Drivers/STM32G4xx_HAL_Driver/Inc/stm32g4xx_ll_adc.h **** #define LL_ADC_REG_TRIG_EXT_TIM20_TRGO2    (ADC_CFGR_EXTSEL_4 | ADC_CFGR_EXTSEL_0 | ADC_REG_TRIG_EX
 868:Drivers/STM32G4xx_HAL_Driver/Inc/stm32g4xx_ll_adc.h ****                                            ADC group regular conversion trigger from external perip
 869:Drivers/STM32G4xx_HAL_Driver/Inc/stm32g4xx_ll_adc.h ****                                            Note: On this STM32 series, TIM20 is not available on al
 870:Drivers/STM32G4xx_HAL_Driver/Inc/stm32g4xx_ll_adc.h **** #define LL_ADC_REG_TRIG_EXT_TIM20_CH1      (ADC_CFGR_EXTSEL_4 | ADC_CFGR_EXTSEL_1 | ADC_REG_TRIG_EX
 871:Drivers/STM32G4xx_HAL_Driver/Inc/stm32g4xx_ll_adc.h ****                                            ADC group regular conversion trigger from external perip
 872:Drivers/STM32G4xx_HAL_Driver/Inc/stm32g4xx_ll_adc.h ****                                            Note: On this STM32 series, TIM20 is not available on al
 873:Drivers/STM32G4xx_HAL_Driver/Inc/stm32g4xx_ll_adc.h **** #define LL_ADC_REG_TRIG_EXT_TIM20_CH2      (ADC_CFGR_EXTSEL_4 | ADC_CFGR_EXTSEL_1 | ADC_CFGR_EXTSEL
 874:Drivers/STM32G4xx_HAL_Driver/Inc/stm32g4xx_ll_adc.h ****                                            ADC group regular conversion trigger from external perip
ARM GAS  /tmp/ccnaDHIW.s 			page 21


 875:Drivers/STM32G4xx_HAL_Driver/Inc/stm32g4xx_ll_adc.h ****                                            Note: On this STM32 series, this trigger is available on
 876:Drivers/STM32G4xx_HAL_Driver/Inc/stm32g4xx_ll_adc.h **** #define LL_ADC_REG_TRIG_EXT_TIM20_CH3      (ADC_CFGR_EXTSEL_4 | ADC_CFGR_EXTSEL_2 | ADC_REG_TRIG_EX
 877:Drivers/STM32G4xx_HAL_Driver/Inc/stm32g4xx_ll_adc.h ****                                            ADC group regular conversion trigger from external perip
 878:Drivers/STM32G4xx_HAL_Driver/Inc/stm32g4xx_ll_adc.h ****                                            Note: On this STM32 series, this trigger is available on
 879:Drivers/STM32G4xx_HAL_Driver/Inc/stm32g4xx_ll_adc.h **** #define LL_ADC_REG_TRIG_EXT_HRTIM_TRG1     (ADC_CFGR_EXTSEL_4 | ADC_CFGR_EXTSEL_2 | ADC_CFGR_EXTSEL
 880:Drivers/STM32G4xx_HAL_Driver/Inc/stm32g4xx_ll_adc.h ****                                            ADC group regular conversion trigger from external perip
 881:Drivers/STM32G4xx_HAL_Driver/Inc/stm32g4xx_ll_adc.h ****                                            Note: On this STM32 series, HRTIM is not available on al
 882:Drivers/STM32G4xx_HAL_Driver/Inc/stm32g4xx_ll_adc.h **** #define LL_ADC_REG_TRIG_EXT_HRTIM_TRG2     (ADC_CFGR_EXTSEL_4 | ADC_CFGR_EXTSEL_1 | ADC_CFGR_EXTSEL
 883:Drivers/STM32G4xx_HAL_Driver/Inc/stm32g4xx_ll_adc.h ****                                            ADC group regular conversion trigger from external perip
 884:Drivers/STM32G4xx_HAL_Driver/Inc/stm32g4xx_ll_adc.h ****                                            Note: On this STM32 series, this trigger is available on
 885:Drivers/STM32G4xx_HAL_Driver/Inc/stm32g4xx_ll_adc.h **** #define LL_ADC_REG_TRIG_EXT_HRTIM_TRG3     (ADC_CFGR_EXTSEL_4 | ADC_CFGR_EXTSEL_2 | ADC_CFGR_EXTSEL
 886:Drivers/STM32G4xx_HAL_Driver/Inc/stm32g4xx_ll_adc.h ****                                            ADC group regular conversion trigger from external perip
 887:Drivers/STM32G4xx_HAL_Driver/Inc/stm32g4xx_ll_adc.h ****                                            Note: On this STM32 series, HRTIM is not available on al
 888:Drivers/STM32G4xx_HAL_Driver/Inc/stm32g4xx_ll_adc.h **** #define LL_ADC_REG_TRIG_EXT_HRTIM_TRG4     (ADC_CFGR_EXTSEL_4 | ADC_CFGR_EXTSEL_2 | ADC_REG_TRIG_EX
 889:Drivers/STM32G4xx_HAL_Driver/Inc/stm32g4xx_ll_adc.h ****                                            ADC group regular conversion trigger from external perip
 890:Drivers/STM32G4xx_HAL_Driver/Inc/stm32g4xx_ll_adc.h ****                                            Note: On this STM32 series, this trigger is available on
 891:Drivers/STM32G4xx_HAL_Driver/Inc/stm32g4xx_ll_adc.h **** #define LL_ADC_REG_TRIG_EXT_HRTIM_TRG5     (ADC_CFGR_EXTSEL_4 | ADC_CFGR_EXTSEL_2 | ADC_CFGR_EXTSEL
 892:Drivers/STM32G4xx_HAL_Driver/Inc/stm32g4xx_ll_adc.h ****                                            ADC group regular conversion trigger from external perip
 893:Drivers/STM32G4xx_HAL_Driver/Inc/stm32g4xx_ll_adc.h ****                                            Note: On this STM32 series, HRTIM is not available on al
 894:Drivers/STM32G4xx_HAL_Driver/Inc/stm32g4xx_ll_adc.h **** #define LL_ADC_REG_TRIG_EXT_HRTIM_TRG6     (ADC_CFGR_EXTSEL_4 | ADC_CFGR_EXTSEL_3 | ADC_REG_TRIG_EX
 895:Drivers/STM32G4xx_HAL_Driver/Inc/stm32g4xx_ll_adc.h ****                                            ADC group regular conversion trigger from external perip
 896:Drivers/STM32G4xx_HAL_Driver/Inc/stm32g4xx_ll_adc.h ****                                            Note: On this STM32 series, HRTIM is not available on al
 897:Drivers/STM32G4xx_HAL_Driver/Inc/stm32g4xx_ll_adc.h **** #define LL_ADC_REG_TRIG_EXT_HRTIM_TRG7     (ADC_CFGR_EXTSEL_4 | ADC_CFGR_EXTSEL_3 | ADC_CFGR_EXTSEL
 898:Drivers/STM32G4xx_HAL_Driver/Inc/stm32g4xx_ll_adc.h ****                                            ADC group regular conversion trigger from external perip
 899:Drivers/STM32G4xx_HAL_Driver/Inc/stm32g4xx_ll_adc.h ****                                            Note: On this STM32 series, HRTIM is not available on al
 900:Drivers/STM32G4xx_HAL_Driver/Inc/stm32g4xx_ll_adc.h **** #define LL_ADC_REG_TRIG_EXT_HRTIM_TRG8     (ADC_CFGR_EXTSEL_4 | ADC_CFGR_EXTSEL_3 | ADC_CFGR_EXTSEL
 901:Drivers/STM32G4xx_HAL_Driver/Inc/stm32g4xx_ll_adc.h ****                                            ADC group regular conversion trigger from external perip
 902:Drivers/STM32G4xx_HAL_Driver/Inc/stm32g4xx_ll_adc.h ****                                            Note: On this STM32 series, HRTIM is not available on al
 903:Drivers/STM32G4xx_HAL_Driver/Inc/stm32g4xx_ll_adc.h **** #define LL_ADC_REG_TRIG_EXT_HRTIM_TRG9     (ADC_CFGR_EXTSEL_4 | ADC_CFGR_EXTSEL_3 | ADC_CFGR_EXTSEL
 904:Drivers/STM32G4xx_HAL_Driver/Inc/stm32g4xx_ll_adc.h ****                                            ADC group regular conversion trigger from external perip
 905:Drivers/STM32G4xx_HAL_Driver/Inc/stm32g4xx_ll_adc.h ****                                            Note: On this STM32 series, HRTIM is not available on al
 906:Drivers/STM32G4xx_HAL_Driver/Inc/stm32g4xx_ll_adc.h **** #define LL_ADC_REG_TRIG_EXT_HRTIM_TRG10    (ADC_CFGR_EXTSEL_4 | ADC_CFGR_EXTSEL_3 | ADC_CFGR_EXTSEL
 907:Drivers/STM32G4xx_HAL_Driver/Inc/stm32g4xx_ll_adc.h ****                                            ADC group regular conversion trigger from external perip
 908:Drivers/STM32G4xx_HAL_Driver/Inc/stm32g4xx_ll_adc.h ****                                            Note: On this STM32 series, HRTIM is not available on al
 909:Drivers/STM32G4xx_HAL_Driver/Inc/stm32g4xx_ll_adc.h **** #define LL_ADC_REG_TRIG_EXT_EXTI_LINE11    (ADC_CFGR_EXTSEL_2 | ADC_CFGR_EXTSEL_1 | ADC_REG_TRIG_EX
 910:Drivers/STM32G4xx_HAL_Driver/Inc/stm32g4xx_ll_adc.h ****                                            ADC group regular conversion trigger from external perip
 911:Drivers/STM32G4xx_HAL_Driver/Inc/stm32g4xx_ll_adc.h ****                                            Note: On this STM32 series, this trigger is available on
 912:Drivers/STM32G4xx_HAL_Driver/Inc/stm32g4xx_ll_adc.h **** #define LL_ADC_REG_TRIG_EXT_EXTI_LINE2     (ADC_CFGR_EXTSEL_2 | ADC_CFGR_EXTSEL_0 | ADC_REG_TRIG_EX
 913:Drivers/STM32G4xx_HAL_Driver/Inc/stm32g4xx_ll_adc.h ****                                            ADC group regular conversion trigger from external perip
 914:Drivers/STM32G4xx_HAL_Driver/Inc/stm32g4xx_ll_adc.h ****                                            Note: On this STM32 series, this trigger is available on
 915:Drivers/STM32G4xx_HAL_Driver/Inc/stm32g4xx_ll_adc.h **** #define LL_ADC_REG_TRIG_EXT_LPTIM_OUT      (ADC_CFGR_EXTSEL_4 | ADC_CFGR_EXTSEL_3 | ADC_CFGR_EXTSEL
 916:Drivers/STM32G4xx_HAL_Driver/Inc/stm32g4xx_ll_adc.h ****                                            ADC group regular conversion trigger from external perip
 917:Drivers/STM32G4xx_HAL_Driver/Inc/stm32g4xx_ll_adc.h **** /**
 918:Drivers/STM32G4xx_HAL_Driver/Inc/stm32g4xx_ll_adc.h ****   * @}
 919:Drivers/STM32G4xx_HAL_Driver/Inc/stm32g4xx_ll_adc.h ****   */
 920:Drivers/STM32G4xx_HAL_Driver/Inc/stm32g4xx_ll_adc.h **** 
 921:Drivers/STM32G4xx_HAL_Driver/Inc/stm32g4xx_ll_adc.h **** /** @defgroup ADC_LL_EC_REG_TRIGGER_EDGE  ADC group regular - Trigger edge
 922:Drivers/STM32G4xx_HAL_Driver/Inc/stm32g4xx_ll_adc.h ****   * @{
 923:Drivers/STM32G4xx_HAL_Driver/Inc/stm32g4xx_ll_adc.h ****   */
 924:Drivers/STM32G4xx_HAL_Driver/Inc/stm32g4xx_ll_adc.h **** #define LL_ADC_REG_TRIG_EXT_RISING         (                   ADC_CFGR_EXTEN_0)   /*!< ADC group r
 925:Drivers/STM32G4xx_HAL_Driver/Inc/stm32g4xx_ll_adc.h **** #define LL_ADC_REG_TRIG_EXT_FALLING        (ADC_CFGR_EXTEN_1                   )   /*!< ADC group r
 926:Drivers/STM32G4xx_HAL_Driver/Inc/stm32g4xx_ll_adc.h **** #define LL_ADC_REG_TRIG_EXT_RISINGFALLING  (ADC_CFGR_EXTEN_1 | ADC_CFGR_EXTEN_0)   /*!< ADC group r
 927:Drivers/STM32G4xx_HAL_Driver/Inc/stm32g4xx_ll_adc.h **** /**
 928:Drivers/STM32G4xx_HAL_Driver/Inc/stm32g4xx_ll_adc.h ****   * @}
 929:Drivers/STM32G4xx_HAL_Driver/Inc/stm32g4xx_ll_adc.h ****   */
 930:Drivers/STM32G4xx_HAL_Driver/Inc/stm32g4xx_ll_adc.h **** 
 931:Drivers/STM32G4xx_HAL_Driver/Inc/stm32g4xx_ll_adc.h **** /** @defgroup ADC_LL_EC_REG_SAMPLING_MODE  ADC group regular - Sampling mode
ARM GAS  /tmp/ccnaDHIW.s 			page 22


 932:Drivers/STM32G4xx_HAL_Driver/Inc/stm32g4xx_ll_adc.h ****   * @{
 933:Drivers/STM32G4xx_HAL_Driver/Inc/stm32g4xx_ll_adc.h ****   */
 934:Drivers/STM32G4xx_HAL_Driver/Inc/stm32g4xx_ll_adc.h **** #define LL_ADC_REG_SAMPLING_MODE_NORMAL               (0x00000000UL)       /*!< ADC conversions sam
 935:Drivers/STM32G4xx_HAL_Driver/Inc/stm32g4xx_ll_adc.h **** #define LL_ADC_REG_SAMPLING_MODE_BULB                 (ADC_CFGR2_BULB)     /*!< ADC conversions sam
 936:Drivers/STM32G4xx_HAL_Driver/Inc/stm32g4xx_ll_adc.h ****                                                                                 Note: First convers
 937:Drivers/STM32G4xx_HAL_Driver/Inc/stm32g4xx_ll_adc.h **** #define LL_ADC_REG_SAMPLING_MODE_TRIGGER_CONTROLED    (ADC_CFGR2_SMPTRIG)  /*!< ADC conversions sam
 938:Drivers/STM32G4xx_HAL_Driver/Inc/stm32g4xx_ll_adc.h ****                                                                                  Trigger rising edg
 939:Drivers/STM32G4xx_HAL_Driver/Inc/stm32g4xx_ll_adc.h ****                                                                                  Trigger falling ed
 940:Drivers/STM32G4xx_HAL_Driver/Inc/stm32g4xx_ll_adc.h **** /**
 941:Drivers/STM32G4xx_HAL_Driver/Inc/stm32g4xx_ll_adc.h ****   * @}
 942:Drivers/STM32G4xx_HAL_Driver/Inc/stm32g4xx_ll_adc.h ****   */
 943:Drivers/STM32G4xx_HAL_Driver/Inc/stm32g4xx_ll_adc.h **** 
 944:Drivers/STM32G4xx_HAL_Driver/Inc/stm32g4xx_ll_adc.h **** /** @defgroup ADC_LL_EC_REG_CONTINUOUS_MODE  ADC group regular - Continuous mode
 945:Drivers/STM32G4xx_HAL_Driver/Inc/stm32g4xx_ll_adc.h ****   * @{
 946:Drivers/STM32G4xx_HAL_Driver/Inc/stm32g4xx_ll_adc.h ****   */
 947:Drivers/STM32G4xx_HAL_Driver/Inc/stm32g4xx_ll_adc.h **** #define LL_ADC_REG_CONV_SINGLE             (0x00000000UL)          /*!< ADC conversions are perform
 948:Drivers/STM32G4xx_HAL_Driver/Inc/stm32g4xx_ll_adc.h **** #define LL_ADC_REG_CONV_CONTINUOUS         (ADC_CFGR_CONT)         /*!< ADC conversions are perform
 949:Drivers/STM32G4xx_HAL_Driver/Inc/stm32g4xx_ll_adc.h **** /**
 950:Drivers/STM32G4xx_HAL_Driver/Inc/stm32g4xx_ll_adc.h ****   * @}
 951:Drivers/STM32G4xx_HAL_Driver/Inc/stm32g4xx_ll_adc.h ****   */
 952:Drivers/STM32G4xx_HAL_Driver/Inc/stm32g4xx_ll_adc.h **** 
 953:Drivers/STM32G4xx_HAL_Driver/Inc/stm32g4xx_ll_adc.h **** /** @defgroup ADC_LL_EC_REG_DMA_TRANSFER  ADC group regular - DMA transfer of ADC conversion data
 954:Drivers/STM32G4xx_HAL_Driver/Inc/stm32g4xx_ll_adc.h ****   * @{
 955:Drivers/STM32G4xx_HAL_Driver/Inc/stm32g4xx_ll_adc.h ****   */
 956:Drivers/STM32G4xx_HAL_Driver/Inc/stm32g4xx_ll_adc.h **** #define LL_ADC_REG_DMA_TRANSFER_NONE       (0x00000000UL)                        /*!< ADC conversio
 957:Drivers/STM32G4xx_HAL_Driver/Inc/stm32g4xx_ll_adc.h **** #define LL_ADC_REG_DMA_TRANSFER_LIMITED    (                  ADC_CFGR_DMAEN)    /*!< ADC conversio
 958:Drivers/STM32G4xx_HAL_Driver/Inc/stm32g4xx_ll_adc.h **** #define LL_ADC_REG_DMA_TRANSFER_UNLIMITED  (ADC_CFGR_DMACFG | ADC_CFGR_DMAEN)    /*!< ADC conversio
 959:Drivers/STM32G4xx_HAL_Driver/Inc/stm32g4xx_ll_adc.h **** /**
 960:Drivers/STM32G4xx_HAL_Driver/Inc/stm32g4xx_ll_adc.h ****   * @}
 961:Drivers/STM32G4xx_HAL_Driver/Inc/stm32g4xx_ll_adc.h ****   */
 962:Drivers/STM32G4xx_HAL_Driver/Inc/stm32g4xx_ll_adc.h **** 
 963:Drivers/STM32G4xx_HAL_Driver/Inc/stm32g4xx_ll_adc.h **** #if defined(ADC_SMPR1_SMPPLUS)
 964:Drivers/STM32G4xx_HAL_Driver/Inc/stm32g4xx_ll_adc.h **** /** @defgroup ADC_LL_EC_SAMPLINGTIME_COMMON_CONFIG ADC instance - ADC sampling time common configur
 965:Drivers/STM32G4xx_HAL_Driver/Inc/stm32g4xx_ll_adc.h ****   * @{
 966:Drivers/STM32G4xx_HAL_Driver/Inc/stm32g4xx_ll_adc.h ****   */
 967:Drivers/STM32G4xx_HAL_Driver/Inc/stm32g4xx_ll_adc.h **** #define LL_ADC_SAMPLINGTIME_COMMON_DEFAULT      (0x00000000UL)      /*!< ADC sampling time let to d
 968:Drivers/STM32G4xx_HAL_Driver/Inc/stm32g4xx_ll_adc.h **** #define LL_ADC_SAMPLINGTIME_COMMON_3C5_REPL_2C5 (ADC_SMPR1_SMPPLUS) /*!< ADC additional sampling ti
 969:Drivers/STM32G4xx_HAL_Driver/Inc/stm32g4xx_ll_adc.h **** /**
 970:Drivers/STM32G4xx_HAL_Driver/Inc/stm32g4xx_ll_adc.h ****   * @}
 971:Drivers/STM32G4xx_HAL_Driver/Inc/stm32g4xx_ll_adc.h ****   */
 972:Drivers/STM32G4xx_HAL_Driver/Inc/stm32g4xx_ll_adc.h **** #endif
 973:Drivers/STM32G4xx_HAL_Driver/Inc/stm32g4xx_ll_adc.h **** 
 974:Drivers/STM32G4xx_HAL_Driver/Inc/stm32g4xx_ll_adc.h **** /** @defgroup ADC_LL_EC_REG_OVR_DATA_BEHAVIOR  ADC group regular - Overrun behavior on conversion d
 975:Drivers/STM32G4xx_HAL_Driver/Inc/stm32g4xx_ll_adc.h ****   * @{
 976:Drivers/STM32G4xx_HAL_Driver/Inc/stm32g4xx_ll_adc.h ****   */
 977:Drivers/STM32G4xx_HAL_Driver/Inc/stm32g4xx_ll_adc.h **** #define LL_ADC_REG_OVR_DATA_PRESERVED      (0x00000000UL)         /*!< ADC group regular behavior i
 978:Drivers/STM32G4xx_HAL_Driver/Inc/stm32g4xx_ll_adc.h **** #define LL_ADC_REG_OVR_DATA_OVERWRITTEN    (ADC_CFGR_OVRMOD)      /*!< ADC group regular behavior i
 979:Drivers/STM32G4xx_HAL_Driver/Inc/stm32g4xx_ll_adc.h **** /**
 980:Drivers/STM32G4xx_HAL_Driver/Inc/stm32g4xx_ll_adc.h ****   * @}
 981:Drivers/STM32G4xx_HAL_Driver/Inc/stm32g4xx_ll_adc.h ****   */
 982:Drivers/STM32G4xx_HAL_Driver/Inc/stm32g4xx_ll_adc.h **** 
 983:Drivers/STM32G4xx_HAL_Driver/Inc/stm32g4xx_ll_adc.h **** /** @defgroup ADC_LL_EC_REG_SEQ_SCAN_LENGTH  ADC group regular - Sequencer scan length
 984:Drivers/STM32G4xx_HAL_Driver/Inc/stm32g4xx_ll_adc.h ****   * @{
 985:Drivers/STM32G4xx_HAL_Driver/Inc/stm32g4xx_ll_adc.h ****   */
 986:Drivers/STM32G4xx_HAL_Driver/Inc/stm32g4xx_ll_adc.h **** #define LL_ADC_REG_SEQ_SCAN_DISABLE        (0x00000000UL)                                          
 987:Drivers/STM32G4xx_HAL_Driver/Inc/stm32g4xx_ll_adc.h **** #define LL_ADC_REG_SEQ_SCAN_ENABLE_2RANKS  (                                             ADC_SQR1_L
 988:Drivers/STM32G4xx_HAL_Driver/Inc/stm32g4xx_ll_adc.h **** #define LL_ADC_REG_SEQ_SCAN_ENABLE_3RANKS  (                              ADC_SQR1_L_1             
ARM GAS  /tmp/ccnaDHIW.s 			page 23


 989:Drivers/STM32G4xx_HAL_Driver/Inc/stm32g4xx_ll_adc.h **** #define LL_ADC_REG_SEQ_SCAN_ENABLE_4RANKS  (                              ADC_SQR1_L_1 | ADC_SQR1_L
 990:Drivers/STM32G4xx_HAL_Driver/Inc/stm32g4xx_ll_adc.h **** #define LL_ADC_REG_SEQ_SCAN_ENABLE_5RANKS  (               ADC_SQR1_L_2                            
 991:Drivers/STM32G4xx_HAL_Driver/Inc/stm32g4xx_ll_adc.h **** #define LL_ADC_REG_SEQ_SCAN_ENABLE_6RANKS  (               ADC_SQR1_L_2                | ADC_SQR1_L
 992:Drivers/STM32G4xx_HAL_Driver/Inc/stm32g4xx_ll_adc.h **** #define LL_ADC_REG_SEQ_SCAN_ENABLE_7RANKS  (               ADC_SQR1_L_2 | ADC_SQR1_L_1             
 993:Drivers/STM32G4xx_HAL_Driver/Inc/stm32g4xx_ll_adc.h **** #define LL_ADC_REG_SEQ_SCAN_ENABLE_8RANKS  (               ADC_SQR1_L_2 | ADC_SQR1_L_1 | ADC_SQR1_L
 994:Drivers/STM32G4xx_HAL_Driver/Inc/stm32g4xx_ll_adc.h **** #define LL_ADC_REG_SEQ_SCAN_ENABLE_9RANKS  (ADC_SQR1_L_3                                           
 995:Drivers/STM32G4xx_HAL_Driver/Inc/stm32g4xx_ll_adc.h **** #define LL_ADC_REG_SEQ_SCAN_ENABLE_10RANKS (ADC_SQR1_L_3                               | ADC_SQR1_L
 996:Drivers/STM32G4xx_HAL_Driver/Inc/stm32g4xx_ll_adc.h **** #define LL_ADC_REG_SEQ_SCAN_ENABLE_11RANKS (ADC_SQR1_L_3                | ADC_SQR1_L_1             
 997:Drivers/STM32G4xx_HAL_Driver/Inc/stm32g4xx_ll_adc.h **** #define LL_ADC_REG_SEQ_SCAN_ENABLE_12RANKS (ADC_SQR1_L_3                | ADC_SQR1_L_1 | ADC_SQR1_L
 998:Drivers/STM32G4xx_HAL_Driver/Inc/stm32g4xx_ll_adc.h **** #define LL_ADC_REG_SEQ_SCAN_ENABLE_13RANKS (ADC_SQR1_L_3 | ADC_SQR1_L_2                            
 999:Drivers/STM32G4xx_HAL_Driver/Inc/stm32g4xx_ll_adc.h **** #define LL_ADC_REG_SEQ_SCAN_ENABLE_14RANKS (ADC_SQR1_L_3 | ADC_SQR1_L_2                | ADC_SQR1_L
1000:Drivers/STM32G4xx_HAL_Driver/Inc/stm32g4xx_ll_adc.h **** #define LL_ADC_REG_SEQ_SCAN_ENABLE_15RANKS (ADC_SQR1_L_3 | ADC_SQR1_L_2 | ADC_SQR1_L_1             
1001:Drivers/STM32G4xx_HAL_Driver/Inc/stm32g4xx_ll_adc.h **** #define LL_ADC_REG_SEQ_SCAN_ENABLE_16RANKS (ADC_SQR1_L_3 | ADC_SQR1_L_2 | ADC_SQR1_L_1 | ADC_SQR1_L
1002:Drivers/STM32G4xx_HAL_Driver/Inc/stm32g4xx_ll_adc.h **** /**
1003:Drivers/STM32G4xx_HAL_Driver/Inc/stm32g4xx_ll_adc.h ****   * @}
1004:Drivers/STM32G4xx_HAL_Driver/Inc/stm32g4xx_ll_adc.h ****   */
1005:Drivers/STM32G4xx_HAL_Driver/Inc/stm32g4xx_ll_adc.h **** 
1006:Drivers/STM32G4xx_HAL_Driver/Inc/stm32g4xx_ll_adc.h **** /** @defgroup ADC_LL_EC_REG_SEQ_DISCONT_MODE  ADC group regular - Sequencer discontinuous mode
1007:Drivers/STM32G4xx_HAL_Driver/Inc/stm32g4xx_ll_adc.h ****   * @{
1008:Drivers/STM32G4xx_HAL_Driver/Inc/stm32g4xx_ll_adc.h ****   */
1009:Drivers/STM32G4xx_HAL_Driver/Inc/stm32g4xx_ll_adc.h **** #define LL_ADC_REG_SEQ_DISCONT_DISABLE     (0x00000000UL)                                          
1010:Drivers/STM32G4xx_HAL_Driver/Inc/stm32g4xx_ll_adc.h **** #define LL_ADC_REG_SEQ_DISCONT_1RANK       (                                                       
1011:Drivers/STM32G4xx_HAL_Driver/Inc/stm32g4xx_ll_adc.h **** #define LL_ADC_REG_SEQ_DISCONT_2RANKS      (                                          ADC_CFGR_DISC
1012:Drivers/STM32G4xx_HAL_Driver/Inc/stm32g4xx_ll_adc.h **** #define LL_ADC_REG_SEQ_DISCONT_3RANKS      (                     ADC_CFGR_DISCNUM_1                
1013:Drivers/STM32G4xx_HAL_Driver/Inc/stm32g4xx_ll_adc.h **** #define LL_ADC_REG_SEQ_DISCONT_4RANKS      (                     ADC_CFGR_DISCNUM_1 | ADC_CFGR_DISC
1014:Drivers/STM32G4xx_HAL_Driver/Inc/stm32g4xx_ll_adc.h **** #define LL_ADC_REG_SEQ_DISCONT_5RANKS      (ADC_CFGR_DISCNUM_2                                     
1015:Drivers/STM32G4xx_HAL_Driver/Inc/stm32g4xx_ll_adc.h **** #define LL_ADC_REG_SEQ_DISCONT_6RANKS      (ADC_CFGR_DISCNUM_2                      | ADC_CFGR_DISC
1016:Drivers/STM32G4xx_HAL_Driver/Inc/stm32g4xx_ll_adc.h **** #define LL_ADC_REG_SEQ_DISCONT_7RANKS      (ADC_CFGR_DISCNUM_2 | ADC_CFGR_DISCNUM_1                
1017:Drivers/STM32G4xx_HAL_Driver/Inc/stm32g4xx_ll_adc.h **** #define LL_ADC_REG_SEQ_DISCONT_8RANKS      (ADC_CFGR_DISCNUM_2 | ADC_CFGR_DISCNUM_1 | ADC_CFGR_DISC
1018:Drivers/STM32G4xx_HAL_Driver/Inc/stm32g4xx_ll_adc.h **** /**
1019:Drivers/STM32G4xx_HAL_Driver/Inc/stm32g4xx_ll_adc.h ****   * @}
1020:Drivers/STM32G4xx_HAL_Driver/Inc/stm32g4xx_ll_adc.h ****   */
1021:Drivers/STM32G4xx_HAL_Driver/Inc/stm32g4xx_ll_adc.h **** 
1022:Drivers/STM32G4xx_HAL_Driver/Inc/stm32g4xx_ll_adc.h **** /** @defgroup ADC_LL_EC_REG_SEQ_RANKS  ADC group regular - Sequencer ranks
1023:Drivers/STM32G4xx_HAL_Driver/Inc/stm32g4xx_ll_adc.h ****   * @{
1024:Drivers/STM32G4xx_HAL_Driver/Inc/stm32g4xx_ll_adc.h ****   */
1025:Drivers/STM32G4xx_HAL_Driver/Inc/stm32g4xx_ll_adc.h **** #define LL_ADC_REG_RANK_1                  (ADC_SQR1_REGOFFSET | ADC_REG_RANK_1_SQRX_BITOFFSET_POS)
1026:Drivers/STM32G4xx_HAL_Driver/Inc/stm32g4xx_ll_adc.h **** #define LL_ADC_REG_RANK_2                  (ADC_SQR1_REGOFFSET | ADC_REG_RANK_2_SQRX_BITOFFSET_POS)
1027:Drivers/STM32G4xx_HAL_Driver/Inc/stm32g4xx_ll_adc.h **** #define LL_ADC_REG_RANK_3                  (ADC_SQR1_REGOFFSET | ADC_REG_RANK_3_SQRX_BITOFFSET_POS)
1028:Drivers/STM32G4xx_HAL_Driver/Inc/stm32g4xx_ll_adc.h **** #define LL_ADC_REG_RANK_4                  (ADC_SQR1_REGOFFSET | ADC_REG_RANK_4_SQRX_BITOFFSET_POS)
1029:Drivers/STM32G4xx_HAL_Driver/Inc/stm32g4xx_ll_adc.h **** #define LL_ADC_REG_RANK_5                  (ADC_SQR2_REGOFFSET | ADC_REG_RANK_5_SQRX_BITOFFSET_POS)
1030:Drivers/STM32G4xx_HAL_Driver/Inc/stm32g4xx_ll_adc.h **** #define LL_ADC_REG_RANK_6                  (ADC_SQR2_REGOFFSET | ADC_REG_RANK_6_SQRX_BITOFFSET_POS)
1031:Drivers/STM32G4xx_HAL_Driver/Inc/stm32g4xx_ll_adc.h **** #define LL_ADC_REG_RANK_7                  (ADC_SQR2_REGOFFSET | ADC_REG_RANK_7_SQRX_BITOFFSET_POS)
1032:Drivers/STM32G4xx_HAL_Driver/Inc/stm32g4xx_ll_adc.h **** #define LL_ADC_REG_RANK_8                  (ADC_SQR2_REGOFFSET | ADC_REG_RANK_8_SQRX_BITOFFSET_POS)
1033:Drivers/STM32G4xx_HAL_Driver/Inc/stm32g4xx_ll_adc.h **** #define LL_ADC_REG_RANK_9                  (ADC_SQR2_REGOFFSET | ADC_REG_RANK_9_SQRX_BITOFFSET_POS)
1034:Drivers/STM32G4xx_HAL_Driver/Inc/stm32g4xx_ll_adc.h **** #define LL_ADC_REG_RANK_10                 (ADC_SQR3_REGOFFSET | ADC_REG_RANK_10_SQRX_BITOFFSET_POS
1035:Drivers/STM32G4xx_HAL_Driver/Inc/stm32g4xx_ll_adc.h **** #define LL_ADC_REG_RANK_11                 (ADC_SQR3_REGOFFSET | ADC_REG_RANK_11_SQRX_BITOFFSET_POS
1036:Drivers/STM32G4xx_HAL_Driver/Inc/stm32g4xx_ll_adc.h **** #define LL_ADC_REG_RANK_12                 (ADC_SQR3_REGOFFSET | ADC_REG_RANK_12_SQRX_BITOFFSET_POS
1037:Drivers/STM32G4xx_HAL_Driver/Inc/stm32g4xx_ll_adc.h **** #define LL_ADC_REG_RANK_13                 (ADC_SQR3_REGOFFSET | ADC_REG_RANK_13_SQRX_BITOFFSET_POS
1038:Drivers/STM32G4xx_HAL_Driver/Inc/stm32g4xx_ll_adc.h **** #define LL_ADC_REG_RANK_14                 (ADC_SQR3_REGOFFSET | ADC_REG_RANK_14_SQRX_BITOFFSET_POS
1039:Drivers/STM32G4xx_HAL_Driver/Inc/stm32g4xx_ll_adc.h **** #define LL_ADC_REG_RANK_15                 (ADC_SQR4_REGOFFSET | ADC_REG_RANK_15_SQRX_BITOFFSET_POS
1040:Drivers/STM32G4xx_HAL_Driver/Inc/stm32g4xx_ll_adc.h **** #define LL_ADC_REG_RANK_16                 (ADC_SQR4_REGOFFSET | ADC_REG_RANK_16_SQRX_BITOFFSET_POS
1041:Drivers/STM32G4xx_HAL_Driver/Inc/stm32g4xx_ll_adc.h **** /**
1042:Drivers/STM32G4xx_HAL_Driver/Inc/stm32g4xx_ll_adc.h ****   * @}
1043:Drivers/STM32G4xx_HAL_Driver/Inc/stm32g4xx_ll_adc.h ****   */
1044:Drivers/STM32G4xx_HAL_Driver/Inc/stm32g4xx_ll_adc.h **** 
1045:Drivers/STM32G4xx_HAL_Driver/Inc/stm32g4xx_ll_adc.h **** /** @defgroup ADC_LL_EC_INJ_TRIGGER_SOURCE  ADC group injected - Trigger source
ARM GAS  /tmp/ccnaDHIW.s 			page 24


1046:Drivers/STM32G4xx_HAL_Driver/Inc/stm32g4xx_ll_adc.h ****   * @{
1047:Drivers/STM32G4xx_HAL_Driver/Inc/stm32g4xx_ll_adc.h ****   */
1048:Drivers/STM32G4xx_HAL_Driver/Inc/stm32g4xx_ll_adc.h **** #define LL_ADC_INJ_TRIG_SOFTWARE           (0x00000000UL)                                          
1049:Drivers/STM32G4xx_HAL_Driver/Inc/stm32g4xx_ll_adc.h ****                                            ADC group injected conversion trigger internal: SW start
1050:Drivers/STM32G4xx_HAL_Driver/Inc/stm32g4xx_ll_adc.h **** #define LL_ADC_INJ_TRIG_EXT_TIM1_TRGO      (ADC_INJ_TRIG_EXT_EDGE_DEFAULT)                         
1051:Drivers/STM32G4xx_HAL_Driver/Inc/stm32g4xx_ll_adc.h ****                                            ADC group injected conversion trigger from external peri
1052:Drivers/STM32G4xx_HAL_Driver/Inc/stm32g4xx_ll_adc.h **** #define LL_ADC_INJ_TRIG_EXT_TIM1_TRGO2     (ADC_JSQR_JEXTSEL_3 | ADC_INJ_TRIG_EXT_EDGE_DEFAULT)    
1053:Drivers/STM32G4xx_HAL_Driver/Inc/stm32g4xx_ll_adc.h ****                                            ADC group injected conversion trigger from external peri
1054:Drivers/STM32G4xx_HAL_Driver/Inc/stm32g4xx_ll_adc.h **** #define LL_ADC_INJ_TRIG_EXT_TIM1_CH3       (ADC_JSQR_JEXTSEL_3 | ADC_JSQR_JEXTSEL_1 | ADC_JSQR_JEXT
1055:Drivers/STM32G4xx_HAL_Driver/Inc/stm32g4xx_ll_adc.h ****                                            ADC group injected conversion trigger from external peri
1056:Drivers/STM32G4xx_HAL_Driver/Inc/stm32g4xx_ll_adc.h ****                                            Note: On this STM32 series, this trigger is available on
1057:Drivers/STM32G4xx_HAL_Driver/Inc/stm32g4xx_ll_adc.h **** #define LL_ADC_INJ_TRIG_EXT_TIM1_CH4       (ADC_JSQR_JEXTSEL_0 | ADC_INJ_TRIG_EXT_EDGE_DEFAULT)    
1058:Drivers/STM32G4xx_HAL_Driver/Inc/stm32g4xx_ll_adc.h ****                                            ADC group injected conversion trigger from external peri
1059:Drivers/STM32G4xx_HAL_Driver/Inc/stm32g4xx_ll_adc.h **** #define LL_ADC_INJ_TRIG_EXT_TIM2_TRGO      (ADC_JSQR_JEXTSEL_1 | ADC_INJ_TRIG_EXT_EDGE_DEFAULT)    
1060:Drivers/STM32G4xx_HAL_Driver/Inc/stm32g4xx_ll_adc.h ****                                            ADC group injected conversion trigger from external peri
1061:Drivers/STM32G4xx_HAL_Driver/Inc/stm32g4xx_ll_adc.h **** #define LL_ADC_INJ_TRIG_EXT_TIM2_CH1       (ADC_JSQR_JEXTSEL_1 | ADC_JSQR_JEXTSEL_0 | ADC_INJ_TRIG_
1062:Drivers/STM32G4xx_HAL_Driver/Inc/stm32g4xx_ll_adc.h ****                                            ADC group injected conversion trigger from external peri
1063:Drivers/STM32G4xx_HAL_Driver/Inc/stm32g4xx_ll_adc.h ****                                            Note: On this STM32 series, this trigger is available on
1064:Drivers/STM32G4xx_HAL_Driver/Inc/stm32g4xx_ll_adc.h **** #define LL_ADC_INJ_TRIG_EXT_TIM3_TRGO      (ADC_JSQR_JEXTSEL_3 | ADC_JSQR_JEXTSEL_2 | ADC_INJ_TRIG_
1065:Drivers/STM32G4xx_HAL_Driver/Inc/stm32g4xx_ll_adc.h ****                                            ADC group injected conversion trigger from external peri
1066:Drivers/STM32G4xx_HAL_Driver/Inc/stm32g4xx_ll_adc.h **** #define LL_ADC_INJ_TRIG_EXT_TIM3_CH1       (ADC_JSQR_JEXTSEL_3 | ADC_JSQR_JEXTSEL_2 | ADC_JSQR_JEXT
1067:Drivers/STM32G4xx_HAL_Driver/Inc/stm32g4xx_ll_adc.h ****                                            ADC group injected conversion trigger from external peri
1068:Drivers/STM32G4xx_HAL_Driver/Inc/stm32g4xx_ll_adc.h ****                                            Note: On this STM32 series, this trigger is available on
1069:Drivers/STM32G4xx_HAL_Driver/Inc/stm32g4xx_ll_adc.h **** #define LL_ADC_INJ_TRIG_EXT_TIM3_CH3       (ADC_JSQR_JEXTSEL_3 | ADC_JSQR_JEXTSEL_1 | ADC_JSQR_JEXT
1070:Drivers/STM32G4xx_HAL_Driver/Inc/stm32g4xx_ll_adc.h ****                                            ADC group injected conversion trigger from external peri
1071:Drivers/STM32G4xx_HAL_Driver/Inc/stm32g4xx_ll_adc.h ****                                            Note: On this STM32 series, this trigger is available on
1072:Drivers/STM32G4xx_HAL_Driver/Inc/stm32g4xx_ll_adc.h **** #define LL_ADC_INJ_TRIG_EXT_TIM3_CH4       (ADC_JSQR_JEXTSEL_2 | ADC_INJ_TRIG_EXT_EDGE_DEFAULT)    
1073:Drivers/STM32G4xx_HAL_Driver/Inc/stm32g4xx_ll_adc.h ****                                            ADC group injected conversion trigger from external peri
1074:Drivers/STM32G4xx_HAL_Driver/Inc/stm32g4xx_ll_adc.h ****                                            Note: On this STM32 series, this trigger is available on
1075:Drivers/STM32G4xx_HAL_Driver/Inc/stm32g4xx_ll_adc.h **** #define LL_ADC_INJ_TRIG_EXT_TIM4_TRGO      (ADC_JSQR_JEXTSEL_2 | ADC_JSQR_JEXTSEL_0 | ADC_INJ_TRIG_
1076:Drivers/STM32G4xx_HAL_Driver/Inc/stm32g4xx_ll_adc.h ****                                            ADC group injected conversion trigger from external peri
1077:Drivers/STM32G4xx_HAL_Driver/Inc/stm32g4xx_ll_adc.h **** #define LL_ADC_INJ_TRIG_EXT_TIM4_CH3       (ADC_JSQR_JEXTSEL_2 | ADC_INJ_TRIG_EXT_EDGE_DEFAULT)    
1078:Drivers/STM32G4xx_HAL_Driver/Inc/stm32g4xx_ll_adc.h ****                                            ADC group injected conversion trigger from external peri
1079:Drivers/STM32G4xx_HAL_Driver/Inc/stm32g4xx_ll_adc.h ****                                            Note: On this STM32 series, this trigger is available on
1080:Drivers/STM32G4xx_HAL_Driver/Inc/stm32g4xx_ll_adc.h **** #define LL_ADC_INJ_TRIG_EXT_TIM4_CH4       (ADC_JSQR_JEXTSEL_2 | ADC_JSQR_JEXTSEL_1 | ADC_INJ_TRIG_
1081:Drivers/STM32G4xx_HAL_Driver/Inc/stm32g4xx_ll_adc.h ****                                            ADC group injected conversion trigger from external peri
1082:Drivers/STM32G4xx_HAL_Driver/Inc/stm32g4xx_ll_adc.h ****                                            Note: On this STM32 series, this trigger is available on
1083:Drivers/STM32G4xx_HAL_Driver/Inc/stm32g4xx_ll_adc.h **** #define LL_ADC_INJ_TRIG_EXT_TIM6_TRGO      (ADC_JSQR_JEXTSEL_3 | ADC_JSQR_JEXTSEL_2 | ADC_JSQR_JEXT
1084:Drivers/STM32G4xx_HAL_Driver/Inc/stm32g4xx_ll_adc.h ****                                            ADC group injected conversion trigger from external peri
1085:Drivers/STM32G4xx_HAL_Driver/Inc/stm32g4xx_ll_adc.h **** #define LL_ADC_INJ_TRIG_EXT_TIM7_TRGO      (ADC_JSQR_JEXTSEL_4 | ADC_JSQR_JEXTSEL_3 | ADC_JSQR_JEXT
1086:Drivers/STM32G4xx_HAL_Driver/Inc/stm32g4xx_ll_adc.h ****                                            ADC group injected conversion trigger from external peri
1087:Drivers/STM32G4xx_HAL_Driver/Inc/stm32g4xx_ll_adc.h **** #define LL_ADC_INJ_TRIG_EXT_TIM8_TRGO      (ADC_JSQR_JEXTSEL_3 | ADC_JSQR_JEXTSEL_0 | ADC_INJ_TRIG_
1088:Drivers/STM32G4xx_HAL_Driver/Inc/stm32g4xx_ll_adc.h ****                                            ADC group injected conversion trigger from external peri
1089:Drivers/STM32G4xx_HAL_Driver/Inc/stm32g4xx_ll_adc.h **** #define LL_ADC_INJ_TRIG_EXT_TIM8_TRGO2     (ADC_JSQR_JEXTSEL_3 | ADC_JSQR_JEXTSEL_1 | ADC_INJ_TRIG_
1090:Drivers/STM32G4xx_HAL_Driver/Inc/stm32g4xx_ll_adc.h ****                                            ADC group injected conversion trigger from external peri
1091:Drivers/STM32G4xx_HAL_Driver/Inc/stm32g4xx_ll_adc.h **** #define LL_ADC_INJ_TRIG_EXT_TIM8_CH2       (ADC_JSQR_JEXTSEL_1 | ADC_JSQR_JEXTSEL_0 | ADC_INJ_TRIG_
1092:Drivers/STM32G4xx_HAL_Driver/Inc/stm32g4xx_ll_adc.h ****                                            ADC group injected conversion trigger from external peri
1093:Drivers/STM32G4xx_HAL_Driver/Inc/stm32g4xx_ll_adc.h ****                                            Note: On this STM32 series, this trigger is available on
1094:Drivers/STM32G4xx_HAL_Driver/Inc/stm32g4xx_ll_adc.h **** #define LL_ADC_INJ_TRIG_EXT_TIM8_CH4       (ADC_JSQR_JEXTSEL_2 | ADC_JSQR_JEXTSEL_1 | ADC_JSQR_JEXT
1095:Drivers/STM32G4xx_HAL_Driver/Inc/stm32g4xx_ll_adc.h ****                                            ADC group injected conversion trigger from external peri
1096:Drivers/STM32G4xx_HAL_Driver/Inc/stm32g4xx_ll_adc.h **** #define LL_ADC_INJ_TRIG_EXT_TIM15_TRGO     (ADC_JSQR_JEXTSEL_3 | ADC_JSQR_JEXTSEL_2 | ADC_JSQR_JEXT
1097:Drivers/STM32G4xx_HAL_Driver/Inc/stm32g4xx_ll_adc.h ****                                            ADC group injected conversion trigger from external peri
1098:Drivers/STM32G4xx_HAL_Driver/Inc/stm32g4xx_ll_adc.h **** #define LL_ADC_INJ_TRIG_EXT_TIM16_CH1      (ADC_JSQR_JEXTSEL_4 | ADC_JSQR_JEXTSEL_3 | ADC_JSQR_JEXT
1099:Drivers/STM32G4xx_HAL_Driver/Inc/stm32g4xx_ll_adc.h ****                                            ADC group injected conversion trigger from external peri
1100:Drivers/STM32G4xx_HAL_Driver/Inc/stm32g4xx_ll_adc.h ****                                            Note: On this STM32 series, this trigger is available on
1101:Drivers/STM32G4xx_HAL_Driver/Inc/stm32g4xx_ll_adc.h **** #define LL_ADC_INJ_TRIG_EXT_TIM20_TRGO     (ADC_JSQR_JEXTSEL_4 | ADC_INJ_TRIG_EXT_EDGE_DEFAULT)    
1102:Drivers/STM32G4xx_HAL_Driver/Inc/stm32g4xx_ll_adc.h ****                                            ADC group injected conversion trigger from external peri
ARM GAS  /tmp/ccnaDHIW.s 			page 25


1103:Drivers/STM32G4xx_HAL_Driver/Inc/stm32g4xx_ll_adc.h ****                                            Note: On this STM32 series, TIM20 is not available on al
1104:Drivers/STM32G4xx_HAL_Driver/Inc/stm32g4xx_ll_adc.h **** #define LL_ADC_INJ_TRIG_EXT_TIM20_TRGO2    (ADC_JSQR_JEXTSEL_4 | ADC_JSQR_JEXTSEL_0 | ADC_INJ_TRIG_
1105:Drivers/STM32G4xx_HAL_Driver/Inc/stm32g4xx_ll_adc.h ****                                            ADC group injected conversion trigger from external peri
1106:Drivers/STM32G4xx_HAL_Driver/Inc/stm32g4xx_ll_adc.h ****                                            Note: On this STM32 series, TIM20 is not available on al
1107:Drivers/STM32G4xx_HAL_Driver/Inc/stm32g4xx_ll_adc.h **** #define LL_ADC_INJ_TRIG_EXT_TIM20_CH2      (ADC_JSQR_JEXTSEL_4 | ADC_JSQR_JEXTSEL_1 | ADC_INJ_TRIG_
1108:Drivers/STM32G4xx_HAL_Driver/Inc/stm32g4xx_ll_adc.h ****                                            ADC group injected conversion trigger from external peri
1109:Drivers/STM32G4xx_HAL_Driver/Inc/stm32g4xx_ll_adc.h ****                                            Trigger available only on ADC3/4/5 instances. On this ST
1110:Drivers/STM32G4xx_HAL_Driver/Inc/stm32g4xx_ll_adc.h **** #define LL_ADC_INJ_TRIG_EXT_TIM20_CH4      (ADC_JSQR_JEXTSEL_4 | ADC_JSQR_JEXTSEL_1 | ADC_INJ_TRIG_
1111:Drivers/STM32G4xx_HAL_Driver/Inc/stm32g4xx_ll_adc.h ****                                            ADC group injected conversion trigger from external peri
1112:Drivers/STM32G4xx_HAL_Driver/Inc/stm32g4xx_ll_adc.h ****                                            Trigger available only on ADC1/2 instances. On this STM3
1113:Drivers/STM32G4xx_HAL_Driver/Inc/stm32g4xx_ll_adc.h **** #define LL_ADC_INJ_TRIG_EXT_HRTIM_TRG1     (ADC_JSQR_JEXTSEL_4 | ADC_JSQR_JEXTSEL_3 | ADC_JSQR_JEXT
1114:Drivers/STM32G4xx_HAL_Driver/Inc/stm32g4xx_ll_adc.h ****                                            ADC group injected conversion trigger from external peri
1115:Drivers/STM32G4xx_HAL_Driver/Inc/stm32g4xx_ll_adc.h ****                                            Note: On this STM32 series, this trigger is available on
1116:Drivers/STM32G4xx_HAL_Driver/Inc/stm32g4xx_ll_adc.h **** #define LL_ADC_INJ_TRIG_EXT_HRTIM_TRG2     (ADC_JSQR_JEXTSEL_4 | ADC_JSQR_JEXTSEL_1 | ADC_JSQR_JEXT
1117:Drivers/STM32G4xx_HAL_Driver/Inc/stm32g4xx_ll_adc.h ****                                            ADC group injected conversion trigger from external peri
1118:Drivers/STM32G4xx_HAL_Driver/Inc/stm32g4xx_ll_adc.h ****                                            Note: On this STM32 series, HRTIM is not available on al
1119:Drivers/STM32G4xx_HAL_Driver/Inc/stm32g4xx_ll_adc.h **** #define LL_ADC_INJ_TRIG_EXT_HRTIM_TRG3     (ADC_JSQR_JEXTSEL_4 | ADC_JSQR_JEXTSEL_3 | ADC_JSQR_JEXT
1120:Drivers/STM32G4xx_HAL_Driver/Inc/stm32g4xx_ll_adc.h ****                                            ADC group injected conversion trigger from external peri
1121:Drivers/STM32G4xx_HAL_Driver/Inc/stm32g4xx_ll_adc.h ****                                            Note: On this STM32 series, this trigger is available on
1122:Drivers/STM32G4xx_HAL_Driver/Inc/stm32g4xx_ll_adc.h **** #define LL_ADC_INJ_TRIG_EXT_HRTIM_TRG4     (ADC_JSQR_JEXTSEL_4 | ADC_JSQR_JEXTSEL_2 | ADC_INJ_TRIG_
1123:Drivers/STM32G4xx_HAL_Driver/Inc/stm32g4xx_ll_adc.h ****                                            ADC group injected conversion trigger from external peri
1124:Drivers/STM32G4xx_HAL_Driver/Inc/stm32g4xx_ll_adc.h ****                                            Note: On this STM32 series, HRTIM is not available on al
1125:Drivers/STM32G4xx_HAL_Driver/Inc/stm32g4xx_ll_adc.h **** #define LL_ADC_INJ_TRIG_EXT_HRTIM_TRG5     (ADC_JSQR_JEXTSEL_4 | ADC_JSQR_JEXTSEL_2 | ADC_JSQR_JEXT
1126:Drivers/STM32G4xx_HAL_Driver/Inc/stm32g4xx_ll_adc.h ****                                            ADC group injected conversion trigger from external peri
1127:Drivers/STM32G4xx_HAL_Driver/Inc/stm32g4xx_ll_adc.h ****                                            Note: On this STM32 series, HRTIM is not available on al
1128:Drivers/STM32G4xx_HAL_Driver/Inc/stm32g4xx_ll_adc.h **** #define LL_ADC_INJ_TRIG_EXT_HRTIM_TRG6     (ADC_JSQR_JEXTSEL_4 | ADC_JSQR_JEXTSEL_2 | ADC_JSQR_JEXT
1129:Drivers/STM32G4xx_HAL_Driver/Inc/stm32g4xx_ll_adc.h ****                                            ADC group injected conversion trigger from external peri
1130:Drivers/STM32G4xx_HAL_Driver/Inc/stm32g4xx_ll_adc.h ****                                            Note: On this STM32 series, HRTIM is not available on al
1131:Drivers/STM32G4xx_HAL_Driver/Inc/stm32g4xx_ll_adc.h **** #define LL_ADC_INJ_TRIG_EXT_HRTIM_TRG7     (ADC_JSQR_JEXTSEL_4 | ADC_JSQR_JEXTSEL_2 | ADC_JSQR_JEXT
1132:Drivers/STM32G4xx_HAL_Driver/Inc/stm32g4xx_ll_adc.h ****                                            ADC group injected conversion trigger from external peri
1133:Drivers/STM32G4xx_HAL_Driver/Inc/stm32g4xx_ll_adc.h ****                                            Note: On this STM32 series, HRTIM is not available on al
1134:Drivers/STM32G4xx_HAL_Driver/Inc/stm32g4xx_ll_adc.h **** #define LL_ADC_INJ_TRIG_EXT_HRTIM_TRG8     (ADC_JSQR_JEXTSEL_4 | ADC_JSQR_JEXTSEL_3 | ADC_INJ_TRIG_
1135:Drivers/STM32G4xx_HAL_Driver/Inc/stm32g4xx_ll_adc.h ****                                            ADC group injected conversion trigger from external peri
1136:Drivers/STM32G4xx_HAL_Driver/Inc/stm32g4xx_ll_adc.h ****                                            Note: On this STM32 series, HRTIM is not available on al
1137:Drivers/STM32G4xx_HAL_Driver/Inc/stm32g4xx_ll_adc.h **** #define LL_ADC_INJ_TRIG_EXT_HRTIM_TRG9     (ADC_JSQR_JEXTSEL_4 | ADC_JSQR_JEXTSEL_3 | ADC_JSQR_JEXT
1138:Drivers/STM32G4xx_HAL_Driver/Inc/stm32g4xx_ll_adc.h ****                                            ADC group injected conversion trigger from external peri
1139:Drivers/STM32G4xx_HAL_Driver/Inc/stm32g4xx_ll_adc.h ****                                            Note: On this STM32 series, HRTIM is not available on al
1140:Drivers/STM32G4xx_HAL_Driver/Inc/stm32g4xx_ll_adc.h **** #define LL_ADC_INJ_TRIG_EXT_HRTIM_TRG10    (ADC_JSQR_JEXTSEL_4 | ADC_JSQR_JEXTSEL_3 | ADC_JSQR_JEXT
1141:Drivers/STM32G4xx_HAL_Driver/Inc/stm32g4xx_ll_adc.h ****                                            ADC group injected conversion trigger from external peri
1142:Drivers/STM32G4xx_HAL_Driver/Inc/stm32g4xx_ll_adc.h ****                                            Note: On this STM32 series, HRTIM is not available on al
1143:Drivers/STM32G4xx_HAL_Driver/Inc/stm32g4xx_ll_adc.h **** #define LL_ADC_INJ_TRIG_EXT_EXTI_LINE3     (ADC_JSQR_JEXTSEL_3 | ADC_JSQR_JEXTSEL_2 | ADC_JSQR_JEXT
1144:Drivers/STM32G4xx_HAL_Driver/Inc/stm32g4xx_ll_adc.h ****                                            ADC group injected conversion trigger from external peri
1145:Drivers/STM32G4xx_HAL_Driver/Inc/stm32g4xx_ll_adc.h ****                                            Note: On this STM32 series, this trigger is available on
1146:Drivers/STM32G4xx_HAL_Driver/Inc/stm32g4xx_ll_adc.h **** #define LL_ADC_INJ_TRIG_EXT_EXTI_LINE15    (ADC_JSQR_JEXTSEL_2 | ADC_JSQR_JEXTSEL_1 | ADC_INJ_TRIG_
1147:Drivers/STM32G4xx_HAL_Driver/Inc/stm32g4xx_ll_adc.h ****                                            ADC group injected conversion trigger from external peri
1148:Drivers/STM32G4xx_HAL_Driver/Inc/stm32g4xx_ll_adc.h ****                                            Note: On this STM32 series, this trigger is available on
1149:Drivers/STM32G4xx_HAL_Driver/Inc/stm32g4xx_ll_adc.h **** #define LL_ADC_INJ_TRIG_EXT_LPTIM_OUT      (ADC_JSQR_JEXTSEL_4 | ADC_JSQR_JEXTSEL_3 | ADC_JSQR_JEXT
1150:Drivers/STM32G4xx_HAL_Driver/Inc/stm32g4xx_ll_adc.h ****                                            ADC group injected conversion trigger from external peri
1151:Drivers/STM32G4xx_HAL_Driver/Inc/stm32g4xx_ll_adc.h **** /**
1152:Drivers/STM32G4xx_HAL_Driver/Inc/stm32g4xx_ll_adc.h ****   * @}
1153:Drivers/STM32G4xx_HAL_Driver/Inc/stm32g4xx_ll_adc.h ****   */
1154:Drivers/STM32G4xx_HAL_Driver/Inc/stm32g4xx_ll_adc.h **** 
1155:Drivers/STM32G4xx_HAL_Driver/Inc/stm32g4xx_ll_adc.h **** /** @defgroup ADC_LL_EC_INJ_TRIGGER_EDGE  ADC group injected - Trigger edge
1156:Drivers/STM32G4xx_HAL_Driver/Inc/stm32g4xx_ll_adc.h ****   * @{
1157:Drivers/STM32G4xx_HAL_Driver/Inc/stm32g4xx_ll_adc.h ****   */
1158:Drivers/STM32G4xx_HAL_Driver/Inc/stm32g4xx_ll_adc.h **** #define LL_ADC_INJ_TRIG_EXT_RISING         (                    ADC_JSQR_JEXTEN_0) /*!< ADC group i
1159:Drivers/STM32G4xx_HAL_Driver/Inc/stm32g4xx_ll_adc.h **** #define LL_ADC_INJ_TRIG_EXT_FALLING        (ADC_JSQR_JEXTEN_1                    ) /*!< ADC group i
ARM GAS  /tmp/ccnaDHIW.s 			page 26


1160:Drivers/STM32G4xx_HAL_Driver/Inc/stm32g4xx_ll_adc.h **** #define LL_ADC_INJ_TRIG_EXT_RISINGFALLING  (ADC_JSQR_JEXTEN_1 | ADC_JSQR_JEXTEN_0) /*!< ADC group i
1161:Drivers/STM32G4xx_HAL_Driver/Inc/stm32g4xx_ll_adc.h **** /**
1162:Drivers/STM32G4xx_HAL_Driver/Inc/stm32g4xx_ll_adc.h ****   * @}
1163:Drivers/STM32G4xx_HAL_Driver/Inc/stm32g4xx_ll_adc.h ****   */
1164:Drivers/STM32G4xx_HAL_Driver/Inc/stm32g4xx_ll_adc.h **** 
1165:Drivers/STM32G4xx_HAL_Driver/Inc/stm32g4xx_ll_adc.h **** /** @defgroup ADC_LL_EC_INJ_TRIG_AUTO  ADC group injected - Automatic trigger mode
1166:Drivers/STM32G4xx_HAL_Driver/Inc/stm32g4xx_ll_adc.h ****   * @{
1167:Drivers/STM32G4xx_HAL_Driver/Inc/stm32g4xx_ll_adc.h ****   */
1168:Drivers/STM32G4xx_HAL_Driver/Inc/stm32g4xx_ll_adc.h **** #define LL_ADC_INJ_TRIG_INDEPENDENT        (0x00000000UL)         /*!< ADC group injected conversio
1169:Drivers/STM32G4xx_HAL_Driver/Inc/stm32g4xx_ll_adc.h **** #define LL_ADC_INJ_TRIG_FROM_GRP_REGULAR   (ADC_CFGR_JAUTO)       /*!< ADC group injected conversio
1170:Drivers/STM32G4xx_HAL_Driver/Inc/stm32g4xx_ll_adc.h **** /**
1171:Drivers/STM32G4xx_HAL_Driver/Inc/stm32g4xx_ll_adc.h ****   * @}
1172:Drivers/STM32G4xx_HAL_Driver/Inc/stm32g4xx_ll_adc.h ****   */
1173:Drivers/STM32G4xx_HAL_Driver/Inc/stm32g4xx_ll_adc.h **** 
1174:Drivers/STM32G4xx_HAL_Driver/Inc/stm32g4xx_ll_adc.h **** /** @defgroup ADC_LL_EC_INJ_CONTEXT_QUEUE  ADC group injected - Context queue mode
1175:Drivers/STM32G4xx_HAL_Driver/Inc/stm32g4xx_ll_adc.h ****   * @{
1176:Drivers/STM32G4xx_HAL_Driver/Inc/stm32g4xx_ll_adc.h ****   */
1177:Drivers/STM32G4xx_HAL_Driver/Inc/stm32g4xx_ll_adc.h **** #define LL_ADC_INJ_QUEUE_2CONTEXTS_LAST_ACTIVE (0x00000000UL)         /* Group injected sequence co
1178:Drivers/STM32G4xx_HAL_Driver/Inc/stm32g4xx_ll_adc.h **** #define LL_ADC_INJ_QUEUE_2CONTEXTS_END_EMPTY   (ADC_CFGR_JQM)         /* Group injected sequence co
1179:Drivers/STM32G4xx_HAL_Driver/Inc/stm32g4xx_ll_adc.h **** #define LL_ADC_INJ_QUEUE_DISABLE               (ADC_CFGR_JQDIS)       /* Group injected sequence co
1180:Drivers/STM32G4xx_HAL_Driver/Inc/stm32g4xx_ll_adc.h **** /**
1181:Drivers/STM32G4xx_HAL_Driver/Inc/stm32g4xx_ll_adc.h ****   * @}
1182:Drivers/STM32G4xx_HAL_Driver/Inc/stm32g4xx_ll_adc.h ****   */
1183:Drivers/STM32G4xx_HAL_Driver/Inc/stm32g4xx_ll_adc.h **** 
1184:Drivers/STM32G4xx_HAL_Driver/Inc/stm32g4xx_ll_adc.h **** /** @defgroup ADC_LL_EC_INJ_SEQ_SCAN_LENGTH  ADC group injected - Sequencer scan length
1185:Drivers/STM32G4xx_HAL_Driver/Inc/stm32g4xx_ll_adc.h ****   * @{
1186:Drivers/STM32G4xx_HAL_Driver/Inc/stm32g4xx_ll_adc.h ****   */
1187:Drivers/STM32G4xx_HAL_Driver/Inc/stm32g4xx_ll_adc.h **** #define LL_ADC_INJ_SEQ_SCAN_DISABLE        (0x00000000UL)                  /*!< ADC group injected 
1188:Drivers/STM32G4xx_HAL_Driver/Inc/stm32g4xx_ll_adc.h **** #define LL_ADC_INJ_SEQ_SCAN_ENABLE_2RANKS  (                ADC_JSQR_JL_0) /*!< ADC group injected 
1189:Drivers/STM32G4xx_HAL_Driver/Inc/stm32g4xx_ll_adc.h **** #define LL_ADC_INJ_SEQ_SCAN_ENABLE_3RANKS  (ADC_JSQR_JL_1                ) /*!< ADC group injected 
1190:Drivers/STM32G4xx_HAL_Driver/Inc/stm32g4xx_ll_adc.h **** #define LL_ADC_INJ_SEQ_SCAN_ENABLE_4RANKS  (ADC_JSQR_JL_1 | ADC_JSQR_JL_0) /*!< ADC group injected 
1191:Drivers/STM32G4xx_HAL_Driver/Inc/stm32g4xx_ll_adc.h **** /**
1192:Drivers/STM32G4xx_HAL_Driver/Inc/stm32g4xx_ll_adc.h ****   * @}
1193:Drivers/STM32G4xx_HAL_Driver/Inc/stm32g4xx_ll_adc.h ****   */
1194:Drivers/STM32G4xx_HAL_Driver/Inc/stm32g4xx_ll_adc.h **** 
1195:Drivers/STM32G4xx_HAL_Driver/Inc/stm32g4xx_ll_adc.h **** /** @defgroup ADC_LL_EC_INJ_SEQ_DISCONT_MODE  ADC group injected - Sequencer discontinuous mode
1196:Drivers/STM32G4xx_HAL_Driver/Inc/stm32g4xx_ll_adc.h ****   * @{
1197:Drivers/STM32G4xx_HAL_Driver/Inc/stm32g4xx_ll_adc.h ****   */
1198:Drivers/STM32G4xx_HAL_Driver/Inc/stm32g4xx_ll_adc.h **** #define LL_ADC_INJ_SEQ_DISCONT_DISABLE     (0x00000000UL)         /*!< ADC group injected sequencer
1199:Drivers/STM32G4xx_HAL_Driver/Inc/stm32g4xx_ll_adc.h **** #define LL_ADC_INJ_SEQ_DISCONT_1RANK       (ADC_CFGR_JDISCEN)     /*!< ADC group injected sequencer
1200:Drivers/STM32G4xx_HAL_Driver/Inc/stm32g4xx_ll_adc.h **** /**
1201:Drivers/STM32G4xx_HAL_Driver/Inc/stm32g4xx_ll_adc.h ****   * @}
1202:Drivers/STM32G4xx_HAL_Driver/Inc/stm32g4xx_ll_adc.h ****   */
1203:Drivers/STM32G4xx_HAL_Driver/Inc/stm32g4xx_ll_adc.h **** 
1204:Drivers/STM32G4xx_HAL_Driver/Inc/stm32g4xx_ll_adc.h **** /** @defgroup ADC_LL_EC_INJ_SEQ_RANKS  ADC group injected - Sequencer ranks
1205:Drivers/STM32G4xx_HAL_Driver/Inc/stm32g4xx_ll_adc.h ****   * @{
1206:Drivers/STM32G4xx_HAL_Driver/Inc/stm32g4xx_ll_adc.h ****   */
1207:Drivers/STM32G4xx_HAL_Driver/Inc/stm32g4xx_ll_adc.h **** #define LL_ADC_INJ_RANK_1                  (ADC_JDR1_REGOFFSET | ADC_INJ_RANK_1_JSQR_BITOFFSET_POS)
1208:Drivers/STM32G4xx_HAL_Driver/Inc/stm32g4xx_ll_adc.h **** #define LL_ADC_INJ_RANK_2                  (ADC_JDR2_REGOFFSET | ADC_INJ_RANK_2_JSQR_BITOFFSET_POS)
1209:Drivers/STM32G4xx_HAL_Driver/Inc/stm32g4xx_ll_adc.h **** #define LL_ADC_INJ_RANK_3                  (ADC_JDR3_REGOFFSET | ADC_INJ_RANK_3_JSQR_BITOFFSET_POS)
1210:Drivers/STM32G4xx_HAL_Driver/Inc/stm32g4xx_ll_adc.h **** #define LL_ADC_INJ_RANK_4                  (ADC_JDR4_REGOFFSET | ADC_INJ_RANK_4_JSQR_BITOFFSET_POS)
1211:Drivers/STM32G4xx_HAL_Driver/Inc/stm32g4xx_ll_adc.h **** /**
1212:Drivers/STM32G4xx_HAL_Driver/Inc/stm32g4xx_ll_adc.h ****   * @}
1213:Drivers/STM32G4xx_HAL_Driver/Inc/stm32g4xx_ll_adc.h ****   */
1214:Drivers/STM32G4xx_HAL_Driver/Inc/stm32g4xx_ll_adc.h **** 
1215:Drivers/STM32G4xx_HAL_Driver/Inc/stm32g4xx_ll_adc.h **** /** @defgroup ADC_LL_EC_CHANNEL_SAMPLINGTIME  Channel - Sampling time
1216:Drivers/STM32G4xx_HAL_Driver/Inc/stm32g4xx_ll_adc.h ****   * @{
ARM GAS  /tmp/ccnaDHIW.s 			page 27


1217:Drivers/STM32G4xx_HAL_Driver/Inc/stm32g4xx_ll_adc.h ****   */
1218:Drivers/STM32G4xx_HAL_Driver/Inc/stm32g4xx_ll_adc.h **** #define LL_ADC_SAMPLINGTIME_2CYCLES_5      (0x00000000UL)                                          
1219:Drivers/STM32G4xx_HAL_Driver/Inc/stm32g4xx_ll_adc.h **** #define LL_ADC_SAMPLINGTIME_6CYCLES_5      (                                        ADC_SMPR2_SMP10
1220:Drivers/STM32G4xx_HAL_Driver/Inc/stm32g4xx_ll_adc.h **** #define LL_ADC_SAMPLINGTIME_12CYCLES_5     (                    ADC_SMPR2_SMP10_1                  
1221:Drivers/STM32G4xx_HAL_Driver/Inc/stm32g4xx_ll_adc.h **** #define LL_ADC_SAMPLINGTIME_24CYCLES_5     (                    ADC_SMPR2_SMP10_1 | ADC_SMPR2_SMP10
1222:Drivers/STM32G4xx_HAL_Driver/Inc/stm32g4xx_ll_adc.h **** #define LL_ADC_SAMPLINGTIME_47CYCLES_5     (ADC_SMPR2_SMP10_2                                      
1223:Drivers/STM32G4xx_HAL_Driver/Inc/stm32g4xx_ll_adc.h **** #define LL_ADC_SAMPLINGTIME_92CYCLES_5     (ADC_SMPR2_SMP10_2                     | ADC_SMPR2_SMP10
1224:Drivers/STM32G4xx_HAL_Driver/Inc/stm32g4xx_ll_adc.h **** #define LL_ADC_SAMPLINGTIME_247CYCLES_5    (ADC_SMPR2_SMP10_2 | ADC_SMPR2_SMP10_1                  
1225:Drivers/STM32G4xx_HAL_Driver/Inc/stm32g4xx_ll_adc.h **** #define LL_ADC_SAMPLINGTIME_640CYCLES_5    (ADC_SMPR2_SMP10_2 | ADC_SMPR2_SMP10_1 | ADC_SMPR2_SMP10
1226:Drivers/STM32G4xx_HAL_Driver/Inc/stm32g4xx_ll_adc.h **** /**
1227:Drivers/STM32G4xx_HAL_Driver/Inc/stm32g4xx_ll_adc.h ****   * @}
1228:Drivers/STM32G4xx_HAL_Driver/Inc/stm32g4xx_ll_adc.h ****   */
1229:Drivers/STM32G4xx_HAL_Driver/Inc/stm32g4xx_ll_adc.h **** 
1230:Drivers/STM32G4xx_HAL_Driver/Inc/stm32g4xx_ll_adc.h **** /** @defgroup ADC_LL_EC_CHANNEL_SINGLE_DIFF_ENDING  Channel - Single or differential ending
1231:Drivers/STM32G4xx_HAL_Driver/Inc/stm32g4xx_ll_adc.h ****   * @{
1232:Drivers/STM32G4xx_HAL_Driver/Inc/stm32g4xx_ll_adc.h ****   */
1233:Drivers/STM32G4xx_HAL_Driver/Inc/stm32g4xx_ll_adc.h **** #define LL_ADC_SINGLE_ENDED                (                  ADC_CALFACT_CALFACT_S)         /*!< A
1234:Drivers/STM32G4xx_HAL_Driver/Inc/stm32g4xx_ll_adc.h **** #define LL_ADC_DIFFERENTIAL_ENDED          (ADC_CR_ADCALDIF | ADC_CALFACT_CALFACT_D)         /*!< A
1235:Drivers/STM32G4xx_HAL_Driver/Inc/stm32g4xx_ll_adc.h **** #define LL_ADC_BOTH_SINGLE_DIFF_ENDED      (LL_ADC_SINGLE_ENDED | LL_ADC_DIFFERENTIAL_ENDED) /*!< A
1236:Drivers/STM32G4xx_HAL_Driver/Inc/stm32g4xx_ll_adc.h **** /**
1237:Drivers/STM32G4xx_HAL_Driver/Inc/stm32g4xx_ll_adc.h ****   * @}
1238:Drivers/STM32G4xx_HAL_Driver/Inc/stm32g4xx_ll_adc.h ****   */
1239:Drivers/STM32G4xx_HAL_Driver/Inc/stm32g4xx_ll_adc.h **** 
1240:Drivers/STM32G4xx_HAL_Driver/Inc/stm32g4xx_ll_adc.h **** /** @defgroup ADC_LL_EC_AWD_NUMBER Analog watchdog - Analog watchdog number
1241:Drivers/STM32G4xx_HAL_Driver/Inc/stm32g4xx_ll_adc.h ****   * @{
1242:Drivers/STM32G4xx_HAL_Driver/Inc/stm32g4xx_ll_adc.h ****   */
1243:Drivers/STM32G4xx_HAL_Driver/Inc/stm32g4xx_ll_adc.h **** #define LL_ADC_AWD1                        (ADC_AWD_CR1_CHANNEL_MASK  | ADC_AWD_CR1_REGOFFSET) /*!<
1244:Drivers/STM32G4xx_HAL_Driver/Inc/stm32g4xx_ll_adc.h **** #define LL_ADC_AWD2                        (ADC_AWD_CR23_CHANNEL_MASK | ADC_AWD_CR2_REGOFFSET) /*!<
1245:Drivers/STM32G4xx_HAL_Driver/Inc/stm32g4xx_ll_adc.h **** #define LL_ADC_AWD3                        (ADC_AWD_CR23_CHANNEL_MASK | ADC_AWD_CR3_REGOFFSET) /*!<
1246:Drivers/STM32G4xx_HAL_Driver/Inc/stm32g4xx_ll_adc.h **** /**
1247:Drivers/STM32G4xx_HAL_Driver/Inc/stm32g4xx_ll_adc.h ****   * @}
1248:Drivers/STM32G4xx_HAL_Driver/Inc/stm32g4xx_ll_adc.h ****   */
1249:Drivers/STM32G4xx_HAL_Driver/Inc/stm32g4xx_ll_adc.h **** 
1250:Drivers/STM32G4xx_HAL_Driver/Inc/stm32g4xx_ll_adc.h **** /** @defgroup ADC_LL_EC_AWD_CHANNELS  Analog watchdog - Monitored channels
1251:Drivers/STM32G4xx_HAL_Driver/Inc/stm32g4xx_ll_adc.h ****   * @{
1252:Drivers/STM32G4xx_HAL_Driver/Inc/stm32g4xx_ll_adc.h ****   */
1253:Drivers/STM32G4xx_HAL_Driver/Inc/stm32g4xx_ll_adc.h **** #define LL_ADC_AWD_DISABLE                 (0x00000000UL)                                          
1254:Drivers/STM32G4xx_HAL_Driver/Inc/stm32g4xx_ll_adc.h **** #define LL_ADC_AWD_ALL_CHANNELS_REG        (ADC_AWD_CR23_CHANNEL_MASK                              
1255:Drivers/STM32G4xx_HAL_Driver/Inc/stm32g4xx_ll_adc.h **** #define LL_ADC_AWD_ALL_CHANNELS_INJ        (ADC_AWD_CR23_CHANNEL_MASK                 | ADC_CFGR_JA
1256:Drivers/STM32G4xx_HAL_Driver/Inc/stm32g4xx_ll_adc.h **** #define LL_ADC_AWD_ALL_CHANNELS_REG_INJ    (ADC_AWD_CR23_CHANNEL_MASK                 | ADC_CFGR_JA
1257:Drivers/STM32G4xx_HAL_Driver/Inc/stm32g4xx_ll_adc.h **** #define LL_ADC_AWD_CHANNEL_0_REG           ((LL_ADC_CHANNEL_0  & ADC_CHANNEL_ID_MASK)              
1258:Drivers/STM32G4xx_HAL_Driver/Inc/stm32g4xx_ll_adc.h **** #define LL_ADC_AWD_CHANNEL_0_INJ           ((LL_ADC_CHANNEL_0  & ADC_CHANNEL_ID_MASK) | ADC_CFGR_JA
1259:Drivers/STM32G4xx_HAL_Driver/Inc/stm32g4xx_ll_adc.h **** #define LL_ADC_AWD_CHANNEL_0_REG_INJ       ((LL_ADC_CHANNEL_0  & ADC_CHANNEL_ID_MASK) | ADC_CFGR_JA
1260:Drivers/STM32G4xx_HAL_Driver/Inc/stm32g4xx_ll_adc.h **** #define LL_ADC_AWD_CHANNEL_1_REG           ((LL_ADC_CHANNEL_1  & ADC_CHANNEL_ID_MASK)              
1261:Drivers/STM32G4xx_HAL_Driver/Inc/stm32g4xx_ll_adc.h **** #define LL_ADC_AWD_CHANNEL_1_INJ           ((LL_ADC_CHANNEL_1  & ADC_CHANNEL_ID_MASK) | ADC_CFGR_JA
1262:Drivers/STM32G4xx_HAL_Driver/Inc/stm32g4xx_ll_adc.h **** #define LL_ADC_AWD_CHANNEL_1_REG_INJ       ((LL_ADC_CHANNEL_1  & ADC_CHANNEL_ID_MASK) | ADC_CFGR_JA
1263:Drivers/STM32G4xx_HAL_Driver/Inc/stm32g4xx_ll_adc.h **** #define LL_ADC_AWD_CHANNEL_2_REG           ((LL_ADC_CHANNEL_2  & ADC_CHANNEL_ID_MASK)              
1264:Drivers/STM32G4xx_HAL_Driver/Inc/stm32g4xx_ll_adc.h **** #define LL_ADC_AWD_CHANNEL_2_INJ           ((LL_ADC_CHANNEL_2  & ADC_CHANNEL_ID_MASK) | ADC_CFGR_JA
1265:Drivers/STM32G4xx_HAL_Driver/Inc/stm32g4xx_ll_adc.h **** #define LL_ADC_AWD_CHANNEL_2_REG_INJ       ((LL_ADC_CHANNEL_2  & ADC_CHANNEL_ID_MASK) | ADC_CFGR_JA
1266:Drivers/STM32G4xx_HAL_Driver/Inc/stm32g4xx_ll_adc.h **** #define LL_ADC_AWD_CHANNEL_3_REG           ((LL_ADC_CHANNEL_3  & ADC_CHANNEL_ID_MASK)              
1267:Drivers/STM32G4xx_HAL_Driver/Inc/stm32g4xx_ll_adc.h **** #define LL_ADC_AWD_CHANNEL_3_INJ           ((LL_ADC_CHANNEL_3  & ADC_CHANNEL_ID_MASK) | ADC_CFGR_JA
1268:Drivers/STM32G4xx_HAL_Driver/Inc/stm32g4xx_ll_adc.h **** #define LL_ADC_AWD_CHANNEL_3_REG_INJ       ((LL_ADC_CHANNEL_3  & ADC_CHANNEL_ID_MASK) | ADC_CFGR_JA
1269:Drivers/STM32G4xx_HAL_Driver/Inc/stm32g4xx_ll_adc.h **** #define LL_ADC_AWD_CHANNEL_4_REG           ((LL_ADC_CHANNEL_4  & ADC_CHANNEL_ID_MASK)              
1270:Drivers/STM32G4xx_HAL_Driver/Inc/stm32g4xx_ll_adc.h **** #define LL_ADC_AWD_CHANNEL_4_INJ           ((LL_ADC_CHANNEL_4  & ADC_CHANNEL_ID_MASK) | ADC_CFGR_JA
1271:Drivers/STM32G4xx_HAL_Driver/Inc/stm32g4xx_ll_adc.h **** #define LL_ADC_AWD_CHANNEL_4_REG_INJ       ((LL_ADC_CHANNEL_4  & ADC_CHANNEL_ID_MASK) | ADC_CFGR_JA
1272:Drivers/STM32G4xx_HAL_Driver/Inc/stm32g4xx_ll_adc.h **** #define LL_ADC_AWD_CHANNEL_5_REG           ((LL_ADC_CHANNEL_5  & ADC_CHANNEL_ID_MASK)              
1273:Drivers/STM32G4xx_HAL_Driver/Inc/stm32g4xx_ll_adc.h **** #define LL_ADC_AWD_CHANNEL_5_INJ           ((LL_ADC_CHANNEL_5  & ADC_CHANNEL_ID_MASK) | ADC_CFGR_JA
ARM GAS  /tmp/ccnaDHIW.s 			page 28


1274:Drivers/STM32G4xx_HAL_Driver/Inc/stm32g4xx_ll_adc.h **** #define LL_ADC_AWD_CHANNEL_5_REG_INJ       ((LL_ADC_CHANNEL_5  & ADC_CHANNEL_ID_MASK) | ADC_CFGR_JA
1275:Drivers/STM32G4xx_HAL_Driver/Inc/stm32g4xx_ll_adc.h **** #define LL_ADC_AWD_CHANNEL_6_REG           ((LL_ADC_CHANNEL_6  & ADC_CHANNEL_ID_MASK)              
1276:Drivers/STM32G4xx_HAL_Driver/Inc/stm32g4xx_ll_adc.h **** #define LL_ADC_AWD_CHANNEL_6_INJ           ((LL_ADC_CHANNEL_6  & ADC_CHANNEL_ID_MASK) | ADC_CFGR_JA
1277:Drivers/STM32G4xx_HAL_Driver/Inc/stm32g4xx_ll_adc.h **** #define LL_ADC_AWD_CHANNEL_6_REG_INJ       ((LL_ADC_CHANNEL_6  & ADC_CHANNEL_ID_MASK) | ADC_CFGR_JA
1278:Drivers/STM32G4xx_HAL_Driver/Inc/stm32g4xx_ll_adc.h **** #define LL_ADC_AWD_CHANNEL_7_REG           ((LL_ADC_CHANNEL_7  & ADC_CHANNEL_ID_MASK)              
1279:Drivers/STM32G4xx_HAL_Driver/Inc/stm32g4xx_ll_adc.h **** #define LL_ADC_AWD_CHANNEL_7_INJ           ((LL_ADC_CHANNEL_7  & ADC_CHANNEL_ID_MASK) | ADC_CFGR_JA
1280:Drivers/STM32G4xx_HAL_Driver/Inc/stm32g4xx_ll_adc.h **** #define LL_ADC_AWD_CHANNEL_7_REG_INJ       ((LL_ADC_CHANNEL_7  & ADC_CHANNEL_ID_MASK) | ADC_CFGR_JA
1281:Drivers/STM32G4xx_HAL_Driver/Inc/stm32g4xx_ll_adc.h **** #define LL_ADC_AWD_CHANNEL_8_REG           ((LL_ADC_CHANNEL_8  & ADC_CHANNEL_ID_MASK)              
1282:Drivers/STM32G4xx_HAL_Driver/Inc/stm32g4xx_ll_adc.h **** #define LL_ADC_AWD_CHANNEL_8_INJ           ((LL_ADC_CHANNEL_8  & ADC_CHANNEL_ID_MASK) | ADC_CFGR_JA
1283:Drivers/STM32G4xx_HAL_Driver/Inc/stm32g4xx_ll_adc.h **** #define LL_ADC_AWD_CHANNEL_8_REG_INJ       ((LL_ADC_CHANNEL_8  & ADC_CHANNEL_ID_MASK) | ADC_CFGR_JA
1284:Drivers/STM32G4xx_HAL_Driver/Inc/stm32g4xx_ll_adc.h **** #define LL_ADC_AWD_CHANNEL_9_REG           ((LL_ADC_CHANNEL_9  & ADC_CHANNEL_ID_MASK)              
1285:Drivers/STM32G4xx_HAL_Driver/Inc/stm32g4xx_ll_adc.h **** #define LL_ADC_AWD_CHANNEL_9_INJ           ((LL_ADC_CHANNEL_9  & ADC_CHANNEL_ID_MASK) | ADC_CFGR_JA
1286:Drivers/STM32G4xx_HAL_Driver/Inc/stm32g4xx_ll_adc.h **** #define LL_ADC_AWD_CHANNEL_9_REG_INJ       ((LL_ADC_CHANNEL_9  & ADC_CHANNEL_ID_MASK) | ADC_CFGR_JA
1287:Drivers/STM32G4xx_HAL_Driver/Inc/stm32g4xx_ll_adc.h **** #define LL_ADC_AWD_CHANNEL_10_REG          ((LL_ADC_CHANNEL_10 & ADC_CHANNEL_ID_MASK)              
1288:Drivers/STM32G4xx_HAL_Driver/Inc/stm32g4xx_ll_adc.h **** #define LL_ADC_AWD_CHANNEL_10_INJ          ((LL_ADC_CHANNEL_10 & ADC_CHANNEL_ID_MASK) | ADC_CFGR_JA
1289:Drivers/STM32G4xx_HAL_Driver/Inc/stm32g4xx_ll_adc.h **** #define LL_ADC_AWD_CHANNEL_10_REG_INJ      ((LL_ADC_CHANNEL_10 & ADC_CHANNEL_ID_MASK) | ADC_CFGR_JA
1290:Drivers/STM32G4xx_HAL_Driver/Inc/stm32g4xx_ll_adc.h **** #define LL_ADC_AWD_CHANNEL_11_REG          ((LL_ADC_CHANNEL_11 & ADC_CHANNEL_ID_MASK)              
1291:Drivers/STM32G4xx_HAL_Driver/Inc/stm32g4xx_ll_adc.h **** #define LL_ADC_AWD_CHANNEL_11_INJ          ((LL_ADC_CHANNEL_11 & ADC_CHANNEL_ID_MASK) | ADC_CFGR_JA
1292:Drivers/STM32G4xx_HAL_Driver/Inc/stm32g4xx_ll_adc.h **** #define LL_ADC_AWD_CHANNEL_11_REG_INJ      ((LL_ADC_CHANNEL_11 & ADC_CHANNEL_ID_MASK) | ADC_CFGR_JA
1293:Drivers/STM32G4xx_HAL_Driver/Inc/stm32g4xx_ll_adc.h **** #define LL_ADC_AWD_CHANNEL_12_REG          ((LL_ADC_CHANNEL_12 & ADC_CHANNEL_ID_MASK)              
1294:Drivers/STM32G4xx_HAL_Driver/Inc/stm32g4xx_ll_adc.h **** #define LL_ADC_AWD_CHANNEL_12_INJ          ((LL_ADC_CHANNEL_12 & ADC_CHANNEL_ID_MASK) | ADC_CFGR_JA
1295:Drivers/STM32G4xx_HAL_Driver/Inc/stm32g4xx_ll_adc.h **** #define LL_ADC_AWD_CHANNEL_12_REG_INJ      ((LL_ADC_CHANNEL_12 & ADC_CHANNEL_ID_MASK) | ADC_CFGR_JA
1296:Drivers/STM32G4xx_HAL_Driver/Inc/stm32g4xx_ll_adc.h **** #define LL_ADC_AWD_CHANNEL_13_REG          ((LL_ADC_CHANNEL_13 & ADC_CHANNEL_ID_MASK)              
1297:Drivers/STM32G4xx_HAL_Driver/Inc/stm32g4xx_ll_adc.h **** #define LL_ADC_AWD_CHANNEL_13_INJ          ((LL_ADC_CHANNEL_13 & ADC_CHANNEL_ID_MASK) | ADC_CFGR_JA
1298:Drivers/STM32G4xx_HAL_Driver/Inc/stm32g4xx_ll_adc.h **** #define LL_ADC_AWD_CHANNEL_13_REG_INJ      ((LL_ADC_CHANNEL_13 & ADC_CHANNEL_ID_MASK) | ADC_CFGR_JA
1299:Drivers/STM32G4xx_HAL_Driver/Inc/stm32g4xx_ll_adc.h **** #define LL_ADC_AWD_CHANNEL_14_REG          ((LL_ADC_CHANNEL_14 & ADC_CHANNEL_ID_MASK)              
1300:Drivers/STM32G4xx_HAL_Driver/Inc/stm32g4xx_ll_adc.h **** #define LL_ADC_AWD_CHANNEL_14_INJ          ((LL_ADC_CHANNEL_14 & ADC_CHANNEL_ID_MASK) | ADC_CFGR_JA
1301:Drivers/STM32G4xx_HAL_Driver/Inc/stm32g4xx_ll_adc.h **** #define LL_ADC_AWD_CHANNEL_14_REG_INJ      ((LL_ADC_CHANNEL_14 & ADC_CHANNEL_ID_MASK) | ADC_CFGR_JA
1302:Drivers/STM32G4xx_HAL_Driver/Inc/stm32g4xx_ll_adc.h **** #define LL_ADC_AWD_CHANNEL_15_REG          ((LL_ADC_CHANNEL_15 & ADC_CHANNEL_ID_MASK)              
1303:Drivers/STM32G4xx_HAL_Driver/Inc/stm32g4xx_ll_adc.h **** #define LL_ADC_AWD_CHANNEL_15_INJ          ((LL_ADC_CHANNEL_15 & ADC_CHANNEL_ID_MASK) | ADC_CFGR_JA
1304:Drivers/STM32G4xx_HAL_Driver/Inc/stm32g4xx_ll_adc.h **** #define LL_ADC_AWD_CHANNEL_15_REG_INJ      ((LL_ADC_CHANNEL_15 & ADC_CHANNEL_ID_MASK) | ADC_CFGR_JA
1305:Drivers/STM32G4xx_HAL_Driver/Inc/stm32g4xx_ll_adc.h **** #define LL_ADC_AWD_CHANNEL_16_REG          ((LL_ADC_CHANNEL_16 & ADC_CHANNEL_ID_MASK)              
1306:Drivers/STM32G4xx_HAL_Driver/Inc/stm32g4xx_ll_adc.h **** #define LL_ADC_AWD_CHANNEL_16_INJ          ((LL_ADC_CHANNEL_16 & ADC_CHANNEL_ID_MASK) | ADC_CFGR_JA
1307:Drivers/STM32G4xx_HAL_Driver/Inc/stm32g4xx_ll_adc.h **** #define LL_ADC_AWD_CHANNEL_16_REG_INJ      ((LL_ADC_CHANNEL_16 & ADC_CHANNEL_ID_MASK) | ADC_CFGR_JA
1308:Drivers/STM32G4xx_HAL_Driver/Inc/stm32g4xx_ll_adc.h **** #define LL_ADC_AWD_CHANNEL_17_REG          ((LL_ADC_CHANNEL_17 & ADC_CHANNEL_ID_MASK)              
1309:Drivers/STM32G4xx_HAL_Driver/Inc/stm32g4xx_ll_adc.h **** #define LL_ADC_AWD_CHANNEL_17_INJ          ((LL_ADC_CHANNEL_17 & ADC_CHANNEL_ID_MASK) | ADC_CFGR_JA
1310:Drivers/STM32G4xx_HAL_Driver/Inc/stm32g4xx_ll_adc.h **** #define LL_ADC_AWD_CHANNEL_17_REG_INJ      ((LL_ADC_CHANNEL_17 & ADC_CHANNEL_ID_MASK) | ADC_CFGR_JA
1311:Drivers/STM32G4xx_HAL_Driver/Inc/stm32g4xx_ll_adc.h **** #define LL_ADC_AWD_CHANNEL_18_REG          ((LL_ADC_CHANNEL_18 & ADC_CHANNEL_ID_MASK)              
1312:Drivers/STM32G4xx_HAL_Driver/Inc/stm32g4xx_ll_adc.h **** #define LL_ADC_AWD_CHANNEL_18_INJ          ((LL_ADC_CHANNEL_18 & ADC_CHANNEL_ID_MASK) | ADC_CFGR_JA
1313:Drivers/STM32G4xx_HAL_Driver/Inc/stm32g4xx_ll_adc.h **** #define LL_ADC_AWD_CHANNEL_18_REG_INJ      ((LL_ADC_CHANNEL_18 & ADC_CHANNEL_ID_MASK) | ADC_CFGR_JA
1314:Drivers/STM32G4xx_HAL_Driver/Inc/stm32g4xx_ll_adc.h **** #define LL_ADC_AWD_CH_VREFINT_REG          ((LL_ADC_CHANNEL_VREFINT       & ADC_CHANNEL_ID_MASK)   
1315:Drivers/STM32G4xx_HAL_Driver/Inc/stm32g4xx_ll_adc.h **** #define LL_ADC_AWD_CH_VREFINT_INJ          ((LL_ADC_CHANNEL_VREFINT       & ADC_CHANNEL_ID_MASK) | 
1316:Drivers/STM32G4xx_HAL_Driver/Inc/stm32g4xx_ll_adc.h **** #define LL_ADC_AWD_CH_VREFINT_REG_INJ      ((LL_ADC_CHANNEL_VREFINT       & ADC_CHANNEL_ID_MASK) | 
1317:Drivers/STM32G4xx_HAL_Driver/Inc/stm32g4xx_ll_adc.h **** #define LL_ADC_AWD_CH_TEMPSENSOR_ADC1_REG       ((LL_ADC_CHANNEL_TEMPSENSOR_ADC1 & ADC_CHANNEL_ID_M
1318:Drivers/STM32G4xx_HAL_Driver/Inc/stm32g4xx_ll_adc.h **** #define LL_ADC_AWD_CH_TEMPSENSOR_ADC1_INJ       ((LL_ADC_CHANNEL_TEMPSENSOR_ADC1 & ADC_CHANNEL_ID_M
1319:Drivers/STM32G4xx_HAL_Driver/Inc/stm32g4xx_ll_adc.h **** #define LL_ADC_AWD_CH_TEMPSENSOR_ADC1_REG_INJ   ((LL_ADC_CHANNEL_TEMPSENSOR_ADC1 & ADC_CHANNEL_ID_M
1320:Drivers/STM32G4xx_HAL_Driver/Inc/stm32g4xx_ll_adc.h **** #define LL_ADC_AWD_CH_TEMPSENSOR_ADC5_REG       ((LL_ADC_CHANNEL_TEMPSENSOR_ADC5 & ADC_CHANNEL_ID_M
1321:Drivers/STM32G4xx_HAL_Driver/Inc/stm32g4xx_ll_adc.h **** #define LL_ADC_AWD_CH_TEMPSENSOR_ADC5_INJ       ((LL_ADC_CHANNEL_TEMPSENSOR_ADC5 & ADC_CHANNEL_ID_M
1322:Drivers/STM32G4xx_HAL_Driver/Inc/stm32g4xx_ll_adc.h **** #define LL_ADC_AWD_CH_TEMPSENSOR_ADC5_REG_INJ   ((LL_ADC_CHANNEL_TEMPSENSOR_ADC5 & ADC_CHANNEL_ID_M
1323:Drivers/STM32G4xx_HAL_Driver/Inc/stm32g4xx_ll_adc.h **** #define LL_ADC_AWD_CH_VBAT_REG             ((LL_ADC_CHANNEL_VBAT          & ADC_CHANNEL_ID_MASK)   
1324:Drivers/STM32G4xx_HAL_Driver/Inc/stm32g4xx_ll_adc.h **** #define LL_ADC_AWD_CH_VBAT_INJ             ((LL_ADC_CHANNEL_VBAT          & ADC_CHANNEL_ID_MASK) | 
1325:Drivers/STM32G4xx_HAL_Driver/Inc/stm32g4xx_ll_adc.h **** #define LL_ADC_AWD_CH_VBAT_REG_INJ         ((LL_ADC_CHANNEL_VBAT          & ADC_CHANNEL_ID_MASK) | 
1326:Drivers/STM32G4xx_HAL_Driver/Inc/stm32g4xx_ll_adc.h **** #define LL_ADC_AWD_CH_VOPAMP1_REG          ((LL_ADC_CHANNEL_VOPAMP1       & ADC_CHANNEL_ID_MASK)   
1327:Drivers/STM32G4xx_HAL_Driver/Inc/stm32g4xx_ll_adc.h **** #define LL_ADC_AWD_CH_VOPAMP1_INJ          ((LL_ADC_CHANNEL_VOPAMP1       & ADC_CHANNEL_ID_MASK) | 
1328:Drivers/STM32G4xx_HAL_Driver/Inc/stm32g4xx_ll_adc.h **** #define LL_ADC_AWD_CH_VOPAMP1_REG_INJ      ((LL_ADC_CHANNEL_VOPAMP1       & ADC_CHANNEL_ID_MASK) | 
1329:Drivers/STM32G4xx_HAL_Driver/Inc/stm32g4xx_ll_adc.h **** #define LL_ADC_AWD_CH_VOPAMP2_REG          ((LL_ADC_CHANNEL_VOPAMP2       & ADC_CHANNEL_ID_MASK)   
1330:Drivers/STM32G4xx_HAL_Driver/Inc/stm32g4xx_ll_adc.h **** #define LL_ADC_AWD_CH_VOPAMP2_INJ          ((LL_ADC_CHANNEL_VOPAMP2       & ADC_CHANNEL_ID_MASK) | 
ARM GAS  /tmp/ccnaDHIW.s 			page 29


1331:Drivers/STM32G4xx_HAL_Driver/Inc/stm32g4xx_ll_adc.h **** #define LL_ADC_AWD_CH_VOPAMP2_REG_INJ      ((LL_ADC_CHANNEL_VOPAMP2       & ADC_CHANNEL_ID_MASK) | 
1332:Drivers/STM32G4xx_HAL_Driver/Inc/stm32g4xx_ll_adc.h **** #define LL_ADC_AWD_CH_VOPAMP3_ADC2_REG     ((LL_ADC_CHANNEL_VOPAMP3_ADC2  & ADC_CHANNEL_ID_MASK)   
1333:Drivers/STM32G4xx_HAL_Driver/Inc/stm32g4xx_ll_adc.h **** #define LL_ADC_AWD_CH_VOPAMP3_ADC2_INJ     ((LL_ADC_CHANNEL_VOPAMP3_ADC2  & ADC_CHANNEL_ID_MASK) | 
1334:Drivers/STM32G4xx_HAL_Driver/Inc/stm32g4xx_ll_adc.h **** #define LL_ADC_AWD_CH_VOPAMP3_ADC2_REG_INJ ((LL_ADC_CHANNEL_VOPAMP3_ADC2  & ADC_CHANNEL_ID_MASK) | 
1335:Drivers/STM32G4xx_HAL_Driver/Inc/stm32g4xx_ll_adc.h **** #define LL_ADC_AWD_CH_VOPAMP3_ADC3_REG     ((LL_ADC_CHANNEL_VOPAMP3_ADC3  & ADC_CHANNEL_ID_MASK)   
1336:Drivers/STM32G4xx_HAL_Driver/Inc/stm32g4xx_ll_adc.h **** #define LL_ADC_AWD_CH_VOPAMP3_ADC3_INJ     ((LL_ADC_CHANNEL_VOPAMP3_ADC3  & ADC_CHANNEL_ID_MASK) | 
1337:Drivers/STM32G4xx_HAL_Driver/Inc/stm32g4xx_ll_adc.h **** #define LL_ADC_AWD_CH_VOPAMP3_ADC3_REG_INJ ((LL_ADC_CHANNEL_VOPAMP3_ADC3  & ADC_CHANNEL_ID_MASK) | 
1338:Drivers/STM32G4xx_HAL_Driver/Inc/stm32g4xx_ll_adc.h **** #define LL_ADC_AWD_CH_VOPAMP4_REG          ((LL_ADC_CHANNEL_VOPAMP4       & ADC_CHANNEL_ID_MASK)   
1339:Drivers/STM32G4xx_HAL_Driver/Inc/stm32g4xx_ll_adc.h **** #define LL_ADC_AWD_CH_VOPAMP4_INJ          ((LL_ADC_CHANNEL_VOPAMP4       & ADC_CHANNEL_ID_MASK) | 
1340:Drivers/STM32G4xx_HAL_Driver/Inc/stm32g4xx_ll_adc.h **** #define LL_ADC_AWD_CH_VOPAMP4_REG_INJ      ((LL_ADC_CHANNEL_VOPAMP4       & ADC_CHANNEL_ID_MASK) | 
1341:Drivers/STM32G4xx_HAL_Driver/Inc/stm32g4xx_ll_adc.h **** #define LL_ADC_AWD_CH_VOPAMP5_REG          ((LL_ADC_CHANNEL_VOPAMP5       & ADC_CHANNEL_ID_MASK)   
1342:Drivers/STM32G4xx_HAL_Driver/Inc/stm32g4xx_ll_adc.h **** #define LL_ADC_AWD_CH_VOPAMP5_INJ          ((LL_ADC_CHANNEL_VOPAMP5       & ADC_CHANNEL_ID_MASK) | 
1343:Drivers/STM32G4xx_HAL_Driver/Inc/stm32g4xx_ll_adc.h **** #define LL_ADC_AWD_CH_VOPAMP5_REG_INJ      ((LL_ADC_CHANNEL_VOPAMP5       & ADC_CHANNEL_ID_MASK) | 
1344:Drivers/STM32G4xx_HAL_Driver/Inc/stm32g4xx_ll_adc.h **** #define LL_ADC_AWD_CH_VOPAMP6_REG          ((LL_ADC_CHANNEL_VOPAMP6       & ADC_CHANNEL_ID_MASK)   
1345:Drivers/STM32G4xx_HAL_Driver/Inc/stm32g4xx_ll_adc.h **** #define LL_ADC_AWD_CH_VOPAMP6_INJ          ((LL_ADC_CHANNEL_VOPAMP6       & ADC_CHANNEL_ID_MASK) | 
1346:Drivers/STM32G4xx_HAL_Driver/Inc/stm32g4xx_ll_adc.h **** #define LL_ADC_AWD_CH_VOPAMP6_REG_INJ      ((LL_ADC_CHANNEL_VOPAMP6       & ADC_CHANNEL_ID_MASK) | 
1347:Drivers/STM32G4xx_HAL_Driver/Inc/stm32g4xx_ll_adc.h **** /**
1348:Drivers/STM32G4xx_HAL_Driver/Inc/stm32g4xx_ll_adc.h ****   * @}
1349:Drivers/STM32G4xx_HAL_Driver/Inc/stm32g4xx_ll_adc.h ****   */
1350:Drivers/STM32G4xx_HAL_Driver/Inc/stm32g4xx_ll_adc.h **** 
1351:Drivers/STM32G4xx_HAL_Driver/Inc/stm32g4xx_ll_adc.h **** /** @defgroup ADC_LL_EC_AWD_THRESHOLDS  Analog watchdog - Thresholds
1352:Drivers/STM32G4xx_HAL_Driver/Inc/stm32g4xx_ll_adc.h ****   * @{
1353:Drivers/STM32G4xx_HAL_Driver/Inc/stm32g4xx_ll_adc.h ****   */
1354:Drivers/STM32G4xx_HAL_Driver/Inc/stm32g4xx_ll_adc.h **** #define LL_ADC_AWD_THRESHOLD_HIGH          (ADC_TR1_HT1              ) /*!< ADC analog watchdog thr
1355:Drivers/STM32G4xx_HAL_Driver/Inc/stm32g4xx_ll_adc.h **** #define LL_ADC_AWD_THRESHOLD_LOW           (              ADC_TR1_LT1) /*!< ADC analog watchdog thr
1356:Drivers/STM32G4xx_HAL_Driver/Inc/stm32g4xx_ll_adc.h **** #define LL_ADC_AWD_THRESHOLDS_HIGH_LOW     (ADC_TR1_HT1 | ADC_TR1_LT1) /*!< ADC analog watchdog bot
1357:Drivers/STM32G4xx_HAL_Driver/Inc/stm32g4xx_ll_adc.h **** /**
1358:Drivers/STM32G4xx_HAL_Driver/Inc/stm32g4xx_ll_adc.h ****   * @}
1359:Drivers/STM32G4xx_HAL_Driver/Inc/stm32g4xx_ll_adc.h ****   */
1360:Drivers/STM32G4xx_HAL_Driver/Inc/stm32g4xx_ll_adc.h **** 
1361:Drivers/STM32G4xx_HAL_Driver/Inc/stm32g4xx_ll_adc.h **** /** @defgroup ADC_LL_EC_AWD_FILTERING_CONFIG  Analog watchdog - filtering config
1362:Drivers/STM32G4xx_HAL_Driver/Inc/stm32g4xx_ll_adc.h ****   * @{
1363:Drivers/STM32G4xx_HAL_Driver/Inc/stm32g4xx_ll_adc.h ****   */
1364:Drivers/STM32G4xx_HAL_Driver/Inc/stm32g4xx_ll_adc.h **** #define LL_ADC_AWD_FILTERING_NONE          (0x00000000UL)                                          
1365:Drivers/STM32G4xx_HAL_Driver/Inc/stm32g4xx_ll_adc.h **** #define LL_ADC_AWD_FILTERING_2SAMPLES      (                                        ADC_TR1_AWDFILT
1366:Drivers/STM32G4xx_HAL_Driver/Inc/stm32g4xx_ll_adc.h **** #define LL_ADC_AWD_FILTERING_3SAMPLES      (                    ADC_TR1_AWDFILT_1                  
1367:Drivers/STM32G4xx_HAL_Driver/Inc/stm32g4xx_ll_adc.h **** #define LL_ADC_AWD_FILTERING_4SAMPLES      (                    ADC_TR1_AWDFILT_1 | ADC_TR1_AWDFILT
1368:Drivers/STM32G4xx_HAL_Driver/Inc/stm32g4xx_ll_adc.h **** #define LL_ADC_AWD_FILTERING_5SAMPLES      (ADC_TR1_AWDFILT_2                                      
1369:Drivers/STM32G4xx_HAL_Driver/Inc/stm32g4xx_ll_adc.h **** #define LL_ADC_AWD_FILTERING_6SAMPLES      (ADC_TR1_AWDFILT_2 |                     ADC_TR1_AWDFILT
1370:Drivers/STM32G4xx_HAL_Driver/Inc/stm32g4xx_ll_adc.h **** #define LL_ADC_AWD_FILTERING_7SAMPLES      (ADC_TR1_AWDFILT_2 | ADC_TR1_AWDFILT_1                  
1371:Drivers/STM32G4xx_HAL_Driver/Inc/stm32g4xx_ll_adc.h **** #define LL_ADC_AWD_FILTERING_8SAMPLES      (ADC_TR1_AWDFILT_2 | ADC_TR1_AWDFILT_1 | ADC_TR1_AWDFILT
1372:Drivers/STM32G4xx_HAL_Driver/Inc/stm32g4xx_ll_adc.h **** /**
1373:Drivers/STM32G4xx_HAL_Driver/Inc/stm32g4xx_ll_adc.h ****   * @}
1374:Drivers/STM32G4xx_HAL_Driver/Inc/stm32g4xx_ll_adc.h ****   */
1375:Drivers/STM32G4xx_HAL_Driver/Inc/stm32g4xx_ll_adc.h **** 
1376:Drivers/STM32G4xx_HAL_Driver/Inc/stm32g4xx_ll_adc.h **** /** @defgroup ADC_LL_EC_OVS_SCOPE  Oversampling - Oversampling scope
1377:Drivers/STM32G4xx_HAL_Driver/Inc/stm32g4xx_ll_adc.h ****   * @{
1378:Drivers/STM32G4xx_HAL_Driver/Inc/stm32g4xx_ll_adc.h ****   */
1379:Drivers/STM32G4xx_HAL_Driver/Inc/stm32g4xx_ll_adc.h **** #define LL_ADC_OVS_DISABLE                 (0x00000000UL)                                        /*
1380:Drivers/STM32G4xx_HAL_Driver/Inc/stm32g4xx_ll_adc.h **** #define LL_ADC_OVS_GRP_REGULAR_CONTINUED   (                                    ADC_CFGR2_ROVSE) /*
1381:Drivers/STM32G4xx_HAL_Driver/Inc/stm32g4xx_ll_adc.h **** #define LL_ADC_OVS_GRP_REGULAR_RESUMED     (ADC_CFGR2_ROVSM |                   ADC_CFGR2_ROVSE) /*
1382:Drivers/STM32G4xx_HAL_Driver/Inc/stm32g4xx_ll_adc.h **** #define LL_ADC_OVS_GRP_INJECTED            (                  ADC_CFGR2_JOVSE                  ) /*
1383:Drivers/STM32G4xx_HAL_Driver/Inc/stm32g4xx_ll_adc.h **** #define LL_ADC_OVS_GRP_INJ_REG_RESUMED     (                  ADC_CFGR2_JOVSE | ADC_CFGR2_ROVSE) /*
1384:Drivers/STM32G4xx_HAL_Driver/Inc/stm32g4xx_ll_adc.h **** /**
1385:Drivers/STM32G4xx_HAL_Driver/Inc/stm32g4xx_ll_adc.h ****   * @}
1386:Drivers/STM32G4xx_HAL_Driver/Inc/stm32g4xx_ll_adc.h ****   */
1387:Drivers/STM32G4xx_HAL_Driver/Inc/stm32g4xx_ll_adc.h **** 
ARM GAS  /tmp/ccnaDHIW.s 			page 30


1388:Drivers/STM32G4xx_HAL_Driver/Inc/stm32g4xx_ll_adc.h **** /** @defgroup ADC_LL_EC_OVS_DISCONT_MODE  Oversampling - Discontinuous mode
1389:Drivers/STM32G4xx_HAL_Driver/Inc/stm32g4xx_ll_adc.h ****   * @{
1390:Drivers/STM32G4xx_HAL_Driver/Inc/stm32g4xx_ll_adc.h ****   */
1391:Drivers/STM32G4xx_HAL_Driver/Inc/stm32g4xx_ll_adc.h **** #define LL_ADC_OVS_REG_CONT                (0x00000000UL)         /*!< ADC oversampling discontinuo
1392:Drivers/STM32G4xx_HAL_Driver/Inc/stm32g4xx_ll_adc.h **** #define LL_ADC_OVS_REG_DISCONT             (ADC_CFGR2_TROVS)      /*!< ADC oversampling discontinuo
1393:Drivers/STM32G4xx_HAL_Driver/Inc/stm32g4xx_ll_adc.h **** /**
1394:Drivers/STM32G4xx_HAL_Driver/Inc/stm32g4xx_ll_adc.h ****   * @}
1395:Drivers/STM32G4xx_HAL_Driver/Inc/stm32g4xx_ll_adc.h ****   */
1396:Drivers/STM32G4xx_HAL_Driver/Inc/stm32g4xx_ll_adc.h **** 
1397:Drivers/STM32G4xx_HAL_Driver/Inc/stm32g4xx_ll_adc.h **** /** @defgroup ADC_LL_EC_OVS_RATIO  Oversampling - Ratio
1398:Drivers/STM32G4xx_HAL_Driver/Inc/stm32g4xx_ll_adc.h ****   * @{
1399:Drivers/STM32G4xx_HAL_Driver/Inc/stm32g4xx_ll_adc.h ****   */
1400:Drivers/STM32G4xx_HAL_Driver/Inc/stm32g4xx_ll_adc.h **** #define LL_ADC_OVS_RATIO_2                 (0x00000000UL)                                          
1401:Drivers/STM32G4xx_HAL_Driver/Inc/stm32g4xx_ll_adc.h **** #define LL_ADC_OVS_RATIO_4                 (                                      ADC_CFGR2_OVSR_0)
1402:Drivers/STM32G4xx_HAL_Driver/Inc/stm32g4xx_ll_adc.h **** #define LL_ADC_OVS_RATIO_8                 (                   ADC_CFGR2_OVSR_1                   )
1403:Drivers/STM32G4xx_HAL_Driver/Inc/stm32g4xx_ll_adc.h **** #define LL_ADC_OVS_RATIO_16                (                   ADC_CFGR2_OVSR_1 | ADC_CFGR2_OVSR_0)
1404:Drivers/STM32G4xx_HAL_Driver/Inc/stm32g4xx_ll_adc.h **** #define LL_ADC_OVS_RATIO_32                (ADC_CFGR2_OVSR_2                                      )
1405:Drivers/STM32G4xx_HAL_Driver/Inc/stm32g4xx_ll_adc.h **** #define LL_ADC_OVS_RATIO_64                (ADC_CFGR2_OVSR_2                    | ADC_CFGR2_OVSR_0)
1406:Drivers/STM32G4xx_HAL_Driver/Inc/stm32g4xx_ll_adc.h **** #define LL_ADC_OVS_RATIO_128               (ADC_CFGR2_OVSR_2 | ADC_CFGR2_OVSR_1                   )
1407:Drivers/STM32G4xx_HAL_Driver/Inc/stm32g4xx_ll_adc.h **** #define LL_ADC_OVS_RATIO_256               (ADC_CFGR2_OVSR_2 | ADC_CFGR2_OVSR_1 | ADC_CFGR2_OVSR_0)
1408:Drivers/STM32G4xx_HAL_Driver/Inc/stm32g4xx_ll_adc.h **** /**
1409:Drivers/STM32G4xx_HAL_Driver/Inc/stm32g4xx_ll_adc.h ****   * @}
1410:Drivers/STM32G4xx_HAL_Driver/Inc/stm32g4xx_ll_adc.h ****   */
1411:Drivers/STM32G4xx_HAL_Driver/Inc/stm32g4xx_ll_adc.h **** 
1412:Drivers/STM32G4xx_HAL_Driver/Inc/stm32g4xx_ll_adc.h **** /** @defgroup ADC_LL_EC_OVS_SHIFT  Oversampling - Data shift
1413:Drivers/STM32G4xx_HAL_Driver/Inc/stm32g4xx_ll_adc.h ****   * @{
1414:Drivers/STM32G4xx_HAL_Driver/Inc/stm32g4xx_ll_adc.h ****   */
1415:Drivers/STM32G4xx_HAL_Driver/Inc/stm32g4xx_ll_adc.h **** #define LL_ADC_OVS_SHIFT_NONE              (0x00000000UL)                                          
1416:Drivers/STM32G4xx_HAL_Driver/Inc/stm32g4xx_ll_adc.h **** #define LL_ADC_OVS_SHIFT_RIGHT_1           (                                                       
1417:Drivers/STM32G4xx_HAL_Driver/Inc/stm32g4xx_ll_adc.h **** #define LL_ADC_OVS_SHIFT_RIGHT_2           (                                      ADC_CFGR2_OVSS_1 
1418:Drivers/STM32G4xx_HAL_Driver/Inc/stm32g4xx_ll_adc.h **** #define LL_ADC_OVS_SHIFT_RIGHT_3           (                                      ADC_CFGR2_OVSS_1 
1419:Drivers/STM32G4xx_HAL_Driver/Inc/stm32g4xx_ll_adc.h **** #define LL_ADC_OVS_SHIFT_RIGHT_4           (                   ADC_CFGR2_OVSS_2                    
1420:Drivers/STM32G4xx_HAL_Driver/Inc/stm32g4xx_ll_adc.h **** #define LL_ADC_OVS_SHIFT_RIGHT_5           (                   ADC_CFGR2_OVSS_2                    
1421:Drivers/STM32G4xx_HAL_Driver/Inc/stm32g4xx_ll_adc.h **** #define LL_ADC_OVS_SHIFT_RIGHT_6           (                   ADC_CFGR2_OVSS_2 | ADC_CFGR2_OVSS_1 
1422:Drivers/STM32G4xx_HAL_Driver/Inc/stm32g4xx_ll_adc.h **** #define LL_ADC_OVS_SHIFT_RIGHT_7           (                   ADC_CFGR2_OVSS_2 | ADC_CFGR2_OVSS_1 
1423:Drivers/STM32G4xx_HAL_Driver/Inc/stm32g4xx_ll_adc.h **** #define LL_ADC_OVS_SHIFT_RIGHT_8           (ADC_CFGR2_OVSS_3                                       
1424:Drivers/STM32G4xx_HAL_Driver/Inc/stm32g4xx_ll_adc.h **** /**
1425:Drivers/STM32G4xx_HAL_Driver/Inc/stm32g4xx_ll_adc.h ****   * @}
1426:Drivers/STM32G4xx_HAL_Driver/Inc/stm32g4xx_ll_adc.h ****   */
1427:Drivers/STM32G4xx_HAL_Driver/Inc/stm32g4xx_ll_adc.h **** 
1428:Drivers/STM32G4xx_HAL_Driver/Inc/stm32g4xx_ll_adc.h **** #if defined(ADC_MULTIMODE_SUPPORT)
1429:Drivers/STM32G4xx_HAL_Driver/Inc/stm32g4xx_ll_adc.h **** /** @defgroup ADC_LL_EC_MULTI_MODE  Multimode - Mode
1430:Drivers/STM32G4xx_HAL_Driver/Inc/stm32g4xx_ll_adc.h ****   * @{
1431:Drivers/STM32G4xx_HAL_Driver/Inc/stm32g4xx_ll_adc.h ****   */
1432:Drivers/STM32G4xx_HAL_Driver/Inc/stm32g4xx_ll_adc.h **** #define LL_ADC_MULTI_INDEPENDENT           (0x00000000UL)                                          
1433:Drivers/STM32G4xx_HAL_Driver/Inc/stm32g4xx_ll_adc.h **** #define LL_ADC_MULTI_DUAL_REG_SIMULT       (                 ADC_CCR_DUAL_2 | ADC_CCR_DUAL_1       
1434:Drivers/STM32G4xx_HAL_Driver/Inc/stm32g4xx_ll_adc.h **** #define LL_ADC_MULTI_DUAL_REG_INTERL       (                 ADC_CCR_DUAL_2 | ADC_CCR_DUAL_1 | ADC_
1435:Drivers/STM32G4xx_HAL_Driver/Inc/stm32g4xx_ll_adc.h **** #define LL_ADC_MULTI_DUAL_INJ_SIMULT       (                 ADC_CCR_DUAL_2                  | ADC_
1436:Drivers/STM32G4xx_HAL_Driver/Inc/stm32g4xx_ll_adc.h **** #define LL_ADC_MULTI_DUAL_INJ_ALTERN       (ADC_CCR_DUAL_3                                   | ADC_
1437:Drivers/STM32G4xx_HAL_Driver/Inc/stm32g4xx_ll_adc.h **** #define LL_ADC_MULTI_DUAL_REG_SIM_INJ_SIM  (                                                   ADC_
1438:Drivers/STM32G4xx_HAL_Driver/Inc/stm32g4xx_ll_adc.h **** #define LL_ADC_MULTI_DUAL_REG_SIM_INJ_ALT  (                                  ADC_CCR_DUAL_1       
1439:Drivers/STM32G4xx_HAL_Driver/Inc/stm32g4xx_ll_adc.h **** #define LL_ADC_MULTI_DUAL_REG_INT_INJ_SIM  (                                  ADC_CCR_DUAL_1 | ADC_
1440:Drivers/STM32G4xx_HAL_Driver/Inc/stm32g4xx_ll_adc.h **** /**
1441:Drivers/STM32G4xx_HAL_Driver/Inc/stm32g4xx_ll_adc.h ****   * @}
1442:Drivers/STM32G4xx_HAL_Driver/Inc/stm32g4xx_ll_adc.h ****   */
1443:Drivers/STM32G4xx_HAL_Driver/Inc/stm32g4xx_ll_adc.h **** 
1444:Drivers/STM32G4xx_HAL_Driver/Inc/stm32g4xx_ll_adc.h **** /** @defgroup ADC_LL_EC_MULTI_DMA_TRANSFER  Multimode - DMA transfer
ARM GAS  /tmp/ccnaDHIW.s 			page 31


1445:Drivers/STM32G4xx_HAL_Driver/Inc/stm32g4xx_ll_adc.h ****   * @{
1446:Drivers/STM32G4xx_HAL_Driver/Inc/stm32g4xx_ll_adc.h ****   */
1447:Drivers/STM32G4xx_HAL_Driver/Inc/stm32g4xx_ll_adc.h **** #define LL_ADC_MULTI_REG_DMA_EACH_ADC        (0x00000000UL)                                     /*!
1448:Drivers/STM32G4xx_HAL_Driver/Inc/stm32g4xx_ll_adc.h **** #define LL_ADC_MULTI_REG_DMA_LIMIT_RES12_10B (                 ADC_CCR_MDMA_1                 ) /*!
1449:Drivers/STM32G4xx_HAL_Driver/Inc/stm32g4xx_ll_adc.h **** #define LL_ADC_MULTI_REG_DMA_LIMIT_RES8_6B   (                 ADC_CCR_MDMA_1 | ADC_CCR_MDMA_0) /*!
1450:Drivers/STM32G4xx_HAL_Driver/Inc/stm32g4xx_ll_adc.h **** #define LL_ADC_MULTI_REG_DMA_UNLMT_RES12_10B (ADC_CCR_DMACFG | ADC_CCR_MDMA_1                 ) /*!
1451:Drivers/STM32G4xx_HAL_Driver/Inc/stm32g4xx_ll_adc.h **** #define LL_ADC_MULTI_REG_DMA_UNLMT_RES8_6B   (ADC_CCR_DMACFG | ADC_CCR_MDMA_1 | ADC_CCR_MDMA_0) /*!
1452:Drivers/STM32G4xx_HAL_Driver/Inc/stm32g4xx_ll_adc.h **** /**
1453:Drivers/STM32G4xx_HAL_Driver/Inc/stm32g4xx_ll_adc.h ****   * @}
1454:Drivers/STM32G4xx_HAL_Driver/Inc/stm32g4xx_ll_adc.h ****   */
1455:Drivers/STM32G4xx_HAL_Driver/Inc/stm32g4xx_ll_adc.h **** 
1456:Drivers/STM32G4xx_HAL_Driver/Inc/stm32g4xx_ll_adc.h **** /** @defgroup ADC_LL_EC_MULTI_TWOSMP_DELAY  Multimode - Delay between two sampling phases
1457:Drivers/STM32G4xx_HAL_Driver/Inc/stm32g4xx_ll_adc.h ****   * @{
1458:Drivers/STM32G4xx_HAL_Driver/Inc/stm32g4xx_ll_adc.h ****   */
1459:Drivers/STM32G4xx_HAL_Driver/Inc/stm32g4xx_ll_adc.h **** #define LL_ADC_MULTI_TWOSMP_DELAY_1CYCLE   (0x00000000UL)                                          
1460:Drivers/STM32G4xx_HAL_Driver/Inc/stm32g4xx_ll_adc.h **** #define LL_ADC_MULTI_TWOSMP_DELAY_2CYCLES  (                                                      A
1461:Drivers/STM32G4xx_HAL_Driver/Inc/stm32g4xx_ll_adc.h **** #define LL_ADC_MULTI_TWOSMP_DELAY_3CYCLES  (                                    ADC_CCR_DELAY_1    
1462:Drivers/STM32G4xx_HAL_Driver/Inc/stm32g4xx_ll_adc.h **** #define LL_ADC_MULTI_TWOSMP_DELAY_4CYCLES  (                                    ADC_CCR_DELAY_1 | A
1463:Drivers/STM32G4xx_HAL_Driver/Inc/stm32g4xx_ll_adc.h **** #define LL_ADC_MULTI_TWOSMP_DELAY_5CYCLES  (                  ADC_CCR_DELAY_2                      
1464:Drivers/STM32G4xx_HAL_Driver/Inc/stm32g4xx_ll_adc.h **** #define LL_ADC_MULTI_TWOSMP_DELAY_6CYCLES  (                  ADC_CCR_DELAY_2                   | A
1465:Drivers/STM32G4xx_HAL_Driver/Inc/stm32g4xx_ll_adc.h **** #define LL_ADC_MULTI_TWOSMP_DELAY_7CYCLES  (                  ADC_CCR_DELAY_2 | ADC_CCR_DELAY_1    
1466:Drivers/STM32G4xx_HAL_Driver/Inc/stm32g4xx_ll_adc.h **** #define LL_ADC_MULTI_TWOSMP_DELAY_8CYCLES  (                  ADC_CCR_DELAY_2 | ADC_CCR_DELAY_1 | A
1467:Drivers/STM32G4xx_HAL_Driver/Inc/stm32g4xx_ll_adc.h **** #define LL_ADC_MULTI_TWOSMP_DELAY_9CYCLES  (ADC_CCR_DELAY_3                                        
1468:Drivers/STM32G4xx_HAL_Driver/Inc/stm32g4xx_ll_adc.h **** #define LL_ADC_MULTI_TWOSMP_DELAY_10CYCLES (ADC_CCR_DELAY_3                                     | A
1469:Drivers/STM32G4xx_HAL_Driver/Inc/stm32g4xx_ll_adc.h **** #define LL_ADC_MULTI_TWOSMP_DELAY_11CYCLES (ADC_CCR_DELAY_3                   | ADC_CCR_DELAY_1    
1470:Drivers/STM32G4xx_HAL_Driver/Inc/stm32g4xx_ll_adc.h **** #define LL_ADC_MULTI_TWOSMP_DELAY_12CYCLES (ADC_CCR_DELAY_3                   | ADC_CCR_DELAY_1 | A
1471:Drivers/STM32G4xx_HAL_Driver/Inc/stm32g4xx_ll_adc.h **** /**
1472:Drivers/STM32G4xx_HAL_Driver/Inc/stm32g4xx_ll_adc.h ****   * @}
1473:Drivers/STM32G4xx_HAL_Driver/Inc/stm32g4xx_ll_adc.h ****   */
1474:Drivers/STM32G4xx_HAL_Driver/Inc/stm32g4xx_ll_adc.h **** 
1475:Drivers/STM32G4xx_HAL_Driver/Inc/stm32g4xx_ll_adc.h **** /** @defgroup ADC_LL_EC_MULTI_MASTER_SLAVE  Multimode - ADC master or slave
1476:Drivers/STM32G4xx_HAL_Driver/Inc/stm32g4xx_ll_adc.h ****   * @{
1477:Drivers/STM32G4xx_HAL_Driver/Inc/stm32g4xx_ll_adc.h ****   */
1478:Drivers/STM32G4xx_HAL_Driver/Inc/stm32g4xx_ll_adc.h **** #define LL_ADC_MULTI_MASTER                (                    ADC_CDR_RDATA_MST) /*!< In multimod
1479:Drivers/STM32G4xx_HAL_Driver/Inc/stm32g4xx_ll_adc.h **** #define LL_ADC_MULTI_SLAVE                 (ADC_CDR_RDATA_SLV                    ) /*!< In multimod
1480:Drivers/STM32G4xx_HAL_Driver/Inc/stm32g4xx_ll_adc.h **** #define LL_ADC_MULTI_MASTER_SLAVE          (ADC_CDR_RDATA_SLV | ADC_CDR_RDATA_MST) /*!< In multimod
1481:Drivers/STM32G4xx_HAL_Driver/Inc/stm32g4xx_ll_adc.h **** /**
1482:Drivers/STM32G4xx_HAL_Driver/Inc/stm32g4xx_ll_adc.h ****   * @}
1483:Drivers/STM32G4xx_HAL_Driver/Inc/stm32g4xx_ll_adc.h ****   */
1484:Drivers/STM32G4xx_HAL_Driver/Inc/stm32g4xx_ll_adc.h **** 
1485:Drivers/STM32G4xx_HAL_Driver/Inc/stm32g4xx_ll_adc.h **** #endif /* ADC_MULTIMODE_SUPPORT */
1486:Drivers/STM32G4xx_HAL_Driver/Inc/stm32g4xx_ll_adc.h **** 
1487:Drivers/STM32G4xx_HAL_Driver/Inc/stm32g4xx_ll_adc.h **** 
1488:Drivers/STM32G4xx_HAL_Driver/Inc/stm32g4xx_ll_adc.h **** /** @defgroup ADC_LL_EC_HW_DELAYS  Definitions of ADC hardware constraints delays
1489:Drivers/STM32G4xx_HAL_Driver/Inc/stm32g4xx_ll_adc.h ****   * @note   Only ADC peripheral HW delays are defined in ADC LL driver driver,
1490:Drivers/STM32G4xx_HAL_Driver/Inc/stm32g4xx_ll_adc.h ****   *         not timeout values.
1491:Drivers/STM32G4xx_HAL_Driver/Inc/stm32g4xx_ll_adc.h ****   *         For details on delays values, refer to descriptions in source code
1492:Drivers/STM32G4xx_HAL_Driver/Inc/stm32g4xx_ll_adc.h ****   *         above each literal definition.
1493:Drivers/STM32G4xx_HAL_Driver/Inc/stm32g4xx_ll_adc.h ****   * @{
1494:Drivers/STM32G4xx_HAL_Driver/Inc/stm32g4xx_ll_adc.h ****   */
1495:Drivers/STM32G4xx_HAL_Driver/Inc/stm32g4xx_ll_adc.h **** 
1496:Drivers/STM32G4xx_HAL_Driver/Inc/stm32g4xx_ll_adc.h **** /* Note: Only ADC peripheral HW delays are defined in ADC LL driver driver,   */
1497:Drivers/STM32G4xx_HAL_Driver/Inc/stm32g4xx_ll_adc.h **** /*       not timeout values.                                                  */
1498:Drivers/STM32G4xx_HAL_Driver/Inc/stm32g4xx_ll_adc.h **** /*       Timeout values for ADC operations are dependent to device clock      */
1499:Drivers/STM32G4xx_HAL_Driver/Inc/stm32g4xx_ll_adc.h **** /*       configuration (system clock versus ADC clock),                       */
1500:Drivers/STM32G4xx_HAL_Driver/Inc/stm32g4xx_ll_adc.h **** /*       and therefore must be defined in user application.                   */
1501:Drivers/STM32G4xx_HAL_Driver/Inc/stm32g4xx_ll_adc.h **** /*       Indications for estimation of ADC timeout delays, for this           */
ARM GAS  /tmp/ccnaDHIW.s 			page 32


1502:Drivers/STM32G4xx_HAL_Driver/Inc/stm32g4xx_ll_adc.h **** /*       STM32 series:                                                        */
1503:Drivers/STM32G4xx_HAL_Driver/Inc/stm32g4xx_ll_adc.h **** /*       - ADC calibration time: maximum delay is 112/fADC.                   */
1504:Drivers/STM32G4xx_HAL_Driver/Inc/stm32g4xx_ll_adc.h **** /*         (refer to device datasheet, parameter "tCAL")                      */
1505:Drivers/STM32G4xx_HAL_Driver/Inc/stm32g4xx_ll_adc.h **** /*       - ADC enable time: maximum delay is 1 conversion cycle.              */
1506:Drivers/STM32G4xx_HAL_Driver/Inc/stm32g4xx_ll_adc.h **** /*         (refer to device datasheet, parameter "tSTAB")                     */
1507:Drivers/STM32G4xx_HAL_Driver/Inc/stm32g4xx_ll_adc.h **** /*       - ADC disable time: maximum delay should be a few ADC clock cycles   */
1508:Drivers/STM32G4xx_HAL_Driver/Inc/stm32g4xx_ll_adc.h **** /*       - ADC stop conversion time: maximum delay should be a few ADC clock  */
1509:Drivers/STM32G4xx_HAL_Driver/Inc/stm32g4xx_ll_adc.h **** /*         cycles                                                             */
1510:Drivers/STM32G4xx_HAL_Driver/Inc/stm32g4xx_ll_adc.h **** /*       - ADC conversion time: duration depending on ADC clock and ADC       */
1511:Drivers/STM32G4xx_HAL_Driver/Inc/stm32g4xx_ll_adc.h **** /*         configuration.                                                     */
1512:Drivers/STM32G4xx_HAL_Driver/Inc/stm32g4xx_ll_adc.h **** /*         (refer to device reference manual, section "Timing")               */
1513:Drivers/STM32G4xx_HAL_Driver/Inc/stm32g4xx_ll_adc.h **** 
1514:Drivers/STM32G4xx_HAL_Driver/Inc/stm32g4xx_ll_adc.h **** /* Delay for ADC stabilization time (ADC voltage regulator start-up time)     */
1515:Drivers/STM32G4xx_HAL_Driver/Inc/stm32g4xx_ll_adc.h **** /* Delay set to maximum value (refer to device datasheet,                     */
1516:Drivers/STM32G4xx_HAL_Driver/Inc/stm32g4xx_ll_adc.h **** /* parameter "tADCVREG_STUP").                                                */
1517:Drivers/STM32G4xx_HAL_Driver/Inc/stm32g4xx_ll_adc.h **** /* Unit: us                                                                   */
1518:Drivers/STM32G4xx_HAL_Driver/Inc/stm32g4xx_ll_adc.h **** #define LL_ADC_DELAY_INTERNAL_REGUL_STAB_US ( 10UL)  /*!< Delay for ADC stabilization time (ADC vol
1519:Drivers/STM32G4xx_HAL_Driver/Inc/stm32g4xx_ll_adc.h **** 
1520:Drivers/STM32G4xx_HAL_Driver/Inc/stm32g4xx_ll_adc.h **** /* Delay for internal voltage reference stabilization time.                   */
1521:Drivers/STM32G4xx_HAL_Driver/Inc/stm32g4xx_ll_adc.h **** /* Delay set to maximum value (refer to device datasheet,                     */
1522:Drivers/STM32G4xx_HAL_Driver/Inc/stm32g4xx_ll_adc.h **** /* parameter "tstart_vrefint").                                               */
1523:Drivers/STM32G4xx_HAL_Driver/Inc/stm32g4xx_ll_adc.h **** /* Unit: us                                                                   */
1524:Drivers/STM32G4xx_HAL_Driver/Inc/stm32g4xx_ll_adc.h **** #define LL_ADC_DELAY_VREFINT_STAB_US       ( 12UL)  /*!< Delay for internal voltage reference stabi
1525:Drivers/STM32G4xx_HAL_Driver/Inc/stm32g4xx_ll_adc.h **** 
1526:Drivers/STM32G4xx_HAL_Driver/Inc/stm32g4xx_ll_adc.h **** /* Delay for temperature sensor stabilization time.                           */
1527:Drivers/STM32G4xx_HAL_Driver/Inc/stm32g4xx_ll_adc.h **** /* Literal set to maximum value (refer to device datasheet,                   */
1528:Drivers/STM32G4xx_HAL_Driver/Inc/stm32g4xx_ll_adc.h **** /* parameter "tSTART").                                                       */
1529:Drivers/STM32G4xx_HAL_Driver/Inc/stm32g4xx_ll_adc.h **** /* Unit: us                                                                   */
1530:Drivers/STM32G4xx_HAL_Driver/Inc/stm32g4xx_ll_adc.h **** #define LL_ADC_DELAY_TEMPSENSOR_STAB_US    (120UL)  /*!< Delay for temperature sensor stabilization
1531:Drivers/STM32G4xx_HAL_Driver/Inc/stm32g4xx_ll_adc.h **** 
1532:Drivers/STM32G4xx_HAL_Driver/Inc/stm32g4xx_ll_adc.h **** /* Delay required between ADC end of calibration and ADC enable.              */
1533:Drivers/STM32G4xx_HAL_Driver/Inc/stm32g4xx_ll_adc.h **** /* Note: On this STM32 series, a minimum number of ADC clock cycles           */
1534:Drivers/STM32G4xx_HAL_Driver/Inc/stm32g4xx_ll_adc.h **** /*       are required between ADC end of calibration and ADC enable.          */
1535:Drivers/STM32G4xx_HAL_Driver/Inc/stm32g4xx_ll_adc.h **** /*       Wait time can be computed in user application by waiting for the     */
1536:Drivers/STM32G4xx_HAL_Driver/Inc/stm32g4xx_ll_adc.h **** /*       equivalent number of CPU cycles, by taking into account              */
1537:Drivers/STM32G4xx_HAL_Driver/Inc/stm32g4xx_ll_adc.h **** /*       ratio of CPU clock versus ADC clock prescalers.                      */
1538:Drivers/STM32G4xx_HAL_Driver/Inc/stm32g4xx_ll_adc.h **** /* Unit: ADC clock cycles.                                                    */
1539:Drivers/STM32G4xx_HAL_Driver/Inc/stm32g4xx_ll_adc.h **** #define LL_ADC_DELAY_CALIB_ENABLE_ADC_CYCLES (  4UL)  /*!< Delay required between ADC end of calibr
1540:Drivers/STM32G4xx_HAL_Driver/Inc/stm32g4xx_ll_adc.h **** 
1541:Drivers/STM32G4xx_HAL_Driver/Inc/stm32g4xx_ll_adc.h **** /**
1542:Drivers/STM32G4xx_HAL_Driver/Inc/stm32g4xx_ll_adc.h ****   * @}
1543:Drivers/STM32G4xx_HAL_Driver/Inc/stm32g4xx_ll_adc.h ****   */
1544:Drivers/STM32G4xx_HAL_Driver/Inc/stm32g4xx_ll_adc.h **** 
1545:Drivers/STM32G4xx_HAL_Driver/Inc/stm32g4xx_ll_adc.h **** /**
1546:Drivers/STM32G4xx_HAL_Driver/Inc/stm32g4xx_ll_adc.h ****   * @}
1547:Drivers/STM32G4xx_HAL_Driver/Inc/stm32g4xx_ll_adc.h ****   */
1548:Drivers/STM32G4xx_HAL_Driver/Inc/stm32g4xx_ll_adc.h **** 
1549:Drivers/STM32G4xx_HAL_Driver/Inc/stm32g4xx_ll_adc.h **** 
1550:Drivers/STM32G4xx_HAL_Driver/Inc/stm32g4xx_ll_adc.h **** /* Exported macro ------------------------------------------------------------*/
1551:Drivers/STM32G4xx_HAL_Driver/Inc/stm32g4xx_ll_adc.h **** /** @defgroup ADC_LL_Exported_Macros ADC Exported Macros
1552:Drivers/STM32G4xx_HAL_Driver/Inc/stm32g4xx_ll_adc.h ****   * @{
1553:Drivers/STM32G4xx_HAL_Driver/Inc/stm32g4xx_ll_adc.h ****   */
1554:Drivers/STM32G4xx_HAL_Driver/Inc/stm32g4xx_ll_adc.h **** 
1555:Drivers/STM32G4xx_HAL_Driver/Inc/stm32g4xx_ll_adc.h **** /** @defgroup ADC_LL_EM_WRITE_READ Common write and read registers Macros
1556:Drivers/STM32G4xx_HAL_Driver/Inc/stm32g4xx_ll_adc.h ****   * @{
1557:Drivers/STM32G4xx_HAL_Driver/Inc/stm32g4xx_ll_adc.h ****   */
1558:Drivers/STM32G4xx_HAL_Driver/Inc/stm32g4xx_ll_adc.h **** 
ARM GAS  /tmp/ccnaDHIW.s 			page 33


1559:Drivers/STM32G4xx_HAL_Driver/Inc/stm32g4xx_ll_adc.h **** /**
1560:Drivers/STM32G4xx_HAL_Driver/Inc/stm32g4xx_ll_adc.h ****   * @brief  Write a value in ADC register
1561:Drivers/STM32G4xx_HAL_Driver/Inc/stm32g4xx_ll_adc.h ****   * @param  __INSTANCE__ ADC Instance
1562:Drivers/STM32G4xx_HAL_Driver/Inc/stm32g4xx_ll_adc.h ****   * @param  __REG__ Register to be written
1563:Drivers/STM32G4xx_HAL_Driver/Inc/stm32g4xx_ll_adc.h ****   * @param  __VALUE__ Value to be written in the register
1564:Drivers/STM32G4xx_HAL_Driver/Inc/stm32g4xx_ll_adc.h ****   * @retval None
1565:Drivers/STM32G4xx_HAL_Driver/Inc/stm32g4xx_ll_adc.h ****   */
1566:Drivers/STM32G4xx_HAL_Driver/Inc/stm32g4xx_ll_adc.h **** #define LL_ADC_WriteReg(__INSTANCE__, __REG__, __VALUE__) WRITE_REG(__INSTANCE__->__REG__, (__VALUE
1567:Drivers/STM32G4xx_HAL_Driver/Inc/stm32g4xx_ll_adc.h **** 
1568:Drivers/STM32G4xx_HAL_Driver/Inc/stm32g4xx_ll_adc.h **** /**
1569:Drivers/STM32G4xx_HAL_Driver/Inc/stm32g4xx_ll_adc.h ****   * @brief  Read a value in ADC register
1570:Drivers/STM32G4xx_HAL_Driver/Inc/stm32g4xx_ll_adc.h ****   * @param  __INSTANCE__ ADC Instance
1571:Drivers/STM32G4xx_HAL_Driver/Inc/stm32g4xx_ll_adc.h ****   * @param  __REG__ Register to be read
1572:Drivers/STM32G4xx_HAL_Driver/Inc/stm32g4xx_ll_adc.h ****   * @retval Register value
1573:Drivers/STM32G4xx_HAL_Driver/Inc/stm32g4xx_ll_adc.h ****   */
1574:Drivers/STM32G4xx_HAL_Driver/Inc/stm32g4xx_ll_adc.h **** #define LL_ADC_ReadReg(__INSTANCE__, __REG__) READ_REG(__INSTANCE__->__REG__)
1575:Drivers/STM32G4xx_HAL_Driver/Inc/stm32g4xx_ll_adc.h **** /**
1576:Drivers/STM32G4xx_HAL_Driver/Inc/stm32g4xx_ll_adc.h ****   * @}
1577:Drivers/STM32G4xx_HAL_Driver/Inc/stm32g4xx_ll_adc.h ****   */
1578:Drivers/STM32G4xx_HAL_Driver/Inc/stm32g4xx_ll_adc.h **** 
1579:Drivers/STM32G4xx_HAL_Driver/Inc/stm32g4xx_ll_adc.h **** /** @defgroup ADC_LL_EM_HELPER_MACRO ADC helper macro
1580:Drivers/STM32G4xx_HAL_Driver/Inc/stm32g4xx_ll_adc.h ****   * @{
1581:Drivers/STM32G4xx_HAL_Driver/Inc/stm32g4xx_ll_adc.h ****   */
1582:Drivers/STM32G4xx_HAL_Driver/Inc/stm32g4xx_ll_adc.h **** 
1583:Drivers/STM32G4xx_HAL_Driver/Inc/stm32g4xx_ll_adc.h **** /**
1584:Drivers/STM32G4xx_HAL_Driver/Inc/stm32g4xx_ll_adc.h ****   * @brief  Helper macro to get ADC channel number in decimal format
1585:Drivers/STM32G4xx_HAL_Driver/Inc/stm32g4xx_ll_adc.h ****   *         from literals LL_ADC_CHANNEL_x.
1586:Drivers/STM32G4xx_HAL_Driver/Inc/stm32g4xx_ll_adc.h ****   * @note   Example:
1587:Drivers/STM32G4xx_HAL_Driver/Inc/stm32g4xx_ll_adc.h ****   *           __LL_ADC_CHANNEL_TO_DECIMAL_NB(LL_ADC_CHANNEL_4)
1588:Drivers/STM32G4xx_HAL_Driver/Inc/stm32g4xx_ll_adc.h ****   *           will return decimal number "4".
1589:Drivers/STM32G4xx_HAL_Driver/Inc/stm32g4xx_ll_adc.h ****   * @note   The input can be a value from functions where a channel
1590:Drivers/STM32G4xx_HAL_Driver/Inc/stm32g4xx_ll_adc.h ****   *         number is returned, either defined with number
1591:Drivers/STM32G4xx_HAL_Driver/Inc/stm32g4xx_ll_adc.h ****   *         or with bitfield (only one bit must be set).
1592:Drivers/STM32G4xx_HAL_Driver/Inc/stm32g4xx_ll_adc.h ****   * @param  __CHANNEL__ This parameter can be one of the following values:
1593:Drivers/STM32G4xx_HAL_Driver/Inc/stm32g4xx_ll_adc.h ****   *         @arg @ref LL_ADC_CHANNEL_0
1594:Drivers/STM32G4xx_HAL_Driver/Inc/stm32g4xx_ll_adc.h ****   *         @arg @ref LL_ADC_CHANNEL_1                 (8)
1595:Drivers/STM32G4xx_HAL_Driver/Inc/stm32g4xx_ll_adc.h ****   *         @arg @ref LL_ADC_CHANNEL_2                 (8)
1596:Drivers/STM32G4xx_HAL_Driver/Inc/stm32g4xx_ll_adc.h ****   *         @arg @ref LL_ADC_CHANNEL_3                 (8)
1597:Drivers/STM32G4xx_HAL_Driver/Inc/stm32g4xx_ll_adc.h ****   *         @arg @ref LL_ADC_CHANNEL_4                 (8)
1598:Drivers/STM32G4xx_HAL_Driver/Inc/stm32g4xx_ll_adc.h ****   *         @arg @ref LL_ADC_CHANNEL_5                 (8)
1599:Drivers/STM32G4xx_HAL_Driver/Inc/stm32g4xx_ll_adc.h ****   *         @arg @ref LL_ADC_CHANNEL_6
1600:Drivers/STM32G4xx_HAL_Driver/Inc/stm32g4xx_ll_adc.h ****   *         @arg @ref LL_ADC_CHANNEL_7
1601:Drivers/STM32G4xx_HAL_Driver/Inc/stm32g4xx_ll_adc.h ****   *         @arg @ref LL_ADC_CHANNEL_8
1602:Drivers/STM32G4xx_HAL_Driver/Inc/stm32g4xx_ll_adc.h ****   *         @arg @ref LL_ADC_CHANNEL_9
1603:Drivers/STM32G4xx_HAL_Driver/Inc/stm32g4xx_ll_adc.h ****   *         @arg @ref LL_ADC_CHANNEL_10
1604:Drivers/STM32G4xx_HAL_Driver/Inc/stm32g4xx_ll_adc.h ****   *         @arg @ref LL_ADC_CHANNEL_11
1605:Drivers/STM32G4xx_HAL_Driver/Inc/stm32g4xx_ll_adc.h ****   *         @arg @ref LL_ADC_CHANNEL_12
1606:Drivers/STM32G4xx_HAL_Driver/Inc/stm32g4xx_ll_adc.h ****   *         @arg @ref LL_ADC_CHANNEL_13
1607:Drivers/STM32G4xx_HAL_Driver/Inc/stm32g4xx_ll_adc.h ****   *         @arg @ref LL_ADC_CHANNEL_14
1608:Drivers/STM32G4xx_HAL_Driver/Inc/stm32g4xx_ll_adc.h ****   *         @arg @ref LL_ADC_CHANNEL_15
1609:Drivers/STM32G4xx_HAL_Driver/Inc/stm32g4xx_ll_adc.h ****   *         @arg @ref LL_ADC_CHANNEL_16
1610:Drivers/STM32G4xx_HAL_Driver/Inc/stm32g4xx_ll_adc.h ****   *         @arg @ref LL_ADC_CHANNEL_17
1611:Drivers/STM32G4xx_HAL_Driver/Inc/stm32g4xx_ll_adc.h ****   *         @arg @ref LL_ADC_CHANNEL_18
1612:Drivers/STM32G4xx_HAL_Driver/Inc/stm32g4xx_ll_adc.h ****   *         @arg @ref LL_ADC_CHANNEL_VREFINT           (7)
1613:Drivers/STM32G4xx_HAL_Driver/Inc/stm32g4xx_ll_adc.h ****   *         @arg @ref LL_ADC_CHANNEL_TEMPSENSOR_ADC1   (1)
1614:Drivers/STM32G4xx_HAL_Driver/Inc/stm32g4xx_ll_adc.h ****   *         @arg @ref LL_ADC_CHANNEL_TEMPSENSOR_ADC5   (5)
1615:Drivers/STM32G4xx_HAL_Driver/Inc/stm32g4xx_ll_adc.h ****   *         @arg @ref LL_ADC_CHANNEL_VBAT              (6)
ARM GAS  /tmp/ccnaDHIW.s 			page 34


1616:Drivers/STM32G4xx_HAL_Driver/Inc/stm32g4xx_ll_adc.h ****   *         @arg @ref LL_ADC_CHANNEL_VOPAMP1           (1)
1617:Drivers/STM32G4xx_HAL_Driver/Inc/stm32g4xx_ll_adc.h ****   *         @arg @ref LL_ADC_CHANNEL_VOPAMP2           (2)
1618:Drivers/STM32G4xx_HAL_Driver/Inc/stm32g4xx_ll_adc.h ****   *         @arg @ref LL_ADC_CHANNEL_VOPAMP3_ADC2      (2)
1619:Drivers/STM32G4xx_HAL_Driver/Inc/stm32g4xx_ll_adc.h ****   *         @arg @ref LL_ADC_CHANNEL_VOPAMP3_ADC3      (3)
1620:Drivers/STM32G4xx_HAL_Driver/Inc/stm32g4xx_ll_adc.h ****   *         @arg @ref LL_ADC_CHANNEL_VOPAMP4           (5)
1621:Drivers/STM32G4xx_HAL_Driver/Inc/stm32g4xx_ll_adc.h ****   *         @arg @ref LL_ADC_CHANNEL_VOPAMP5           (5)
1622:Drivers/STM32G4xx_HAL_Driver/Inc/stm32g4xx_ll_adc.h ****   *         @arg @ref LL_ADC_CHANNEL_VOPAMP6           (4)
1623:Drivers/STM32G4xx_HAL_Driver/Inc/stm32g4xx_ll_adc.h ****   *
1624:Drivers/STM32G4xx_HAL_Driver/Inc/stm32g4xx_ll_adc.h ****   *         (1) On STM32G4, parameter available only on ADC instance: ADC1.\n
1625:Drivers/STM32G4xx_HAL_Driver/Inc/stm32g4xx_ll_adc.h ****   *         (2) On STM32G4, parameter available only on ADC instance: ADC2.\n
1626:Drivers/STM32G4xx_HAL_Driver/Inc/stm32g4xx_ll_adc.h ****   *         (3) On STM32G4, parameter available only on ADC instance: ADC3.\n
1627:Drivers/STM32G4xx_HAL_Driver/Inc/stm32g4xx_ll_adc.h ****   *         (4) On STM32G4, parameter available only on ADC instance: ADC4.\n
1628:Drivers/STM32G4xx_HAL_Driver/Inc/stm32g4xx_ll_adc.h ****   *         (5) On STM32G4, parameter available only on ADC instance: ADC5.\n
1629:Drivers/STM32G4xx_HAL_Driver/Inc/stm32g4xx_ll_adc.h ****   *         (6) On STM32G4, parameter available only on ADC instances: ADC1, ADC3, ADC5.\n
1630:Drivers/STM32G4xx_HAL_Driver/Inc/stm32g4xx_ll_adc.h ****   *         (7) On STM32G4, parameter available only on ADC instances: ADC1, ADC3, ADC4, ADC5.\n
1631:Drivers/STM32G4xx_HAL_Driver/Inc/stm32g4xx_ll_adc.h ****   *          -  On this STM32 series, all ADCx are not available on all devices. Refer to device da
1632:Drivers/STM32G4xx_HAL_Driver/Inc/stm32g4xx_ll_adc.h ****   *         (8) On STM32G4, fast channel allows: 2.5 (sampling) + 12.5 (conversion) = 15 ADC clock 
1633:Drivers/STM32G4xx_HAL_Driver/Inc/stm32g4xx_ll_adc.h ****   *             Other channels are slow channels  allows: 6.5 (sampling) + 12.5 (conversion) = 19 A
1634:Drivers/STM32G4xx_HAL_Driver/Inc/stm32g4xx_ll_adc.h ****   * @retval Value between Min_Data=0 and Max_Data=18
1635:Drivers/STM32G4xx_HAL_Driver/Inc/stm32g4xx_ll_adc.h ****   */
1636:Drivers/STM32G4xx_HAL_Driver/Inc/stm32g4xx_ll_adc.h **** #define __LL_ADC_CHANNEL_TO_DECIMAL_NB(__CHANNEL__)                                        \
1637:Drivers/STM32G4xx_HAL_Driver/Inc/stm32g4xx_ll_adc.h ****   ((((__CHANNEL__) & ADC_CHANNEL_ID_BITFIELD_MASK) == 0UL)                                 \
1638:Drivers/STM32G4xx_HAL_Driver/Inc/stm32g4xx_ll_adc.h ****    ? (                                                                                     \
1639:Drivers/STM32G4xx_HAL_Driver/Inc/stm32g4xx_ll_adc.h ****        ((__CHANNEL__) & ADC_CHANNEL_ID_NUMBER_MASK) >> ADC_CHANNEL_ID_NUMBER_BITOFFSET_POS \
1640:Drivers/STM32G4xx_HAL_Driver/Inc/stm32g4xx_ll_adc.h ****      )                                                                                     \
1641:Drivers/STM32G4xx_HAL_Driver/Inc/stm32g4xx_ll_adc.h ****    :                                                                                       \
1642:Drivers/STM32G4xx_HAL_Driver/Inc/stm32g4xx_ll_adc.h ****    (                                                                                       \
1643:Drivers/STM32G4xx_HAL_Driver/Inc/stm32g4xx_ll_adc.h ****        (uint32_t)POSITION_VAL((__CHANNEL__))                                               \
1644:Drivers/STM32G4xx_HAL_Driver/Inc/stm32g4xx_ll_adc.h ****    )                                                                                       \
1645:Drivers/STM32G4xx_HAL_Driver/Inc/stm32g4xx_ll_adc.h ****   )
1646:Drivers/STM32G4xx_HAL_Driver/Inc/stm32g4xx_ll_adc.h **** 
1647:Drivers/STM32G4xx_HAL_Driver/Inc/stm32g4xx_ll_adc.h **** /**
1648:Drivers/STM32G4xx_HAL_Driver/Inc/stm32g4xx_ll_adc.h ****   * @brief  Helper macro to get ADC channel in literal format LL_ADC_CHANNEL_x
1649:Drivers/STM32G4xx_HAL_Driver/Inc/stm32g4xx_ll_adc.h ****   *         from number in decimal format.
1650:Drivers/STM32G4xx_HAL_Driver/Inc/stm32g4xx_ll_adc.h ****   * @note   Example:
1651:Drivers/STM32G4xx_HAL_Driver/Inc/stm32g4xx_ll_adc.h ****   *           __LL_ADC_DECIMAL_NB_TO_CHANNEL(4)
1652:Drivers/STM32G4xx_HAL_Driver/Inc/stm32g4xx_ll_adc.h ****   *           will return a data equivalent to "LL_ADC_CHANNEL_4".
1653:Drivers/STM32G4xx_HAL_Driver/Inc/stm32g4xx_ll_adc.h ****   * @param  __DECIMAL_NB__ Value between Min_Data=0 and Max_Data=18
1654:Drivers/STM32G4xx_HAL_Driver/Inc/stm32g4xx_ll_adc.h ****   * @retval Returned value can be one of the following values:
1655:Drivers/STM32G4xx_HAL_Driver/Inc/stm32g4xx_ll_adc.h ****   *         @arg @ref LL_ADC_CHANNEL_0
1656:Drivers/STM32G4xx_HAL_Driver/Inc/stm32g4xx_ll_adc.h ****   *         @arg @ref LL_ADC_CHANNEL_1                 (8)
1657:Drivers/STM32G4xx_HAL_Driver/Inc/stm32g4xx_ll_adc.h ****   *         @arg @ref LL_ADC_CHANNEL_2                 (8)
1658:Drivers/STM32G4xx_HAL_Driver/Inc/stm32g4xx_ll_adc.h ****   *         @arg @ref LL_ADC_CHANNEL_3                 (8)
1659:Drivers/STM32G4xx_HAL_Driver/Inc/stm32g4xx_ll_adc.h ****   *         @arg @ref LL_ADC_CHANNEL_4                 (8)
1660:Drivers/STM32G4xx_HAL_Driver/Inc/stm32g4xx_ll_adc.h ****   *         @arg @ref LL_ADC_CHANNEL_5                 (8)
1661:Drivers/STM32G4xx_HAL_Driver/Inc/stm32g4xx_ll_adc.h ****   *         @arg @ref LL_ADC_CHANNEL_6
1662:Drivers/STM32G4xx_HAL_Driver/Inc/stm32g4xx_ll_adc.h ****   *         @arg @ref LL_ADC_CHANNEL_7
1663:Drivers/STM32G4xx_HAL_Driver/Inc/stm32g4xx_ll_adc.h ****   *         @arg @ref LL_ADC_CHANNEL_8
1664:Drivers/STM32G4xx_HAL_Driver/Inc/stm32g4xx_ll_adc.h ****   *         @arg @ref LL_ADC_CHANNEL_9
1665:Drivers/STM32G4xx_HAL_Driver/Inc/stm32g4xx_ll_adc.h ****   *         @arg @ref LL_ADC_CHANNEL_10
1666:Drivers/STM32G4xx_HAL_Driver/Inc/stm32g4xx_ll_adc.h ****   *         @arg @ref LL_ADC_CHANNEL_11
1667:Drivers/STM32G4xx_HAL_Driver/Inc/stm32g4xx_ll_adc.h ****   *         @arg @ref LL_ADC_CHANNEL_12
1668:Drivers/STM32G4xx_HAL_Driver/Inc/stm32g4xx_ll_adc.h ****   *         @arg @ref LL_ADC_CHANNEL_13
1669:Drivers/STM32G4xx_HAL_Driver/Inc/stm32g4xx_ll_adc.h ****   *         @arg @ref LL_ADC_CHANNEL_14
1670:Drivers/STM32G4xx_HAL_Driver/Inc/stm32g4xx_ll_adc.h ****   *         @arg @ref LL_ADC_CHANNEL_15
1671:Drivers/STM32G4xx_HAL_Driver/Inc/stm32g4xx_ll_adc.h ****   *         @arg @ref LL_ADC_CHANNEL_16
1672:Drivers/STM32G4xx_HAL_Driver/Inc/stm32g4xx_ll_adc.h ****   *         @arg @ref LL_ADC_CHANNEL_17
ARM GAS  /tmp/ccnaDHIW.s 			page 35


1673:Drivers/STM32G4xx_HAL_Driver/Inc/stm32g4xx_ll_adc.h ****   *         @arg @ref LL_ADC_CHANNEL_18
1674:Drivers/STM32G4xx_HAL_Driver/Inc/stm32g4xx_ll_adc.h ****   *         @arg @ref LL_ADC_CHANNEL_VREFINT           (7)
1675:Drivers/STM32G4xx_HAL_Driver/Inc/stm32g4xx_ll_adc.h ****   *         @arg @ref LL_ADC_CHANNEL_TEMPSENSOR_ADC1   (1)
1676:Drivers/STM32G4xx_HAL_Driver/Inc/stm32g4xx_ll_adc.h ****   *         @arg @ref LL_ADC_CHANNEL_TEMPSENSOR_ADC5   (5)
1677:Drivers/STM32G4xx_HAL_Driver/Inc/stm32g4xx_ll_adc.h ****   *         @arg @ref LL_ADC_CHANNEL_VBAT              (6)
1678:Drivers/STM32G4xx_HAL_Driver/Inc/stm32g4xx_ll_adc.h ****   *         @arg @ref LL_ADC_CHANNEL_VOPAMP1           (1)
1679:Drivers/STM32G4xx_HAL_Driver/Inc/stm32g4xx_ll_adc.h ****   *         @arg @ref LL_ADC_CHANNEL_VOPAMP2           (2)
1680:Drivers/STM32G4xx_HAL_Driver/Inc/stm32g4xx_ll_adc.h ****   *         @arg @ref LL_ADC_CHANNEL_VOPAMP3_ADC2      (2)
1681:Drivers/STM32G4xx_HAL_Driver/Inc/stm32g4xx_ll_adc.h ****   *         @arg @ref LL_ADC_CHANNEL_VOPAMP3_ADC3      (3)
1682:Drivers/STM32G4xx_HAL_Driver/Inc/stm32g4xx_ll_adc.h ****   *         @arg @ref LL_ADC_CHANNEL_VOPAMP4           (5)
1683:Drivers/STM32G4xx_HAL_Driver/Inc/stm32g4xx_ll_adc.h ****   *         @arg @ref LL_ADC_CHANNEL_VOPAMP5           (5)
1684:Drivers/STM32G4xx_HAL_Driver/Inc/stm32g4xx_ll_adc.h ****   *         @arg @ref LL_ADC_CHANNEL_VOPAMP6           (4)
1685:Drivers/STM32G4xx_HAL_Driver/Inc/stm32g4xx_ll_adc.h ****   *
1686:Drivers/STM32G4xx_HAL_Driver/Inc/stm32g4xx_ll_adc.h ****   *         (1) On STM32G4, parameter available only on ADC instance: ADC1.\n
1687:Drivers/STM32G4xx_HAL_Driver/Inc/stm32g4xx_ll_adc.h ****   *         (2) On STM32G4, parameter available only on ADC instance: ADC2.\n
1688:Drivers/STM32G4xx_HAL_Driver/Inc/stm32g4xx_ll_adc.h ****   *         (3) On STM32G4, parameter available only on ADC instance: ADC3.\n
1689:Drivers/STM32G4xx_HAL_Driver/Inc/stm32g4xx_ll_adc.h ****   *         (4) On STM32G4, parameter available only on ADC instance: ADC4.\n
1690:Drivers/STM32G4xx_HAL_Driver/Inc/stm32g4xx_ll_adc.h ****   *         (5) On STM32G4, parameter available only on ADC instance: ADC5.\n
1691:Drivers/STM32G4xx_HAL_Driver/Inc/stm32g4xx_ll_adc.h ****   *         (6) On STM32G4, parameter available only on ADC instances: ADC1, ADC3, ADC5.\n
1692:Drivers/STM32G4xx_HAL_Driver/Inc/stm32g4xx_ll_adc.h ****   *         (7) On STM32G4, parameter available only on ADC instances: ADC1, ADC3, ADC4, ADC5.\n
1693:Drivers/STM32G4xx_HAL_Driver/Inc/stm32g4xx_ll_adc.h ****   *          -  On this STM32 series, all ADCx are not available on all devices. Refer to device da
1694:Drivers/STM32G4xx_HAL_Driver/Inc/stm32g4xx_ll_adc.h ****   *         (8) On STM32G4, fast channel allows: 2.5 (sampling) + 12.5 (conversion) = 15 ADC clock 
1695:Drivers/STM32G4xx_HAL_Driver/Inc/stm32g4xx_ll_adc.h ****   *             Other channels are slow channels  allows: 6.5 (sampling) + 12.5 (conversion) = 19 A
1696:Drivers/STM32G4xx_HAL_Driver/Inc/stm32g4xx_ll_adc.h ****   *         (1, 2, 3, 4, 5, 7) For ADC channel read back from ADC register,
1697:Drivers/STM32G4xx_HAL_Driver/Inc/stm32g4xx_ll_adc.h ****   *                      comparison with internal channel parameter to be done
1698:Drivers/STM32G4xx_HAL_Driver/Inc/stm32g4xx_ll_adc.h ****   *                      using helper macro @ref __LL_ADC_CHANNEL_INTERNAL_TO_EXTERNAL().
1699:Drivers/STM32G4xx_HAL_Driver/Inc/stm32g4xx_ll_adc.h ****   */
1700:Drivers/STM32G4xx_HAL_Driver/Inc/stm32g4xx_ll_adc.h **** #define __LL_ADC_DECIMAL_NB_TO_CHANNEL(__DECIMAL_NB__)                                             
1701:Drivers/STM32G4xx_HAL_Driver/Inc/stm32g4xx_ll_adc.h ****   (((__DECIMAL_NB__) <= 9UL)                                                                       
1702:Drivers/STM32G4xx_HAL_Driver/Inc/stm32g4xx_ll_adc.h ****    ? (                                                                                             
1703:Drivers/STM32G4xx_HAL_Driver/Inc/stm32g4xx_ll_adc.h ****        ((__DECIMAL_NB__) << ADC_CHANNEL_ID_NUMBER_BITOFFSET_POS)                             |     
1704:Drivers/STM32G4xx_HAL_Driver/Inc/stm32g4xx_ll_adc.h ****        (ADC_AWD2CR_AWD2CH_0 << (__DECIMAL_NB__))                                             |     
1705:Drivers/STM32G4xx_HAL_Driver/Inc/stm32g4xx_ll_adc.h ****        (ADC_SMPR1_REGOFFSET | (((3UL * (__DECIMAL_NB__))) << ADC_CHANNEL_SMPx_BITOFFSET_POS))      
1706:Drivers/STM32G4xx_HAL_Driver/Inc/stm32g4xx_ll_adc.h ****      )                                                                                             
1707:Drivers/STM32G4xx_HAL_Driver/Inc/stm32g4xx_ll_adc.h ****    :                                                                                               
1708:Drivers/STM32G4xx_HAL_Driver/Inc/stm32g4xx_ll_adc.h ****    (                                                                                               
1709:Drivers/STM32G4xx_HAL_Driver/Inc/stm32g4xx_ll_adc.h ****        ((__DECIMAL_NB__) << ADC_CHANNEL_ID_NUMBER_BITOFFSET_POS)                                   
1710:Drivers/STM32G4xx_HAL_Driver/Inc/stm32g4xx_ll_adc.h ****        (ADC_AWD2CR_AWD2CH_0 << (__DECIMAL_NB__))                                                   
1711:Drivers/STM32G4xx_HAL_Driver/Inc/stm32g4xx_ll_adc.h ****        (ADC_SMPR2_REGOFFSET | (((3UL * ((__DECIMAL_NB__) - 10UL))) << ADC_CHANNEL_SMPx_BITOFFSET_PO
1712:Drivers/STM32G4xx_HAL_Driver/Inc/stm32g4xx_ll_adc.h ****    )                                                                                               
1713:Drivers/STM32G4xx_HAL_Driver/Inc/stm32g4xx_ll_adc.h ****   )
1714:Drivers/STM32G4xx_HAL_Driver/Inc/stm32g4xx_ll_adc.h **** 
1715:Drivers/STM32G4xx_HAL_Driver/Inc/stm32g4xx_ll_adc.h **** /**
1716:Drivers/STM32G4xx_HAL_Driver/Inc/stm32g4xx_ll_adc.h ****   * @brief  Helper macro to determine whether the selected channel
1717:Drivers/STM32G4xx_HAL_Driver/Inc/stm32g4xx_ll_adc.h ****   *         corresponds to literal definitions of driver.
1718:Drivers/STM32G4xx_HAL_Driver/Inc/stm32g4xx_ll_adc.h ****   * @note   The different literal definitions of ADC channels are:
1719:Drivers/STM32G4xx_HAL_Driver/Inc/stm32g4xx_ll_adc.h ****   *         - ADC internal channel:
1720:Drivers/STM32G4xx_HAL_Driver/Inc/stm32g4xx_ll_adc.h ****   *           LL_ADC_CHANNEL_VREFINT, LL_ADC_CHANNEL_TEMPSENSOR, ...
1721:Drivers/STM32G4xx_HAL_Driver/Inc/stm32g4xx_ll_adc.h ****   *         - ADC external channel (channel connected to a GPIO pin):
1722:Drivers/STM32G4xx_HAL_Driver/Inc/stm32g4xx_ll_adc.h ****   *           LL_ADC_CHANNEL_1, LL_ADC_CHANNEL_2, ...
1723:Drivers/STM32G4xx_HAL_Driver/Inc/stm32g4xx_ll_adc.h ****   * @note   The channel parameter must be a value defined from literal
1724:Drivers/STM32G4xx_HAL_Driver/Inc/stm32g4xx_ll_adc.h ****   *         definition of a ADC internal channel (LL_ADC_CHANNEL_VREFINT,
1725:Drivers/STM32G4xx_HAL_Driver/Inc/stm32g4xx_ll_adc.h ****   *         LL_ADC_CHANNEL_TEMPSENSOR, ...),
1726:Drivers/STM32G4xx_HAL_Driver/Inc/stm32g4xx_ll_adc.h ****   *         ADC external channel (LL_ADC_CHANNEL_1, LL_ADC_CHANNEL_2, ...),
1727:Drivers/STM32G4xx_HAL_Driver/Inc/stm32g4xx_ll_adc.h ****   *         must not be a value from functions where a channel number is
1728:Drivers/STM32G4xx_HAL_Driver/Inc/stm32g4xx_ll_adc.h ****   *         returned from ADC registers,
1729:Drivers/STM32G4xx_HAL_Driver/Inc/stm32g4xx_ll_adc.h ****   *         because internal and external channels share the same channel
ARM GAS  /tmp/ccnaDHIW.s 			page 36


1730:Drivers/STM32G4xx_HAL_Driver/Inc/stm32g4xx_ll_adc.h ****   *         number in ADC registers. The differentiation is made only with
1731:Drivers/STM32G4xx_HAL_Driver/Inc/stm32g4xx_ll_adc.h ****   *         parameters definitions of driver.
1732:Drivers/STM32G4xx_HAL_Driver/Inc/stm32g4xx_ll_adc.h ****   * @param  __CHANNEL__ This parameter can be one of the following values:
1733:Drivers/STM32G4xx_HAL_Driver/Inc/stm32g4xx_ll_adc.h ****   *         @arg @ref LL_ADC_CHANNEL_0
1734:Drivers/STM32G4xx_HAL_Driver/Inc/stm32g4xx_ll_adc.h ****   *         @arg @ref LL_ADC_CHANNEL_1                 (8)
1735:Drivers/STM32G4xx_HAL_Driver/Inc/stm32g4xx_ll_adc.h ****   *         @arg @ref LL_ADC_CHANNEL_2                 (8)
1736:Drivers/STM32G4xx_HAL_Driver/Inc/stm32g4xx_ll_adc.h ****   *         @arg @ref LL_ADC_CHANNEL_3                 (8)
1737:Drivers/STM32G4xx_HAL_Driver/Inc/stm32g4xx_ll_adc.h ****   *         @arg @ref LL_ADC_CHANNEL_4                 (8)
1738:Drivers/STM32G4xx_HAL_Driver/Inc/stm32g4xx_ll_adc.h ****   *         @arg @ref LL_ADC_CHANNEL_5                 (8)
1739:Drivers/STM32G4xx_HAL_Driver/Inc/stm32g4xx_ll_adc.h ****   *         @arg @ref LL_ADC_CHANNEL_6
1740:Drivers/STM32G4xx_HAL_Driver/Inc/stm32g4xx_ll_adc.h ****   *         @arg @ref LL_ADC_CHANNEL_7
1741:Drivers/STM32G4xx_HAL_Driver/Inc/stm32g4xx_ll_adc.h ****   *         @arg @ref LL_ADC_CHANNEL_8
1742:Drivers/STM32G4xx_HAL_Driver/Inc/stm32g4xx_ll_adc.h ****   *         @arg @ref LL_ADC_CHANNEL_9
1743:Drivers/STM32G4xx_HAL_Driver/Inc/stm32g4xx_ll_adc.h ****   *         @arg @ref LL_ADC_CHANNEL_10
1744:Drivers/STM32G4xx_HAL_Driver/Inc/stm32g4xx_ll_adc.h ****   *         @arg @ref LL_ADC_CHANNEL_11
1745:Drivers/STM32G4xx_HAL_Driver/Inc/stm32g4xx_ll_adc.h ****   *         @arg @ref LL_ADC_CHANNEL_12
1746:Drivers/STM32G4xx_HAL_Driver/Inc/stm32g4xx_ll_adc.h ****   *         @arg @ref LL_ADC_CHANNEL_13
1747:Drivers/STM32G4xx_HAL_Driver/Inc/stm32g4xx_ll_adc.h ****   *         @arg @ref LL_ADC_CHANNEL_14
1748:Drivers/STM32G4xx_HAL_Driver/Inc/stm32g4xx_ll_adc.h ****   *         @arg @ref LL_ADC_CHANNEL_15
1749:Drivers/STM32G4xx_HAL_Driver/Inc/stm32g4xx_ll_adc.h ****   *         @arg @ref LL_ADC_CHANNEL_16
1750:Drivers/STM32G4xx_HAL_Driver/Inc/stm32g4xx_ll_adc.h ****   *         @arg @ref LL_ADC_CHANNEL_17
1751:Drivers/STM32G4xx_HAL_Driver/Inc/stm32g4xx_ll_adc.h ****   *         @arg @ref LL_ADC_CHANNEL_18
1752:Drivers/STM32G4xx_HAL_Driver/Inc/stm32g4xx_ll_adc.h ****   *         @arg @ref LL_ADC_CHANNEL_VREFINT           (7)
1753:Drivers/STM32G4xx_HAL_Driver/Inc/stm32g4xx_ll_adc.h ****   *         @arg @ref LL_ADC_CHANNEL_TEMPSENSOR_ADC1   (1)
1754:Drivers/STM32G4xx_HAL_Driver/Inc/stm32g4xx_ll_adc.h ****   *         @arg @ref LL_ADC_CHANNEL_TEMPSENSOR_ADC5   (5)
1755:Drivers/STM32G4xx_HAL_Driver/Inc/stm32g4xx_ll_adc.h ****   *         @arg @ref LL_ADC_CHANNEL_VBAT              (6)
1756:Drivers/STM32G4xx_HAL_Driver/Inc/stm32g4xx_ll_adc.h ****   *         @arg @ref LL_ADC_CHANNEL_VOPAMP1           (1)
1757:Drivers/STM32G4xx_HAL_Driver/Inc/stm32g4xx_ll_adc.h ****   *         @arg @ref LL_ADC_CHANNEL_VOPAMP2           (2)
1758:Drivers/STM32G4xx_HAL_Driver/Inc/stm32g4xx_ll_adc.h ****   *         @arg @ref LL_ADC_CHANNEL_VOPAMP3_ADC2      (2)
1759:Drivers/STM32G4xx_HAL_Driver/Inc/stm32g4xx_ll_adc.h ****   *         @arg @ref LL_ADC_CHANNEL_VOPAMP3_ADC3      (3)
1760:Drivers/STM32G4xx_HAL_Driver/Inc/stm32g4xx_ll_adc.h ****   *         @arg @ref LL_ADC_CHANNEL_VOPAMP4           (5)
1761:Drivers/STM32G4xx_HAL_Driver/Inc/stm32g4xx_ll_adc.h ****   *         @arg @ref LL_ADC_CHANNEL_VOPAMP5           (5)
1762:Drivers/STM32G4xx_HAL_Driver/Inc/stm32g4xx_ll_adc.h ****   *         @arg @ref LL_ADC_CHANNEL_VOPAMP6           (4)
1763:Drivers/STM32G4xx_HAL_Driver/Inc/stm32g4xx_ll_adc.h ****   *
1764:Drivers/STM32G4xx_HAL_Driver/Inc/stm32g4xx_ll_adc.h ****   *         (1) On STM32G4, parameter available only on ADC instance: ADC1.\n
1765:Drivers/STM32G4xx_HAL_Driver/Inc/stm32g4xx_ll_adc.h ****   *         (2) On STM32G4, parameter available only on ADC instance: ADC2.\n
1766:Drivers/STM32G4xx_HAL_Driver/Inc/stm32g4xx_ll_adc.h ****   *         (3) On STM32G4, parameter available only on ADC instance: ADC3.\n
1767:Drivers/STM32G4xx_HAL_Driver/Inc/stm32g4xx_ll_adc.h ****   *         (4) On STM32G4, parameter available only on ADC instance: ADC4.\n
1768:Drivers/STM32G4xx_HAL_Driver/Inc/stm32g4xx_ll_adc.h ****   *         (5) On STM32G4, parameter available only on ADC instance: ADC5.\n
1769:Drivers/STM32G4xx_HAL_Driver/Inc/stm32g4xx_ll_adc.h ****   *         (6) On STM32G4, parameter available only on ADC instances: ADC1, ADC3, ADC5.\n
1770:Drivers/STM32G4xx_HAL_Driver/Inc/stm32g4xx_ll_adc.h ****   *         (7) On STM32G4, parameter available only on ADC instances: ADC1, ADC3, ADC4, ADC5.\n
1771:Drivers/STM32G4xx_HAL_Driver/Inc/stm32g4xx_ll_adc.h ****   *          -  On this STM32 series, all ADCx are not available on all devices. Refer to device da
1772:Drivers/STM32G4xx_HAL_Driver/Inc/stm32g4xx_ll_adc.h ****   *         (8) On STM32G4, fast channel allows: 2.5 (sampling) + 12.5 (conversion) = 15 ADC clock 
1773:Drivers/STM32G4xx_HAL_Driver/Inc/stm32g4xx_ll_adc.h ****   *             Other channels are slow channels  allows: 6.5 (sampling) + 12.5 (conversion) = 19 A
1774:Drivers/STM32G4xx_HAL_Driver/Inc/stm32g4xx_ll_adc.h ****   * @retval Value "0" if the channel corresponds to a parameter definition of a ADC external channe
1775:Drivers/STM32G4xx_HAL_Driver/Inc/stm32g4xx_ll_adc.h ****   *         Value "1" if the channel corresponds to a parameter definition of a ADC internal channe
1776:Drivers/STM32G4xx_HAL_Driver/Inc/stm32g4xx_ll_adc.h ****   */
1777:Drivers/STM32G4xx_HAL_Driver/Inc/stm32g4xx_ll_adc.h **** #define __LL_ADC_IS_CHANNEL_INTERNAL(__CHANNEL__)                              \
1778:Drivers/STM32G4xx_HAL_Driver/Inc/stm32g4xx_ll_adc.h ****   (((__CHANNEL__) & ADC_CHANNEL_ID_INTERNAL_CH_MASK) != 0UL)
1779:Drivers/STM32G4xx_HAL_Driver/Inc/stm32g4xx_ll_adc.h **** 
1780:Drivers/STM32G4xx_HAL_Driver/Inc/stm32g4xx_ll_adc.h **** /**
1781:Drivers/STM32G4xx_HAL_Driver/Inc/stm32g4xx_ll_adc.h ****   * @brief  Helper macro to convert a channel defined from parameter
1782:Drivers/STM32G4xx_HAL_Driver/Inc/stm32g4xx_ll_adc.h ****   *         definition of a ADC internal channel (LL_ADC_CHANNEL_VREFINT,
1783:Drivers/STM32G4xx_HAL_Driver/Inc/stm32g4xx_ll_adc.h ****   *         LL_ADC_CHANNEL_TEMPSENSOR, ...),
1784:Drivers/STM32G4xx_HAL_Driver/Inc/stm32g4xx_ll_adc.h ****   *         to its equivalent parameter definition of a ADC external channel
1785:Drivers/STM32G4xx_HAL_Driver/Inc/stm32g4xx_ll_adc.h ****   *         (LL_ADC_CHANNEL_1, LL_ADC_CHANNEL_2, ...).
1786:Drivers/STM32G4xx_HAL_Driver/Inc/stm32g4xx_ll_adc.h ****   * @note   The channel parameter can be, additionally to a value
ARM GAS  /tmp/ccnaDHIW.s 			page 37


1787:Drivers/STM32G4xx_HAL_Driver/Inc/stm32g4xx_ll_adc.h ****   *         defined from parameter definition of a ADC internal channel
1788:Drivers/STM32G4xx_HAL_Driver/Inc/stm32g4xx_ll_adc.h ****   *         (LL_ADC_CHANNEL_VREFINT, LL_ADC_CHANNEL_TEMPSENSOR, ...),
1789:Drivers/STM32G4xx_HAL_Driver/Inc/stm32g4xx_ll_adc.h ****   *         a value defined from parameter definition of
1790:Drivers/STM32G4xx_HAL_Driver/Inc/stm32g4xx_ll_adc.h ****   *         ADC external channel (LL_ADC_CHANNEL_1, LL_ADC_CHANNEL_2, ...)
1791:Drivers/STM32G4xx_HAL_Driver/Inc/stm32g4xx_ll_adc.h ****   *         or a value from functions where a channel number is returned
1792:Drivers/STM32G4xx_HAL_Driver/Inc/stm32g4xx_ll_adc.h ****   *         from ADC registers.
1793:Drivers/STM32G4xx_HAL_Driver/Inc/stm32g4xx_ll_adc.h ****   * @param  __CHANNEL__ This parameter can be one of the following values:
1794:Drivers/STM32G4xx_HAL_Driver/Inc/stm32g4xx_ll_adc.h ****   *         @arg @ref LL_ADC_CHANNEL_0
1795:Drivers/STM32G4xx_HAL_Driver/Inc/stm32g4xx_ll_adc.h ****   *         @arg @ref LL_ADC_CHANNEL_1                 (8)
1796:Drivers/STM32G4xx_HAL_Driver/Inc/stm32g4xx_ll_adc.h ****   *         @arg @ref LL_ADC_CHANNEL_2                 (8)
1797:Drivers/STM32G4xx_HAL_Driver/Inc/stm32g4xx_ll_adc.h ****   *         @arg @ref LL_ADC_CHANNEL_3                 (8)
