ARM GAS  /tmp/ccvW6hDH.s 			page 1


   1              		.cpu cortex-m4
   2              		.eabi_attribute 27, 1
   3              		.eabi_attribute 28, 1
   4              		.eabi_attribute 20, 1
   5              		.eabi_attribute 21, 1
   6              		.eabi_attribute 23, 3
   7              		.eabi_attribute 24, 1
   8              		.eabi_attribute 25, 1
   9              		.eabi_attribute 26, 1
  10              		.eabi_attribute 30, 2
  11              		.eabi_attribute 34, 1
  12              		.eabi_attribute 18, 4
  13              		.file	"stm32g4xx_ll_fmac.c"
  14              		.text
  15              	.Ltext0:
  16              		.cfi_sections	.debug_frame
  17              		.section	.text.LL_FMAC_Init,"ax",%progbits
  18              		.align	1
  19              		.p2align 2,,3
  20              		.global	LL_FMAC_Init
  21              		.arch armv7e-m
  22              		.syntax unified
  23              		.thumb
  24              		.thumb_func
  25              		.fpu fpv4-sp-d16
  27              	LL_FMAC_Init:
  28              	.LVL0:
  29              	.LFB435:
  30              		.file 1 "Drivers/STM32G4xx_HAL_Driver/Src/stm32g4xx_ll_fmac.c"
   1:Drivers/STM32G4xx_HAL_Driver/Src/stm32g4xx_ll_fmac.c **** /**
   2:Drivers/STM32G4xx_HAL_Driver/Src/stm32g4xx_ll_fmac.c ****   ******************************************************************************
   3:Drivers/STM32G4xx_HAL_Driver/Src/stm32g4xx_ll_fmac.c ****   * @file    stm32g4xx_ll_fmac.c
   4:Drivers/STM32G4xx_HAL_Driver/Src/stm32g4xx_ll_fmac.c ****   * @author  MCD Application Team
   5:Drivers/STM32G4xx_HAL_Driver/Src/stm32g4xx_ll_fmac.c ****   * @brief   Header for stm32g4xx_ll_fmac.c module
   6:Drivers/STM32G4xx_HAL_Driver/Src/stm32g4xx_ll_fmac.c ****   ******************************************************************************
   7:Drivers/STM32G4xx_HAL_Driver/Src/stm32g4xx_ll_fmac.c ****   * @attention
   8:Drivers/STM32G4xx_HAL_Driver/Src/stm32g4xx_ll_fmac.c ****   *
   9:Drivers/STM32G4xx_HAL_Driver/Src/stm32g4xx_ll_fmac.c ****   * <h2><center>&copy; Copyright (c) 2019 STMicroelectronics.
  10:Drivers/STM32G4xx_HAL_Driver/Src/stm32g4xx_ll_fmac.c ****   * All rights reserved.</center></h2>
  11:Drivers/STM32G4xx_HAL_Driver/Src/stm32g4xx_ll_fmac.c ****   *
  12:Drivers/STM32G4xx_HAL_Driver/Src/stm32g4xx_ll_fmac.c ****   * This software component is licensed by ST under BSD 3-Clause license,
  13:Drivers/STM32G4xx_HAL_Driver/Src/stm32g4xx_ll_fmac.c ****   * the "License"; You may not use this file except in compliance with the
  14:Drivers/STM32G4xx_HAL_Driver/Src/stm32g4xx_ll_fmac.c ****   * License. You may obtain a copy of the License at:
  15:Drivers/STM32G4xx_HAL_Driver/Src/stm32g4xx_ll_fmac.c ****   *                        opensource.org/licenses/BSD-3-Clause
  16:Drivers/STM32G4xx_HAL_Driver/Src/stm32g4xx_ll_fmac.c ****   *
  17:Drivers/STM32G4xx_HAL_Driver/Src/stm32g4xx_ll_fmac.c ****   ******************************************************************************
  18:Drivers/STM32G4xx_HAL_Driver/Src/stm32g4xx_ll_fmac.c ****   */
  19:Drivers/STM32G4xx_HAL_Driver/Src/stm32g4xx_ll_fmac.c **** #if defined(USE_FULL_LL_DRIVER)
  20:Drivers/STM32G4xx_HAL_Driver/Src/stm32g4xx_ll_fmac.c **** 
  21:Drivers/STM32G4xx_HAL_Driver/Src/stm32g4xx_ll_fmac.c **** /* Includes ------------------------------------------------------------------*/
  22:Drivers/STM32G4xx_HAL_Driver/Src/stm32g4xx_ll_fmac.c **** #include "stm32g4xx_ll_fmac.h"
  23:Drivers/STM32G4xx_HAL_Driver/Src/stm32g4xx_ll_fmac.c **** #include "stm32g4xx_ll_bus.h"
  24:Drivers/STM32G4xx_HAL_Driver/Src/stm32g4xx_ll_fmac.c **** #ifdef USE_FULL_ASSERT
  25:Drivers/STM32G4xx_HAL_Driver/Src/stm32g4xx_ll_fmac.c **** #include "stm32_assert.h"
  26:Drivers/STM32G4xx_HAL_Driver/Src/stm32g4xx_ll_fmac.c **** #else
  27:Drivers/STM32G4xx_HAL_Driver/Src/stm32g4xx_ll_fmac.c **** #define assert_param(expr) ((void)0)
  28:Drivers/STM32G4xx_HAL_Driver/Src/stm32g4xx_ll_fmac.c **** #endif /* USE_FULL_ASSERT */
ARM GAS  /tmp/ccvW6hDH.s 			page 2


  29:Drivers/STM32G4xx_HAL_Driver/Src/stm32g4xx_ll_fmac.c **** 
  30:Drivers/STM32G4xx_HAL_Driver/Src/stm32g4xx_ll_fmac.c **** /** @addtogroup STM32G4xx_LL_Driver
  31:Drivers/STM32G4xx_HAL_Driver/Src/stm32g4xx_ll_fmac.c ****   * @{
  32:Drivers/STM32G4xx_HAL_Driver/Src/stm32g4xx_ll_fmac.c ****   */
  33:Drivers/STM32G4xx_HAL_Driver/Src/stm32g4xx_ll_fmac.c **** 
  34:Drivers/STM32G4xx_HAL_Driver/Src/stm32g4xx_ll_fmac.c **** #if defined(FMAC)
  35:Drivers/STM32G4xx_HAL_Driver/Src/stm32g4xx_ll_fmac.c **** 
  36:Drivers/STM32G4xx_HAL_Driver/Src/stm32g4xx_ll_fmac.c **** /** @addtogroup FMAC_LL
  37:Drivers/STM32G4xx_HAL_Driver/Src/stm32g4xx_ll_fmac.c ****   * @{
  38:Drivers/STM32G4xx_HAL_Driver/Src/stm32g4xx_ll_fmac.c ****   */
  39:Drivers/STM32G4xx_HAL_Driver/Src/stm32g4xx_ll_fmac.c **** 
  40:Drivers/STM32G4xx_HAL_Driver/Src/stm32g4xx_ll_fmac.c **** /* Private typedef -----------------------------------------------------------*/
  41:Drivers/STM32G4xx_HAL_Driver/Src/stm32g4xx_ll_fmac.c **** /* Private defines -----------------------------------------------------------*/
  42:Drivers/STM32G4xx_HAL_Driver/Src/stm32g4xx_ll_fmac.c **** /* Private macros ------------------------------------------------------------*/
  43:Drivers/STM32G4xx_HAL_Driver/Src/stm32g4xx_ll_fmac.c **** /* Private variables ---------------------------------------------------------*/
  44:Drivers/STM32G4xx_HAL_Driver/Src/stm32g4xx_ll_fmac.c **** /* Global variables ----------------------------------------------------------*/
  45:Drivers/STM32G4xx_HAL_Driver/Src/stm32g4xx_ll_fmac.c **** /* Private function prototypes -----------------------------------------------*/
  46:Drivers/STM32G4xx_HAL_Driver/Src/stm32g4xx_ll_fmac.c **** /* Functions Definition ------------------------------------------------------*/
  47:Drivers/STM32G4xx_HAL_Driver/Src/stm32g4xx_ll_fmac.c **** /** @addtogroup FMAC_LL_Exported_Functions
  48:Drivers/STM32G4xx_HAL_Driver/Src/stm32g4xx_ll_fmac.c ****   * @{
  49:Drivers/STM32G4xx_HAL_Driver/Src/stm32g4xx_ll_fmac.c ****   */
  50:Drivers/STM32G4xx_HAL_Driver/Src/stm32g4xx_ll_fmac.c **** 
  51:Drivers/STM32G4xx_HAL_Driver/Src/stm32g4xx_ll_fmac.c **** /** @addtogroup FMAC_LL_EF_Init
  52:Drivers/STM32G4xx_HAL_Driver/Src/stm32g4xx_ll_fmac.c ****   * @{
  53:Drivers/STM32G4xx_HAL_Driver/Src/stm32g4xx_ll_fmac.c ****   */
  54:Drivers/STM32G4xx_HAL_Driver/Src/stm32g4xx_ll_fmac.c **** 
  55:Drivers/STM32G4xx_HAL_Driver/Src/stm32g4xx_ll_fmac.c **** /**
  56:Drivers/STM32G4xx_HAL_Driver/Src/stm32g4xx_ll_fmac.c ****   * @brief  Initialize FMAC peripheral registers to their default reset values.
  57:Drivers/STM32G4xx_HAL_Driver/Src/stm32g4xx_ll_fmac.c ****   * @param  FMACx FMAC Instance
  58:Drivers/STM32G4xx_HAL_Driver/Src/stm32g4xx_ll_fmac.c ****   * @retval ErrorStatus enumeration value:
  59:Drivers/STM32G4xx_HAL_Driver/Src/stm32g4xx_ll_fmac.c ****   *          - SUCCESS: FMAC registers are initialized
  60:Drivers/STM32G4xx_HAL_Driver/Src/stm32g4xx_ll_fmac.c ****   *          - ERROR: FMAC registers are not initialized
  61:Drivers/STM32G4xx_HAL_Driver/Src/stm32g4xx_ll_fmac.c ****   */
  62:Drivers/STM32G4xx_HAL_Driver/Src/stm32g4xx_ll_fmac.c **** ErrorStatus LL_FMAC_Init(FMAC_TypeDef *FMACx)
  63:Drivers/STM32G4xx_HAL_Driver/Src/stm32g4xx_ll_fmac.c **** {
  31              		.loc 1 63 1 view -0
  32              		.cfi_startproc
  33              		@ args = 0, pretend = 0, frame = 0
  34              		@ frame_needed = 0, uses_anonymous_args = 0
  35              		@ link register save eliminated.
  64:Drivers/STM32G4xx_HAL_Driver/Src/stm32g4xx_ll_fmac.c ****   ErrorStatus status = SUCCESS;
  36              		.loc 1 64 3 view .LVU1
  65:Drivers/STM32G4xx_HAL_Driver/Src/stm32g4xx_ll_fmac.c **** 
  66:Drivers/STM32G4xx_HAL_Driver/Src/stm32g4xx_ll_fmac.c ****   /* Check the parameters */
  67:Drivers/STM32G4xx_HAL_Driver/Src/stm32g4xx_ll_fmac.c ****   assert_param(IS_FMAC_ALL_INSTANCE(FMACx));
  37              		.loc 1 67 3 view .LVU2
  68:Drivers/STM32G4xx_HAL_Driver/Src/stm32g4xx_ll_fmac.c **** 
  69:Drivers/STM32G4xx_HAL_Driver/Src/stm32g4xx_ll_fmac.c ****   if (FMACx == FMAC)
  38              		.loc 1 69 3 view .LVU3
  39              		.loc 1 69 6 is_stmt 0 view .LVU4
  40 0000 074B     		ldr	r3, .L8
  41 0002 9842     		cmp	r0, r3
  42 0004 01D0     		beq	.L7
  70:Drivers/STM32G4xx_HAL_Driver/Src/stm32g4xx_ll_fmac.c ****   {
  71:Drivers/STM32G4xx_HAL_Driver/Src/stm32g4xx_ll_fmac.c ****     /* Perform the reset */
  72:Drivers/STM32G4xx_HAL_Driver/Src/stm32g4xx_ll_fmac.c ****     LL_FMAC_EnableReset(FMACx);
  73:Drivers/STM32G4xx_HAL_Driver/Src/stm32g4xx_ll_fmac.c **** 
ARM GAS  /tmp/ccvW6hDH.s 			page 3


  74:Drivers/STM32G4xx_HAL_Driver/Src/stm32g4xx_ll_fmac.c ****     /* Wait until flag is reset */
  75:Drivers/STM32G4xx_HAL_Driver/Src/stm32g4xx_ll_fmac.c ****     while (LL_FMAC_IsEnabledReset(FMACx) != 0UL)
  76:Drivers/STM32G4xx_HAL_Driver/Src/stm32g4xx_ll_fmac.c ****     {
  77:Drivers/STM32G4xx_HAL_Driver/Src/stm32g4xx_ll_fmac.c ****     }
  78:Drivers/STM32G4xx_HAL_Driver/Src/stm32g4xx_ll_fmac.c ****   }
  79:Drivers/STM32G4xx_HAL_Driver/Src/stm32g4xx_ll_fmac.c ****   else
  80:Drivers/STM32G4xx_HAL_Driver/Src/stm32g4xx_ll_fmac.c ****   {
  81:Drivers/STM32G4xx_HAL_Driver/Src/stm32g4xx_ll_fmac.c ****     status = ERROR;
  43              		.loc 1 81 12 view .LVU5
  44 0006 0120     		movs	r0, #1
  45              	.LVL1:
  82:Drivers/STM32G4xx_HAL_Driver/Src/stm32g4xx_ll_fmac.c ****   }
  83:Drivers/STM32G4xx_HAL_Driver/Src/stm32g4xx_ll_fmac.c **** 
  84:Drivers/STM32G4xx_HAL_Driver/Src/stm32g4xx_ll_fmac.c ****   return (status);
  46              		.loc 1 84 3 is_stmt 1 view .LVU6
  85:Drivers/STM32G4xx_HAL_Driver/Src/stm32g4xx_ll_fmac.c **** }
  47              		.loc 1 85 1 is_stmt 0 view .LVU7
  48 0008 7047     		bx	lr
  49              	.LVL2:
  50              	.L7:
  72:Drivers/STM32G4xx_HAL_Driver/Src/stm32g4xx_ll_fmac.c **** 
  51              		.loc 1 72 5 is_stmt 1 view .LVU8
  52              	.LBB10:
  53              	.LBI10:
  54              		.file 2 "Drivers/STM32G4xx_HAL_Driver/Inc/stm32g4xx_ll_fmac.h"
   1:Drivers/STM32G4xx_HAL_Driver/Inc/stm32g4xx_ll_fmac.h **** /**
   2:Drivers/STM32G4xx_HAL_Driver/Inc/stm32g4xx_ll_fmac.h ****   ******************************************************************************
   3:Drivers/STM32G4xx_HAL_Driver/Inc/stm32g4xx_ll_fmac.h ****   * @file    stm32g4xx_ll_fmac.h
   4:Drivers/STM32G4xx_HAL_Driver/Inc/stm32g4xx_ll_fmac.h ****   * @author  MCD Application Team
   5:Drivers/STM32G4xx_HAL_Driver/Inc/stm32g4xx_ll_fmac.h ****   * @brief   Header file of FMAC LL module.
   6:Drivers/STM32G4xx_HAL_Driver/Inc/stm32g4xx_ll_fmac.h ****   ******************************************************************************
   7:Drivers/STM32G4xx_HAL_Driver/Inc/stm32g4xx_ll_fmac.h ****   * @attention
   8:Drivers/STM32G4xx_HAL_Driver/Inc/stm32g4xx_ll_fmac.h ****   *
   9:Drivers/STM32G4xx_HAL_Driver/Inc/stm32g4xx_ll_fmac.h ****   * <h2><center>&copy; Copyright (c) 2019 STMicroelectronics.
  10:Drivers/STM32G4xx_HAL_Driver/Inc/stm32g4xx_ll_fmac.h ****   * All rights reserved.</center></h2>
  11:Drivers/STM32G4xx_HAL_Driver/Inc/stm32g4xx_ll_fmac.h ****   *
  12:Drivers/STM32G4xx_HAL_Driver/Inc/stm32g4xx_ll_fmac.h ****   * This software component is licensed by ST under BSD 3-Clause license,
  13:Drivers/STM32G4xx_HAL_Driver/Inc/stm32g4xx_ll_fmac.h ****   * the "License"; You may not use this file except in compliance with the
  14:Drivers/STM32G4xx_HAL_Driver/Inc/stm32g4xx_ll_fmac.h ****   * License. You may obtain a copy of the License at:
  15:Drivers/STM32G4xx_HAL_Driver/Inc/stm32g4xx_ll_fmac.h ****   *                        opensource.org/licenses/BSD-3-Clause
  16:Drivers/STM32G4xx_HAL_Driver/Inc/stm32g4xx_ll_fmac.h ****   *
  17:Drivers/STM32G4xx_HAL_Driver/Inc/stm32g4xx_ll_fmac.h ****   ******************************************************************************
  18:Drivers/STM32G4xx_HAL_Driver/Inc/stm32g4xx_ll_fmac.h ****   */
  19:Drivers/STM32G4xx_HAL_Driver/Inc/stm32g4xx_ll_fmac.h **** 
  20:Drivers/STM32G4xx_HAL_Driver/Inc/stm32g4xx_ll_fmac.h **** /* Define to prevent recursive inclusion -------------------------------------*/
  21:Drivers/STM32G4xx_HAL_Driver/Inc/stm32g4xx_ll_fmac.h **** #ifndef STM32G4xx_LL_FMAC_H
  22:Drivers/STM32G4xx_HAL_Driver/Inc/stm32g4xx_ll_fmac.h **** #define STM32G4xx_LL_FMAC_H
  23:Drivers/STM32G4xx_HAL_Driver/Inc/stm32g4xx_ll_fmac.h **** 
  24:Drivers/STM32G4xx_HAL_Driver/Inc/stm32g4xx_ll_fmac.h **** #ifdef __cplusplus
  25:Drivers/STM32G4xx_HAL_Driver/Inc/stm32g4xx_ll_fmac.h **** extern "C" {
  26:Drivers/STM32G4xx_HAL_Driver/Inc/stm32g4xx_ll_fmac.h **** #endif
  27:Drivers/STM32G4xx_HAL_Driver/Inc/stm32g4xx_ll_fmac.h **** 
  28:Drivers/STM32G4xx_HAL_Driver/Inc/stm32g4xx_ll_fmac.h **** /* Includes ------------------------------------------------------------------*/
  29:Drivers/STM32G4xx_HAL_Driver/Inc/stm32g4xx_ll_fmac.h **** #include "stm32g4xx.h"
  30:Drivers/STM32G4xx_HAL_Driver/Inc/stm32g4xx_ll_fmac.h **** 
  31:Drivers/STM32G4xx_HAL_Driver/Inc/stm32g4xx_ll_fmac.h **** /** @addtogroup STM32G4xx_LL_Driver
  32:Drivers/STM32G4xx_HAL_Driver/Inc/stm32g4xx_ll_fmac.h ****   * @{
ARM GAS  /tmp/ccvW6hDH.s 			page 4


  33:Drivers/STM32G4xx_HAL_Driver/Inc/stm32g4xx_ll_fmac.h ****   */
  34:Drivers/STM32G4xx_HAL_Driver/Inc/stm32g4xx_ll_fmac.h **** 
  35:Drivers/STM32G4xx_HAL_Driver/Inc/stm32g4xx_ll_fmac.h **** #if defined(FMAC)
  36:Drivers/STM32G4xx_HAL_Driver/Inc/stm32g4xx_ll_fmac.h **** 
  37:Drivers/STM32G4xx_HAL_Driver/Inc/stm32g4xx_ll_fmac.h **** /** @defgroup FMAC_LL FMAC
  38:Drivers/STM32G4xx_HAL_Driver/Inc/stm32g4xx_ll_fmac.h ****   * @{
  39:Drivers/STM32G4xx_HAL_Driver/Inc/stm32g4xx_ll_fmac.h ****   */
  40:Drivers/STM32G4xx_HAL_Driver/Inc/stm32g4xx_ll_fmac.h **** 
  41:Drivers/STM32G4xx_HAL_Driver/Inc/stm32g4xx_ll_fmac.h **** /* Exported types ------------------------------------------------------------*/
  42:Drivers/STM32G4xx_HAL_Driver/Inc/stm32g4xx_ll_fmac.h **** 
  43:Drivers/STM32G4xx_HAL_Driver/Inc/stm32g4xx_ll_fmac.h **** /* Exported constants --------------------------------------------------------*/
  44:Drivers/STM32G4xx_HAL_Driver/Inc/stm32g4xx_ll_fmac.h **** /** @defgroup FMAC_LL_Exported_Constants FMAC Exported Constants
  45:Drivers/STM32G4xx_HAL_Driver/Inc/stm32g4xx_ll_fmac.h ****   * @{
  46:Drivers/STM32G4xx_HAL_Driver/Inc/stm32g4xx_ll_fmac.h ****   */
  47:Drivers/STM32G4xx_HAL_Driver/Inc/stm32g4xx_ll_fmac.h **** 
  48:Drivers/STM32G4xx_HAL_Driver/Inc/stm32g4xx_ll_fmac.h **** /** @defgroup FMAC_LL_EC_GET_FLAG Get Flag Defines
  49:Drivers/STM32G4xx_HAL_Driver/Inc/stm32g4xx_ll_fmac.h ****   * @brief    Flag defines which can be used with LL_FMAC_ReadReg function
  50:Drivers/STM32G4xx_HAL_Driver/Inc/stm32g4xx_ll_fmac.h ****   * @{
  51:Drivers/STM32G4xx_HAL_Driver/Inc/stm32g4xx_ll_fmac.h ****   */
  52:Drivers/STM32G4xx_HAL_Driver/Inc/stm32g4xx_ll_fmac.h **** #define LL_FMAC_SR_SAT                     FMAC_SR_SAT    /*!< Saturation Error Flag (this helps in
  53:Drivers/STM32G4xx_HAL_Driver/Inc/stm32g4xx_ll_fmac.h **** #define LL_FMAC_SR_UNFL                    FMAC_SR_UNFL   /*!< Underflow Error Flag */
  54:Drivers/STM32G4xx_HAL_Driver/Inc/stm32g4xx_ll_fmac.h **** #define LL_FMAC_SR_OVFL                    FMAC_SR_OVFL   /*!< Overflow Error Flag */
  55:Drivers/STM32G4xx_HAL_Driver/Inc/stm32g4xx_ll_fmac.h **** #define LL_FMAC_SR_X1FULL                  FMAC_SR_X1FULL /*!< X1 Buffer Full Flag */
  56:Drivers/STM32G4xx_HAL_Driver/Inc/stm32g4xx_ll_fmac.h **** #define LL_FMAC_SR_YEMPTY                  FMAC_SR_YEMPTY /*!< Y Buffer Empty Flag */
  57:Drivers/STM32G4xx_HAL_Driver/Inc/stm32g4xx_ll_fmac.h **** /**
  58:Drivers/STM32G4xx_HAL_Driver/Inc/stm32g4xx_ll_fmac.h ****   * @}
  59:Drivers/STM32G4xx_HAL_Driver/Inc/stm32g4xx_ll_fmac.h ****   */
  60:Drivers/STM32G4xx_HAL_Driver/Inc/stm32g4xx_ll_fmac.h **** 
  61:Drivers/STM32G4xx_HAL_Driver/Inc/stm32g4xx_ll_fmac.h **** /** @defgroup FMAC_LL_EC_IT IT Defines
  62:Drivers/STM32G4xx_HAL_Driver/Inc/stm32g4xx_ll_fmac.h ****   * @brief    IT defines which can be used with LL_FMAC_ReadReg and LL_FMAC_WriteReg functions
  63:Drivers/STM32G4xx_HAL_Driver/Inc/stm32g4xx_ll_fmac.h ****   * @{
  64:Drivers/STM32G4xx_HAL_Driver/Inc/stm32g4xx_ll_fmac.h ****   */
  65:Drivers/STM32G4xx_HAL_Driver/Inc/stm32g4xx_ll_fmac.h **** #define LL_FMAC_CR_SATIEN                  FMAC_CR_SATIEN  /*!< Saturation Error Interrupt Enable (
  66:Drivers/STM32G4xx_HAL_Driver/Inc/stm32g4xx_ll_fmac.h **** #define LL_FMAC_CR_UNFLIEN                 FMAC_CR_UNFLIEN /*!< Underflow Error Interrupt Enable */
  67:Drivers/STM32G4xx_HAL_Driver/Inc/stm32g4xx_ll_fmac.h **** #define LL_FMAC_CR_OVFLIEN                 FMAC_CR_OVFLIEN /*!< Overflow Error Interrupt Enable */
  68:Drivers/STM32G4xx_HAL_Driver/Inc/stm32g4xx_ll_fmac.h **** #define LL_FMAC_CR_WIEN                    FMAC_CR_WIEN    /*!< Write Interrupt Enable */
  69:Drivers/STM32G4xx_HAL_Driver/Inc/stm32g4xx_ll_fmac.h **** #define LL_FMAC_CR_RIEN                    FMAC_CR_RIEN    /*!< Read Interrupt Enable */
  70:Drivers/STM32G4xx_HAL_Driver/Inc/stm32g4xx_ll_fmac.h **** /**
  71:Drivers/STM32G4xx_HAL_Driver/Inc/stm32g4xx_ll_fmac.h ****   * @}
  72:Drivers/STM32G4xx_HAL_Driver/Inc/stm32g4xx_ll_fmac.h ****   */
  73:Drivers/STM32G4xx_HAL_Driver/Inc/stm32g4xx_ll_fmac.h **** 
  74:Drivers/STM32G4xx_HAL_Driver/Inc/stm32g4xx_ll_fmac.h **** /** @defgroup FMAC_LL_EC_WM FMAC watermarks
  75:Drivers/STM32G4xx_HAL_Driver/Inc/stm32g4xx_ll_fmac.h ****   * @brief    Watermark defines that can be used for buffer full (input) or buffer empty (output)
  76:Drivers/STM32G4xx_HAL_Driver/Inc/stm32g4xx_ll_fmac.h ****   * @{
  77:Drivers/STM32G4xx_HAL_Driver/Inc/stm32g4xx_ll_fmac.h ****   */
  78:Drivers/STM32G4xx_HAL_Driver/Inc/stm32g4xx_ll_fmac.h **** #define LL_FMAC_WM_0_THRESHOLD_1           0x00000000U /*!< Buffer full/empty flag set if there is 
  79:Drivers/STM32G4xx_HAL_Driver/Inc/stm32g4xx_ll_fmac.h **** #define LL_FMAC_WM_1_THRESHOLD_2           0x01000000U /*!< Buffer full/empty flag set if there are
  80:Drivers/STM32G4xx_HAL_Driver/Inc/stm32g4xx_ll_fmac.h **** #define LL_FMAC_WM_2_THRESHOLD_4           0x02000000U /*!< Buffer full/empty flag set if there are
  81:Drivers/STM32G4xx_HAL_Driver/Inc/stm32g4xx_ll_fmac.h **** #define LL_FMAC_WM_3_THRESHOLD_8           0x03000000U /*!< Buffer full/empty flag set if there are
  82:Drivers/STM32G4xx_HAL_Driver/Inc/stm32g4xx_ll_fmac.h **** /**
  83:Drivers/STM32G4xx_HAL_Driver/Inc/stm32g4xx_ll_fmac.h ****   * @}
  84:Drivers/STM32G4xx_HAL_Driver/Inc/stm32g4xx_ll_fmac.h ****   */
  85:Drivers/STM32G4xx_HAL_Driver/Inc/stm32g4xx_ll_fmac.h **** 
  86:Drivers/STM32G4xx_HAL_Driver/Inc/stm32g4xx_ll_fmac.h **** /** @defgroup FMAC_LL_EC_FUNC FMAC functions
  87:Drivers/STM32G4xx_HAL_Driver/Inc/stm32g4xx_ll_fmac.h ****   * @{
  88:Drivers/STM32G4xx_HAL_Driver/Inc/stm32g4xx_ll_fmac.h ****   */
  89:Drivers/STM32G4xx_HAL_Driver/Inc/stm32g4xx_ll_fmac.h **** #define LL_FMAC_FUNC_LOAD_X1               (FMAC_PARAM_FUNC_0)                                     
ARM GAS  /tmp/ccvW6hDH.s 			page 5


  90:Drivers/STM32G4xx_HAL_Driver/Inc/stm32g4xx_ll_fmac.h **** #define LL_FMAC_FUNC_LOAD_X2               (FMAC_PARAM_FUNC_1)                                     
  91:Drivers/STM32G4xx_HAL_Driver/Inc/stm32g4xx_ll_fmac.h **** #define LL_FMAC_FUNC_LOAD_Y                (FMAC_PARAM_FUNC_1 | FMAC_PARAM_FUNC_0)                 
  92:Drivers/STM32G4xx_HAL_Driver/Inc/stm32g4xx_ll_fmac.h **** #define LL_FMAC_FUNC_CONVO_FIR             (FMAC_PARAM_FUNC_3)                                     
  93:Drivers/STM32G4xx_HAL_Driver/Inc/stm32g4xx_ll_fmac.h **** #define LL_FMAC_FUNC_IIR_DIRECT_FORM_1     (FMAC_PARAM_FUNC_3 | FMAC_PARAM_FUNC_0)                 
  94:Drivers/STM32G4xx_HAL_Driver/Inc/stm32g4xx_ll_fmac.h **** /**
  95:Drivers/STM32G4xx_HAL_Driver/Inc/stm32g4xx_ll_fmac.h ****   * @}
  96:Drivers/STM32G4xx_HAL_Driver/Inc/stm32g4xx_ll_fmac.h ****   */
  97:Drivers/STM32G4xx_HAL_Driver/Inc/stm32g4xx_ll_fmac.h **** 
  98:Drivers/STM32G4xx_HAL_Driver/Inc/stm32g4xx_ll_fmac.h **** /** @defgroup FMAC_LL_EC_PROCESSING FMAC processing
  99:Drivers/STM32G4xx_HAL_Driver/Inc/stm32g4xx_ll_fmac.h ****   * @{
 100:Drivers/STM32G4xx_HAL_Driver/Inc/stm32g4xx_ll_fmac.h ****   */
 101:Drivers/STM32G4xx_HAL_Driver/Inc/stm32g4xx_ll_fmac.h **** #define LL_FMAC_PROCESSING_STOP            0x00U /*!< Stop FMAC Processing */
 102:Drivers/STM32G4xx_HAL_Driver/Inc/stm32g4xx_ll_fmac.h **** #define LL_FMAC_PROCESSING_START           0x01U /*!< Start FMAC Processing */
 103:Drivers/STM32G4xx_HAL_Driver/Inc/stm32g4xx_ll_fmac.h **** /**
 104:Drivers/STM32G4xx_HAL_Driver/Inc/stm32g4xx_ll_fmac.h ****   * @}
 105:Drivers/STM32G4xx_HAL_Driver/Inc/stm32g4xx_ll_fmac.h ****   */
 106:Drivers/STM32G4xx_HAL_Driver/Inc/stm32g4xx_ll_fmac.h **** 
 107:Drivers/STM32G4xx_HAL_Driver/Inc/stm32g4xx_ll_fmac.h **** /**
 108:Drivers/STM32G4xx_HAL_Driver/Inc/stm32g4xx_ll_fmac.h ****   * @}
 109:Drivers/STM32G4xx_HAL_Driver/Inc/stm32g4xx_ll_fmac.h ****   */
 110:Drivers/STM32G4xx_HAL_Driver/Inc/stm32g4xx_ll_fmac.h **** 
 111:Drivers/STM32G4xx_HAL_Driver/Inc/stm32g4xx_ll_fmac.h **** /* External variables --------------------------------------------------------*/
 112:Drivers/STM32G4xx_HAL_Driver/Inc/stm32g4xx_ll_fmac.h **** /* Exported macros -----------------------------------------------------------*/
 113:Drivers/STM32G4xx_HAL_Driver/Inc/stm32g4xx_ll_fmac.h **** /** @defgroup FMAC_LL_Exported_Macros FMAC Exported Macros
 114:Drivers/STM32G4xx_HAL_Driver/Inc/stm32g4xx_ll_fmac.h ****   * @{
 115:Drivers/STM32G4xx_HAL_Driver/Inc/stm32g4xx_ll_fmac.h ****   */
 116:Drivers/STM32G4xx_HAL_Driver/Inc/stm32g4xx_ll_fmac.h **** 
 117:Drivers/STM32G4xx_HAL_Driver/Inc/stm32g4xx_ll_fmac.h **** /** @defgroup FMAC_LL_EM_WRITE_READ Common Write and read registers Macros
 118:Drivers/STM32G4xx_HAL_Driver/Inc/stm32g4xx_ll_fmac.h ****   * @{
 119:Drivers/STM32G4xx_HAL_Driver/Inc/stm32g4xx_ll_fmac.h ****   */
 120:Drivers/STM32G4xx_HAL_Driver/Inc/stm32g4xx_ll_fmac.h **** 
 121:Drivers/STM32G4xx_HAL_Driver/Inc/stm32g4xx_ll_fmac.h **** /**
 122:Drivers/STM32G4xx_HAL_Driver/Inc/stm32g4xx_ll_fmac.h ****   * @brief  Write a value in FMAC register
 123:Drivers/STM32G4xx_HAL_Driver/Inc/stm32g4xx_ll_fmac.h ****   * @param  __INSTANCE__ FMAC Instance
 124:Drivers/STM32G4xx_HAL_Driver/Inc/stm32g4xx_ll_fmac.h ****   * @param  __REG__ Register to be written
 125:Drivers/STM32G4xx_HAL_Driver/Inc/stm32g4xx_ll_fmac.h ****   * @param  __VALUE__ Value to be written in the register
 126:Drivers/STM32G4xx_HAL_Driver/Inc/stm32g4xx_ll_fmac.h ****   * @retval None
 127:Drivers/STM32G4xx_HAL_Driver/Inc/stm32g4xx_ll_fmac.h ****   */
 128:Drivers/STM32G4xx_HAL_Driver/Inc/stm32g4xx_ll_fmac.h **** #define LL_FMAC_WriteReg(__INSTANCE__, __REG__, __VALUE__) WRITE_REG(__INSTANCE__->__REG__, (__VALU
 129:Drivers/STM32G4xx_HAL_Driver/Inc/stm32g4xx_ll_fmac.h **** 
 130:Drivers/STM32G4xx_HAL_Driver/Inc/stm32g4xx_ll_fmac.h **** /**
 131:Drivers/STM32G4xx_HAL_Driver/Inc/stm32g4xx_ll_fmac.h ****   * @brief  Read a value in FMAC register
 132:Drivers/STM32G4xx_HAL_Driver/Inc/stm32g4xx_ll_fmac.h ****   * @param  __INSTANCE__ FMAC Instance
 133:Drivers/STM32G4xx_HAL_Driver/Inc/stm32g4xx_ll_fmac.h ****   * @param  __REG__ Register to be read
 134:Drivers/STM32G4xx_HAL_Driver/Inc/stm32g4xx_ll_fmac.h ****   * @retval Register value
 135:Drivers/STM32G4xx_HAL_Driver/Inc/stm32g4xx_ll_fmac.h ****   */
 136:Drivers/STM32G4xx_HAL_Driver/Inc/stm32g4xx_ll_fmac.h **** #define LL_FMAC_ReadReg(__INSTANCE__, __REG__) READ_REG(__INSTANCE__->__REG__)
 137:Drivers/STM32G4xx_HAL_Driver/Inc/stm32g4xx_ll_fmac.h **** /**
 138:Drivers/STM32G4xx_HAL_Driver/Inc/stm32g4xx_ll_fmac.h ****   * @}
 139:Drivers/STM32G4xx_HAL_Driver/Inc/stm32g4xx_ll_fmac.h ****   */
 140:Drivers/STM32G4xx_HAL_Driver/Inc/stm32g4xx_ll_fmac.h **** 
 141:Drivers/STM32G4xx_HAL_Driver/Inc/stm32g4xx_ll_fmac.h **** /**
 142:Drivers/STM32G4xx_HAL_Driver/Inc/stm32g4xx_ll_fmac.h ****   * @}
 143:Drivers/STM32G4xx_HAL_Driver/Inc/stm32g4xx_ll_fmac.h ****   */
 144:Drivers/STM32G4xx_HAL_Driver/Inc/stm32g4xx_ll_fmac.h **** 
 145:Drivers/STM32G4xx_HAL_Driver/Inc/stm32g4xx_ll_fmac.h **** 
 146:Drivers/STM32G4xx_HAL_Driver/Inc/stm32g4xx_ll_fmac.h **** /* Exported functions --------------------------------------------------------*/
ARM GAS  /tmp/ccvW6hDH.s 			page 6


 147:Drivers/STM32G4xx_HAL_Driver/Inc/stm32g4xx_ll_fmac.h **** 
 148:Drivers/STM32G4xx_HAL_Driver/Inc/stm32g4xx_ll_fmac.h **** /** @defgroup FMAC_LL_Exported_Functions FMAC Exported Functions
 149:Drivers/STM32G4xx_HAL_Driver/Inc/stm32g4xx_ll_fmac.h ****   * @{
 150:Drivers/STM32G4xx_HAL_Driver/Inc/stm32g4xx_ll_fmac.h ****   */
 151:Drivers/STM32G4xx_HAL_Driver/Inc/stm32g4xx_ll_fmac.h **** 
 152:Drivers/STM32G4xx_HAL_Driver/Inc/stm32g4xx_ll_fmac.h **** /** @defgroup FMAC_LL_EF_Configuration FMAC Configuration functions
 153:Drivers/STM32G4xx_HAL_Driver/Inc/stm32g4xx_ll_fmac.h ****   * @{
 154:Drivers/STM32G4xx_HAL_Driver/Inc/stm32g4xx_ll_fmac.h ****   */
 155:Drivers/STM32G4xx_HAL_Driver/Inc/stm32g4xx_ll_fmac.h **** 
 156:Drivers/STM32G4xx_HAL_Driver/Inc/stm32g4xx_ll_fmac.h **** /**
 157:Drivers/STM32G4xx_HAL_Driver/Inc/stm32g4xx_ll_fmac.h ****   * @brief  Configure X1 full watermark.
 158:Drivers/STM32G4xx_HAL_Driver/Inc/stm32g4xx_ll_fmac.h ****   * @rmtoll X1BUFCFG     FULL_WM       LL_FMAC_SetX1FullWatermark
 159:Drivers/STM32G4xx_HAL_Driver/Inc/stm32g4xx_ll_fmac.h ****   * @param  FMACx FMAC instance
 160:Drivers/STM32G4xx_HAL_Driver/Inc/stm32g4xx_ll_fmac.h ****   * @param  Watermark This parameter can be one of the following values:
 161:Drivers/STM32G4xx_HAL_Driver/Inc/stm32g4xx_ll_fmac.h ****   *         @arg @ref LL_FMAC_WM_0_THRESHOLD_1
 162:Drivers/STM32G4xx_HAL_Driver/Inc/stm32g4xx_ll_fmac.h ****   *         @arg @ref LL_FMAC_WM_1_THRESHOLD_2
 163:Drivers/STM32G4xx_HAL_Driver/Inc/stm32g4xx_ll_fmac.h ****   *         @arg @ref LL_FMAC_WM_2_THRESHOLD_4
 164:Drivers/STM32G4xx_HAL_Driver/Inc/stm32g4xx_ll_fmac.h ****   *         @arg @ref LL_FMAC_WM_3_THRESHOLD_8
 165:Drivers/STM32G4xx_HAL_Driver/Inc/stm32g4xx_ll_fmac.h ****   * @retval None
 166:Drivers/STM32G4xx_HAL_Driver/Inc/stm32g4xx_ll_fmac.h ****   */
 167:Drivers/STM32G4xx_HAL_Driver/Inc/stm32g4xx_ll_fmac.h **** __STATIC_INLINE void LL_FMAC_SetX1FullWatermark(FMAC_TypeDef *FMACx, uint32_t Watermark)
 168:Drivers/STM32G4xx_HAL_Driver/Inc/stm32g4xx_ll_fmac.h **** {
 169:Drivers/STM32G4xx_HAL_Driver/Inc/stm32g4xx_ll_fmac.h ****   MODIFY_REG(FMACx->X1BUFCFG, FMAC_X1BUFCFG_FULL_WM, Watermark);
 170:Drivers/STM32G4xx_HAL_Driver/Inc/stm32g4xx_ll_fmac.h **** }
 171:Drivers/STM32G4xx_HAL_Driver/Inc/stm32g4xx_ll_fmac.h **** 
 172:Drivers/STM32G4xx_HAL_Driver/Inc/stm32g4xx_ll_fmac.h **** /**
 173:Drivers/STM32G4xx_HAL_Driver/Inc/stm32g4xx_ll_fmac.h ****   * @brief  Return X1 full watermark.
 174:Drivers/STM32G4xx_HAL_Driver/Inc/stm32g4xx_ll_fmac.h ****   * @rmtoll X1BUFCFG     FULL_WM       LL_FMAC_GetX1FullWatermark
 175:Drivers/STM32G4xx_HAL_Driver/Inc/stm32g4xx_ll_fmac.h ****   * @param  FMACx FMAC instance
 176:Drivers/STM32G4xx_HAL_Driver/Inc/stm32g4xx_ll_fmac.h ****   * @retval uint32_t Returned value can be one of the following values:
 177:Drivers/STM32G4xx_HAL_Driver/Inc/stm32g4xx_ll_fmac.h ****   *         @arg @ref LL_FMAC_WM_0_THRESHOLD_1
 178:Drivers/STM32G4xx_HAL_Driver/Inc/stm32g4xx_ll_fmac.h ****   *         @arg @ref LL_FMAC_WM_1_THRESHOLD_2
 179:Drivers/STM32G4xx_HAL_Driver/Inc/stm32g4xx_ll_fmac.h ****   *         @arg @ref LL_FMAC_WM_2_THRESHOLD_4
 180:Drivers/STM32G4xx_HAL_Driver/Inc/stm32g4xx_ll_fmac.h ****   *         @arg @ref LL_FMAC_WM_3_THRESHOLD_8
 181:Drivers/STM32G4xx_HAL_Driver/Inc/stm32g4xx_ll_fmac.h ****   */
 182:Drivers/STM32G4xx_HAL_Driver/Inc/stm32g4xx_ll_fmac.h **** __STATIC_INLINE uint32_t LL_FMAC_GetX1FullWatermark(FMAC_TypeDef *FMACx)
 183:Drivers/STM32G4xx_HAL_Driver/Inc/stm32g4xx_ll_fmac.h **** {
 184:Drivers/STM32G4xx_HAL_Driver/Inc/stm32g4xx_ll_fmac.h ****   return (uint32_t)(READ_BIT(FMACx->X1BUFCFG, FMAC_X1BUFCFG_FULL_WM));
 185:Drivers/STM32G4xx_HAL_Driver/Inc/stm32g4xx_ll_fmac.h **** }
 186:Drivers/STM32G4xx_HAL_Driver/Inc/stm32g4xx_ll_fmac.h **** 
 187:Drivers/STM32G4xx_HAL_Driver/Inc/stm32g4xx_ll_fmac.h **** /**
 188:Drivers/STM32G4xx_HAL_Driver/Inc/stm32g4xx_ll_fmac.h ****   * @brief  Configure X1 buffer size.
 189:Drivers/STM32G4xx_HAL_Driver/Inc/stm32g4xx_ll_fmac.h ****   * @rmtoll X1BUFCFG     X1_BUF_SIZE   LL_FMAC_SetX1BufferSize
 190:Drivers/STM32G4xx_HAL_Driver/Inc/stm32g4xx_ll_fmac.h ****   * @param  FMACx FMAC instance
 191:Drivers/STM32G4xx_HAL_Driver/Inc/stm32g4xx_ll_fmac.h ****   * @param  BufferSize Number of 16-bit words allocated to the input buffer (including the optional
 192:Drivers/STM32G4xx_HAL_Driver/Inc/stm32g4xx_ll_fmac.h ****   *                    This parameter must be a number between Min_Data=0x01 and Max_Data=0xFF.
 193:Drivers/STM32G4xx_HAL_Driver/Inc/stm32g4xx_ll_fmac.h ****   * @retval None
 194:Drivers/STM32G4xx_HAL_Driver/Inc/stm32g4xx_ll_fmac.h ****   */
 195:Drivers/STM32G4xx_HAL_Driver/Inc/stm32g4xx_ll_fmac.h **** __STATIC_INLINE void LL_FMAC_SetX1BufferSize(FMAC_TypeDef *FMACx, uint8_t BufferSize)
 196:Drivers/STM32G4xx_HAL_Driver/Inc/stm32g4xx_ll_fmac.h **** {
 197:Drivers/STM32G4xx_HAL_Driver/Inc/stm32g4xx_ll_fmac.h ****   MODIFY_REG(FMACx->X1BUFCFG, FMAC_X1BUFCFG_X1_BUF_SIZE, ((uint32_t)BufferSize) << FMAC_X1BUFCFG_X1
 198:Drivers/STM32G4xx_HAL_Driver/Inc/stm32g4xx_ll_fmac.h **** }
 199:Drivers/STM32G4xx_HAL_Driver/Inc/stm32g4xx_ll_fmac.h **** 
 200:Drivers/STM32G4xx_HAL_Driver/Inc/stm32g4xx_ll_fmac.h **** /**
 201:Drivers/STM32G4xx_HAL_Driver/Inc/stm32g4xx_ll_fmac.h ****   * @brief  Return X1 buffer size.
 202:Drivers/STM32G4xx_HAL_Driver/Inc/stm32g4xx_ll_fmac.h ****   * @rmtoll X1BUFCFG     X1_BUF_SIZE   LL_FMAC_GetX1BufferSize
 203:Drivers/STM32G4xx_HAL_Driver/Inc/stm32g4xx_ll_fmac.h ****   * @param  FMACx FMAC instance
ARM GAS  /tmp/ccvW6hDH.s 			page 7


 204:Drivers/STM32G4xx_HAL_Driver/Inc/stm32g4xx_ll_fmac.h ****   * @retval uint8_t Number of 16-bit words allocated to the input buffer (including the optional "h
 205:Drivers/STM32G4xx_HAL_Driver/Inc/stm32g4xx_ll_fmac.h ****   */
 206:Drivers/STM32G4xx_HAL_Driver/Inc/stm32g4xx_ll_fmac.h **** __STATIC_INLINE uint8_t LL_FMAC_GetX1BufferSize(FMAC_TypeDef *FMACx)
 207:Drivers/STM32G4xx_HAL_Driver/Inc/stm32g4xx_ll_fmac.h **** {
 208:Drivers/STM32G4xx_HAL_Driver/Inc/stm32g4xx_ll_fmac.h ****   return (uint8_t)(READ_BIT(FMACx->X1BUFCFG, FMAC_X1BUFCFG_X1_BUF_SIZE) >> FMAC_X1BUFCFG_X1_BUF_SIZ
 209:Drivers/STM32G4xx_HAL_Driver/Inc/stm32g4xx_ll_fmac.h **** }
 210:Drivers/STM32G4xx_HAL_Driver/Inc/stm32g4xx_ll_fmac.h **** 
 211:Drivers/STM32G4xx_HAL_Driver/Inc/stm32g4xx_ll_fmac.h **** /**
 212:Drivers/STM32G4xx_HAL_Driver/Inc/stm32g4xx_ll_fmac.h ****   * @brief  Configure X1 base.
 213:Drivers/STM32G4xx_HAL_Driver/Inc/stm32g4xx_ll_fmac.h ****   * @rmtoll X1BUFCFG     X1_BASE       LL_FMAC_SetX1Base
 214:Drivers/STM32G4xx_HAL_Driver/Inc/stm32g4xx_ll_fmac.h ****   * @param  FMACx FMAC instance
 215:Drivers/STM32G4xx_HAL_Driver/Inc/stm32g4xx_ll_fmac.h ****   * @param  Base Base address of the input buffer (X1) within the internal memory.
 216:Drivers/STM32G4xx_HAL_Driver/Inc/stm32g4xx_ll_fmac.h ****   *              This parameter must be a value between Min_Data=0x00 and Max_Data=0xFF.
 217:Drivers/STM32G4xx_HAL_Driver/Inc/stm32g4xx_ll_fmac.h ****   * @retval None
 218:Drivers/STM32G4xx_HAL_Driver/Inc/stm32g4xx_ll_fmac.h ****   */
 219:Drivers/STM32G4xx_HAL_Driver/Inc/stm32g4xx_ll_fmac.h **** __STATIC_INLINE void LL_FMAC_SetX1Base(FMAC_TypeDef *FMACx, uint8_t Base)
 220:Drivers/STM32G4xx_HAL_Driver/Inc/stm32g4xx_ll_fmac.h **** {
 221:Drivers/STM32G4xx_HAL_Driver/Inc/stm32g4xx_ll_fmac.h ****   MODIFY_REG(FMACx->X1BUFCFG, FMAC_X1BUFCFG_X1_BASE, ((uint32_t)Base) << FMAC_X1BUFCFG_X1_BASE_Pos)
 222:Drivers/STM32G4xx_HAL_Driver/Inc/stm32g4xx_ll_fmac.h **** }
 223:Drivers/STM32G4xx_HAL_Driver/Inc/stm32g4xx_ll_fmac.h **** 
 224:Drivers/STM32G4xx_HAL_Driver/Inc/stm32g4xx_ll_fmac.h **** /**
 225:Drivers/STM32G4xx_HAL_Driver/Inc/stm32g4xx_ll_fmac.h ****   * @brief  Return X1 base.
 226:Drivers/STM32G4xx_HAL_Driver/Inc/stm32g4xx_ll_fmac.h ****   * @rmtoll X1BUFCFG     X1_BASE       LL_FMAC_GetX1Base
 227:Drivers/STM32G4xx_HAL_Driver/Inc/stm32g4xx_ll_fmac.h ****   * @param  FMACx FMAC instance
 228:Drivers/STM32G4xx_HAL_Driver/Inc/stm32g4xx_ll_fmac.h ****   * @retval uint8_t Base address of the input buffer (X1) within the internal memory (value between
 229:Drivers/STM32G4xx_HAL_Driver/Inc/stm32g4xx_ll_fmac.h ****   */
 230:Drivers/STM32G4xx_HAL_Driver/Inc/stm32g4xx_ll_fmac.h **** __STATIC_INLINE uint8_t LL_FMAC_GetX1Base(FMAC_TypeDef *FMACx)
 231:Drivers/STM32G4xx_HAL_Driver/Inc/stm32g4xx_ll_fmac.h **** {
 232:Drivers/STM32G4xx_HAL_Driver/Inc/stm32g4xx_ll_fmac.h ****   return (uint8_t)(READ_BIT(FMACx->X1BUFCFG, FMAC_X1BUFCFG_X1_BASE) >> FMAC_X1BUFCFG_X1_BASE_Pos);
 233:Drivers/STM32G4xx_HAL_Driver/Inc/stm32g4xx_ll_fmac.h **** }
 234:Drivers/STM32G4xx_HAL_Driver/Inc/stm32g4xx_ll_fmac.h **** 
 235:Drivers/STM32G4xx_HAL_Driver/Inc/stm32g4xx_ll_fmac.h **** /**
 236:Drivers/STM32G4xx_HAL_Driver/Inc/stm32g4xx_ll_fmac.h ****   * @brief  Configure X2 buffer size.
 237:Drivers/STM32G4xx_HAL_Driver/Inc/stm32g4xx_ll_fmac.h ****   * @rmtoll X2BUFCFG     X2_BUF_SIZE   LL_FMAC_SetX2BufferSize
 238:Drivers/STM32G4xx_HAL_Driver/Inc/stm32g4xx_ll_fmac.h ****   * @param  FMACx FMAC instance
 239:Drivers/STM32G4xx_HAL_Driver/Inc/stm32g4xx_ll_fmac.h ****   * @param  BufferSize Number of 16-bit words allocated to the coefficient buffer.
 240:Drivers/STM32G4xx_HAL_Driver/Inc/stm32g4xx_ll_fmac.h ****   *                    This parameter must be a number between Min_Data=0x01 and Max_Data=0xFF.
 241:Drivers/STM32G4xx_HAL_Driver/Inc/stm32g4xx_ll_fmac.h ****   * @retval None
 242:Drivers/STM32G4xx_HAL_Driver/Inc/stm32g4xx_ll_fmac.h ****   */
 243:Drivers/STM32G4xx_HAL_Driver/Inc/stm32g4xx_ll_fmac.h **** __STATIC_INLINE void LL_FMAC_SetX2BufferSize(FMAC_TypeDef *FMACx, uint8_t BufferSize)
 244:Drivers/STM32G4xx_HAL_Driver/Inc/stm32g4xx_ll_fmac.h **** {
 245:Drivers/STM32G4xx_HAL_Driver/Inc/stm32g4xx_ll_fmac.h ****   MODIFY_REG(FMACx->X2BUFCFG, FMAC_X2BUFCFG_X2_BUF_SIZE, ((uint32_t)BufferSize) << FMAC_X2BUFCFG_X2
 246:Drivers/STM32G4xx_HAL_Driver/Inc/stm32g4xx_ll_fmac.h **** }
 247:Drivers/STM32G4xx_HAL_Driver/Inc/stm32g4xx_ll_fmac.h **** 
 248:Drivers/STM32G4xx_HAL_Driver/Inc/stm32g4xx_ll_fmac.h **** /**
 249:Drivers/STM32G4xx_HAL_Driver/Inc/stm32g4xx_ll_fmac.h ****   * @brief  Return X2 buffer size.
 250:Drivers/STM32G4xx_HAL_Driver/Inc/stm32g4xx_ll_fmac.h ****   * @rmtoll X2BUFCFG     X2_BUF_SIZE   LL_FMAC_GetX2BufferSize
 251:Drivers/STM32G4xx_HAL_Driver/Inc/stm32g4xx_ll_fmac.h ****   * @param  FMACx FMAC instance
 252:Drivers/STM32G4xx_HAL_Driver/Inc/stm32g4xx_ll_fmac.h ****   * @retval uint8_t Number of 16-bit words allocated to the coefficient buffer (value between Min_D
 253:Drivers/STM32G4xx_HAL_Driver/Inc/stm32g4xx_ll_fmac.h ****   */
 254:Drivers/STM32G4xx_HAL_Driver/Inc/stm32g4xx_ll_fmac.h **** __STATIC_INLINE uint8_t LL_FMAC_GetX2BufferSize(FMAC_TypeDef *FMACx)
 255:Drivers/STM32G4xx_HAL_Driver/Inc/stm32g4xx_ll_fmac.h **** {
 256:Drivers/STM32G4xx_HAL_Driver/Inc/stm32g4xx_ll_fmac.h ****   return (uint8_t)(READ_BIT(FMACx->X2BUFCFG, FMAC_X2BUFCFG_X2_BUF_SIZE) >> FMAC_X2BUFCFG_X2_BUF_SIZ
 257:Drivers/STM32G4xx_HAL_Driver/Inc/stm32g4xx_ll_fmac.h **** }
 258:Drivers/STM32G4xx_HAL_Driver/Inc/stm32g4xx_ll_fmac.h **** 
 259:Drivers/STM32G4xx_HAL_Driver/Inc/stm32g4xx_ll_fmac.h **** /**
 260:Drivers/STM32G4xx_HAL_Driver/Inc/stm32g4xx_ll_fmac.h ****   * @brief  Configure X2 base.
ARM GAS  /tmp/ccvW6hDH.s 			page 8


 261:Drivers/STM32G4xx_HAL_Driver/Inc/stm32g4xx_ll_fmac.h ****   * @rmtoll X2BUFCFG     X2_BASE       LL_FMAC_SetX2Base
 262:Drivers/STM32G4xx_HAL_Driver/Inc/stm32g4xx_ll_fmac.h ****   * @param  FMACx FMAC instance
 263:Drivers/STM32G4xx_HAL_Driver/Inc/stm32g4xx_ll_fmac.h ****   * @param  Base Base address of the coefficient buffer (X2) within the internal memory.
 264:Drivers/STM32G4xx_HAL_Driver/Inc/stm32g4xx_ll_fmac.h ****   *              This parameter must be a value between Min_Data=0x00 and Max_Data=0xFF.
 265:Drivers/STM32G4xx_HAL_Driver/Inc/stm32g4xx_ll_fmac.h ****   * @retval None
 266:Drivers/STM32G4xx_HAL_Driver/Inc/stm32g4xx_ll_fmac.h ****   */
 267:Drivers/STM32G4xx_HAL_Driver/Inc/stm32g4xx_ll_fmac.h **** __STATIC_INLINE void LL_FMAC_SetX2Base(FMAC_TypeDef *FMACx, uint8_t Base)
 268:Drivers/STM32G4xx_HAL_Driver/Inc/stm32g4xx_ll_fmac.h **** {
 269:Drivers/STM32G4xx_HAL_Driver/Inc/stm32g4xx_ll_fmac.h ****   MODIFY_REG(FMACx->X2BUFCFG, FMAC_X2BUFCFG_X2_BASE, ((uint32_t)Base) << FMAC_X2BUFCFG_X2_BASE_Pos)
 270:Drivers/STM32G4xx_HAL_Driver/Inc/stm32g4xx_ll_fmac.h **** }
 271:Drivers/STM32G4xx_HAL_Driver/Inc/stm32g4xx_ll_fmac.h **** 
 272:Drivers/STM32G4xx_HAL_Driver/Inc/stm32g4xx_ll_fmac.h **** /**
 273:Drivers/STM32G4xx_HAL_Driver/Inc/stm32g4xx_ll_fmac.h ****   * @brief  Return X2 base.
 274:Drivers/STM32G4xx_HAL_Driver/Inc/stm32g4xx_ll_fmac.h ****   * @rmtoll X2BUFCFG     X2_BASE       LL_FMAC_GetX2Base
 275:Drivers/STM32G4xx_HAL_Driver/Inc/stm32g4xx_ll_fmac.h ****   * @param  FMACx FMAC instance
 276:Drivers/STM32G4xx_HAL_Driver/Inc/stm32g4xx_ll_fmac.h ****   * @retval uint8_t Base address of the coefficient buffer (X2) within the internal memory (value b
 277:Drivers/STM32G4xx_HAL_Driver/Inc/stm32g4xx_ll_fmac.h ****   */
 278:Drivers/STM32G4xx_HAL_Driver/Inc/stm32g4xx_ll_fmac.h **** __STATIC_INLINE uint8_t LL_FMAC_GetX2Base(FMAC_TypeDef *FMACx)
 279:Drivers/STM32G4xx_HAL_Driver/Inc/stm32g4xx_ll_fmac.h **** {
 280:Drivers/STM32G4xx_HAL_Driver/Inc/stm32g4xx_ll_fmac.h ****   return (uint8_t)(READ_BIT(FMACx->X2BUFCFG, FMAC_X2BUFCFG_X2_BASE) >> FMAC_X2BUFCFG_X2_BASE_Pos);
 281:Drivers/STM32G4xx_HAL_Driver/Inc/stm32g4xx_ll_fmac.h **** }
 282:Drivers/STM32G4xx_HAL_Driver/Inc/stm32g4xx_ll_fmac.h **** 
 283:Drivers/STM32G4xx_HAL_Driver/Inc/stm32g4xx_ll_fmac.h **** /**
 284:Drivers/STM32G4xx_HAL_Driver/Inc/stm32g4xx_ll_fmac.h ****   * @brief  Configure Y empty watermark.
 285:Drivers/STM32G4xx_HAL_Driver/Inc/stm32g4xx_ll_fmac.h ****   * @rmtoll YBUFCFG      EMPTY_WM      LL_FMAC_SetYEmptyWatermark
 286:Drivers/STM32G4xx_HAL_Driver/Inc/stm32g4xx_ll_fmac.h ****   * @param  FMACx FMAC instance
 287:Drivers/STM32G4xx_HAL_Driver/Inc/stm32g4xx_ll_fmac.h ****   * @param  Watermark This parameter can be one of the following values:
 288:Drivers/STM32G4xx_HAL_Driver/Inc/stm32g4xx_ll_fmac.h ****   *         @arg @ref LL_FMAC_WM_0_THRESHOLD_1
 289:Drivers/STM32G4xx_HAL_Driver/Inc/stm32g4xx_ll_fmac.h ****   *         @arg @ref LL_FMAC_WM_1_THRESHOLD_2
 290:Drivers/STM32G4xx_HAL_Driver/Inc/stm32g4xx_ll_fmac.h ****   *         @arg @ref LL_FMAC_WM_2_THRESHOLD_4
 291:Drivers/STM32G4xx_HAL_Driver/Inc/stm32g4xx_ll_fmac.h ****   *         @arg @ref LL_FMAC_WM_3_THRESHOLD_8
 292:Drivers/STM32G4xx_HAL_Driver/Inc/stm32g4xx_ll_fmac.h ****   * @retval None
 293:Drivers/STM32G4xx_HAL_Driver/Inc/stm32g4xx_ll_fmac.h ****   */
 294:Drivers/STM32G4xx_HAL_Driver/Inc/stm32g4xx_ll_fmac.h **** __STATIC_INLINE void LL_FMAC_SetYEmptyWatermark(FMAC_TypeDef *FMACx, uint32_t Watermark)
 295:Drivers/STM32G4xx_HAL_Driver/Inc/stm32g4xx_ll_fmac.h **** {
 296:Drivers/STM32G4xx_HAL_Driver/Inc/stm32g4xx_ll_fmac.h ****   MODIFY_REG(FMACx->YBUFCFG, FMAC_YBUFCFG_EMPTY_WM, Watermark);
 297:Drivers/STM32G4xx_HAL_Driver/Inc/stm32g4xx_ll_fmac.h **** }
 298:Drivers/STM32G4xx_HAL_Driver/Inc/stm32g4xx_ll_fmac.h **** 
 299:Drivers/STM32G4xx_HAL_Driver/Inc/stm32g4xx_ll_fmac.h **** /**
 300:Drivers/STM32G4xx_HAL_Driver/Inc/stm32g4xx_ll_fmac.h ****   * @brief  Return Y empty watermark.
 301:Drivers/STM32G4xx_HAL_Driver/Inc/stm32g4xx_ll_fmac.h ****   * @rmtoll YBUFCFG      EMPTY_WM      LL_FMAC_GetYEmptyWatermark
 302:Drivers/STM32G4xx_HAL_Driver/Inc/stm32g4xx_ll_fmac.h ****   * @param  FMACx FMAC instance
 303:Drivers/STM32G4xx_HAL_Driver/Inc/stm32g4xx_ll_fmac.h ****   * @retval uint32_t Returned value can be one of the following values:
 304:Drivers/STM32G4xx_HAL_Driver/Inc/stm32g4xx_ll_fmac.h ****   *         @arg @ref LL_FMAC_WM_0_THRESHOLD_1
 305:Drivers/STM32G4xx_HAL_Driver/Inc/stm32g4xx_ll_fmac.h ****   *         @arg @ref LL_FMAC_WM_1_THRESHOLD_2
 306:Drivers/STM32G4xx_HAL_Driver/Inc/stm32g4xx_ll_fmac.h ****   *         @arg @ref LL_FMAC_WM_2_THRESHOLD_4
 307:Drivers/STM32G4xx_HAL_Driver/Inc/stm32g4xx_ll_fmac.h ****   *         @arg @ref LL_FMAC_WM_3_THRESHOLD_8
 308:Drivers/STM32G4xx_HAL_Driver/Inc/stm32g4xx_ll_fmac.h ****   */
 309:Drivers/STM32G4xx_HAL_Driver/Inc/stm32g4xx_ll_fmac.h **** __STATIC_INLINE uint32_t LL_FMAC_GetYEmptyWatermark(FMAC_TypeDef *FMACx)
 310:Drivers/STM32G4xx_HAL_Driver/Inc/stm32g4xx_ll_fmac.h **** {
 311:Drivers/STM32G4xx_HAL_Driver/Inc/stm32g4xx_ll_fmac.h ****   return (uint32_t)(READ_BIT(FMACx->YBUFCFG, FMAC_YBUFCFG_EMPTY_WM));
 312:Drivers/STM32G4xx_HAL_Driver/Inc/stm32g4xx_ll_fmac.h **** }
 313:Drivers/STM32G4xx_HAL_Driver/Inc/stm32g4xx_ll_fmac.h **** 
 314:Drivers/STM32G4xx_HAL_Driver/Inc/stm32g4xx_ll_fmac.h **** /**
 315:Drivers/STM32G4xx_HAL_Driver/Inc/stm32g4xx_ll_fmac.h ****   * @brief  Configure Y buffer size.
 316:Drivers/STM32G4xx_HAL_Driver/Inc/stm32g4xx_ll_fmac.h ****   * @rmtoll YBUFCFG      Y_BUF_SIZE    LL_FMAC_SetYBufferSize
 317:Drivers/STM32G4xx_HAL_Driver/Inc/stm32g4xx_ll_fmac.h ****   * @param  FMACx FMAC instance
ARM GAS  /tmp/ccvW6hDH.s 			page 9


 318:Drivers/STM32G4xx_HAL_Driver/Inc/stm32g4xx_ll_fmac.h ****   * @param  BufferSize Number of 16-bit words allocated to the output buffer (including the optiona
 319:Drivers/STM32G4xx_HAL_Driver/Inc/stm32g4xx_ll_fmac.h ****   *                    This parameter must be a number between Min_Data=0x01 and Max_Data=0xFF.
 320:Drivers/STM32G4xx_HAL_Driver/Inc/stm32g4xx_ll_fmac.h ****   * @retval None
 321:Drivers/STM32G4xx_HAL_Driver/Inc/stm32g4xx_ll_fmac.h ****   */
 322:Drivers/STM32G4xx_HAL_Driver/Inc/stm32g4xx_ll_fmac.h **** __STATIC_INLINE void LL_FMAC_SetYBufferSize(FMAC_TypeDef *FMACx, uint8_t BufferSize)
 323:Drivers/STM32G4xx_HAL_Driver/Inc/stm32g4xx_ll_fmac.h **** {
 324:Drivers/STM32G4xx_HAL_Driver/Inc/stm32g4xx_ll_fmac.h ****   MODIFY_REG(FMACx->YBUFCFG, FMAC_YBUFCFG_Y_BUF_SIZE, ((uint32_t)BufferSize) << FMAC_YBUFCFG_Y_BUF_
 325:Drivers/STM32G4xx_HAL_Driver/Inc/stm32g4xx_ll_fmac.h **** }
 326:Drivers/STM32G4xx_HAL_Driver/Inc/stm32g4xx_ll_fmac.h **** 
 327:Drivers/STM32G4xx_HAL_Driver/Inc/stm32g4xx_ll_fmac.h **** /**
 328:Drivers/STM32G4xx_HAL_Driver/Inc/stm32g4xx_ll_fmac.h ****   * @brief  Return Y buffer size.
 329:Drivers/STM32G4xx_HAL_Driver/Inc/stm32g4xx_ll_fmac.h ****   * @rmtoll YBUFCFG      Y_BUF_SIZE    LL_FMAC_GetYBufferSize
 330:Drivers/STM32G4xx_HAL_Driver/Inc/stm32g4xx_ll_fmac.h ****   * @param  FMACx FMAC instance
 331:Drivers/STM32G4xx_HAL_Driver/Inc/stm32g4xx_ll_fmac.h ****   * @retval uint8_t Number of 16-bit words allocated to the output buffer (including the optional "
 332:Drivers/STM32G4xx_HAL_Driver/Inc/stm32g4xx_ll_fmac.h ****   */
 333:Drivers/STM32G4xx_HAL_Driver/Inc/stm32g4xx_ll_fmac.h **** __STATIC_INLINE uint8_t LL_FMAC_GetYBufferSize(FMAC_TypeDef *FMACx)
 334:Drivers/STM32G4xx_HAL_Driver/Inc/stm32g4xx_ll_fmac.h **** {
 335:Drivers/STM32G4xx_HAL_Driver/Inc/stm32g4xx_ll_fmac.h ****   return (uint8_t)(READ_BIT(FMACx->YBUFCFG, FMAC_YBUFCFG_Y_BUF_SIZE) >> FMAC_YBUFCFG_Y_BUF_SIZE_Pos
 336:Drivers/STM32G4xx_HAL_Driver/Inc/stm32g4xx_ll_fmac.h **** }
 337:Drivers/STM32G4xx_HAL_Driver/Inc/stm32g4xx_ll_fmac.h **** 
 338:Drivers/STM32G4xx_HAL_Driver/Inc/stm32g4xx_ll_fmac.h **** /**
 339:Drivers/STM32G4xx_HAL_Driver/Inc/stm32g4xx_ll_fmac.h ****   * @brief  Configure Y base.
 340:Drivers/STM32G4xx_HAL_Driver/Inc/stm32g4xx_ll_fmac.h ****   * @rmtoll YBUFCFG      Y_BASE        LL_FMAC_SetYBase
 341:Drivers/STM32G4xx_HAL_Driver/Inc/stm32g4xx_ll_fmac.h ****   * @param  FMACx FMAC instance
 342:Drivers/STM32G4xx_HAL_Driver/Inc/stm32g4xx_ll_fmac.h ****   * @param  Base Base address of the output buffer (Y) within the internal memory.
 343:Drivers/STM32G4xx_HAL_Driver/Inc/stm32g4xx_ll_fmac.h ****   *              This parameter must be a value between Min_Data=0x00 and Max_Data=0xFF.
 344:Drivers/STM32G4xx_HAL_Driver/Inc/stm32g4xx_ll_fmac.h ****   * @retval None
 345:Drivers/STM32G4xx_HAL_Driver/Inc/stm32g4xx_ll_fmac.h ****   */
 346:Drivers/STM32G4xx_HAL_Driver/Inc/stm32g4xx_ll_fmac.h **** __STATIC_INLINE void LL_FMAC_SetYBase(FMAC_TypeDef *FMACx, uint8_t Base)
 347:Drivers/STM32G4xx_HAL_Driver/Inc/stm32g4xx_ll_fmac.h **** {
 348:Drivers/STM32G4xx_HAL_Driver/Inc/stm32g4xx_ll_fmac.h ****   MODIFY_REG(FMACx->YBUFCFG, FMAC_YBUFCFG_Y_BASE, ((uint32_t)Base) << FMAC_YBUFCFG_Y_BASE_Pos);
 349:Drivers/STM32G4xx_HAL_Driver/Inc/stm32g4xx_ll_fmac.h **** }
 350:Drivers/STM32G4xx_HAL_Driver/Inc/stm32g4xx_ll_fmac.h **** 
 351:Drivers/STM32G4xx_HAL_Driver/Inc/stm32g4xx_ll_fmac.h **** /**
 352:Drivers/STM32G4xx_HAL_Driver/Inc/stm32g4xx_ll_fmac.h ****   * @brief  Return Y base.
 353:Drivers/STM32G4xx_HAL_Driver/Inc/stm32g4xx_ll_fmac.h ****   * @rmtoll YBUFCFG      Y_BASE        LL_FMAC_GetYBase
 354:Drivers/STM32G4xx_HAL_Driver/Inc/stm32g4xx_ll_fmac.h ****   * @param  FMACx FMAC instance
 355:Drivers/STM32G4xx_HAL_Driver/Inc/stm32g4xx_ll_fmac.h ****   * @retval uint8_t Base address of the output buffer (Y) within the internal memory (value between
 356:Drivers/STM32G4xx_HAL_Driver/Inc/stm32g4xx_ll_fmac.h ****   */
 357:Drivers/STM32G4xx_HAL_Driver/Inc/stm32g4xx_ll_fmac.h **** __STATIC_INLINE uint8_t LL_FMAC_GetYBase(FMAC_TypeDef *FMACx)
 358:Drivers/STM32G4xx_HAL_Driver/Inc/stm32g4xx_ll_fmac.h **** {
 359:Drivers/STM32G4xx_HAL_Driver/Inc/stm32g4xx_ll_fmac.h ****   return (uint8_t)(READ_BIT(FMACx->YBUFCFG, FMAC_YBUFCFG_Y_BASE) >> FMAC_YBUFCFG_Y_BASE_Pos);
 360:Drivers/STM32G4xx_HAL_Driver/Inc/stm32g4xx_ll_fmac.h **** }
 361:Drivers/STM32G4xx_HAL_Driver/Inc/stm32g4xx_ll_fmac.h **** 
 362:Drivers/STM32G4xx_HAL_Driver/Inc/stm32g4xx_ll_fmac.h **** /**
 363:Drivers/STM32G4xx_HAL_Driver/Inc/stm32g4xx_ll_fmac.h ****   * @brief  Start FMAC processing.
 364:Drivers/STM32G4xx_HAL_Driver/Inc/stm32g4xx_ll_fmac.h ****   * @rmtoll PARAM        START         LL_FMAC_EnableStart
 365:Drivers/STM32G4xx_HAL_Driver/Inc/stm32g4xx_ll_fmac.h ****   * @param  FMACx FMAC instance
 366:Drivers/STM32G4xx_HAL_Driver/Inc/stm32g4xx_ll_fmac.h ****   * @retval None
 367:Drivers/STM32G4xx_HAL_Driver/Inc/stm32g4xx_ll_fmac.h ****   */
 368:Drivers/STM32G4xx_HAL_Driver/Inc/stm32g4xx_ll_fmac.h **** __STATIC_INLINE void LL_FMAC_EnableStart(FMAC_TypeDef *FMACx)
 369:Drivers/STM32G4xx_HAL_Driver/Inc/stm32g4xx_ll_fmac.h **** {
 370:Drivers/STM32G4xx_HAL_Driver/Inc/stm32g4xx_ll_fmac.h ****   SET_BIT(FMACx->PARAM, FMAC_PARAM_START);
 371:Drivers/STM32G4xx_HAL_Driver/Inc/stm32g4xx_ll_fmac.h **** }
 372:Drivers/STM32G4xx_HAL_Driver/Inc/stm32g4xx_ll_fmac.h **** 
 373:Drivers/STM32G4xx_HAL_Driver/Inc/stm32g4xx_ll_fmac.h **** /**
 374:Drivers/STM32G4xx_HAL_Driver/Inc/stm32g4xx_ll_fmac.h ****   * @brief  Stop FMAC processing.
ARM GAS  /tmp/ccvW6hDH.s 			page 10


 375:Drivers/STM32G4xx_HAL_Driver/Inc/stm32g4xx_ll_fmac.h ****   * @rmtoll PARAM        START         LL_FMAC_DisableStart
 376:Drivers/STM32G4xx_HAL_Driver/Inc/stm32g4xx_ll_fmac.h ****   * @param  FMACx FMAC instance
 377:Drivers/STM32G4xx_HAL_Driver/Inc/stm32g4xx_ll_fmac.h ****   * @retval None
 378:Drivers/STM32G4xx_HAL_Driver/Inc/stm32g4xx_ll_fmac.h ****   */
 379:Drivers/STM32G4xx_HAL_Driver/Inc/stm32g4xx_ll_fmac.h **** __STATIC_INLINE void LL_FMAC_DisableStart(FMAC_TypeDef *FMACx)
 380:Drivers/STM32G4xx_HAL_Driver/Inc/stm32g4xx_ll_fmac.h **** {
 381:Drivers/STM32G4xx_HAL_Driver/Inc/stm32g4xx_ll_fmac.h ****   CLEAR_BIT(FMACx->PARAM, FMAC_PARAM_START);
 382:Drivers/STM32G4xx_HAL_Driver/Inc/stm32g4xx_ll_fmac.h **** }
 383:Drivers/STM32G4xx_HAL_Driver/Inc/stm32g4xx_ll_fmac.h **** 
 384:Drivers/STM32G4xx_HAL_Driver/Inc/stm32g4xx_ll_fmac.h **** /**
 385:Drivers/STM32G4xx_HAL_Driver/Inc/stm32g4xx_ll_fmac.h ****   * @brief  Check the state of FMAC processing.
 386:Drivers/STM32G4xx_HAL_Driver/Inc/stm32g4xx_ll_fmac.h ****   * @rmtoll PARAM        START         LL_FMAC_IsEnabledStart
 387:Drivers/STM32G4xx_HAL_Driver/Inc/stm32g4xx_ll_fmac.h ****   * @param  FMACx FMAC instance
 388:Drivers/STM32G4xx_HAL_Driver/Inc/stm32g4xx_ll_fmac.h ****   * @retval uint32_t State of bit (1 or 0).
 389:Drivers/STM32G4xx_HAL_Driver/Inc/stm32g4xx_ll_fmac.h ****   */
 390:Drivers/STM32G4xx_HAL_Driver/Inc/stm32g4xx_ll_fmac.h **** __STATIC_INLINE uint32_t LL_FMAC_IsEnabledStart(FMAC_TypeDef *FMACx)
 391:Drivers/STM32G4xx_HAL_Driver/Inc/stm32g4xx_ll_fmac.h **** {
 392:Drivers/STM32G4xx_HAL_Driver/Inc/stm32g4xx_ll_fmac.h ****   return ((READ_BIT(FMACx->PARAM, FMAC_PARAM_START) == (FMAC_PARAM_START)) ? 1UL : 0UL);
 393:Drivers/STM32G4xx_HAL_Driver/Inc/stm32g4xx_ll_fmac.h **** }
 394:Drivers/STM32G4xx_HAL_Driver/Inc/stm32g4xx_ll_fmac.h **** 
 395:Drivers/STM32G4xx_HAL_Driver/Inc/stm32g4xx_ll_fmac.h **** /**
 396:Drivers/STM32G4xx_HAL_Driver/Inc/stm32g4xx_ll_fmac.h ****   * @brief  Configure function.
 397:Drivers/STM32G4xx_HAL_Driver/Inc/stm32g4xx_ll_fmac.h ****   * @rmtoll PARAM        FUNC          LL_FMAC_SetFunction
 398:Drivers/STM32G4xx_HAL_Driver/Inc/stm32g4xx_ll_fmac.h ****   * @param  FMACx FMAC instance
 399:Drivers/STM32G4xx_HAL_Driver/Inc/stm32g4xx_ll_fmac.h ****   * @param  Function This parameter can be one of the following values:
 400:Drivers/STM32G4xx_HAL_Driver/Inc/stm32g4xx_ll_fmac.h ****   *         @arg @ref LL_FMAC_FUNC_LOAD_X1
 401:Drivers/STM32G4xx_HAL_Driver/Inc/stm32g4xx_ll_fmac.h ****   *         @arg @ref LL_FMAC_FUNC_LOAD_X2
 402:Drivers/STM32G4xx_HAL_Driver/Inc/stm32g4xx_ll_fmac.h ****   *         @arg @ref LL_FMAC_FUNC_LOAD_Y
 403:Drivers/STM32G4xx_HAL_Driver/Inc/stm32g4xx_ll_fmac.h ****   *         @arg @ref LL_FMAC_FUNC_CONVO_FIR
 404:Drivers/STM32G4xx_HAL_Driver/Inc/stm32g4xx_ll_fmac.h ****   *         @arg @ref LL_FMAC_FUNC_IIR_DIRECT_FORM_1
 405:Drivers/STM32G4xx_HAL_Driver/Inc/stm32g4xx_ll_fmac.h ****   * @retval None
 406:Drivers/STM32G4xx_HAL_Driver/Inc/stm32g4xx_ll_fmac.h ****   */
 407:Drivers/STM32G4xx_HAL_Driver/Inc/stm32g4xx_ll_fmac.h **** __STATIC_INLINE void LL_FMAC_SetFunction(FMAC_TypeDef *FMACx, uint32_t Function)
 408:Drivers/STM32G4xx_HAL_Driver/Inc/stm32g4xx_ll_fmac.h **** {
 409:Drivers/STM32G4xx_HAL_Driver/Inc/stm32g4xx_ll_fmac.h ****   MODIFY_REG(FMACx->PARAM, FMAC_PARAM_FUNC, Function);
 410:Drivers/STM32G4xx_HAL_Driver/Inc/stm32g4xx_ll_fmac.h **** }
 411:Drivers/STM32G4xx_HAL_Driver/Inc/stm32g4xx_ll_fmac.h **** 
 412:Drivers/STM32G4xx_HAL_Driver/Inc/stm32g4xx_ll_fmac.h **** /**
 413:Drivers/STM32G4xx_HAL_Driver/Inc/stm32g4xx_ll_fmac.h ****   * @brief  Return function.
 414:Drivers/STM32G4xx_HAL_Driver/Inc/stm32g4xx_ll_fmac.h ****   * @rmtoll PARAM        FUNC          LL_FMAC_GetFunction
 415:Drivers/STM32G4xx_HAL_Driver/Inc/stm32g4xx_ll_fmac.h ****   * @param  FMACx FMAC instance
 416:Drivers/STM32G4xx_HAL_Driver/Inc/stm32g4xx_ll_fmac.h ****   * @retval uint32_t Returned value can be one of the following values:
 417:Drivers/STM32G4xx_HAL_Driver/Inc/stm32g4xx_ll_fmac.h ****   *         @arg @ref LL_FMAC_FUNC_LOAD_X1
 418:Drivers/STM32G4xx_HAL_Driver/Inc/stm32g4xx_ll_fmac.h ****   *         @arg @ref LL_FMAC_FUNC_LOAD_X2
 419:Drivers/STM32G4xx_HAL_Driver/Inc/stm32g4xx_ll_fmac.h ****   *         @arg @ref LL_FMAC_FUNC_LOAD_Y
 420:Drivers/STM32G4xx_HAL_Driver/Inc/stm32g4xx_ll_fmac.h ****   *         @arg @ref LL_FMAC_FUNC_CONVO_FIR
 421:Drivers/STM32G4xx_HAL_Driver/Inc/stm32g4xx_ll_fmac.h ****   *         @arg @ref LL_FMAC_FUNC_IIR_DIRECT_FORM_1
 422:Drivers/STM32G4xx_HAL_Driver/Inc/stm32g4xx_ll_fmac.h ****   */
 423:Drivers/STM32G4xx_HAL_Driver/Inc/stm32g4xx_ll_fmac.h **** __STATIC_INLINE uint32_t LL_FMAC_GetFunction(FMAC_TypeDef *FMACx)
 424:Drivers/STM32G4xx_HAL_Driver/Inc/stm32g4xx_ll_fmac.h **** {
 425:Drivers/STM32G4xx_HAL_Driver/Inc/stm32g4xx_ll_fmac.h ****   return (uint32_t)(READ_BIT(FMACx->PARAM, FMAC_PARAM_FUNC));
 426:Drivers/STM32G4xx_HAL_Driver/Inc/stm32g4xx_ll_fmac.h **** }
 427:Drivers/STM32G4xx_HAL_Driver/Inc/stm32g4xx_ll_fmac.h **** 
 428:Drivers/STM32G4xx_HAL_Driver/Inc/stm32g4xx_ll_fmac.h **** /**
 429:Drivers/STM32G4xx_HAL_Driver/Inc/stm32g4xx_ll_fmac.h ****   * @brief  Configure input parameter R.
 430:Drivers/STM32G4xx_HAL_Driver/Inc/stm32g4xx_ll_fmac.h ****   * @rmtoll PARAM        R             LL_FMAC_SetParamR
 431:Drivers/STM32G4xx_HAL_Driver/Inc/stm32g4xx_ll_fmac.h ****   * @param  FMACx FMAC instance
ARM GAS  /tmp/ccvW6hDH.s 			page 11


 432:Drivers/STM32G4xx_HAL_Driver/Inc/stm32g4xx_ll_fmac.h ****   * @param  Param Parameter R (gain, etc.).
 433:Drivers/STM32G4xx_HAL_Driver/Inc/stm32g4xx_ll_fmac.h ****   *               This parameter must be a value between Min_Data=0x00 and Max_Data=0xFF.
 434:Drivers/STM32G4xx_HAL_Driver/Inc/stm32g4xx_ll_fmac.h ****   * @retval None
 435:Drivers/STM32G4xx_HAL_Driver/Inc/stm32g4xx_ll_fmac.h ****   */
 436:Drivers/STM32G4xx_HAL_Driver/Inc/stm32g4xx_ll_fmac.h **** __STATIC_INLINE void LL_FMAC_SetParamR(FMAC_TypeDef *FMACx, uint8_t Param)
 437:Drivers/STM32G4xx_HAL_Driver/Inc/stm32g4xx_ll_fmac.h **** {
 438:Drivers/STM32G4xx_HAL_Driver/Inc/stm32g4xx_ll_fmac.h ****   MODIFY_REG(FMACx->PARAM, FMAC_PARAM_R, ((uint32_t)Param) << FMAC_PARAM_R_Pos);
 439:Drivers/STM32G4xx_HAL_Driver/Inc/stm32g4xx_ll_fmac.h **** }
 440:Drivers/STM32G4xx_HAL_Driver/Inc/stm32g4xx_ll_fmac.h **** 
 441:Drivers/STM32G4xx_HAL_Driver/Inc/stm32g4xx_ll_fmac.h **** /**
 442:Drivers/STM32G4xx_HAL_Driver/Inc/stm32g4xx_ll_fmac.h ****   * @brief  Return input parameter R.
 443:Drivers/STM32G4xx_HAL_Driver/Inc/stm32g4xx_ll_fmac.h ****   * @rmtoll PARAM        R             LL_FMAC_GetParamR
 444:Drivers/STM32G4xx_HAL_Driver/Inc/stm32g4xx_ll_fmac.h ****   * @param  FMACx FMAC instance
 445:Drivers/STM32G4xx_HAL_Driver/Inc/stm32g4xx_ll_fmac.h ****   * @retval uint8_t Parameter R (gain, etc.) (value between Min_Data=0x00 and Max_Data=0xFF).
 446:Drivers/STM32G4xx_HAL_Driver/Inc/stm32g4xx_ll_fmac.h ****   */
 447:Drivers/STM32G4xx_HAL_Driver/Inc/stm32g4xx_ll_fmac.h **** __STATIC_INLINE uint8_t LL_FMAC_GetParamR(FMAC_TypeDef *FMACx)
 448:Drivers/STM32G4xx_HAL_Driver/Inc/stm32g4xx_ll_fmac.h **** {
 449:Drivers/STM32G4xx_HAL_Driver/Inc/stm32g4xx_ll_fmac.h ****   return (uint8_t)(READ_BIT(FMACx->PARAM, FMAC_PARAM_R) >> FMAC_PARAM_R_Pos);
 450:Drivers/STM32G4xx_HAL_Driver/Inc/stm32g4xx_ll_fmac.h **** }
 451:Drivers/STM32G4xx_HAL_Driver/Inc/stm32g4xx_ll_fmac.h **** 
 452:Drivers/STM32G4xx_HAL_Driver/Inc/stm32g4xx_ll_fmac.h **** /**
 453:Drivers/STM32G4xx_HAL_Driver/Inc/stm32g4xx_ll_fmac.h ****   * @brief  Configure input parameter Q.
 454:Drivers/STM32G4xx_HAL_Driver/Inc/stm32g4xx_ll_fmac.h ****   * @rmtoll PARAM        Q             LL_FMAC_SetParamQ
 455:Drivers/STM32G4xx_HAL_Driver/Inc/stm32g4xx_ll_fmac.h ****   * @param  FMACx FMAC instance
 456:Drivers/STM32G4xx_HAL_Driver/Inc/stm32g4xx_ll_fmac.h ****   * @param  Param Parameter Q (vector length, etc.).
 457:Drivers/STM32G4xx_HAL_Driver/Inc/stm32g4xx_ll_fmac.h ****   *               This parameter must be a value between Min_Data=0x00 and Max_Data=0xFF.
 458:Drivers/STM32G4xx_HAL_Driver/Inc/stm32g4xx_ll_fmac.h ****   * @retval None
 459:Drivers/STM32G4xx_HAL_Driver/Inc/stm32g4xx_ll_fmac.h ****   */
 460:Drivers/STM32G4xx_HAL_Driver/Inc/stm32g4xx_ll_fmac.h **** __STATIC_INLINE void LL_FMAC_SetParamQ(FMAC_TypeDef *FMACx, uint8_t Param)
 461:Drivers/STM32G4xx_HAL_Driver/Inc/stm32g4xx_ll_fmac.h **** {
 462:Drivers/STM32G4xx_HAL_Driver/Inc/stm32g4xx_ll_fmac.h ****   MODIFY_REG(FMACx->PARAM, FMAC_PARAM_Q, ((uint32_t)Param) << FMAC_PARAM_Q_Pos);
 463:Drivers/STM32G4xx_HAL_Driver/Inc/stm32g4xx_ll_fmac.h **** }
 464:Drivers/STM32G4xx_HAL_Driver/Inc/stm32g4xx_ll_fmac.h **** 
 465:Drivers/STM32G4xx_HAL_Driver/Inc/stm32g4xx_ll_fmac.h **** /**
 466:Drivers/STM32G4xx_HAL_Driver/Inc/stm32g4xx_ll_fmac.h ****   * @brief  Return input parameter Q.
 467:Drivers/STM32G4xx_HAL_Driver/Inc/stm32g4xx_ll_fmac.h ****   * @rmtoll PARAM        Q             LL_FMAC_GetParamQ
 468:Drivers/STM32G4xx_HAL_Driver/Inc/stm32g4xx_ll_fmac.h ****   * @param  FMACx FMAC instance
 469:Drivers/STM32G4xx_HAL_Driver/Inc/stm32g4xx_ll_fmac.h ****   * @retval uint8_t Parameter Q (vector length, etc.) (value between Min_Data=0x00 and Max_Data=0xF
 470:Drivers/STM32G4xx_HAL_Driver/Inc/stm32g4xx_ll_fmac.h ****   */
 471:Drivers/STM32G4xx_HAL_Driver/Inc/stm32g4xx_ll_fmac.h **** __STATIC_INLINE uint8_t LL_FMAC_GetParamQ(FMAC_TypeDef *FMACx)
 472:Drivers/STM32G4xx_HAL_Driver/Inc/stm32g4xx_ll_fmac.h **** {
 473:Drivers/STM32G4xx_HAL_Driver/Inc/stm32g4xx_ll_fmac.h ****   return (uint8_t)(READ_BIT(FMACx->PARAM, FMAC_PARAM_Q) >> FMAC_PARAM_Q_Pos);
 474:Drivers/STM32G4xx_HAL_Driver/Inc/stm32g4xx_ll_fmac.h **** }
 475:Drivers/STM32G4xx_HAL_Driver/Inc/stm32g4xx_ll_fmac.h **** 
 476:Drivers/STM32G4xx_HAL_Driver/Inc/stm32g4xx_ll_fmac.h **** /**
 477:Drivers/STM32G4xx_HAL_Driver/Inc/stm32g4xx_ll_fmac.h ****   * @brief  Configure input parameter P.
 478:Drivers/STM32G4xx_HAL_Driver/Inc/stm32g4xx_ll_fmac.h ****   * @rmtoll PARAM        P             LL_FMAC_SetParamP
 479:Drivers/STM32G4xx_HAL_Driver/Inc/stm32g4xx_ll_fmac.h ****   * @param  FMACx FMAC instance
 480:Drivers/STM32G4xx_HAL_Driver/Inc/stm32g4xx_ll_fmac.h ****   * @param  Param Parameter P (vector length, number of filter taps, etc.).
 481:Drivers/STM32G4xx_HAL_Driver/Inc/stm32g4xx_ll_fmac.h ****   *               This parameter must be a value between Min_Data=0x00 and Max_Data=0xFF.
 482:Drivers/STM32G4xx_HAL_Driver/Inc/stm32g4xx_ll_fmac.h ****   * @retval None
 483:Drivers/STM32G4xx_HAL_Driver/Inc/stm32g4xx_ll_fmac.h ****   */
 484:Drivers/STM32G4xx_HAL_Driver/Inc/stm32g4xx_ll_fmac.h **** __STATIC_INLINE void LL_FMAC_SetParamP(FMAC_TypeDef *FMACx, uint8_t Param)
 485:Drivers/STM32G4xx_HAL_Driver/Inc/stm32g4xx_ll_fmac.h **** {
 486:Drivers/STM32G4xx_HAL_Driver/Inc/stm32g4xx_ll_fmac.h ****   MODIFY_REG(FMACx->PARAM, FMAC_PARAM_P, ((uint32_t)Param));
 487:Drivers/STM32G4xx_HAL_Driver/Inc/stm32g4xx_ll_fmac.h **** }
 488:Drivers/STM32G4xx_HAL_Driver/Inc/stm32g4xx_ll_fmac.h **** 
ARM GAS  /tmp/ccvW6hDH.s 			page 12


 489:Drivers/STM32G4xx_HAL_Driver/Inc/stm32g4xx_ll_fmac.h **** /**
 490:Drivers/STM32G4xx_HAL_Driver/Inc/stm32g4xx_ll_fmac.h ****   * @brief  Return input parameter P.
 491:Drivers/STM32G4xx_HAL_Driver/Inc/stm32g4xx_ll_fmac.h ****   * @rmtoll PARAM        P             LL_FMAC_GetParamP
 492:Drivers/STM32G4xx_HAL_Driver/Inc/stm32g4xx_ll_fmac.h ****   * @param  FMACx FMAC instance
 493:Drivers/STM32G4xx_HAL_Driver/Inc/stm32g4xx_ll_fmac.h ****   * @retval uint8_t Parameter P (vector length, number of filter taps, etc.) (value between Min_Dat
 494:Drivers/STM32G4xx_HAL_Driver/Inc/stm32g4xx_ll_fmac.h ****   */
 495:Drivers/STM32G4xx_HAL_Driver/Inc/stm32g4xx_ll_fmac.h **** __STATIC_INLINE uint8_t LL_FMAC_GetParamP(FMAC_TypeDef *FMACx)
 496:Drivers/STM32G4xx_HAL_Driver/Inc/stm32g4xx_ll_fmac.h **** {
 497:Drivers/STM32G4xx_HAL_Driver/Inc/stm32g4xx_ll_fmac.h ****   return (uint8_t)(READ_BIT(FMACx->PARAM, FMAC_PARAM_P));
 498:Drivers/STM32G4xx_HAL_Driver/Inc/stm32g4xx_ll_fmac.h **** }
 499:Drivers/STM32G4xx_HAL_Driver/Inc/stm32g4xx_ll_fmac.h **** 
 500:Drivers/STM32G4xx_HAL_Driver/Inc/stm32g4xx_ll_fmac.h **** /**
 501:Drivers/STM32G4xx_HAL_Driver/Inc/stm32g4xx_ll_fmac.h ****   * @}
 502:Drivers/STM32G4xx_HAL_Driver/Inc/stm32g4xx_ll_fmac.h ****   */
 503:Drivers/STM32G4xx_HAL_Driver/Inc/stm32g4xx_ll_fmac.h **** 
 504:Drivers/STM32G4xx_HAL_Driver/Inc/stm32g4xx_ll_fmac.h **** /** @defgroup FMAC_LL_EF_Reset_Management Reset_Management
 505:Drivers/STM32G4xx_HAL_Driver/Inc/stm32g4xx_ll_fmac.h ****   * @{
 506:Drivers/STM32G4xx_HAL_Driver/Inc/stm32g4xx_ll_fmac.h ****   */
 507:Drivers/STM32G4xx_HAL_Driver/Inc/stm32g4xx_ll_fmac.h **** 
 508:Drivers/STM32G4xx_HAL_Driver/Inc/stm32g4xx_ll_fmac.h **** /**
 509:Drivers/STM32G4xx_HAL_Driver/Inc/stm32g4xx_ll_fmac.h ****   * @brief  Start the FMAC reset.
 510:Drivers/STM32G4xx_HAL_Driver/Inc/stm32g4xx_ll_fmac.h ****   * @rmtoll CR           RESET         LL_FMAC_EnableReset
 511:Drivers/STM32G4xx_HAL_Driver/Inc/stm32g4xx_ll_fmac.h ****   * @param  FMACx FMAC instance
 512:Drivers/STM32G4xx_HAL_Driver/Inc/stm32g4xx_ll_fmac.h ****   * @retval None
 513:Drivers/STM32G4xx_HAL_Driver/Inc/stm32g4xx_ll_fmac.h ****   */
 514:Drivers/STM32G4xx_HAL_Driver/Inc/stm32g4xx_ll_fmac.h **** __STATIC_INLINE void LL_FMAC_EnableReset(FMAC_TypeDef *FMACx)
  55              		.loc 2 514 22 view .LVU9
  56              	.LBB11:
 515:Drivers/STM32G4xx_HAL_Driver/Inc/stm32g4xx_ll_fmac.h **** {
 516:Drivers/STM32G4xx_HAL_Driver/Inc/stm32g4xx_ll_fmac.h ****   SET_BIT(FMACx->CR, FMAC_CR_RESET);
  57              		.loc 2 516 3 view .LVU10
  58 000a 0369     		ldr	r3, [r0, #16]
  59 000c 43F48033 		orr	r3, r3, #65536
  60 0010 0361     		str	r3, [r0, #16]
  61              	.LBE11:
  62              	.LBE10:
  63              	.LBB12:
  64              	.LBB13:
 517:Drivers/STM32G4xx_HAL_Driver/Inc/stm32g4xx_ll_fmac.h **** }
 518:Drivers/STM32G4xx_HAL_Driver/Inc/stm32g4xx_ll_fmac.h **** 
 519:Drivers/STM32G4xx_HAL_Driver/Inc/stm32g4xx_ll_fmac.h **** /**
 520:Drivers/STM32G4xx_HAL_Driver/Inc/stm32g4xx_ll_fmac.h ****   * @brief  Check the state of the FMAC reset.
 521:Drivers/STM32G4xx_HAL_Driver/Inc/stm32g4xx_ll_fmac.h ****   * @rmtoll CR           RESET         LL_FMAC_IsEnabledReset
 522:Drivers/STM32G4xx_HAL_Driver/Inc/stm32g4xx_ll_fmac.h ****   * @param  FMACx FMAC instance
 523:Drivers/STM32G4xx_HAL_Driver/Inc/stm32g4xx_ll_fmac.h ****   * @retval uint32_t State of bit (1 or 0).
 524:Drivers/STM32G4xx_HAL_Driver/Inc/stm32g4xx_ll_fmac.h ****   */
 525:Drivers/STM32G4xx_HAL_Driver/Inc/stm32g4xx_ll_fmac.h **** __STATIC_INLINE uint32_t LL_FMAC_IsEnabledReset(FMAC_TypeDef *FMACx)
 526:Drivers/STM32G4xx_HAL_Driver/Inc/stm32g4xx_ll_fmac.h **** {
 527:Drivers/STM32G4xx_HAL_Driver/Inc/stm32g4xx_ll_fmac.h ****   return ((READ_BIT(FMACx->CR, FMAC_CR_RESET) == (FMAC_CR_RESET)) ? 1UL : 0UL);
  65              		.loc 2 527 12 is_stmt 0 view .LVU11
  66 0012 0346     		mov	r3, r0
  67              	.LVL3:
  68              	.L3:
  69              		.loc 2 527 12 view .LVU12
  70              	.LBE13:
  71              	.LBE12:
  77:Drivers/STM32G4xx_HAL_Driver/Src/stm32g4xx_ll_fmac.c ****   }
ARM GAS  /tmp/ccvW6hDH.s 			page 13


  72              		.loc 1 77 5 is_stmt 1 discriminator 1 view .LVU13
  75:Drivers/STM32G4xx_HAL_Driver/Src/stm32g4xx_ll_fmac.c ****     {
  73              		.loc 1 75 11 discriminator 1 view .LVU14
  74              	.LBB15:
  75              	.LBI12:
 525:Drivers/STM32G4xx_HAL_Driver/Inc/stm32g4xx_ll_fmac.h **** {
  76              		.loc 2 525 26 discriminator 1 view .LVU15
  77              	.LBB14:
  78              		.loc 2 527 3 discriminator 1 view .LVU16
  79              		.loc 2 527 12 is_stmt 0 discriminator 1 view .LVU17
  80 0014 1869     		ldr	r0, [r3, #16]
  81              		.loc 2 527 73 discriminator 1 view .LVU18
  82 0016 10F48030 		ands	r0, r0, #65536
  83 001a FBD1     		bne	.L3
  84 001c 7047     		bx	lr
  85              	.L9:
  86 001e 00BF     		.align	2
  87              	.L8:
  88 0020 00140240 		.word	1073878016
  89              	.LBE14:
  90              	.LBE15:
  91              		.cfi_endproc
  92              	.LFE435:
  94              		.section	.text.LL_FMAC_DeInit,"ax",%progbits
  95              		.align	1
  96              		.p2align 2,,3
  97              		.global	LL_FMAC_DeInit
  98              		.syntax unified
  99              		.thumb
 100              		.thumb_func
 101              		.fpu fpv4-sp-d16
 103              	LL_FMAC_DeInit:
 104              	.LVL4:
 105              	.LFB436:
  86:Drivers/STM32G4xx_HAL_Driver/Src/stm32g4xx_ll_fmac.c **** 
  87:Drivers/STM32G4xx_HAL_Driver/Src/stm32g4xx_ll_fmac.c **** /**
  88:Drivers/STM32G4xx_HAL_Driver/Src/stm32g4xx_ll_fmac.c ****   * @brief  De-Initialize FMAC peripheral registers to their default reset values.
  89:Drivers/STM32G4xx_HAL_Driver/Src/stm32g4xx_ll_fmac.c ****   * @param  FMACx FMAC Instance
  90:Drivers/STM32G4xx_HAL_Driver/Src/stm32g4xx_ll_fmac.c ****   * @retval An ErrorStatus enumeration value:
  91:Drivers/STM32G4xx_HAL_Driver/Src/stm32g4xx_ll_fmac.c ****   *          - SUCCESS: FMAC registers are de-initialized
  92:Drivers/STM32G4xx_HAL_Driver/Src/stm32g4xx_ll_fmac.c ****   *          - ERROR: FMAC registers are not de-initialized
  93:Drivers/STM32G4xx_HAL_Driver/Src/stm32g4xx_ll_fmac.c ****   */
  94:Drivers/STM32G4xx_HAL_Driver/Src/stm32g4xx_ll_fmac.c **** ErrorStatus LL_FMAC_DeInit(FMAC_TypeDef *FMACx)
  95:Drivers/STM32G4xx_HAL_Driver/Src/stm32g4xx_ll_fmac.c **** {
 106              		.loc 1 95 1 is_stmt 1 view -0
 107              		.cfi_startproc
 108              		@ args = 0, pretend = 0, frame = 0
 109              		@ frame_needed = 0, uses_anonymous_args = 0
 110              		@ link register save eliminated.
  96:Drivers/STM32G4xx_HAL_Driver/Src/stm32g4xx_ll_fmac.c ****   ErrorStatus status = SUCCESS;
 111              		.loc 1 96 3 view .LVU20
  97:Drivers/STM32G4xx_HAL_Driver/Src/stm32g4xx_ll_fmac.c **** 
  98:Drivers/STM32G4xx_HAL_Driver/Src/stm32g4xx_ll_fmac.c ****   /* Check the parameters */
  99:Drivers/STM32G4xx_HAL_Driver/Src/stm32g4xx_ll_fmac.c ****   assert_param(IS_FMAC_ALL_INSTANCE(FMACx));
 112              		.loc 1 99 3 view .LVU21
 100:Drivers/STM32G4xx_HAL_Driver/Src/stm32g4xx_ll_fmac.c **** 
 101:Drivers/STM32G4xx_HAL_Driver/Src/stm32g4xx_ll_fmac.c ****   if (FMACx == FMAC)
ARM GAS  /tmp/ccvW6hDH.s 			page 14


 113              		.loc 1 101 3 view .LVU22
 114              		.loc 1 101 6 is_stmt 0 view .LVU23
 115 0000 084B     		ldr	r3, .L14
 116 0002 9842     		cmp	r0, r3
 117 0004 01D0     		beq	.L13
 102:Drivers/STM32G4xx_HAL_Driver/Src/stm32g4xx_ll_fmac.c ****   {
 103:Drivers/STM32G4xx_HAL_Driver/Src/stm32g4xx_ll_fmac.c ****     /* Force FMAC reset */
 104:Drivers/STM32G4xx_HAL_Driver/Src/stm32g4xx_ll_fmac.c ****     LL_AHB1_GRP1_ForceReset(LL_AHB1_GRP1_PERIPH_FMAC);
 105:Drivers/STM32G4xx_HAL_Driver/Src/stm32g4xx_ll_fmac.c **** 
 106:Drivers/STM32G4xx_HAL_Driver/Src/stm32g4xx_ll_fmac.c ****     /* Release FMAC reset */
 107:Drivers/STM32G4xx_HAL_Driver/Src/stm32g4xx_ll_fmac.c ****     LL_AHB1_GRP1_ReleaseReset(LL_AHB1_GRP1_PERIPH_FMAC);
 108:Drivers/STM32G4xx_HAL_Driver/Src/stm32g4xx_ll_fmac.c ****   }
 109:Drivers/STM32G4xx_HAL_Driver/Src/stm32g4xx_ll_fmac.c ****   else
 110:Drivers/STM32G4xx_HAL_Driver/Src/stm32g4xx_ll_fmac.c ****   {
 111:Drivers/STM32G4xx_HAL_Driver/Src/stm32g4xx_ll_fmac.c ****     status = ERROR;
 118              		.loc 1 111 12 view .LVU24
 119 0006 0120     		movs	r0, #1
 120              	.LVL5:
 112:Drivers/STM32G4xx_HAL_Driver/Src/stm32g4xx_ll_fmac.c ****   }
 113:Drivers/STM32G4xx_HAL_Driver/Src/stm32g4xx_ll_fmac.c **** 
 114:Drivers/STM32G4xx_HAL_Driver/Src/stm32g4xx_ll_fmac.c ****   return (status);
 121              		.loc 1 114 3 is_stmt 1 view .LVU25
 115:Drivers/STM32G4xx_HAL_Driver/Src/stm32g4xx_ll_fmac.c **** }
 122              		.loc 1 115 1 is_stmt 0 view .LVU26
 123 0008 7047     		bx	lr
 124              	.LVL6:
 125              	.L13:
 104:Drivers/STM32G4xx_HAL_Driver/Src/stm32g4xx_ll_fmac.c **** 
 126              		.loc 1 104 5 is_stmt 1 view .LVU27
 127              	.LBB16:
 128              	.LBI16:
 129              		.file 3 "Drivers/STM32G4xx_HAL_Driver/Inc/stm32g4xx_ll_bus.h"
   1:Drivers/STM32G4xx_HAL_Driver/Inc/stm32g4xx_ll_bus.h **** /**
   2:Drivers/STM32G4xx_HAL_Driver/Inc/stm32g4xx_ll_bus.h ****   ******************************************************************************
   3:Drivers/STM32G4xx_HAL_Driver/Inc/stm32g4xx_ll_bus.h ****   * @file    stm32g4xx_ll_bus.h
   4:Drivers/STM32G4xx_HAL_Driver/Inc/stm32g4xx_ll_bus.h ****   * @author  MCD Application Team
   5:Drivers/STM32G4xx_HAL_Driver/Inc/stm32g4xx_ll_bus.h ****   * @brief   Header file of BUS LL module.
   6:Drivers/STM32G4xx_HAL_Driver/Inc/stm32g4xx_ll_bus.h **** 
   7:Drivers/STM32G4xx_HAL_Driver/Inc/stm32g4xx_ll_bus.h ****   @verbatim
   8:Drivers/STM32G4xx_HAL_Driver/Inc/stm32g4xx_ll_bus.h ****                       ##### RCC Limitations #####
   9:Drivers/STM32G4xx_HAL_Driver/Inc/stm32g4xx_ll_bus.h ****   ==============================================================================
  10:Drivers/STM32G4xx_HAL_Driver/Inc/stm32g4xx_ll_bus.h ****     [..]
  11:Drivers/STM32G4xx_HAL_Driver/Inc/stm32g4xx_ll_bus.h ****       A delay between an RCC peripheral clock enable and the effective peripheral
  12:Drivers/STM32G4xx_HAL_Driver/Inc/stm32g4xx_ll_bus.h ****       enabling should be taken into account in order to manage the peripheral read/write
  13:Drivers/STM32G4xx_HAL_Driver/Inc/stm32g4xx_ll_bus.h ****       from/to registers.
  14:Drivers/STM32G4xx_HAL_Driver/Inc/stm32g4xx_ll_bus.h ****       (+) This delay depends on the peripheral mapping.
  15:Drivers/STM32G4xx_HAL_Driver/Inc/stm32g4xx_ll_bus.h ****         (++) AHB & APB peripherals, 1 dummy read is necessary
  16:Drivers/STM32G4xx_HAL_Driver/Inc/stm32g4xx_ll_bus.h **** 
  17:Drivers/STM32G4xx_HAL_Driver/Inc/stm32g4xx_ll_bus.h ****     [..]
  18:Drivers/STM32G4xx_HAL_Driver/Inc/stm32g4xx_ll_bus.h ****       Workarounds:
  19:Drivers/STM32G4xx_HAL_Driver/Inc/stm32g4xx_ll_bus.h ****       (#) For AHB & APB peripherals, a dummy read to the peripheral register has been
  20:Drivers/STM32G4xx_HAL_Driver/Inc/stm32g4xx_ll_bus.h ****           inserted in each LL_{BUS}_GRP{x}_EnableClock() function.
  21:Drivers/STM32G4xx_HAL_Driver/Inc/stm32g4xx_ll_bus.h **** 
  22:Drivers/STM32G4xx_HAL_Driver/Inc/stm32g4xx_ll_bus.h ****   @endverbatim
  23:Drivers/STM32G4xx_HAL_Driver/Inc/stm32g4xx_ll_bus.h ****   ******************************************************************************
  24:Drivers/STM32G4xx_HAL_Driver/Inc/stm32g4xx_ll_bus.h ****   * @attention
  25:Drivers/STM32G4xx_HAL_Driver/Inc/stm32g4xx_ll_bus.h ****   *
ARM GAS  /tmp/ccvW6hDH.s 			page 15


  26:Drivers/STM32G4xx_HAL_Driver/Inc/stm32g4xx_ll_bus.h ****   * <h2><center>&copy; Copyright (c) 2019 STMicroelectronics.
  27:Drivers/STM32G4xx_HAL_Driver/Inc/stm32g4xx_ll_bus.h ****   * All rights reserved.</center></h2>
  28:Drivers/STM32G4xx_HAL_Driver/Inc/stm32g4xx_ll_bus.h ****   *
  29:Drivers/STM32G4xx_HAL_Driver/Inc/stm32g4xx_ll_bus.h ****   * This software component is licensed by ST under BSD 3-Clause license,
  30:Drivers/STM32G4xx_HAL_Driver/Inc/stm32g4xx_ll_bus.h ****   * the "License"; You may not use this file except in compliance with the
  31:Drivers/STM32G4xx_HAL_Driver/Inc/stm32g4xx_ll_bus.h ****   * License. You may obtain a copy of the License at:
  32:Drivers/STM32G4xx_HAL_Driver/Inc/stm32g4xx_ll_bus.h ****   *                        opensource.org/licenses/BSD-3-Clause
  33:Drivers/STM32G4xx_HAL_Driver/Inc/stm32g4xx_ll_bus.h ****   *
  34:Drivers/STM32G4xx_HAL_Driver/Inc/stm32g4xx_ll_bus.h ****   ******************************************************************************
  35:Drivers/STM32G4xx_HAL_Driver/Inc/stm32g4xx_ll_bus.h ****   */
  36:Drivers/STM32G4xx_HAL_Driver/Inc/stm32g4xx_ll_bus.h **** 
  37:Drivers/STM32G4xx_HAL_Driver/Inc/stm32g4xx_ll_bus.h **** /* Define to prevent recursive inclusion -------------------------------------*/
  38:Drivers/STM32G4xx_HAL_Driver/Inc/stm32g4xx_ll_bus.h **** #ifndef STM32G4xx_LL_BUS_H
  39:Drivers/STM32G4xx_HAL_Driver/Inc/stm32g4xx_ll_bus.h **** #define STM32G4xx_LL_BUS_H
  40:Drivers/STM32G4xx_HAL_Driver/Inc/stm32g4xx_ll_bus.h **** 
  41:Drivers/STM32G4xx_HAL_Driver/Inc/stm32g4xx_ll_bus.h **** #ifdef __cplusplus
  42:Drivers/STM32G4xx_HAL_Driver/Inc/stm32g4xx_ll_bus.h **** extern "C" {
  43:Drivers/STM32G4xx_HAL_Driver/Inc/stm32g4xx_ll_bus.h **** #endif
  44:Drivers/STM32G4xx_HAL_Driver/Inc/stm32g4xx_ll_bus.h **** 
  45:Drivers/STM32G4xx_HAL_Driver/Inc/stm32g4xx_ll_bus.h **** /* Includes ------------------------------------------------------------------*/
  46:Drivers/STM32G4xx_HAL_Driver/Inc/stm32g4xx_ll_bus.h **** #include "stm32g4xx.h"
  47:Drivers/STM32G4xx_HAL_Driver/Inc/stm32g4xx_ll_bus.h **** 
  48:Drivers/STM32G4xx_HAL_Driver/Inc/stm32g4xx_ll_bus.h **** /** @addtogroup STM32G4xx_LL_Driver
  49:Drivers/STM32G4xx_HAL_Driver/Inc/stm32g4xx_ll_bus.h ****   * @{
  50:Drivers/STM32G4xx_HAL_Driver/Inc/stm32g4xx_ll_bus.h ****   */
  51:Drivers/STM32G4xx_HAL_Driver/Inc/stm32g4xx_ll_bus.h **** 
  52:Drivers/STM32G4xx_HAL_Driver/Inc/stm32g4xx_ll_bus.h **** #if defined(RCC)
  53:Drivers/STM32G4xx_HAL_Driver/Inc/stm32g4xx_ll_bus.h **** 
  54:Drivers/STM32G4xx_HAL_Driver/Inc/stm32g4xx_ll_bus.h **** /** @defgroup BUS_LL BUS
  55:Drivers/STM32G4xx_HAL_Driver/Inc/stm32g4xx_ll_bus.h ****   * @{
  56:Drivers/STM32G4xx_HAL_Driver/Inc/stm32g4xx_ll_bus.h ****   */
  57:Drivers/STM32G4xx_HAL_Driver/Inc/stm32g4xx_ll_bus.h **** 
  58:Drivers/STM32G4xx_HAL_Driver/Inc/stm32g4xx_ll_bus.h **** /* Private types -------------------------------------------------------------*/
  59:Drivers/STM32G4xx_HAL_Driver/Inc/stm32g4xx_ll_bus.h **** /* Private variables ---------------------------------------------------------*/
  60:Drivers/STM32G4xx_HAL_Driver/Inc/stm32g4xx_ll_bus.h **** 
  61:Drivers/STM32G4xx_HAL_Driver/Inc/stm32g4xx_ll_bus.h **** /* Private constants ---------------------------------------------------------*/
  62:Drivers/STM32G4xx_HAL_Driver/Inc/stm32g4xx_ll_bus.h **** 
  63:Drivers/STM32G4xx_HAL_Driver/Inc/stm32g4xx_ll_bus.h **** /* Private macros ------------------------------------------------------------*/
  64:Drivers/STM32G4xx_HAL_Driver/Inc/stm32g4xx_ll_bus.h **** 
  65:Drivers/STM32G4xx_HAL_Driver/Inc/stm32g4xx_ll_bus.h **** /* Exported types ------------------------------------------------------------*/
  66:Drivers/STM32G4xx_HAL_Driver/Inc/stm32g4xx_ll_bus.h **** /* Exported constants --------------------------------------------------------*/
  67:Drivers/STM32G4xx_HAL_Driver/Inc/stm32g4xx_ll_bus.h **** /** @defgroup BUS_LL_Exported_Constants BUS Exported Constants
  68:Drivers/STM32G4xx_HAL_Driver/Inc/stm32g4xx_ll_bus.h ****   * @{
  69:Drivers/STM32G4xx_HAL_Driver/Inc/stm32g4xx_ll_bus.h ****   */
  70:Drivers/STM32G4xx_HAL_Driver/Inc/stm32g4xx_ll_bus.h **** 
  71:Drivers/STM32G4xx_HAL_Driver/Inc/stm32g4xx_ll_bus.h **** /** @defgroup BUS_LL_EC_AHB1_GRP1_PERIPH  AHB1 GRP1 PERIPH
  72:Drivers/STM32G4xx_HAL_Driver/Inc/stm32g4xx_ll_bus.h ****   * @{
  73:Drivers/STM32G4xx_HAL_Driver/Inc/stm32g4xx_ll_bus.h ****   */
  74:Drivers/STM32G4xx_HAL_Driver/Inc/stm32g4xx_ll_bus.h **** #define LL_AHB1_GRP1_PERIPH_ALL            0xFFFFFFFFU
  75:Drivers/STM32G4xx_HAL_Driver/Inc/stm32g4xx_ll_bus.h **** #define LL_AHB1_GRP1_PERIPH_DMA1           RCC_AHB1ENR_DMA1EN
  76:Drivers/STM32G4xx_HAL_Driver/Inc/stm32g4xx_ll_bus.h **** #define LL_AHB1_GRP1_PERIPH_DMA2           RCC_AHB1ENR_DMA2EN
  77:Drivers/STM32G4xx_HAL_Driver/Inc/stm32g4xx_ll_bus.h **** #define LL_AHB1_GRP1_PERIPH_DMAMUX1        RCC_AHB1ENR_DMAMUX1EN
  78:Drivers/STM32G4xx_HAL_Driver/Inc/stm32g4xx_ll_bus.h **** #define LL_AHB1_GRP1_PERIPH_CORDIC         RCC_AHB1ENR_CORDICEN
  79:Drivers/STM32G4xx_HAL_Driver/Inc/stm32g4xx_ll_bus.h **** #define LL_AHB1_GRP1_PERIPH_FMAC           RCC_AHB1ENR_FMACEN
  80:Drivers/STM32G4xx_HAL_Driver/Inc/stm32g4xx_ll_bus.h **** #define LL_AHB1_GRP1_PERIPH_FLASH          RCC_AHB1ENR_FLASHEN
  81:Drivers/STM32G4xx_HAL_Driver/Inc/stm32g4xx_ll_bus.h **** #define LL_AHB1_GRP1_PERIPH_SRAM1          RCC_AHB1SMENR_SRAM1SMEN
  82:Drivers/STM32G4xx_HAL_Driver/Inc/stm32g4xx_ll_bus.h **** #define LL_AHB1_GRP1_PERIPH_CRC            RCC_AHB1ENR_CRCEN
ARM GAS  /tmp/ccvW6hDH.s 			page 16


  83:Drivers/STM32G4xx_HAL_Driver/Inc/stm32g4xx_ll_bus.h **** /**
  84:Drivers/STM32G4xx_HAL_Driver/Inc/stm32g4xx_ll_bus.h ****   * @}
  85:Drivers/STM32G4xx_HAL_Driver/Inc/stm32g4xx_ll_bus.h ****   */
  86:Drivers/STM32G4xx_HAL_Driver/Inc/stm32g4xx_ll_bus.h **** 
  87:Drivers/STM32G4xx_HAL_Driver/Inc/stm32g4xx_ll_bus.h **** /** @defgroup BUS_LL_EC_AHB2_GRP1_PERIPH  AHB2 GRP1 PERIPH
  88:Drivers/STM32G4xx_HAL_Driver/Inc/stm32g4xx_ll_bus.h ****   * @{
  89:Drivers/STM32G4xx_HAL_Driver/Inc/stm32g4xx_ll_bus.h ****   */
  90:Drivers/STM32G4xx_HAL_Driver/Inc/stm32g4xx_ll_bus.h **** #define LL_AHB2_GRP1_PERIPH_ALL            0xFFFFFFFFU
  91:Drivers/STM32G4xx_HAL_Driver/Inc/stm32g4xx_ll_bus.h **** #define LL_AHB2_GRP1_PERIPH_GPIOA          RCC_AHB2ENR_GPIOAEN
  92:Drivers/STM32G4xx_HAL_Driver/Inc/stm32g4xx_ll_bus.h **** #define LL_AHB2_GRP1_PERIPH_GPIOB          RCC_AHB2ENR_GPIOBEN
  93:Drivers/STM32G4xx_HAL_Driver/Inc/stm32g4xx_ll_bus.h **** #define LL_AHB2_GRP1_PERIPH_GPIOC          RCC_AHB2ENR_GPIOCEN
  94:Drivers/STM32G4xx_HAL_Driver/Inc/stm32g4xx_ll_bus.h **** #define LL_AHB2_GRP1_PERIPH_GPIOD          RCC_AHB2ENR_GPIODEN
  95:Drivers/STM32G4xx_HAL_Driver/Inc/stm32g4xx_ll_bus.h **** #define LL_AHB2_GRP1_PERIPH_GPIOE          RCC_AHB2ENR_GPIOEEN
  96:Drivers/STM32G4xx_HAL_Driver/Inc/stm32g4xx_ll_bus.h **** #define LL_AHB2_GRP1_PERIPH_GPIOF          RCC_AHB2ENR_GPIOFEN
  97:Drivers/STM32G4xx_HAL_Driver/Inc/stm32g4xx_ll_bus.h **** #define LL_AHB2_GRP1_PERIPH_GPIOG          RCC_AHB2ENR_GPIOGEN
  98:Drivers/STM32G4xx_HAL_Driver/Inc/stm32g4xx_ll_bus.h **** #define LL_AHB2_GRP1_PERIPH_CCM            RCC_AHB2SMENR_CCMSMEN
  99:Drivers/STM32G4xx_HAL_Driver/Inc/stm32g4xx_ll_bus.h **** #define LL_AHB2_GRP1_PERIPH_SRAM2          RCC_AHB2SMENR_SRAM2SMEN
 100:Drivers/STM32G4xx_HAL_Driver/Inc/stm32g4xx_ll_bus.h **** #define LL_AHB2_GRP1_PERIPH_ADC12          RCC_AHB2ENR_ADC12EN
 101:Drivers/STM32G4xx_HAL_Driver/Inc/stm32g4xx_ll_bus.h **** #if defined(ADC345_COMMON)
 102:Drivers/STM32G4xx_HAL_Driver/Inc/stm32g4xx_ll_bus.h **** #define LL_AHB2_GRP1_PERIPH_ADC345         RCC_AHB2ENR_ADC345EN
 103:Drivers/STM32G4xx_HAL_Driver/Inc/stm32g4xx_ll_bus.h **** #endif /* ADC345_COMMON */
 104:Drivers/STM32G4xx_HAL_Driver/Inc/stm32g4xx_ll_bus.h **** #define LL_AHB2_GRP1_PERIPH_DAC1           RCC_AHB2ENR_DAC1EN
 105:Drivers/STM32G4xx_HAL_Driver/Inc/stm32g4xx_ll_bus.h **** #if defined(DAC2)
 106:Drivers/STM32G4xx_HAL_Driver/Inc/stm32g4xx_ll_bus.h **** #define LL_AHB2_GRP1_PERIPH_DAC2           RCC_AHB2ENR_DAC2EN
 107:Drivers/STM32G4xx_HAL_Driver/Inc/stm32g4xx_ll_bus.h **** #endif /* DAC2 */
 108:Drivers/STM32G4xx_HAL_Driver/Inc/stm32g4xx_ll_bus.h **** #define LL_AHB2_GRP1_PERIPH_DAC3           RCC_AHB2ENR_DAC3EN
 109:Drivers/STM32G4xx_HAL_Driver/Inc/stm32g4xx_ll_bus.h **** #if defined(DAC4)
 110:Drivers/STM32G4xx_HAL_Driver/Inc/stm32g4xx_ll_bus.h **** #define LL_AHB2_GRP1_PERIPH_DAC4           RCC_AHB2ENR_DAC4EN
 111:Drivers/STM32G4xx_HAL_Driver/Inc/stm32g4xx_ll_bus.h **** #endif /* DAC4 */
 112:Drivers/STM32G4xx_HAL_Driver/Inc/stm32g4xx_ll_bus.h **** #if defined(AES)
 113:Drivers/STM32G4xx_HAL_Driver/Inc/stm32g4xx_ll_bus.h **** #define LL_AHB2_GRP1_PERIPH_AES            RCC_AHB2ENR_AESEN
 114:Drivers/STM32G4xx_HAL_Driver/Inc/stm32g4xx_ll_bus.h **** #endif /* AES */
 115:Drivers/STM32G4xx_HAL_Driver/Inc/stm32g4xx_ll_bus.h **** #define LL_AHB2_GRP1_PERIPH_RNG            RCC_AHB2ENR_RNGEN
 116:Drivers/STM32G4xx_HAL_Driver/Inc/stm32g4xx_ll_bus.h **** /**
 117:Drivers/STM32G4xx_HAL_Driver/Inc/stm32g4xx_ll_bus.h ****   * @}
 118:Drivers/STM32G4xx_HAL_Driver/Inc/stm32g4xx_ll_bus.h ****   */
 119:Drivers/STM32G4xx_HAL_Driver/Inc/stm32g4xx_ll_bus.h **** 
 120:Drivers/STM32G4xx_HAL_Driver/Inc/stm32g4xx_ll_bus.h **** /** @defgroup BUS_LL_EC_AHB3_GRP1_PERIPH  AHB3 GRP1 PERIPH
 121:Drivers/STM32G4xx_HAL_Driver/Inc/stm32g4xx_ll_bus.h ****   * @{
 122:Drivers/STM32G4xx_HAL_Driver/Inc/stm32g4xx_ll_bus.h ****   */
 123:Drivers/STM32G4xx_HAL_Driver/Inc/stm32g4xx_ll_bus.h **** #define LL_AHB3_GRP1_PERIPH_ALL            0xFFFFFFFFU
 124:Drivers/STM32G4xx_HAL_Driver/Inc/stm32g4xx_ll_bus.h **** #if defined(FMC_Bank1_R)
 125:Drivers/STM32G4xx_HAL_Driver/Inc/stm32g4xx_ll_bus.h **** #define LL_AHB3_GRP1_PERIPH_FMC            RCC_AHB3ENR_FMCEN
 126:Drivers/STM32G4xx_HAL_Driver/Inc/stm32g4xx_ll_bus.h **** #endif /* FMC_Bank1_R */
 127:Drivers/STM32G4xx_HAL_Driver/Inc/stm32g4xx_ll_bus.h **** #if defined(QUADSPI)
 128:Drivers/STM32G4xx_HAL_Driver/Inc/stm32g4xx_ll_bus.h **** #define LL_AHB3_GRP1_PERIPH_QSPI           RCC_AHB3ENR_QSPIEN
 129:Drivers/STM32G4xx_HAL_Driver/Inc/stm32g4xx_ll_bus.h **** #endif /* QUADSPI */
 130:Drivers/STM32G4xx_HAL_Driver/Inc/stm32g4xx_ll_bus.h **** /**
 131:Drivers/STM32G4xx_HAL_Driver/Inc/stm32g4xx_ll_bus.h ****   * @}
 132:Drivers/STM32G4xx_HAL_Driver/Inc/stm32g4xx_ll_bus.h ****   */
 133:Drivers/STM32G4xx_HAL_Driver/Inc/stm32g4xx_ll_bus.h **** 
 134:Drivers/STM32G4xx_HAL_Driver/Inc/stm32g4xx_ll_bus.h **** /** @defgroup BUS_LL_EC_APB1_GRP1_PERIPH  APB1 GRP1 PERIPH
 135:Drivers/STM32G4xx_HAL_Driver/Inc/stm32g4xx_ll_bus.h ****   * @{
 136:Drivers/STM32G4xx_HAL_Driver/Inc/stm32g4xx_ll_bus.h ****   */
 137:Drivers/STM32G4xx_HAL_Driver/Inc/stm32g4xx_ll_bus.h **** #define LL_APB1_GRP1_PERIPH_ALL            0xFFFFFFFFU
 138:Drivers/STM32G4xx_HAL_Driver/Inc/stm32g4xx_ll_bus.h **** #define LL_APB1_GRP1_PERIPH_TIM2           RCC_APB1ENR1_TIM2EN
 139:Drivers/STM32G4xx_HAL_Driver/Inc/stm32g4xx_ll_bus.h **** #define LL_APB1_GRP1_PERIPH_TIM3           RCC_APB1ENR1_TIM3EN
ARM GAS  /tmp/ccvW6hDH.s 			page 17


 140:Drivers/STM32G4xx_HAL_Driver/Inc/stm32g4xx_ll_bus.h **** #define LL_APB1_GRP1_PERIPH_TIM4           RCC_APB1ENR1_TIM4EN
 141:Drivers/STM32G4xx_HAL_Driver/Inc/stm32g4xx_ll_bus.h **** #if defined(TIM5)
 142:Drivers/STM32G4xx_HAL_Driver/Inc/stm32g4xx_ll_bus.h **** #define LL_APB1_GRP1_PERIPH_TIM5           RCC_APB1ENR1_TIM5EN
 143:Drivers/STM32G4xx_HAL_Driver/Inc/stm32g4xx_ll_bus.h **** #endif /* TIM5 */
 144:Drivers/STM32G4xx_HAL_Driver/Inc/stm32g4xx_ll_bus.h **** #define LL_APB1_GRP1_PERIPH_TIM6           RCC_APB1ENR1_TIM6EN
 145:Drivers/STM32G4xx_HAL_Driver/Inc/stm32g4xx_ll_bus.h **** #define LL_APB1_GRP1_PERIPH_TIM7           RCC_APB1ENR1_TIM7EN
 146:Drivers/STM32G4xx_HAL_Driver/Inc/stm32g4xx_ll_bus.h **** #define LL_APB1_GRP1_PERIPH_CRS            RCC_APB1ENR1_CRSEN
 147:Drivers/STM32G4xx_HAL_Driver/Inc/stm32g4xx_ll_bus.h **** #define LL_APB1_GRP1_PERIPH_RTCAPB         RCC_APB1ENR1_RTCAPBEN
 148:Drivers/STM32G4xx_HAL_Driver/Inc/stm32g4xx_ll_bus.h **** #define LL_APB1_GRP1_PERIPH_WWDG           RCC_APB1ENR1_WWDGEN
 149:Drivers/STM32G4xx_HAL_Driver/Inc/stm32g4xx_ll_bus.h **** #define LL_APB1_GRP1_PERIPH_SPI2           RCC_APB1ENR1_SPI2EN
 150:Drivers/STM32G4xx_HAL_Driver/Inc/stm32g4xx_ll_bus.h **** #define LL_APB1_GRP1_PERIPH_SPI3           RCC_APB1ENR1_SPI3EN
 151:Drivers/STM32G4xx_HAL_Driver/Inc/stm32g4xx_ll_bus.h **** #define LL_APB1_GRP1_PERIPH_USART2         RCC_APB1ENR1_USART2EN
 152:Drivers/STM32G4xx_HAL_Driver/Inc/stm32g4xx_ll_bus.h **** #define LL_APB1_GRP1_PERIPH_USART3         RCC_APB1ENR1_USART3EN
 153:Drivers/STM32G4xx_HAL_Driver/Inc/stm32g4xx_ll_bus.h **** #if defined(UART4)
 154:Drivers/STM32G4xx_HAL_Driver/Inc/stm32g4xx_ll_bus.h **** #define LL_APB1_GRP1_PERIPH_UART4          RCC_APB1ENR1_UART4EN
 155:Drivers/STM32G4xx_HAL_Driver/Inc/stm32g4xx_ll_bus.h **** #endif /* UART4 */
 156:Drivers/STM32G4xx_HAL_Driver/Inc/stm32g4xx_ll_bus.h **** #if defined(UART5)
 157:Drivers/STM32G4xx_HAL_Driver/Inc/stm32g4xx_ll_bus.h **** #define LL_APB1_GRP1_PERIPH_UART5          RCC_APB1ENR1_UART5EN
 158:Drivers/STM32G4xx_HAL_Driver/Inc/stm32g4xx_ll_bus.h **** #endif /* UART5 */
 159:Drivers/STM32G4xx_HAL_Driver/Inc/stm32g4xx_ll_bus.h **** #define LL_APB1_GRP1_PERIPH_I2C1           RCC_APB1ENR1_I2C1EN
 160:Drivers/STM32G4xx_HAL_Driver/Inc/stm32g4xx_ll_bus.h **** #define LL_APB1_GRP1_PERIPH_I2C2           RCC_APB1ENR1_I2C2EN
 161:Drivers/STM32G4xx_HAL_Driver/Inc/stm32g4xx_ll_bus.h **** #define LL_APB1_GRP1_PERIPH_USB            RCC_APB1ENR1_USBEN
 162:Drivers/STM32G4xx_HAL_Driver/Inc/stm32g4xx_ll_bus.h **** #if defined(FDCAN1)
 163:Drivers/STM32G4xx_HAL_Driver/Inc/stm32g4xx_ll_bus.h **** #define LL_APB1_GRP1_PERIPH_FDCAN          RCC_APB1ENR1_FDCANEN
 164:Drivers/STM32G4xx_HAL_Driver/Inc/stm32g4xx_ll_bus.h **** #endif /* FDCAN1 */
 165:Drivers/STM32G4xx_HAL_Driver/Inc/stm32g4xx_ll_bus.h **** #define LL_APB1_GRP1_PERIPH_PWR            RCC_APB1ENR1_PWREN
 166:Drivers/STM32G4xx_HAL_Driver/Inc/stm32g4xx_ll_bus.h **** #define LL_APB1_GRP1_PERIPH_I2C3           RCC_APB1ENR1_I2C3EN
 167:Drivers/STM32G4xx_HAL_Driver/Inc/stm32g4xx_ll_bus.h **** #define LL_APB1_GRP1_PERIPH_LPTIM1         RCC_APB1ENR1_LPTIM1EN
 168:Drivers/STM32G4xx_HAL_Driver/Inc/stm32g4xx_ll_bus.h **** /**
 169:Drivers/STM32G4xx_HAL_Driver/Inc/stm32g4xx_ll_bus.h ****   * @}
 170:Drivers/STM32G4xx_HAL_Driver/Inc/stm32g4xx_ll_bus.h ****   */
 171:Drivers/STM32G4xx_HAL_Driver/Inc/stm32g4xx_ll_bus.h **** 
 172:Drivers/STM32G4xx_HAL_Driver/Inc/stm32g4xx_ll_bus.h **** 
 173:Drivers/STM32G4xx_HAL_Driver/Inc/stm32g4xx_ll_bus.h **** /** @defgroup BUS_LL_EC_APB1_GRP2_PERIPH  APB1 GRP2 PERIPH
 174:Drivers/STM32G4xx_HAL_Driver/Inc/stm32g4xx_ll_bus.h ****   * @{
 175:Drivers/STM32G4xx_HAL_Driver/Inc/stm32g4xx_ll_bus.h ****   */
 176:Drivers/STM32G4xx_HAL_Driver/Inc/stm32g4xx_ll_bus.h **** #define LL_APB1_GRP2_PERIPH_ALL            0xFFFFFFFFU
 177:Drivers/STM32G4xx_HAL_Driver/Inc/stm32g4xx_ll_bus.h **** #define LL_APB1_GRP2_PERIPH_LPUART1        RCC_APB1ENR2_LPUART1EN
 178:Drivers/STM32G4xx_HAL_Driver/Inc/stm32g4xx_ll_bus.h **** #if defined(I2C4)
 179:Drivers/STM32G4xx_HAL_Driver/Inc/stm32g4xx_ll_bus.h **** #define LL_APB1_GRP2_PERIPH_I2C4           RCC_APB1ENR2_I2C4EN
 180:Drivers/STM32G4xx_HAL_Driver/Inc/stm32g4xx_ll_bus.h **** #endif /* I2C4 */
 181:Drivers/STM32G4xx_HAL_Driver/Inc/stm32g4xx_ll_bus.h **** #define LL_APB1_GRP2_PERIPH_UCPD1         RCC_APB1ENR2_UCPD1EN
 182:Drivers/STM32G4xx_HAL_Driver/Inc/stm32g4xx_ll_bus.h **** /**
 183:Drivers/STM32G4xx_HAL_Driver/Inc/stm32g4xx_ll_bus.h ****   * @}
 184:Drivers/STM32G4xx_HAL_Driver/Inc/stm32g4xx_ll_bus.h ****   */
 185:Drivers/STM32G4xx_HAL_Driver/Inc/stm32g4xx_ll_bus.h **** 
 186:Drivers/STM32G4xx_HAL_Driver/Inc/stm32g4xx_ll_bus.h **** /** @defgroup BUS_LL_EC_APB2_GRP1_PERIPH  APB2 GRP1 PERIPH
 187:Drivers/STM32G4xx_HAL_Driver/Inc/stm32g4xx_ll_bus.h ****   * @{
 188:Drivers/STM32G4xx_HAL_Driver/Inc/stm32g4xx_ll_bus.h ****   */
 189:Drivers/STM32G4xx_HAL_Driver/Inc/stm32g4xx_ll_bus.h **** #define LL_APB2_GRP1_PERIPH_ALL            0xFFFFFFFFU
 190:Drivers/STM32G4xx_HAL_Driver/Inc/stm32g4xx_ll_bus.h **** #define LL_APB2_GRP1_PERIPH_SYSCFG         RCC_APB2ENR_SYSCFGEN
 191:Drivers/STM32G4xx_HAL_Driver/Inc/stm32g4xx_ll_bus.h **** #define LL_APB2_GRP1_PERIPH_TIM1           RCC_APB2ENR_TIM1EN
 192:Drivers/STM32G4xx_HAL_Driver/Inc/stm32g4xx_ll_bus.h **** #define LL_APB2_GRP1_PERIPH_SPI1           RCC_APB2ENR_SPI1EN
 193:Drivers/STM32G4xx_HAL_Driver/Inc/stm32g4xx_ll_bus.h **** #define LL_APB2_GRP1_PERIPH_TIM8           RCC_APB2ENR_TIM8EN
 194:Drivers/STM32G4xx_HAL_Driver/Inc/stm32g4xx_ll_bus.h **** #define LL_APB2_GRP1_PERIPH_USART1         RCC_APB2ENR_USART1EN
 195:Drivers/STM32G4xx_HAL_Driver/Inc/stm32g4xx_ll_bus.h **** #if defined(SPI4)
 196:Drivers/STM32G4xx_HAL_Driver/Inc/stm32g4xx_ll_bus.h **** #define LL_APB2_GRP1_PERIPH_SPI4           RCC_APB2ENR_SPI4EN
ARM GAS  /tmp/ccvW6hDH.s 			page 18


 197:Drivers/STM32G4xx_HAL_Driver/Inc/stm32g4xx_ll_bus.h **** #endif /* SPI4 */
 198:Drivers/STM32G4xx_HAL_Driver/Inc/stm32g4xx_ll_bus.h **** #define LL_APB2_GRP1_PERIPH_TIM15          RCC_APB2ENR_TIM15EN
 199:Drivers/STM32G4xx_HAL_Driver/Inc/stm32g4xx_ll_bus.h **** #define LL_APB2_GRP1_PERIPH_TIM16          RCC_APB2ENR_TIM16EN
 200:Drivers/STM32G4xx_HAL_Driver/Inc/stm32g4xx_ll_bus.h **** #define LL_APB2_GRP1_PERIPH_TIM17          RCC_APB2ENR_TIM17EN
 201:Drivers/STM32G4xx_HAL_Driver/Inc/stm32g4xx_ll_bus.h **** #if defined(TIM20)
 202:Drivers/STM32G4xx_HAL_Driver/Inc/stm32g4xx_ll_bus.h **** #define LL_APB2_GRP1_PERIPH_TIM20          RCC_APB2ENR_TIM20EN
 203:Drivers/STM32G4xx_HAL_Driver/Inc/stm32g4xx_ll_bus.h **** #endif /* TIM20 */
 204:Drivers/STM32G4xx_HAL_Driver/Inc/stm32g4xx_ll_bus.h **** #define LL_APB2_GRP1_PERIPH_SAI1           RCC_APB2ENR_SAI1EN
 205:Drivers/STM32G4xx_HAL_Driver/Inc/stm32g4xx_ll_bus.h **** #if defined(HRTIM1)
 206:Drivers/STM32G4xx_HAL_Driver/Inc/stm32g4xx_ll_bus.h **** #define LL_APB2_GRP1_PERIPH_HRTIM1         RCC_APB2ENR_HRTIM1EN
 207:Drivers/STM32G4xx_HAL_Driver/Inc/stm32g4xx_ll_bus.h **** #endif /* HRTIM1 */
 208:Drivers/STM32G4xx_HAL_Driver/Inc/stm32g4xx_ll_bus.h **** /**
 209:Drivers/STM32G4xx_HAL_Driver/Inc/stm32g4xx_ll_bus.h ****   * @}
 210:Drivers/STM32G4xx_HAL_Driver/Inc/stm32g4xx_ll_bus.h ****   */
 211:Drivers/STM32G4xx_HAL_Driver/Inc/stm32g4xx_ll_bus.h **** 
 212:Drivers/STM32G4xx_HAL_Driver/Inc/stm32g4xx_ll_bus.h **** /**
 213:Drivers/STM32G4xx_HAL_Driver/Inc/stm32g4xx_ll_bus.h ****   * @}
 214:Drivers/STM32G4xx_HAL_Driver/Inc/stm32g4xx_ll_bus.h ****   */
 215:Drivers/STM32G4xx_HAL_Driver/Inc/stm32g4xx_ll_bus.h **** 
 216:Drivers/STM32G4xx_HAL_Driver/Inc/stm32g4xx_ll_bus.h **** /* Exported macro ------------------------------------------------------------*/
 217:Drivers/STM32G4xx_HAL_Driver/Inc/stm32g4xx_ll_bus.h **** /* Exported functions --------------------------------------------------------*/
 218:Drivers/STM32G4xx_HAL_Driver/Inc/stm32g4xx_ll_bus.h **** /** @defgroup BUS_LL_Exported_Functions BUS Exported Functions
 219:Drivers/STM32G4xx_HAL_Driver/Inc/stm32g4xx_ll_bus.h ****   * @{
 220:Drivers/STM32G4xx_HAL_Driver/Inc/stm32g4xx_ll_bus.h ****   */
 221:Drivers/STM32G4xx_HAL_Driver/Inc/stm32g4xx_ll_bus.h **** 
 222:Drivers/STM32G4xx_HAL_Driver/Inc/stm32g4xx_ll_bus.h **** /** @defgroup BUS_LL_EF_AHB1 AHB1
 223:Drivers/STM32G4xx_HAL_Driver/Inc/stm32g4xx_ll_bus.h ****   * @{
 224:Drivers/STM32G4xx_HAL_Driver/Inc/stm32g4xx_ll_bus.h ****   */
 225:Drivers/STM32G4xx_HAL_Driver/Inc/stm32g4xx_ll_bus.h **** 
 226:Drivers/STM32G4xx_HAL_Driver/Inc/stm32g4xx_ll_bus.h **** /**
 227:Drivers/STM32G4xx_HAL_Driver/Inc/stm32g4xx_ll_bus.h ****   * @brief  Enable AHB1 peripherals clock.
 228:Drivers/STM32G4xx_HAL_Driver/Inc/stm32g4xx_ll_bus.h ****   * @rmtoll AHB1ENR      DMA1EN        LL_AHB1_GRP1_EnableClock\n
 229:Drivers/STM32G4xx_HAL_Driver/Inc/stm32g4xx_ll_bus.h ****   *         AHB1ENR      DMA2EN        LL_AHB1_GRP1_EnableClock\n
 230:Drivers/STM32G4xx_HAL_Driver/Inc/stm32g4xx_ll_bus.h ****   *         AHB1ENR      DMAMMUXEN     LL_AHB1_GRP1_EnableClock\n
 231:Drivers/STM32G4xx_HAL_Driver/Inc/stm32g4xx_ll_bus.h ****   *         AHB1ENR      CORDICEN      LL_AHB1_GRP1_EnableClock\n
 232:Drivers/STM32G4xx_HAL_Driver/Inc/stm32g4xx_ll_bus.h ****   *         AHB1ENR      FMACEN        LL_AHB1_GRP1_EnableClock\n
 233:Drivers/STM32G4xx_HAL_Driver/Inc/stm32g4xx_ll_bus.h ****   *         AHB1ENR      FLASHEN       LL_AHB1_GRP1_EnableClock\n
 234:Drivers/STM32G4xx_HAL_Driver/Inc/stm32g4xx_ll_bus.h ****   *         AHB1ENR      CRCEN         LL_AHB1_GRP1_EnableClock
 235:Drivers/STM32G4xx_HAL_Driver/Inc/stm32g4xx_ll_bus.h ****   * @param  Periphs This parameter can be a combination of the following values:
 236:Drivers/STM32G4xx_HAL_Driver/Inc/stm32g4xx_ll_bus.h ****   *         @arg @ref LL_AHB1_GRP1_PERIPH_DMA1
 237:Drivers/STM32G4xx_HAL_Driver/Inc/stm32g4xx_ll_bus.h ****   *         @arg @ref LL_AHB1_GRP1_PERIPH_DMA2
 238:Drivers/STM32G4xx_HAL_Driver/Inc/stm32g4xx_ll_bus.h ****   *         @arg @ref LL_AHB1_GRP1_PERIPH_DMAMUX1
 239:Drivers/STM32G4xx_HAL_Driver/Inc/stm32g4xx_ll_bus.h ****   *         @arg @ref LL_AHB1_GRP1_PERIPH_CORDIC
 240:Drivers/STM32G4xx_HAL_Driver/Inc/stm32g4xx_ll_bus.h ****   *         @arg @ref LL_AHB1_GRP1_PERIPH_FMAC
 241:Drivers/STM32G4xx_HAL_Driver/Inc/stm32g4xx_ll_bus.h ****   *         @arg @ref LL_AHB1_GRP1_PERIPH_FLASH
 242:Drivers/STM32G4xx_HAL_Driver/Inc/stm32g4xx_ll_bus.h ****   *         @arg @ref LL_AHB1_GRP1_PERIPH_CRC
 243:Drivers/STM32G4xx_HAL_Driver/Inc/stm32g4xx_ll_bus.h ****   * @retval None
 244:Drivers/STM32G4xx_HAL_Driver/Inc/stm32g4xx_ll_bus.h ****   */
 245:Drivers/STM32G4xx_HAL_Driver/Inc/stm32g4xx_ll_bus.h **** __STATIC_INLINE void LL_AHB1_GRP1_EnableClock(uint32_t Periphs)
 246:Drivers/STM32G4xx_HAL_Driver/Inc/stm32g4xx_ll_bus.h **** {
 247:Drivers/STM32G4xx_HAL_Driver/Inc/stm32g4xx_ll_bus.h ****   __IO uint32_t tmpreg;
 248:Drivers/STM32G4xx_HAL_Driver/Inc/stm32g4xx_ll_bus.h ****   SET_BIT(RCC->AHB1ENR, Periphs);
 249:Drivers/STM32G4xx_HAL_Driver/Inc/stm32g4xx_ll_bus.h ****   /* Delay after an RCC peripheral clock enabling */
 250:Drivers/STM32G4xx_HAL_Driver/Inc/stm32g4xx_ll_bus.h ****   tmpreg = READ_BIT(RCC->AHB1ENR, Periphs);
 251:Drivers/STM32G4xx_HAL_Driver/Inc/stm32g4xx_ll_bus.h ****   (void)tmpreg;
 252:Drivers/STM32G4xx_HAL_Driver/Inc/stm32g4xx_ll_bus.h **** }
 253:Drivers/STM32G4xx_HAL_Driver/Inc/stm32g4xx_ll_bus.h **** 
ARM GAS  /tmp/ccvW6hDH.s 			page 19


 254:Drivers/STM32G4xx_HAL_Driver/Inc/stm32g4xx_ll_bus.h **** /**
 255:Drivers/STM32G4xx_HAL_Driver/Inc/stm32g4xx_ll_bus.h ****   * @brief  Check if AHB1 peripheral clock is enabled or not
 256:Drivers/STM32G4xx_HAL_Driver/Inc/stm32g4xx_ll_bus.h ****   * @rmtoll AHB1ENR      DMA1EN        LL_AHB1_GRP1_IsEnabledClock\n
 257:Drivers/STM32G4xx_HAL_Driver/Inc/stm32g4xx_ll_bus.h ****   *         AHB1ENR      DMA2EN        LL_AHB1_GRP1_IsEnabledClock\n
 258:Drivers/STM32G4xx_HAL_Driver/Inc/stm32g4xx_ll_bus.h ****   *         AHB1ENR      DMAMUXEN      LL_AHB1_GRP1_IsEnabledClock\n
 259:Drivers/STM32G4xx_HAL_Driver/Inc/stm32g4xx_ll_bus.h ****   *         AHB1ENR      CORDICEN      LL_AHB1_GRP1_IsEnabledClock\n
 260:Drivers/STM32G4xx_HAL_Driver/Inc/stm32g4xx_ll_bus.h ****   *         AHB1ENR      FMACEN        LL_AHB1_GRP1_IsEnabledClock\n
 261:Drivers/STM32G4xx_HAL_Driver/Inc/stm32g4xx_ll_bus.h ****   *         AHB1ENR      FLASHEN       LL_AHB1_GRP1_IsEnabledClock\n
 262:Drivers/STM32G4xx_HAL_Driver/Inc/stm32g4xx_ll_bus.h ****   *         AHB1ENR      CRCEN         LL_AHB1_GRP1_IsEnabledClock
 263:Drivers/STM32G4xx_HAL_Driver/Inc/stm32g4xx_ll_bus.h ****   * @param  Periphs This parameter can be a combination of the following values:
 264:Drivers/STM32G4xx_HAL_Driver/Inc/stm32g4xx_ll_bus.h ****   *         @arg @ref LL_AHB1_GRP1_PERIPH_DMA1
 265:Drivers/STM32G4xx_HAL_Driver/Inc/stm32g4xx_ll_bus.h ****   *         @arg @ref LL_AHB1_GRP1_PERIPH_DMA2
 266:Drivers/STM32G4xx_HAL_Driver/Inc/stm32g4xx_ll_bus.h ****   *         @arg @ref LL_AHB1_GRP1_PERIPH_DMAMUX1
 267:Drivers/STM32G4xx_HAL_Driver/Inc/stm32g4xx_ll_bus.h ****   *         @arg @ref LL_AHB1_GRP1_PERIPH_CORDIC
 268:Drivers/STM32G4xx_HAL_Driver/Inc/stm32g4xx_ll_bus.h ****   *         @arg @ref LL_AHB1_GRP1_PERIPH_FMAC
 269:Drivers/STM32G4xx_HAL_Driver/Inc/stm32g4xx_ll_bus.h ****   *         @arg @ref LL_AHB1_GRP1_PERIPH_FLASH
 270:Drivers/STM32G4xx_HAL_Driver/Inc/stm32g4xx_ll_bus.h ****   *         @arg @ref LL_AHB1_GRP1_PERIPH_CRC
 271:Drivers/STM32G4xx_HAL_Driver/Inc/stm32g4xx_ll_bus.h ****   * @retval State of Periphs (1 or 0).
 272:Drivers/STM32G4xx_HAL_Driver/Inc/stm32g4xx_ll_bus.h ****   */
 273:Drivers/STM32G4xx_HAL_Driver/Inc/stm32g4xx_ll_bus.h **** __STATIC_INLINE uint32_t LL_AHB1_GRP1_IsEnabledClock(uint32_t Periphs)
 274:Drivers/STM32G4xx_HAL_Driver/Inc/stm32g4xx_ll_bus.h **** {
 275:Drivers/STM32G4xx_HAL_Driver/Inc/stm32g4xx_ll_bus.h ****   return ((READ_BIT(RCC->AHB1ENR, Periphs) == Periphs) ? 1UL : 0UL);
 276:Drivers/STM32G4xx_HAL_Driver/Inc/stm32g4xx_ll_bus.h **** }
 277:Drivers/STM32G4xx_HAL_Driver/Inc/stm32g4xx_ll_bus.h **** 
 278:Drivers/STM32G4xx_HAL_Driver/Inc/stm32g4xx_ll_bus.h **** /**
 279:Drivers/STM32G4xx_HAL_Driver/Inc/stm32g4xx_ll_bus.h ****   * @brief  Disable AHB1 peripherals clock.
 280:Drivers/STM32G4xx_HAL_Driver/Inc/stm32g4xx_ll_bus.h ****   * @rmtoll AHB1ENR      DMA1EN        LL_AHB1_GRP1_DisableClock\n
 281:Drivers/STM32G4xx_HAL_Driver/Inc/stm32g4xx_ll_bus.h ****   *         AHB1ENR      DMA2EN        LL_AHB1_GRP1_DisableClock\n
 282:Drivers/STM32G4xx_HAL_Driver/Inc/stm32g4xx_ll_bus.h ****   *         AHB1ENR      DMAMUXEN      LL_AHB1_GRP1_DisableClock\n
 283:Drivers/STM32G4xx_HAL_Driver/Inc/stm32g4xx_ll_bus.h ****   *         AHB1ENR      CORDICEN      LL_AHB1_GRP1_DisableClock\n
 284:Drivers/STM32G4xx_HAL_Driver/Inc/stm32g4xx_ll_bus.h ****   *         AHB1ENR      FMACEN        LL_AHB1_GRP1_DisableClock\n
 285:Drivers/STM32G4xx_HAL_Driver/Inc/stm32g4xx_ll_bus.h ****   *         AHB1ENR      FLASHEN       LL_AHB1_GRP1_DisableClock\n
 286:Drivers/STM32G4xx_HAL_Driver/Inc/stm32g4xx_ll_bus.h ****   *         AHB1ENR      CRCEN         LL_AHB1_GRP1_DisableClock
 287:Drivers/STM32G4xx_HAL_Driver/Inc/stm32g4xx_ll_bus.h ****   * @param  Periphs This parameter can be a combination of the following values:
 288:Drivers/STM32G4xx_HAL_Driver/Inc/stm32g4xx_ll_bus.h ****   *         @arg @ref LL_AHB1_GRP1_PERIPH_DMA1
 289:Drivers/STM32G4xx_HAL_Driver/Inc/stm32g4xx_ll_bus.h ****   *         @arg @ref LL_AHB1_GRP1_PERIPH_DMA2
 290:Drivers/STM32G4xx_HAL_Driver/Inc/stm32g4xx_ll_bus.h ****   *         @arg @ref LL_AHB1_GRP1_PERIPH_DMAMUX1
 291:Drivers/STM32G4xx_HAL_Driver/Inc/stm32g4xx_ll_bus.h ****   *         @arg @ref LL_AHB1_GRP1_PERIPH_CORDIC
 292:Drivers/STM32G4xx_HAL_Driver/Inc/stm32g4xx_ll_bus.h ****   *         @arg @ref LL_AHB1_GRP1_PERIPH_FMAC
 293:Drivers/STM32G4xx_HAL_Driver/Inc/stm32g4xx_ll_bus.h ****   *         @arg @ref LL_AHB1_GRP1_PERIPH_FLASH
 294:Drivers/STM32G4xx_HAL_Driver/Inc/stm32g4xx_ll_bus.h ****   *         @arg @ref LL_AHB1_GRP1_PERIPH_CRC
 295:Drivers/STM32G4xx_HAL_Driver/Inc/stm32g4xx_ll_bus.h ****   * @retval None
 296:Drivers/STM32G4xx_HAL_Driver/Inc/stm32g4xx_ll_bus.h ****   */
 297:Drivers/STM32G4xx_HAL_Driver/Inc/stm32g4xx_ll_bus.h **** __STATIC_INLINE void LL_AHB1_GRP1_DisableClock(uint32_t Periphs)
 298:Drivers/STM32G4xx_HAL_Driver/Inc/stm32g4xx_ll_bus.h **** {
 299:Drivers/STM32G4xx_HAL_Driver/Inc/stm32g4xx_ll_bus.h ****   CLEAR_BIT(RCC->AHB1ENR, Periphs);
 300:Drivers/STM32G4xx_HAL_Driver/Inc/stm32g4xx_ll_bus.h **** }
 301:Drivers/STM32G4xx_HAL_Driver/Inc/stm32g4xx_ll_bus.h **** 
 302:Drivers/STM32G4xx_HAL_Driver/Inc/stm32g4xx_ll_bus.h **** /**
 303:Drivers/STM32G4xx_HAL_Driver/Inc/stm32g4xx_ll_bus.h ****   * @brief  Force AHB1 peripherals reset.
 304:Drivers/STM32G4xx_HAL_Driver/Inc/stm32g4xx_ll_bus.h ****   * @rmtoll AHB1RSTR     DMA1RST       LL_AHB1_GRP1_ForceReset\n
 305:Drivers/STM32G4xx_HAL_Driver/Inc/stm32g4xx_ll_bus.h ****   *         AHB1RSTR     DMA2RST       LL_AHB1_GRP1_ForceReset\n
 306:Drivers/STM32G4xx_HAL_Driver/Inc/stm32g4xx_ll_bus.h ****   *         AHB1RSTR     DMAMUXRST     LL_AHB1_GRP1_ForceReset\n
 307:Drivers/STM32G4xx_HAL_Driver/Inc/stm32g4xx_ll_bus.h ****   *         AHB1RSTR     CORDICRST     LL_AHB1_GRP1_ForceReset\n
 308:Drivers/STM32G4xx_HAL_Driver/Inc/stm32g4xx_ll_bus.h ****   *         AHB1RSTR     FMACRST       LL_AHB1_GRP1_ForceReset\n
 309:Drivers/STM32G4xx_HAL_Driver/Inc/stm32g4xx_ll_bus.h ****   *         AHB1RSTR     FLASHRST      LL_AHB1_GRP1_ForceReset\n
 310:Drivers/STM32G4xx_HAL_Driver/Inc/stm32g4xx_ll_bus.h ****   *         AHB1RSTR     CRCRST        LL_AHB1_GRP1_ForceReset
ARM GAS  /tmp/ccvW6hDH.s 			page 20


 311:Drivers/STM32G4xx_HAL_Driver/Inc/stm32g4xx_ll_bus.h ****   * @param  Periphs This parameter can be a combination of the following values:
 312:Drivers/STM32G4xx_HAL_Driver/Inc/stm32g4xx_ll_bus.h ****   *         @arg @ref LL_AHB1_GRP1_PERIPH_ALL
 313:Drivers/STM32G4xx_HAL_Driver/Inc/stm32g4xx_ll_bus.h ****   *         @arg @ref LL_AHB1_GRP1_PERIPH_DMA1
 314:Drivers/STM32G4xx_HAL_Driver/Inc/stm32g4xx_ll_bus.h ****   *         @arg @ref LL_AHB1_GRP1_PERIPH_DMA2
 315:Drivers/STM32G4xx_HAL_Driver/Inc/stm32g4xx_ll_bus.h ****   *         @arg @ref LL_AHB1_GRP1_PERIPH_DMAMUX1
 316:Drivers/STM32G4xx_HAL_Driver/Inc/stm32g4xx_ll_bus.h ****   *         @arg @ref LL_AHB1_GRP1_PERIPH_CORDIC
 317:Drivers/STM32G4xx_HAL_Driver/Inc/stm32g4xx_ll_bus.h ****   *         @arg @ref LL_AHB1_GRP1_PERIPH_FMAC
 318:Drivers/STM32G4xx_HAL_Driver/Inc/stm32g4xx_ll_bus.h ****   *         @arg @ref LL_AHB1_GRP1_PERIPH_FLASH
 319:Drivers/STM32G4xx_HAL_Driver/Inc/stm32g4xx_ll_bus.h ****   *         @arg @ref LL_AHB1_GRP1_PERIPH_CRC
 320:Drivers/STM32G4xx_HAL_Driver/Inc/stm32g4xx_ll_bus.h ****   * @retval None
 321:Drivers/STM32G4xx_HAL_Driver/Inc/stm32g4xx_ll_bus.h ****   */
 322:Drivers/STM32G4xx_HAL_Driver/Inc/stm32g4xx_ll_bus.h **** __STATIC_INLINE void LL_AHB1_GRP1_ForceReset(uint32_t Periphs)
 130              		.loc 3 322 22 view .LVU28
 131              	.LBB17:
 323:Drivers/STM32G4xx_HAL_Driver/Inc/stm32g4xx_ll_bus.h **** {
 324:Drivers/STM32G4xx_HAL_Driver/Inc/stm32g4xx_ll_bus.h ****   SET_BIT(RCC->AHB1RSTR, Periphs);
 132              		.loc 3 324 3 view .LVU29
 133 000a A3F58063 		sub	r3, r3, #1024
 134              	.LBE17:
 135              	.LBE16:
  96:Drivers/STM32G4xx_HAL_Driver/Src/stm32g4xx_ll_fmac.c **** 
 136              		.loc 1 96 15 is_stmt 0 view .LVU30
 137 000e 0020     		movs	r0, #0
 138              	.LVL7:
 139              	.LBB19:
 140              	.LBB18:
 141              		.loc 3 324 3 view .LVU31
 142 0010 9A6A     		ldr	r2, [r3, #40]
 143 0012 42F01002 		orr	r2, r2, #16
 144 0016 9A62     		str	r2, [r3, #40]
 145              	.LVL8:
 146              		.loc 3 324 3 view .LVU32
 147              	.LBE18:
 148              	.LBE19:
 107:Drivers/STM32G4xx_HAL_Driver/Src/stm32g4xx_ll_fmac.c ****   }
 149              		.loc 1 107 5 is_stmt 1 view .LVU33
 150              	.LBB20:
 151              	.LBI20:
 325:Drivers/STM32G4xx_HAL_Driver/Inc/stm32g4xx_ll_bus.h **** }
 326:Drivers/STM32G4xx_HAL_Driver/Inc/stm32g4xx_ll_bus.h **** 
 327:Drivers/STM32G4xx_HAL_Driver/Inc/stm32g4xx_ll_bus.h **** /**
 328:Drivers/STM32G4xx_HAL_Driver/Inc/stm32g4xx_ll_bus.h ****   * @brief  Release AHB1 peripherals reset.
 329:Drivers/STM32G4xx_HAL_Driver/Inc/stm32g4xx_ll_bus.h ****   * @rmtoll AHB1RSTR     DMA1RST       LL_AHB1_GRP1_ReleaseReset\n
 330:Drivers/STM32G4xx_HAL_Driver/Inc/stm32g4xx_ll_bus.h ****   *         AHB1RSTR     DMA2RST       LL_AHB1_GRP1_ReleaseReset\n
 331:Drivers/STM32G4xx_HAL_Driver/Inc/stm32g4xx_ll_bus.h ****   *         AHB1RSTR     DMAMUXRST     LL_AHB1_GRP1_ReleaseReset\n
 332:Drivers/STM32G4xx_HAL_Driver/Inc/stm32g4xx_ll_bus.h ****   *         AHB1RSTR     CORDICRST     LL_AHB1_GRP1_ReleaseReset\n
 333:Drivers/STM32G4xx_HAL_Driver/Inc/stm32g4xx_ll_bus.h ****   *         AHB1RSTR     FMACRST       LL_AHB1_GRP1_ReleaseReset\n
 334:Drivers/STM32G4xx_HAL_Driver/Inc/stm32g4xx_ll_bus.h ****   *         AHB1RSTR     FLASHRST      LL_AHB1_GRP1_ReleaseReset\n
 335:Drivers/STM32G4xx_HAL_Driver/Inc/stm32g4xx_ll_bus.h ****   *         AHB1RSTR     CRCRST        LL_AHB1_GRP1_ReleaseReset
 336:Drivers/STM32G4xx_HAL_Driver/Inc/stm32g4xx_ll_bus.h ****   * @param  Periphs This parameter can be a combination of the following values:
 337:Drivers/STM32G4xx_HAL_Driver/Inc/stm32g4xx_ll_bus.h ****   *         @arg @ref LL_AHB1_GRP1_PERIPH_ALL
 338:Drivers/STM32G4xx_HAL_Driver/Inc/stm32g4xx_ll_bus.h ****   *         @arg @ref LL_AHB1_GRP1_PERIPH_DMA1
 339:Drivers/STM32G4xx_HAL_Driver/Inc/stm32g4xx_ll_bus.h ****   *         @arg @ref LL_AHB1_GRP1_PERIPH_DMA2
 340:Drivers/STM32G4xx_HAL_Driver/Inc/stm32g4xx_ll_bus.h ****   *         @arg @ref LL_AHB1_GRP1_PERIPH_DMAMUX1
 341:Drivers/STM32G4xx_HAL_Driver/Inc/stm32g4xx_ll_bus.h ****   *         @arg @ref LL_AHB1_GRP1_PERIPH_CORDIC
 342:Drivers/STM32G4xx_HAL_Driver/Inc/stm32g4xx_ll_bus.h ****   *         @arg @ref LL_AHB1_GRP1_PERIPH_FMAC
 343:Drivers/STM32G4xx_HAL_Driver/Inc/stm32g4xx_ll_bus.h ****   *         @arg @ref LL_AHB1_GRP1_PERIPH_FLASH
ARM GAS  /tmp/ccvW6hDH.s 			page 21


 344:Drivers/STM32G4xx_HAL_Driver/Inc/stm32g4xx_ll_bus.h ****   *         @arg @ref LL_AHB1_GRP1_PERIPH_CRC
 345:Drivers/STM32G4xx_HAL_Driver/Inc/stm32g4xx_ll_bus.h ****   * @retval None
 346:Drivers/STM32G4xx_HAL_Driver/Inc/stm32g4xx_ll_bus.h ****   */
 347:Drivers/STM32G4xx_HAL_Driver/Inc/stm32g4xx_ll_bus.h **** __STATIC_INLINE void LL_AHB1_GRP1_ReleaseReset(uint32_t Periphs)
 152              		.loc 3 347 22 view .LVU34
 153              	.LBB21:
 348:Drivers/STM32G4xx_HAL_Driver/Inc/stm32g4xx_ll_bus.h **** {
 349:Drivers/STM32G4xx_HAL_Driver/Inc/stm32g4xx_ll_bus.h ****   CLEAR_BIT(RCC->AHB1RSTR, Periphs);
 154              		.loc 3 349 3 view .LVU35
 155 0018 9A6A     		ldr	r2, [r3, #40]
 156 001a 22F01002 		bic	r2, r2, #16
 157 001e 9A62     		str	r2, [r3, #40]
 350:Drivers/STM32G4xx_HAL_Driver/Inc/stm32g4xx_ll_bus.h **** }
 158              		.loc 3 350 1 is_stmt 0 view .LVU36
 159 0020 7047     		bx	lr
 160              	.L15:
 161 0022 00BF     		.align	2
 162              	.L14:
 163 0024 00140240 		.word	1073878016
 164              	.LBE21:
 165              	.LBE20:
 166              		.cfi_endproc
 167              	.LFE436:
 169              		.text
 170              	.Letext0:
 171              		.file 4 "/usr/lib/gcc/arm-none-eabi/9.2.1/include/stdint.h"
 172              		.file 5 "Drivers/CMSIS/Include/core_cm4.h"
 173              		.file 6 "Drivers/CMSIS/Device/ST/STM32G4xx/Include/system_stm32g4xx.h"
 174              		.file 7 "Drivers/CMSIS/Device/ST/STM32G4xx/Include/stm32g474xx.h"
 175              		.file 8 "Drivers/CMSIS/Device/ST/STM32G4xx/Include/stm32g4xx.h"
 176              		.file 9 "Drivers/STM32G4xx_HAL_Driver/Inc/stm32g4xx_hal_def.h"
 177              		.file 10 "Drivers/STM32G4xx_HAL_Driver/Inc/stm32g4xx_hal_flash.h"
 178              		.file 11 "Drivers/STM32G4xx_HAL_Driver/Inc/stm32g4xx_hal.h"
ARM GAS  /tmp/ccvW6hDH.s 			page 22


DEFINED SYMBOLS
                            *ABS*:0000000000000000 stm32g4xx_ll_fmac.c
     /tmp/ccvW6hDH.s:18     .text.LL_FMAC_Init:0000000000000000 $t
     /tmp/ccvW6hDH.s:27     .text.LL_FMAC_Init:0000000000000000 LL_FMAC_Init
     /tmp/ccvW6hDH.s:88     .text.LL_FMAC_Init:0000000000000020 $d
     /tmp/ccvW6hDH.s:95     .text.LL_FMAC_DeInit:0000000000000000 $t
     /tmp/ccvW6hDH.s:103    .text.LL_FMAC_DeInit:0000000000000000 LL_FMAC_DeInit
     /tmp/ccvW6hDH.s:163    .text.LL_FMAC_DeInit:0000000000000024 $d

NO UNDEFINED SYMBOLS
