ARM GAS  /tmp/ccnaf6G9.s 			page 1


   1              		.cpu cortex-m4
   2              		.eabi_attribute 27, 1
   3              		.eabi_attribute 28, 1
   4              		.eabi_attribute 20, 1
   5              		.eabi_attribute 21, 1
   6              		.eabi_attribute 23, 3
   7              		.eabi_attribute 24, 1
   8              		.eabi_attribute 25, 1
   9              		.eabi_attribute 26, 1
  10              		.eabi_attribute 30, 2
  11              		.eabi_attribute 34, 1
  12              		.eabi_attribute 18, 4
  13              		.file	"stm32g4xx_ll_exti.c"
  14              		.text
  15              	.Ltext0:
  16              		.cfi_sections	.debug_frame
  17              		.section	.text.LL_EXTI_DeInit,"ax",%progbits
  18              		.align	1
  19              		.p2align 2,,3
  20              		.global	LL_EXTI_DeInit
  21              		.arch armv7e-m
  22              		.syntax unified
  23              		.thumb
  24              		.thumb_func
  25              		.fpu fpv4-sp-d16
  27              	LL_EXTI_DeInit:
  28              	.LFB361:
  29              		.file 1 "Drivers/STM32G4xx_HAL_Driver/Src/stm32g4xx_ll_exti.c"
   1:Drivers/STM32G4xx_HAL_Driver/Src/stm32g4xx_ll_exti.c **** /**
   2:Drivers/STM32G4xx_HAL_Driver/Src/stm32g4xx_ll_exti.c ****   ******************************************************************************
   3:Drivers/STM32G4xx_HAL_Driver/Src/stm32g4xx_ll_exti.c ****   * @file    stm32g4xx_ll_exti.c
   4:Drivers/STM32G4xx_HAL_Driver/Src/stm32g4xx_ll_exti.c ****   * @author  MCD Application Team
   5:Drivers/STM32G4xx_HAL_Driver/Src/stm32g4xx_ll_exti.c ****   * @brief   EXTI LL module driver.
   6:Drivers/STM32G4xx_HAL_Driver/Src/stm32g4xx_ll_exti.c ****   ******************************************************************************
   7:Drivers/STM32G4xx_HAL_Driver/Src/stm32g4xx_ll_exti.c ****   * @attention
   8:Drivers/STM32G4xx_HAL_Driver/Src/stm32g4xx_ll_exti.c ****   *
   9:Drivers/STM32G4xx_HAL_Driver/Src/stm32g4xx_ll_exti.c ****   * <h2><center>&copy; Copyright (c) 2019 STMicroelectronics.
  10:Drivers/STM32G4xx_HAL_Driver/Src/stm32g4xx_ll_exti.c ****   * All rights reserved.</center></h2>
  11:Drivers/STM32G4xx_HAL_Driver/Src/stm32g4xx_ll_exti.c ****   *
  12:Drivers/STM32G4xx_HAL_Driver/Src/stm32g4xx_ll_exti.c ****   * This software component is licensed by ST under BSD 3-Clause license,
  13:Drivers/STM32G4xx_HAL_Driver/Src/stm32g4xx_ll_exti.c ****   * the "License"; You may not use this file except in compliance with the
  14:Drivers/STM32G4xx_HAL_Driver/Src/stm32g4xx_ll_exti.c ****   * License. You may obtain a copy of the License at:
  15:Drivers/STM32G4xx_HAL_Driver/Src/stm32g4xx_ll_exti.c ****   *                        opensource.org/licenses/BSD-3-Clause
  16:Drivers/STM32G4xx_HAL_Driver/Src/stm32g4xx_ll_exti.c ****   *
  17:Drivers/STM32G4xx_HAL_Driver/Src/stm32g4xx_ll_exti.c ****   ******************************************************************************
  18:Drivers/STM32G4xx_HAL_Driver/Src/stm32g4xx_ll_exti.c ****   */
  19:Drivers/STM32G4xx_HAL_Driver/Src/stm32g4xx_ll_exti.c **** #if defined(USE_FULL_LL_DRIVER)
  20:Drivers/STM32G4xx_HAL_Driver/Src/stm32g4xx_ll_exti.c **** 
  21:Drivers/STM32G4xx_HAL_Driver/Src/stm32g4xx_ll_exti.c **** /* Includes ------------------------------------------------------------------*/
  22:Drivers/STM32G4xx_HAL_Driver/Src/stm32g4xx_ll_exti.c **** #include "stm32g4xx_ll_exti.h"
  23:Drivers/STM32G4xx_HAL_Driver/Src/stm32g4xx_ll_exti.c **** #ifdef  USE_FULL_ASSERT
  24:Drivers/STM32G4xx_HAL_Driver/Src/stm32g4xx_ll_exti.c **** #include "stm32_assert.h"
  25:Drivers/STM32G4xx_HAL_Driver/Src/stm32g4xx_ll_exti.c **** #else
  26:Drivers/STM32G4xx_HAL_Driver/Src/stm32g4xx_ll_exti.c **** #define assert_param(expr) ((void)0U)
  27:Drivers/STM32G4xx_HAL_Driver/Src/stm32g4xx_ll_exti.c **** #endif /* USE_FULL_ASSERT */
  28:Drivers/STM32G4xx_HAL_Driver/Src/stm32g4xx_ll_exti.c **** 
  29:Drivers/STM32G4xx_HAL_Driver/Src/stm32g4xx_ll_exti.c **** /** @addtogroup STM32G4xx_LL_Driver
ARM GAS  /tmp/ccnaf6G9.s 			page 2


  30:Drivers/STM32G4xx_HAL_Driver/Src/stm32g4xx_ll_exti.c ****   * @{
  31:Drivers/STM32G4xx_HAL_Driver/Src/stm32g4xx_ll_exti.c ****   */
  32:Drivers/STM32G4xx_HAL_Driver/Src/stm32g4xx_ll_exti.c **** 
  33:Drivers/STM32G4xx_HAL_Driver/Src/stm32g4xx_ll_exti.c **** #if defined (EXTI)
  34:Drivers/STM32G4xx_HAL_Driver/Src/stm32g4xx_ll_exti.c **** 
  35:Drivers/STM32G4xx_HAL_Driver/Src/stm32g4xx_ll_exti.c **** /** @defgroup EXTI_LL EXTI
  36:Drivers/STM32G4xx_HAL_Driver/Src/stm32g4xx_ll_exti.c ****   * @{
  37:Drivers/STM32G4xx_HAL_Driver/Src/stm32g4xx_ll_exti.c ****   */
  38:Drivers/STM32G4xx_HAL_Driver/Src/stm32g4xx_ll_exti.c **** 
  39:Drivers/STM32G4xx_HAL_Driver/Src/stm32g4xx_ll_exti.c **** /* Private types -------------------------------------------------------------*/
  40:Drivers/STM32G4xx_HAL_Driver/Src/stm32g4xx_ll_exti.c **** /* Private variables ---------------------------------------------------------*/
  41:Drivers/STM32G4xx_HAL_Driver/Src/stm32g4xx_ll_exti.c **** /* Private constants ---------------------------------------------------------*/
  42:Drivers/STM32G4xx_HAL_Driver/Src/stm32g4xx_ll_exti.c **** /* Private macros ------------------------------------------------------------*/
  43:Drivers/STM32G4xx_HAL_Driver/Src/stm32g4xx_ll_exti.c **** /** @addtogroup EXTI_LL_Private_Macros
  44:Drivers/STM32G4xx_HAL_Driver/Src/stm32g4xx_ll_exti.c ****   * @{
  45:Drivers/STM32G4xx_HAL_Driver/Src/stm32g4xx_ll_exti.c ****   */
  46:Drivers/STM32G4xx_HAL_Driver/Src/stm32g4xx_ll_exti.c **** 
  47:Drivers/STM32G4xx_HAL_Driver/Src/stm32g4xx_ll_exti.c **** #define IS_LL_EXTI_LINE_0_31(__VALUE__)              (((__VALUE__) & ~LL_EXTI_LINE_ALL_0_31) == 0x0
  48:Drivers/STM32G4xx_HAL_Driver/Src/stm32g4xx_ll_exti.c **** #define IS_LL_EXTI_LINE_32_63(__VALUE__)             (((__VALUE__) & ~LL_EXTI_LINE_ALL_32_63) == 0x
  49:Drivers/STM32G4xx_HAL_Driver/Src/stm32g4xx_ll_exti.c **** 
  50:Drivers/STM32G4xx_HAL_Driver/Src/stm32g4xx_ll_exti.c **** #define IS_LL_EXTI_MODE(__VALUE__)                   (((__VALUE__) == LL_EXTI_MODE_IT)            \
  51:Drivers/STM32G4xx_HAL_Driver/Src/stm32g4xx_ll_exti.c ****                                                       || ((__VALUE__) == LL_EXTI_MODE_EVENT)       
  52:Drivers/STM32G4xx_HAL_Driver/Src/stm32g4xx_ll_exti.c ****                                                       || ((__VALUE__) == LL_EXTI_MODE_IT_EVENT))
  53:Drivers/STM32G4xx_HAL_Driver/Src/stm32g4xx_ll_exti.c **** 
  54:Drivers/STM32G4xx_HAL_Driver/Src/stm32g4xx_ll_exti.c **** 
  55:Drivers/STM32G4xx_HAL_Driver/Src/stm32g4xx_ll_exti.c **** #define IS_LL_EXTI_TRIGGER(__VALUE__)                (((__VALUE__) == LL_EXTI_TRIGGER_NONE)       \
  56:Drivers/STM32G4xx_HAL_Driver/Src/stm32g4xx_ll_exti.c ****                                                       || ((__VALUE__) == LL_EXTI_TRIGGER_RISING)   
  57:Drivers/STM32G4xx_HAL_Driver/Src/stm32g4xx_ll_exti.c ****                                                       || ((__VALUE__) == LL_EXTI_TRIGGER_FALLING)  
  58:Drivers/STM32G4xx_HAL_Driver/Src/stm32g4xx_ll_exti.c ****                                                       || ((__VALUE__) == LL_EXTI_TRIGGER_RISING_FAL
  59:Drivers/STM32G4xx_HAL_Driver/Src/stm32g4xx_ll_exti.c **** 
  60:Drivers/STM32G4xx_HAL_Driver/Src/stm32g4xx_ll_exti.c **** /**
  61:Drivers/STM32G4xx_HAL_Driver/Src/stm32g4xx_ll_exti.c ****   * @}
  62:Drivers/STM32G4xx_HAL_Driver/Src/stm32g4xx_ll_exti.c ****   */
  63:Drivers/STM32G4xx_HAL_Driver/Src/stm32g4xx_ll_exti.c **** 
  64:Drivers/STM32G4xx_HAL_Driver/Src/stm32g4xx_ll_exti.c **** /* Private function prototypes -----------------------------------------------*/
  65:Drivers/STM32G4xx_HAL_Driver/Src/stm32g4xx_ll_exti.c **** 
  66:Drivers/STM32G4xx_HAL_Driver/Src/stm32g4xx_ll_exti.c **** /* Exported functions --------------------------------------------------------*/
  67:Drivers/STM32G4xx_HAL_Driver/Src/stm32g4xx_ll_exti.c **** /** @addtogroup EXTI_LL_Exported_Functions
  68:Drivers/STM32G4xx_HAL_Driver/Src/stm32g4xx_ll_exti.c ****   * @{
  69:Drivers/STM32G4xx_HAL_Driver/Src/stm32g4xx_ll_exti.c ****   */
  70:Drivers/STM32G4xx_HAL_Driver/Src/stm32g4xx_ll_exti.c **** 
  71:Drivers/STM32G4xx_HAL_Driver/Src/stm32g4xx_ll_exti.c **** /** @addtogroup EXTI_LL_EF_Init
  72:Drivers/STM32G4xx_HAL_Driver/Src/stm32g4xx_ll_exti.c ****   * @{
  73:Drivers/STM32G4xx_HAL_Driver/Src/stm32g4xx_ll_exti.c ****   */
  74:Drivers/STM32G4xx_HAL_Driver/Src/stm32g4xx_ll_exti.c **** 
  75:Drivers/STM32G4xx_HAL_Driver/Src/stm32g4xx_ll_exti.c **** /**
  76:Drivers/STM32G4xx_HAL_Driver/Src/stm32g4xx_ll_exti.c ****   * @brief  De-initialize the EXTI registers to their default reset values.
  77:Drivers/STM32G4xx_HAL_Driver/Src/stm32g4xx_ll_exti.c ****   * @retval An ErrorStatus enumeration value:
  78:Drivers/STM32G4xx_HAL_Driver/Src/stm32g4xx_ll_exti.c ****   *          - 0x00: EXTI registers are de-initialized
  79:Drivers/STM32G4xx_HAL_Driver/Src/stm32g4xx_ll_exti.c ****   */
  80:Drivers/STM32G4xx_HAL_Driver/Src/stm32g4xx_ll_exti.c **** uint32_t LL_EXTI_DeInit(void)
  81:Drivers/STM32G4xx_HAL_Driver/Src/stm32g4xx_ll_exti.c **** {
  30              		.loc 1 81 1 view -0
  31              		.cfi_startproc
  32              		@ args = 0, pretend = 0, frame = 0
  33              		@ frame_needed = 0, uses_anonymous_args = 0
  34              		@ link register save eliminated.
ARM GAS  /tmp/ccnaf6G9.s 			page 3


  82:Drivers/STM32G4xx_HAL_Driver/Src/stm32g4xx_ll_exti.c ****   /* Interrupt mask register set to default reset values */
  83:Drivers/STM32G4xx_HAL_Driver/Src/stm32g4xx_ll_exti.c ****   LL_EXTI_WriteReg(IMR1,   0x1F840000U);
  35              		.loc 1 83 3 view .LVU1
  36 0000 0B4B     		ldr	r3, .L4
  37 0002 0C4A     		ldr	r2, .L4+4
  81:Drivers/STM32G4xx_HAL_Driver/Src/stm32g4xx_ll_exti.c ****   /* Interrupt mask register set to default reset values */
  38              		.loc 1 81 1 is_stmt 0 view .LVU2
  39 0004 10B4     		push	{r4}
  40              	.LCFI0:
  41              		.cfi_def_cfa_offset 4
  42              		.cfi_offset 4, -4
  84:Drivers/STM32G4xx_HAL_Driver/Src/stm32g4xx_ll_exti.c ****   /* Event mask register set to default reset values */
  85:Drivers/STM32G4xx_HAL_Driver/Src/stm32g4xx_ll_exti.c ****   LL_EXTI_WriteReg(EMR1,   0x00000000U);
  43              		.loc 1 85 3 view .LVU3
  44 0006 0020     		movs	r0, #0
  83:Drivers/STM32G4xx_HAL_Driver/Src/stm32g4xx_ll_exti.c ****   /* Event mask register set to default reset values */
  45              		.loc 1 83 3 view .LVU4
  46 0008 1A60     		str	r2, [r3]
  47              		.loc 1 85 3 is_stmt 1 view .LVU5
  86:Drivers/STM32G4xx_HAL_Driver/Src/stm32g4xx_ll_exti.c ****   /* Rising Trigger selection register set to default reset values */
  87:Drivers/STM32G4xx_HAL_Driver/Src/stm32g4xx_ll_exti.c ****   LL_EXTI_WriteReg(RTSR1,  0x00000000U);
  88:Drivers/STM32G4xx_HAL_Driver/Src/stm32g4xx_ll_exti.c ****   /* Falling Trigger selection register set to default reset values */
  89:Drivers/STM32G4xx_HAL_Driver/Src/stm32g4xx_ll_exti.c ****   LL_EXTI_WriteReg(FTSR1,  0x00000000U);
  90:Drivers/STM32G4xx_HAL_Driver/Src/stm32g4xx_ll_exti.c ****   /* Software interrupt event register set to default reset values */
  91:Drivers/STM32G4xx_HAL_Driver/Src/stm32g4xx_ll_exti.c ****   LL_EXTI_WriteReg(SWIER1, 0x00000000U);
  92:Drivers/STM32G4xx_HAL_Driver/Src/stm32g4xx_ll_exti.c ****   /* Pending register clear */
  93:Drivers/STM32G4xx_HAL_Driver/Src/stm32g4xx_ll_exti.c ****   LL_EXTI_WriteReg(PR1,    0x007DFFFFU);
  48              		.loc 1 93 3 is_stmt 0 view .LVU6
  49 000a 0B4C     		ldr	r4, .L4+8
  85:Drivers/STM32G4xx_HAL_Driver/Src/stm32g4xx_ll_exti.c ****   /* Rising Trigger selection register set to default reset values */
  50              		.loc 1 85 3 view .LVU7
  51 000c 5860     		str	r0, [r3, #4]
  87:Drivers/STM32G4xx_HAL_Driver/Src/stm32g4xx_ll_exti.c ****   /* Falling Trigger selection register set to default reset values */
  52              		.loc 1 87 3 is_stmt 1 view .LVU8
  94:Drivers/STM32G4xx_HAL_Driver/Src/stm32g4xx_ll_exti.c **** 
  95:Drivers/STM32G4xx_HAL_Driver/Src/stm32g4xx_ll_exti.c ****   /* Interrupt mask register 2 set to default reset values */
  96:Drivers/STM32G4xx_HAL_Driver/Src/stm32g4xx_ll_exti.c **** #if defined(LL_EXTI_LINE_32) && defined(LL_EXTI_LINE_33) && defined(LL_EXTI_LINE_35) && defined(LL_
  97:Drivers/STM32G4xx_HAL_Driver/Src/stm32g4xx_ll_exti.c ****   LL_EXTI_WriteReg(IMR2,        0x0000043CU);
  53              		.loc 1 97 3 is_stmt 0 view .LVU9
  54 000e 40F23C41 		movw	r1, #1084
  98:Drivers/STM32G4xx_HAL_Driver/Src/stm32g4xx_ll_exti.c **** #else
  99:Drivers/STM32G4xx_HAL_Driver/Src/stm32g4xx_ll_exti.c ****   LL_EXTI_WriteReg(IMR2,        0x00000034U);
 100:Drivers/STM32G4xx_HAL_Driver/Src/stm32g4xx_ll_exti.c **** #endif /* LL_EXTI_LINE_xx */
 101:Drivers/STM32G4xx_HAL_Driver/Src/stm32g4xx_ll_exti.c ****   /* Event mask register 2 set to default reset values */
 102:Drivers/STM32G4xx_HAL_Driver/Src/stm32g4xx_ll_exti.c ****   LL_EXTI_WriteReg(EMR2,        0x00000000U);
 103:Drivers/STM32G4xx_HAL_Driver/Src/stm32g4xx_ll_exti.c ****   /* Rising Trigger selection register 2 set to default reset values */
 104:Drivers/STM32G4xx_HAL_Driver/Src/stm32g4xx_ll_exti.c ****   LL_EXTI_WriteReg(RTSR2,       0x00000000U);
 105:Drivers/STM32G4xx_HAL_Driver/Src/stm32g4xx_ll_exti.c ****   /* Falling Trigger selection register 2 set to default reset values */
 106:Drivers/STM32G4xx_HAL_Driver/Src/stm32g4xx_ll_exti.c ****   LL_EXTI_WriteReg(FTSR2,       0x00000000U);
 107:Drivers/STM32G4xx_HAL_Driver/Src/stm32g4xx_ll_exti.c ****   /* Software interrupt event register 2 set to default reset values */
 108:Drivers/STM32G4xx_HAL_Driver/Src/stm32g4xx_ll_exti.c ****   LL_EXTI_WriteReg(SWIER2,      0x00000000U);
 109:Drivers/STM32G4xx_HAL_Driver/Src/stm32g4xx_ll_exti.c ****   /* Pending register 2 clear */
 110:Drivers/STM32G4xx_HAL_Driver/Src/stm32g4xx_ll_exti.c ****   LL_EXTI_WriteReg(PR2,         0x00000078U);
  55              		.loc 1 110 3 view .LVU10
  56 0012 7822     		movs	r2, #120
  87:Drivers/STM32G4xx_HAL_Driver/Src/stm32g4xx_ll_exti.c ****   /* Falling Trigger selection register set to default reset values */
  57              		.loc 1 87 3 view .LVU11
ARM GAS  /tmp/ccnaf6G9.s 			page 4


  58 0014 9860     		str	r0, [r3, #8]
  89:Drivers/STM32G4xx_HAL_Driver/Src/stm32g4xx_ll_exti.c ****   /* Software interrupt event register set to default reset values */
  59              		.loc 1 89 3 is_stmt 1 view .LVU12
  60 0016 D860     		str	r0, [r3, #12]
  91:Drivers/STM32G4xx_HAL_Driver/Src/stm32g4xx_ll_exti.c ****   /* Pending register clear */
  61              		.loc 1 91 3 view .LVU13
  62 0018 1861     		str	r0, [r3, #16]
  93:Drivers/STM32G4xx_HAL_Driver/Src/stm32g4xx_ll_exti.c **** 
  63              		.loc 1 93 3 view .LVU14
  64 001a 5C61     		str	r4, [r3, #20]
  97:Drivers/STM32G4xx_HAL_Driver/Src/stm32g4xx_ll_exti.c **** #else
  65              		.loc 1 97 3 view .LVU15
  66 001c 1962     		str	r1, [r3, #32]
 102:Drivers/STM32G4xx_HAL_Driver/Src/stm32g4xx_ll_exti.c ****   /* Rising Trigger selection register 2 set to default reset values */
  67              		.loc 1 102 3 view .LVU16
 111:Drivers/STM32G4xx_HAL_Driver/Src/stm32g4xx_ll_exti.c **** 
 112:Drivers/STM32G4xx_HAL_Driver/Src/stm32g4xx_ll_exti.c ****   return 0x00u;
 113:Drivers/STM32G4xx_HAL_Driver/Src/stm32g4xx_ll_exti.c **** }
  68              		.loc 1 113 1 is_stmt 0 view .LVU17
  69 001e 5DF8044B 		ldr	r4, [sp], #4
  70              	.LCFI1:
  71              		.cfi_restore 4
  72              		.cfi_def_cfa_offset 0
 102:Drivers/STM32G4xx_HAL_Driver/Src/stm32g4xx_ll_exti.c ****   /* Rising Trigger selection register 2 set to default reset values */
  73              		.loc 1 102 3 view .LVU18
  74 0022 5862     		str	r0, [r3, #36]
 104:Drivers/STM32G4xx_HAL_Driver/Src/stm32g4xx_ll_exti.c ****   /* Falling Trigger selection register 2 set to default reset values */
  75              		.loc 1 104 3 is_stmt 1 view .LVU19
  76 0024 9862     		str	r0, [r3, #40]
 106:Drivers/STM32G4xx_HAL_Driver/Src/stm32g4xx_ll_exti.c ****   /* Software interrupt event register 2 set to default reset values */
  77              		.loc 1 106 3 view .LVU20
  78 0026 D862     		str	r0, [r3, #44]
 108:Drivers/STM32G4xx_HAL_Driver/Src/stm32g4xx_ll_exti.c ****   /* Pending register 2 clear */
  79              		.loc 1 108 3 view .LVU21
  80 0028 1863     		str	r0, [r3, #48]
 110:Drivers/STM32G4xx_HAL_Driver/Src/stm32g4xx_ll_exti.c **** 
  81              		.loc 1 110 3 view .LVU22
  82 002a 5A63     		str	r2, [r3, #52]
 112:Drivers/STM32G4xx_HAL_Driver/Src/stm32g4xx_ll_exti.c **** }
  83              		.loc 1 112 3 view .LVU23
  84              		.loc 1 113 1 is_stmt 0 view .LVU24
  85 002c 7047     		bx	lr
  86              	.L5:
  87 002e 00BF     		.align	2
  88              	.L4:
  89 0030 00040140 		.word	1073808384
  90 0034 0000841F 		.word	528744448
  91 0038 FFFF7D00 		.word	8257535
  92              		.cfi_endproc
  93              	.LFE361:
  95              		.section	.text.LL_EXTI_Init,"ax",%progbits
  96              		.align	1
  97              		.p2align 2,,3
  98              		.global	LL_EXTI_Init
  99              		.syntax unified
 100              		.thumb
 101              		.thumb_func
ARM GAS  /tmp/ccnaf6G9.s 			page 5


 102              		.fpu fpv4-sp-d16
 104              	LL_EXTI_Init:
 105              	.LVL0:
 106              	.LFB362:
 114:Drivers/STM32G4xx_HAL_Driver/Src/stm32g4xx_ll_exti.c **** 
 115:Drivers/STM32G4xx_HAL_Driver/Src/stm32g4xx_ll_exti.c **** /**
 116:Drivers/STM32G4xx_HAL_Driver/Src/stm32g4xx_ll_exti.c ****   * @brief  Initialize the EXTI registers according to the specified parameters in EXTI_InitStruct.
 117:Drivers/STM32G4xx_HAL_Driver/Src/stm32g4xx_ll_exti.c ****   * @param  EXTI_InitStruct pointer to a @ref LL_EXTI_InitTypeDef structure.
 118:Drivers/STM32G4xx_HAL_Driver/Src/stm32g4xx_ll_exti.c ****   * @retval An ErrorStatus enumeration value:
 119:Drivers/STM32G4xx_HAL_Driver/Src/stm32g4xx_ll_exti.c ****   *          - 0x00: EXTI registers are initialized
 120:Drivers/STM32G4xx_HAL_Driver/Src/stm32g4xx_ll_exti.c ****   *          - any other value : wrong configuration
 121:Drivers/STM32G4xx_HAL_Driver/Src/stm32g4xx_ll_exti.c ****   */
 122:Drivers/STM32G4xx_HAL_Driver/Src/stm32g4xx_ll_exti.c **** uint32_t LL_EXTI_Init(LL_EXTI_InitTypeDef *EXTI_InitStruct)
 123:Drivers/STM32G4xx_HAL_Driver/Src/stm32g4xx_ll_exti.c **** {
 107              		.loc 1 123 1 is_stmt 1 view -0
 108              		.cfi_startproc
 109              		@ args = 0, pretend = 0, frame = 0
 110              		@ frame_needed = 0, uses_anonymous_args = 0
 111              		@ link register save eliminated.
 124:Drivers/STM32G4xx_HAL_Driver/Src/stm32g4xx_ll_exti.c ****   uint32_t status = 0x00u;
 112              		.loc 1 124 3 view .LVU26
 125:Drivers/STM32G4xx_HAL_Driver/Src/stm32g4xx_ll_exti.c **** 
 126:Drivers/STM32G4xx_HAL_Driver/Src/stm32g4xx_ll_exti.c ****   /* Check the parameters */
 127:Drivers/STM32G4xx_HAL_Driver/Src/stm32g4xx_ll_exti.c ****   assert_param(IS_LL_EXTI_LINE_0_31(EXTI_InitStruct->Line_0_31));
 113              		.loc 1 127 3 view .LVU27
 128:Drivers/STM32G4xx_HAL_Driver/Src/stm32g4xx_ll_exti.c ****   assert_param(IS_LL_EXTI_LINE_32_63(EXTI_InitStruct->Line_32_63));
 114              		.loc 1 128 3 view .LVU28
 129:Drivers/STM32G4xx_HAL_Driver/Src/stm32g4xx_ll_exti.c ****   assert_param(IS_FUNCTIONAL_STATE(EXTI_InitStruct->LineCommand));
 115              		.loc 1 129 3 view .LVU29
 130:Drivers/STM32G4xx_HAL_Driver/Src/stm32g4xx_ll_exti.c ****   assert_param(IS_LL_EXTI_MODE(EXTI_InitStruct->Mode));
 116              		.loc 1 130 3 view .LVU30
 131:Drivers/STM32G4xx_HAL_Driver/Src/stm32g4xx_ll_exti.c **** 
 132:Drivers/STM32G4xx_HAL_Driver/Src/stm32g4xx_ll_exti.c ****   /* ENABLE LineCommand */
 133:Drivers/STM32G4xx_HAL_Driver/Src/stm32g4xx_ll_exti.c ****   if (EXTI_InitStruct->LineCommand != DISABLE)
 117              		.loc 1 133 3 view .LVU31
 123:Drivers/STM32G4xx_HAL_Driver/Src/stm32g4xx_ll_exti.c ****   uint32_t status = 0x00u;
 118              		.loc 1 123 1 is_stmt 0 view .LVU32
 119 0000 30B4     		push	{r4, r5}
 120              	.LCFI2:
 121              		.cfi_def_cfa_offset 8
 122              		.cfi_offset 4, -8
 123              		.cfi_offset 5, -4
 124              		.loc 1 133 6 view .LVU33
 125 0002 037A     		ldrb	r3, [r0, #8]	@ zero_extendqisi2
 126 0004 6BB3     		cbz	r3, .L7
 134:Drivers/STM32G4xx_HAL_Driver/Src/stm32g4xx_ll_exti.c ****   {
 135:Drivers/STM32G4xx_HAL_Driver/Src/stm32g4xx_ll_exti.c ****     assert_param(IS_LL_EXTI_TRIGGER(EXTI_InitStruct->Trigger));
 127              		.loc 1 135 5 is_stmt 1 view .LVU34
 136:Drivers/STM32G4xx_HAL_Driver/Src/stm32g4xx_ll_exti.c **** 
 137:Drivers/STM32G4xx_HAL_Driver/Src/stm32g4xx_ll_exti.c ****     /* Configure EXTI Lines in range from 0 to 31 */
 138:Drivers/STM32G4xx_HAL_Driver/Src/stm32g4xx_ll_exti.c ****     if (EXTI_InitStruct->Line_0_31 != LL_EXTI_LINE_NONE)
 128              		.loc 1 138 5 view .LVU35
 129              		.loc 1 138 24 is_stmt 0 view .LVU36
 130 0006 0368     		ldr	r3, [r0]
 131              		.loc 1 138 8 view .LVU37
 132 0008 A3B1     		cbz	r3, .L8
 139:Drivers/STM32G4xx_HAL_Driver/Src/stm32g4xx_ll_exti.c ****     {
ARM GAS  /tmp/ccnaf6G9.s 			page 6


 140:Drivers/STM32G4xx_HAL_Driver/Src/stm32g4xx_ll_exti.c ****       switch (EXTI_InitStruct->Mode)
 133              		.loc 1 140 7 is_stmt 1 view .LVU38
 134              		.loc 1 140 30 is_stmt 0 view .LVU39
 135 000a 427A     		ldrb	r2, [r0, #9]	@ zero_extendqisi2
 136              		.loc 1 140 7 view .LVU40
 137 000c 012A     		cmp	r2, #1
 138 000e 74D0     		beq	.L9
 139 0010 022A     		cmp	r2, #2
 140 0012 50D0     		beq	.L10
 141 0014 002A     		cmp	r2, #0
 142 0016 5ED0     		beq	.L37
 143 0018 0122     		movs	r2, #1
 144              	.L11:
 145              	.LVL1:
 141:Drivers/STM32G4xx_HAL_Driver/Src/stm32g4xx_ll_exti.c ****       {
 142:Drivers/STM32G4xx_HAL_Driver/Src/stm32g4xx_ll_exti.c ****         case LL_EXTI_MODE_IT:
 143:Drivers/STM32G4xx_HAL_Driver/Src/stm32g4xx_ll_exti.c ****           /* First Disable Event on provided Lines */
 144:Drivers/STM32G4xx_HAL_Driver/Src/stm32g4xx_ll_exti.c ****           LL_EXTI_DisableEvent_0_31(EXTI_InitStruct->Line_0_31);
 145:Drivers/STM32G4xx_HAL_Driver/Src/stm32g4xx_ll_exti.c ****           /* Then Enable IT on provided Lines */
 146:Drivers/STM32G4xx_HAL_Driver/Src/stm32g4xx_ll_exti.c ****           LL_EXTI_EnableIT_0_31(EXTI_InitStruct->Line_0_31);
 147:Drivers/STM32G4xx_HAL_Driver/Src/stm32g4xx_ll_exti.c ****           break;
 148:Drivers/STM32G4xx_HAL_Driver/Src/stm32g4xx_ll_exti.c ****         case LL_EXTI_MODE_EVENT:
 149:Drivers/STM32G4xx_HAL_Driver/Src/stm32g4xx_ll_exti.c ****           /* First Disable IT on provided Lines */
 150:Drivers/STM32G4xx_HAL_Driver/Src/stm32g4xx_ll_exti.c ****           LL_EXTI_DisableIT_0_31(EXTI_InitStruct->Line_0_31);
 151:Drivers/STM32G4xx_HAL_Driver/Src/stm32g4xx_ll_exti.c ****           /* Then Enable Event on provided Lines */
 152:Drivers/STM32G4xx_HAL_Driver/Src/stm32g4xx_ll_exti.c ****           LL_EXTI_EnableEvent_0_31(EXTI_InitStruct->Line_0_31);
 153:Drivers/STM32G4xx_HAL_Driver/Src/stm32g4xx_ll_exti.c ****           break;
 154:Drivers/STM32G4xx_HAL_Driver/Src/stm32g4xx_ll_exti.c ****         case LL_EXTI_MODE_IT_EVENT:
 155:Drivers/STM32G4xx_HAL_Driver/Src/stm32g4xx_ll_exti.c ****           /* Directly Enable IT on provided Lines */
 156:Drivers/STM32G4xx_HAL_Driver/Src/stm32g4xx_ll_exti.c ****           LL_EXTI_EnableIT_0_31(EXTI_InitStruct->Line_0_31);
 157:Drivers/STM32G4xx_HAL_Driver/Src/stm32g4xx_ll_exti.c ****           /* Directly Enable Event on provided Lines */
 158:Drivers/STM32G4xx_HAL_Driver/Src/stm32g4xx_ll_exti.c ****           LL_EXTI_EnableEvent_0_31(EXTI_InitStruct->Line_0_31);
 159:Drivers/STM32G4xx_HAL_Driver/Src/stm32g4xx_ll_exti.c ****           break;
 160:Drivers/STM32G4xx_HAL_Driver/Src/stm32g4xx_ll_exti.c ****         default:
 161:Drivers/STM32G4xx_HAL_Driver/Src/stm32g4xx_ll_exti.c ****           status = 0x01u;
 162:Drivers/STM32G4xx_HAL_Driver/Src/stm32g4xx_ll_exti.c ****           break;
 163:Drivers/STM32G4xx_HAL_Driver/Src/stm32g4xx_ll_exti.c ****       }
 164:Drivers/STM32G4xx_HAL_Driver/Src/stm32g4xx_ll_exti.c ****       if (EXTI_InitStruct->Trigger != LL_EXTI_TRIGGER_NONE)
 146              		.loc 1 164 7 is_stmt 1 view .LVU41
 147              		.loc 1 164 26 is_stmt 0 view .LVU42
 148 001a 817A     		ldrb	r1, [r0, #10]	@ zero_extendqisi2
 149              		.loc 1 164 10 view .LVU43
 150 001c 0029     		cmp	r1, #0
 151 001e 55D0     		beq	.L24
 152              	.L41:
 165:Drivers/STM32G4xx_HAL_Driver/Src/stm32g4xx_ll_exti.c ****       {
 166:Drivers/STM32G4xx_HAL_Driver/Src/stm32g4xx_ll_exti.c ****         switch (EXTI_InitStruct->Trigger)
 153              		.loc 1 166 9 is_stmt 1 view .LVU44
 154 0020 0229     		cmp	r1, #2
 155 0022 6FD0     		beq	.L12
 156 0024 0329     		cmp	r1, #3
 157 0026 00F09B80 		beq	.L13
 158 002a 0129     		cmp	r1, #1
 159 002c 00F08E80 		beq	.L38
 167:Drivers/STM32G4xx_HAL_Driver/Src/stm32g4xx_ll_exti.c ****         {
 168:Drivers/STM32G4xx_HAL_Driver/Src/stm32g4xx_ll_exti.c ****           case LL_EXTI_TRIGGER_RISING:
 169:Drivers/STM32G4xx_HAL_Driver/Src/stm32g4xx_ll_exti.c ****             /* First Disable Falling Trigger on provided Lines */
ARM GAS  /tmp/ccnaf6G9.s 			page 7


 170:Drivers/STM32G4xx_HAL_Driver/Src/stm32g4xx_ll_exti.c ****             LL_EXTI_DisableFallingTrig_0_31(EXTI_InitStruct->Line_0_31);
 171:Drivers/STM32G4xx_HAL_Driver/Src/stm32g4xx_ll_exti.c ****             /* Then Enable Rising Trigger on provided Lines */
 172:Drivers/STM32G4xx_HAL_Driver/Src/stm32g4xx_ll_exti.c ****             LL_EXTI_EnableRisingTrig_0_31(EXTI_InitStruct->Line_0_31);
 173:Drivers/STM32G4xx_HAL_Driver/Src/stm32g4xx_ll_exti.c ****             break;
 174:Drivers/STM32G4xx_HAL_Driver/Src/stm32g4xx_ll_exti.c ****           case LL_EXTI_TRIGGER_FALLING:
 175:Drivers/STM32G4xx_HAL_Driver/Src/stm32g4xx_ll_exti.c ****             /* First Disable Rising Trigger on provided Lines */
 176:Drivers/STM32G4xx_HAL_Driver/Src/stm32g4xx_ll_exti.c ****             LL_EXTI_DisableRisingTrig_0_31(EXTI_InitStruct->Line_0_31);
 177:Drivers/STM32G4xx_HAL_Driver/Src/stm32g4xx_ll_exti.c ****             /* Then Enable Falling Trigger on provided Lines */
 178:Drivers/STM32G4xx_HAL_Driver/Src/stm32g4xx_ll_exti.c ****             LL_EXTI_EnableFallingTrig_0_31(EXTI_InitStruct->Line_0_31);
 179:Drivers/STM32G4xx_HAL_Driver/Src/stm32g4xx_ll_exti.c ****             break;
 180:Drivers/STM32G4xx_HAL_Driver/Src/stm32g4xx_ll_exti.c ****           case LL_EXTI_TRIGGER_RISING_FALLING:
 181:Drivers/STM32G4xx_HAL_Driver/Src/stm32g4xx_ll_exti.c ****             /* Enable Rising Trigger on provided Lines */
 182:Drivers/STM32G4xx_HAL_Driver/Src/stm32g4xx_ll_exti.c ****             LL_EXTI_EnableRisingTrig_0_31(EXTI_InitStruct->Line_0_31);
 183:Drivers/STM32G4xx_HAL_Driver/Src/stm32g4xx_ll_exti.c ****             /* Enable Falling Trigger on provided Lines */
 184:Drivers/STM32G4xx_HAL_Driver/Src/stm32g4xx_ll_exti.c ****             LL_EXTI_EnableFallingTrig_0_31(EXTI_InitStruct->Line_0_31);
 185:Drivers/STM32G4xx_HAL_Driver/Src/stm32g4xx_ll_exti.c ****             break;
 186:Drivers/STM32G4xx_HAL_Driver/Src/stm32g4xx_ll_exti.c ****           default:
 187:Drivers/STM32G4xx_HAL_Driver/Src/stm32g4xx_ll_exti.c ****             status |= 0x02u;
 160              		.loc 1 187 13 view .LVU45
 161              		.loc 1 187 20 is_stmt 0 view .LVU46
 162 0030 42F00203 		orr	r3, r2, #2
 163              	.LVL2:
 188:Drivers/STM32G4xx_HAL_Driver/Src/stm32g4xx_ll_exti.c ****             break;
 164              		.loc 1 188 13 is_stmt 1 view .LVU47
 165              	.L8:
 189:Drivers/STM32G4xx_HAL_Driver/Src/stm32g4xx_ll_exti.c ****         }
 190:Drivers/STM32G4xx_HAL_Driver/Src/stm32g4xx_ll_exti.c ****       }
 191:Drivers/STM32G4xx_HAL_Driver/Src/stm32g4xx_ll_exti.c ****     }
 192:Drivers/STM32G4xx_HAL_Driver/Src/stm32g4xx_ll_exti.c ****     /* Configure EXTI Lines in range from 32 to 63 */
 193:Drivers/STM32G4xx_HAL_Driver/Src/stm32g4xx_ll_exti.c ****     if (EXTI_InitStruct->Line_32_63 != LL_EXTI_LINE_NONE)
 166              		.loc 1 193 5 view .LVU48
 167              		.loc 1 193 24 is_stmt 0 view .LVU49
 168 0034 4268     		ldr	r2, [r0, #4]
 169              		.loc 1 193 8 view .LVU50
 170 0036 8AB1     		cbz	r2, .L6
 171              	.L42:
 194:Drivers/STM32G4xx_HAL_Driver/Src/stm32g4xx_ll_exti.c ****     {
 195:Drivers/STM32G4xx_HAL_Driver/Src/stm32g4xx_ll_exti.c ****       switch (EXTI_InitStruct->Mode)
 172              		.loc 1 195 7 is_stmt 1 view .LVU51
 173              		.loc 1 195 30 is_stmt 0 view .LVU52
 174 0038 417A     		ldrb	r1, [r0, #9]	@ zero_extendqisi2
 175              		.loc 1 195 7 view .LVU53
 176 003a 0129     		cmp	r1, #1
 177 003c 54D0     		beq	.L16
 178 003e 0229     		cmp	r1, #2
 179 0040 31D0     		beq	.L17
 180 0042 21B3     		cbz	r1, .L39
 196:Drivers/STM32G4xx_HAL_Driver/Src/stm32g4xx_ll_exti.c ****       {
 197:Drivers/STM32G4xx_HAL_Driver/Src/stm32g4xx_ll_exti.c ****         case LL_EXTI_MODE_IT:
 198:Drivers/STM32G4xx_HAL_Driver/Src/stm32g4xx_ll_exti.c ****           /* First Disable Event on provided Lines */
 199:Drivers/STM32G4xx_HAL_Driver/Src/stm32g4xx_ll_exti.c ****           LL_EXTI_DisableEvent_32_63(EXTI_InitStruct->Line_32_63);
 200:Drivers/STM32G4xx_HAL_Driver/Src/stm32g4xx_ll_exti.c ****           /* Then Enable IT on provided Lines */
 201:Drivers/STM32G4xx_HAL_Driver/Src/stm32g4xx_ll_exti.c ****           LL_EXTI_EnableIT_32_63(EXTI_InitStruct->Line_32_63);
 202:Drivers/STM32G4xx_HAL_Driver/Src/stm32g4xx_ll_exti.c ****           break;
 203:Drivers/STM32G4xx_HAL_Driver/Src/stm32g4xx_ll_exti.c ****         case LL_EXTI_MODE_EVENT:
 204:Drivers/STM32G4xx_HAL_Driver/Src/stm32g4xx_ll_exti.c ****           /* First Disable IT on provided Lines */
 205:Drivers/STM32G4xx_HAL_Driver/Src/stm32g4xx_ll_exti.c ****           LL_EXTI_DisableIT_32_63(EXTI_InitStruct->Line_32_63);
ARM GAS  /tmp/ccnaf6G9.s 			page 8


 206:Drivers/STM32G4xx_HAL_Driver/Src/stm32g4xx_ll_exti.c ****           /* Then Enable Event on provided Lines */
 207:Drivers/STM32G4xx_HAL_Driver/Src/stm32g4xx_ll_exti.c ****           LL_EXTI_EnableEvent_32_63(EXTI_InitStruct->Line_32_63);
 208:Drivers/STM32G4xx_HAL_Driver/Src/stm32g4xx_ll_exti.c ****           break;
 209:Drivers/STM32G4xx_HAL_Driver/Src/stm32g4xx_ll_exti.c ****         case LL_EXTI_MODE_IT_EVENT:
 210:Drivers/STM32G4xx_HAL_Driver/Src/stm32g4xx_ll_exti.c ****           /* Directly Enable IT on provided Lines */
 211:Drivers/STM32G4xx_HAL_Driver/Src/stm32g4xx_ll_exti.c ****           LL_EXTI_EnableIT_32_63(EXTI_InitStruct->Line_32_63);
 212:Drivers/STM32G4xx_HAL_Driver/Src/stm32g4xx_ll_exti.c ****           /* Directly Enable IT on provided Lines */
 213:Drivers/STM32G4xx_HAL_Driver/Src/stm32g4xx_ll_exti.c ****           LL_EXTI_EnableEvent_32_63(EXTI_InitStruct->Line_32_63);
 214:Drivers/STM32G4xx_HAL_Driver/Src/stm32g4xx_ll_exti.c ****           break;
 215:Drivers/STM32G4xx_HAL_Driver/Src/stm32g4xx_ll_exti.c ****         default:
 216:Drivers/STM32G4xx_HAL_Driver/Src/stm32g4xx_ll_exti.c ****           status |= 0x04u;
 181              		.loc 1 216 11 is_stmt 1 view .LVU54
 182              		.loc 1 216 18 is_stmt 0 view .LVU55
 183 0044 43F00403 		orr	r3, r3, #4
 184              	.LVL3:
 217:Drivers/STM32G4xx_HAL_Driver/Src/stm32g4xx_ll_exti.c ****           break;
 185              		.loc 1 217 11 is_stmt 1 view .LVU56
 186              	.L19:
 218:Drivers/STM32G4xx_HAL_Driver/Src/stm32g4xx_ll_exti.c ****       }
 219:Drivers/STM32G4xx_HAL_Driver/Src/stm32g4xx_ll_exti.c ****       if (EXTI_InitStruct->Trigger != LL_EXTI_TRIGGER_NONE)
 187              		.loc 1 219 7 view .LVU57
 188              		.loc 1 219 26 is_stmt 0 view .LVU58
 189 0048 817A     		ldrb	r1, [r0, #10]	@ zero_extendqisi2
 190              		.loc 1 219 10 view .LVU59
 191 004a 39B1     		cbz	r1, .L6
 220:Drivers/STM32G4xx_HAL_Driver/Src/stm32g4xx_ll_exti.c ****       {
 221:Drivers/STM32G4xx_HAL_Driver/Src/stm32g4xx_ll_exti.c ****         switch (EXTI_InitStruct->Trigger)
 192              		.loc 1 221 9 is_stmt 1 view .LVU60
 193 004c 0229     		cmp	r1, #2
 194 004e 74D0     		beq	.L20
 195 0050 0329     		cmp	r1, #3
 196 0052 6AD0     		beq	.L21
 197 0054 0129     		cmp	r1, #1
 198 0056 5FD0     		beq	.L40
 222:Drivers/STM32G4xx_HAL_Driver/Src/stm32g4xx_ll_exti.c ****         {
 223:Drivers/STM32G4xx_HAL_Driver/Src/stm32g4xx_ll_exti.c ****           case LL_EXTI_TRIGGER_RISING:
 224:Drivers/STM32G4xx_HAL_Driver/Src/stm32g4xx_ll_exti.c ****             /* First Disable Falling Trigger on provided Lines */
 225:Drivers/STM32G4xx_HAL_Driver/Src/stm32g4xx_ll_exti.c ****             LL_EXTI_DisableFallingTrig_32_63(EXTI_InitStruct->Line_32_63);
 226:Drivers/STM32G4xx_HAL_Driver/Src/stm32g4xx_ll_exti.c ****             /* Then Enable IT on provided Lines */
 227:Drivers/STM32G4xx_HAL_Driver/Src/stm32g4xx_ll_exti.c ****             LL_EXTI_EnableRisingTrig_32_63(EXTI_InitStruct->Line_32_63);
 228:Drivers/STM32G4xx_HAL_Driver/Src/stm32g4xx_ll_exti.c ****             break;
 229:Drivers/STM32G4xx_HAL_Driver/Src/stm32g4xx_ll_exti.c ****           case LL_EXTI_TRIGGER_FALLING:
 230:Drivers/STM32G4xx_HAL_Driver/Src/stm32g4xx_ll_exti.c ****             /* First Disable Rising Trigger on provided Lines */
 231:Drivers/STM32G4xx_HAL_Driver/Src/stm32g4xx_ll_exti.c ****             LL_EXTI_DisableRisingTrig_32_63(EXTI_InitStruct->Line_32_63);
 232:Drivers/STM32G4xx_HAL_Driver/Src/stm32g4xx_ll_exti.c ****             /* Then Enable Falling Trigger on provided Lines */
 233:Drivers/STM32G4xx_HAL_Driver/Src/stm32g4xx_ll_exti.c ****             LL_EXTI_EnableFallingTrig_32_63(EXTI_InitStruct->Line_32_63);
 234:Drivers/STM32G4xx_HAL_Driver/Src/stm32g4xx_ll_exti.c ****             break;
 235:Drivers/STM32G4xx_HAL_Driver/Src/stm32g4xx_ll_exti.c ****           case LL_EXTI_TRIGGER_RISING_FALLING:
 236:Drivers/STM32G4xx_HAL_Driver/Src/stm32g4xx_ll_exti.c ****             /* Enable Rising Trigger on provided Lines */
 237:Drivers/STM32G4xx_HAL_Driver/Src/stm32g4xx_ll_exti.c ****             LL_EXTI_EnableRisingTrig_32_63(EXTI_InitStruct->Line_32_63);
 238:Drivers/STM32G4xx_HAL_Driver/Src/stm32g4xx_ll_exti.c ****             /* Enable Falling Trigger on provided Lines */
 239:Drivers/STM32G4xx_HAL_Driver/Src/stm32g4xx_ll_exti.c ****             LL_EXTI_EnableFallingTrig_32_63(EXTI_InitStruct->Line_32_63);
 240:Drivers/STM32G4xx_HAL_Driver/Src/stm32g4xx_ll_exti.c ****             break;
 241:Drivers/STM32G4xx_HAL_Driver/Src/stm32g4xx_ll_exti.c ****           default:
 242:Drivers/STM32G4xx_HAL_Driver/Src/stm32g4xx_ll_exti.c ****             status |= 0x05u;
 199              		.loc 1 242 13 view .LVU61
 200              		.loc 1 242 20 is_stmt 0 view .LVU62
ARM GAS  /tmp/ccnaf6G9.s 			page 9


 201 0058 43F00503 		orr	r3, r3, #5
 202              	.LVL4:
 243:Drivers/STM32G4xx_HAL_Driver/Src/stm32g4xx_ll_exti.c ****             break;
 203              		.loc 1 243 13 is_stmt 1 view .LVU63
 204              	.L6:
 244:Drivers/STM32G4xx_HAL_Driver/Src/stm32g4xx_ll_exti.c ****         }
 245:Drivers/STM32G4xx_HAL_Driver/Src/stm32g4xx_ll_exti.c ****       }
 246:Drivers/STM32G4xx_HAL_Driver/Src/stm32g4xx_ll_exti.c ****     }
 247:Drivers/STM32G4xx_HAL_Driver/Src/stm32g4xx_ll_exti.c ****   }
 248:Drivers/STM32G4xx_HAL_Driver/Src/stm32g4xx_ll_exti.c ****   /* DISABLE LineCommand */
 249:Drivers/STM32G4xx_HAL_Driver/Src/stm32g4xx_ll_exti.c ****   else
 250:Drivers/STM32G4xx_HAL_Driver/Src/stm32g4xx_ll_exti.c ****   {
 251:Drivers/STM32G4xx_HAL_Driver/Src/stm32g4xx_ll_exti.c ****     /* De-configure IT EXTI Lines in range from 0 to 31 */
 252:Drivers/STM32G4xx_HAL_Driver/Src/stm32g4xx_ll_exti.c ****     LL_EXTI_DisableIT_0_31(EXTI_InitStruct->Line_0_31);
 253:Drivers/STM32G4xx_HAL_Driver/Src/stm32g4xx_ll_exti.c ****     /* De-configure Event EXTI Lines in range from 0 to 31 */
 254:Drivers/STM32G4xx_HAL_Driver/Src/stm32g4xx_ll_exti.c ****     LL_EXTI_DisableEvent_0_31(EXTI_InitStruct->Line_0_31);
 255:Drivers/STM32G4xx_HAL_Driver/Src/stm32g4xx_ll_exti.c ****     /* De-configure IT EXTI Lines in range from 32 to 63 */
 256:Drivers/STM32G4xx_HAL_Driver/Src/stm32g4xx_ll_exti.c ****     LL_EXTI_DisableIT_32_63(EXTI_InitStruct->Line_32_63);
 257:Drivers/STM32G4xx_HAL_Driver/Src/stm32g4xx_ll_exti.c ****     /* De-configure Event EXTI Lines in range from 32 to 63 */
 258:Drivers/STM32G4xx_HAL_Driver/Src/stm32g4xx_ll_exti.c ****     LL_EXTI_DisableEvent_32_63(EXTI_InitStruct->Line_32_63);
 259:Drivers/STM32G4xx_HAL_Driver/Src/stm32g4xx_ll_exti.c ****   }
 260:Drivers/STM32G4xx_HAL_Driver/Src/stm32g4xx_ll_exti.c **** 
 261:Drivers/STM32G4xx_HAL_Driver/Src/stm32g4xx_ll_exti.c ****   return status;
 262:Drivers/STM32G4xx_HAL_Driver/Src/stm32g4xx_ll_exti.c **** }
 205              		.loc 1 262 1 is_stmt 0 view .LVU64
 206 005c 1846     		mov	r0, r3
 207 005e 30BC     		pop	{r4, r5}
 208              	.LCFI3:
 209              		.cfi_remember_state
 210              		.cfi_restore 5
 211              		.cfi_restore 4
 212              		.cfi_def_cfa_offset 0
 213 0060 7047     		bx	lr
 214              	.LVL5:
 215              	.L7:
 216              	.LCFI4:
 217              		.cfi_restore_state
 252:Drivers/STM32G4xx_HAL_Driver/Src/stm32g4xx_ll_exti.c ****     /* De-configure Event EXTI Lines in range from 0 to 31 */
 218              		.loc 1 252 5 is_stmt 1 view .LVU65
 219              	.LBB58:
 220              	.LBI58:
 221              		.file 2 "Drivers/STM32G4xx_HAL_Driver/Inc/stm32g4xx_ll_exti.h"
   1:Drivers/STM32G4xx_HAL_Driver/Inc/stm32g4xx_ll_exti.h **** /**
   2:Drivers/STM32G4xx_HAL_Driver/Inc/stm32g4xx_ll_exti.h ****   ******************************************************************************
   3:Drivers/STM32G4xx_HAL_Driver/Inc/stm32g4xx_ll_exti.h ****   * @file    stm32g4xx_ll_exti.h
   4:Drivers/STM32G4xx_HAL_Driver/Inc/stm32g4xx_ll_exti.h ****   * @author  MCD Application Team
   5:Drivers/STM32G4xx_HAL_Driver/Inc/stm32g4xx_ll_exti.h ****   * @brief   Header file of EXTI LL module.
   6:Drivers/STM32G4xx_HAL_Driver/Inc/stm32g4xx_ll_exti.h ****   ******************************************************************************
   7:Drivers/STM32G4xx_HAL_Driver/Inc/stm32g4xx_ll_exti.h ****   * @attention
   8:Drivers/STM32G4xx_HAL_Driver/Inc/stm32g4xx_ll_exti.h ****   *
   9:Drivers/STM32G4xx_HAL_Driver/Inc/stm32g4xx_ll_exti.h ****   * <h2><center>&copy; Copyright (c) 2019 STMicroelectronics.
  10:Drivers/STM32G4xx_HAL_Driver/Inc/stm32g4xx_ll_exti.h ****   * All rights reserved.</center></h2>
  11:Drivers/STM32G4xx_HAL_Driver/Inc/stm32g4xx_ll_exti.h ****   *
  12:Drivers/STM32G4xx_HAL_Driver/Inc/stm32g4xx_ll_exti.h ****   * This software component is licensed by ST under BSD 3-Clause license,
  13:Drivers/STM32G4xx_HAL_Driver/Inc/stm32g4xx_ll_exti.h ****   * the "License"; You may not use this file except in compliance with the
  14:Drivers/STM32G4xx_HAL_Driver/Inc/stm32g4xx_ll_exti.h ****   * License. You may obtain a copy of the License at:
  15:Drivers/STM32G4xx_HAL_Driver/Inc/stm32g4xx_ll_exti.h ****   *                        opensource.org/licenses/BSD-3-Clause
ARM GAS  /tmp/ccnaf6G9.s 			page 10


  16:Drivers/STM32G4xx_HAL_Driver/Inc/stm32g4xx_ll_exti.h ****   *
  17:Drivers/STM32G4xx_HAL_Driver/Inc/stm32g4xx_ll_exti.h ****   ******************************************************************************
  18:Drivers/STM32G4xx_HAL_Driver/Inc/stm32g4xx_ll_exti.h ****   */
  19:Drivers/STM32G4xx_HAL_Driver/Inc/stm32g4xx_ll_exti.h **** 
  20:Drivers/STM32G4xx_HAL_Driver/Inc/stm32g4xx_ll_exti.h **** /* Define to prevent recursive inclusion -------------------------------------*/
  21:Drivers/STM32G4xx_HAL_Driver/Inc/stm32g4xx_ll_exti.h **** #ifndef __STM32G4xx_LL_EXTI_H
  22:Drivers/STM32G4xx_HAL_Driver/Inc/stm32g4xx_ll_exti.h **** #define __STM32G4xx_LL_EXTI_H
  23:Drivers/STM32G4xx_HAL_Driver/Inc/stm32g4xx_ll_exti.h **** 
  24:Drivers/STM32G4xx_HAL_Driver/Inc/stm32g4xx_ll_exti.h **** #ifdef __cplusplus
  25:Drivers/STM32G4xx_HAL_Driver/Inc/stm32g4xx_ll_exti.h **** extern "C" {
  26:Drivers/STM32G4xx_HAL_Driver/Inc/stm32g4xx_ll_exti.h **** #endif
  27:Drivers/STM32G4xx_HAL_Driver/Inc/stm32g4xx_ll_exti.h **** 
  28:Drivers/STM32G4xx_HAL_Driver/Inc/stm32g4xx_ll_exti.h **** /* Includes ------------------------------------------------------------------*/
  29:Drivers/STM32G4xx_HAL_Driver/Inc/stm32g4xx_ll_exti.h **** #include "stm32g4xx.h"
  30:Drivers/STM32G4xx_HAL_Driver/Inc/stm32g4xx_ll_exti.h **** 
  31:Drivers/STM32G4xx_HAL_Driver/Inc/stm32g4xx_ll_exti.h **** /** @addtogroup STM32G4xx_LL_Driver
  32:Drivers/STM32G4xx_HAL_Driver/Inc/stm32g4xx_ll_exti.h ****   * @{
  33:Drivers/STM32G4xx_HAL_Driver/Inc/stm32g4xx_ll_exti.h ****   */
  34:Drivers/STM32G4xx_HAL_Driver/Inc/stm32g4xx_ll_exti.h **** 
  35:Drivers/STM32G4xx_HAL_Driver/Inc/stm32g4xx_ll_exti.h **** #if defined (EXTI)
  36:Drivers/STM32G4xx_HAL_Driver/Inc/stm32g4xx_ll_exti.h **** 
  37:Drivers/STM32G4xx_HAL_Driver/Inc/stm32g4xx_ll_exti.h **** /** @defgroup EXTI_LL EXTI
  38:Drivers/STM32G4xx_HAL_Driver/Inc/stm32g4xx_ll_exti.h ****   * @{
  39:Drivers/STM32G4xx_HAL_Driver/Inc/stm32g4xx_ll_exti.h ****   */
  40:Drivers/STM32G4xx_HAL_Driver/Inc/stm32g4xx_ll_exti.h **** 
  41:Drivers/STM32G4xx_HAL_Driver/Inc/stm32g4xx_ll_exti.h **** /* Private types -------------------------------------------------------------*/
  42:Drivers/STM32G4xx_HAL_Driver/Inc/stm32g4xx_ll_exti.h **** /* Private variables ---------------------------------------------------------*/
  43:Drivers/STM32G4xx_HAL_Driver/Inc/stm32g4xx_ll_exti.h **** /* Private constants ---------------------------------------------------------*/
  44:Drivers/STM32G4xx_HAL_Driver/Inc/stm32g4xx_ll_exti.h **** /* Private Macros ------------------------------------------------------------*/
  45:Drivers/STM32G4xx_HAL_Driver/Inc/stm32g4xx_ll_exti.h **** #if defined(USE_FULL_LL_DRIVER)
  46:Drivers/STM32G4xx_HAL_Driver/Inc/stm32g4xx_ll_exti.h **** /** @defgroup EXTI_LL_Private_Macros EXTI Private Macros
  47:Drivers/STM32G4xx_HAL_Driver/Inc/stm32g4xx_ll_exti.h ****   * @{
  48:Drivers/STM32G4xx_HAL_Driver/Inc/stm32g4xx_ll_exti.h ****   */
  49:Drivers/STM32G4xx_HAL_Driver/Inc/stm32g4xx_ll_exti.h **** /**
  50:Drivers/STM32G4xx_HAL_Driver/Inc/stm32g4xx_ll_exti.h ****   * @}
  51:Drivers/STM32G4xx_HAL_Driver/Inc/stm32g4xx_ll_exti.h ****   */
  52:Drivers/STM32G4xx_HAL_Driver/Inc/stm32g4xx_ll_exti.h **** #endif /*USE_FULL_LL_DRIVER*/
  53:Drivers/STM32G4xx_HAL_Driver/Inc/stm32g4xx_ll_exti.h **** /* Exported types ------------------------------------------------------------*/
  54:Drivers/STM32G4xx_HAL_Driver/Inc/stm32g4xx_ll_exti.h **** #if defined(USE_FULL_LL_DRIVER)
  55:Drivers/STM32G4xx_HAL_Driver/Inc/stm32g4xx_ll_exti.h **** /** @defgroup EXTI_LL_ES_INIT EXTI Exported Init structure
  56:Drivers/STM32G4xx_HAL_Driver/Inc/stm32g4xx_ll_exti.h ****   * @{
  57:Drivers/STM32G4xx_HAL_Driver/Inc/stm32g4xx_ll_exti.h ****   */
  58:Drivers/STM32G4xx_HAL_Driver/Inc/stm32g4xx_ll_exti.h **** typedef struct
  59:Drivers/STM32G4xx_HAL_Driver/Inc/stm32g4xx_ll_exti.h **** {
  60:Drivers/STM32G4xx_HAL_Driver/Inc/stm32g4xx_ll_exti.h **** 
  61:Drivers/STM32G4xx_HAL_Driver/Inc/stm32g4xx_ll_exti.h ****   uint32_t Line_0_31;           /*!< Specifies the EXTI lines to be enabled or disabled for Lines i
  62:Drivers/STM32G4xx_HAL_Driver/Inc/stm32g4xx_ll_exti.h ****                                      This parameter can be any combination of @ref EXTI_LL_EC_LINE 
  63:Drivers/STM32G4xx_HAL_Driver/Inc/stm32g4xx_ll_exti.h **** 
  64:Drivers/STM32G4xx_HAL_Driver/Inc/stm32g4xx_ll_exti.h ****   uint32_t Line_32_63;          /*!< Specifies the EXTI lines to be enabled or disabled for Lines i
  65:Drivers/STM32G4xx_HAL_Driver/Inc/stm32g4xx_ll_exti.h ****                                      This parameter can be any combination of @ref EXTI_LL_EC_LINE 
  66:Drivers/STM32G4xx_HAL_Driver/Inc/stm32g4xx_ll_exti.h **** 
  67:Drivers/STM32G4xx_HAL_Driver/Inc/stm32g4xx_ll_exti.h ****   FunctionalState LineCommand;  /*!< Specifies the new state of the selected EXTI lines.
  68:Drivers/STM32G4xx_HAL_Driver/Inc/stm32g4xx_ll_exti.h ****                                      This parameter can be set either to ENABLE or DISABLE */
  69:Drivers/STM32G4xx_HAL_Driver/Inc/stm32g4xx_ll_exti.h **** 
  70:Drivers/STM32G4xx_HAL_Driver/Inc/stm32g4xx_ll_exti.h ****   uint8_t Mode;                 /*!< Specifies the mode for the EXTI lines.
  71:Drivers/STM32G4xx_HAL_Driver/Inc/stm32g4xx_ll_exti.h ****                                      This parameter can be a value of @ref EXTI_LL_EC_MODE. */
  72:Drivers/STM32G4xx_HAL_Driver/Inc/stm32g4xx_ll_exti.h **** 
ARM GAS  /tmp/ccnaf6G9.s 			page 11


  73:Drivers/STM32G4xx_HAL_Driver/Inc/stm32g4xx_ll_exti.h ****   uint8_t Trigger;              /*!< Specifies the trigger signal active edge for the EXTI lines.
  74:Drivers/STM32G4xx_HAL_Driver/Inc/stm32g4xx_ll_exti.h ****                                      This parameter can be a value of @ref EXTI_LL_EC_TRIGGER. */
  75:Drivers/STM32G4xx_HAL_Driver/Inc/stm32g4xx_ll_exti.h **** } LL_EXTI_InitTypeDef;
  76:Drivers/STM32G4xx_HAL_Driver/Inc/stm32g4xx_ll_exti.h **** 
  77:Drivers/STM32G4xx_HAL_Driver/Inc/stm32g4xx_ll_exti.h **** /**
  78:Drivers/STM32G4xx_HAL_Driver/Inc/stm32g4xx_ll_exti.h ****   * @}
  79:Drivers/STM32G4xx_HAL_Driver/Inc/stm32g4xx_ll_exti.h ****   */
  80:Drivers/STM32G4xx_HAL_Driver/Inc/stm32g4xx_ll_exti.h **** #endif /*USE_FULL_LL_DRIVER*/
  81:Drivers/STM32G4xx_HAL_Driver/Inc/stm32g4xx_ll_exti.h **** 
  82:Drivers/STM32G4xx_HAL_Driver/Inc/stm32g4xx_ll_exti.h **** /* Exported constants --------------------------------------------------------*/
  83:Drivers/STM32G4xx_HAL_Driver/Inc/stm32g4xx_ll_exti.h **** /** @defgroup EXTI_LL_Exported_Constants EXTI Exported Constants
  84:Drivers/STM32G4xx_HAL_Driver/Inc/stm32g4xx_ll_exti.h ****   * @{
  85:Drivers/STM32G4xx_HAL_Driver/Inc/stm32g4xx_ll_exti.h ****   */
  86:Drivers/STM32G4xx_HAL_Driver/Inc/stm32g4xx_ll_exti.h **** 
  87:Drivers/STM32G4xx_HAL_Driver/Inc/stm32g4xx_ll_exti.h **** /** @defgroup EXTI_LL_EC_LINE LINE
  88:Drivers/STM32G4xx_HAL_Driver/Inc/stm32g4xx_ll_exti.h ****   * @{
  89:Drivers/STM32G4xx_HAL_Driver/Inc/stm32g4xx_ll_exti.h ****   */
  90:Drivers/STM32G4xx_HAL_Driver/Inc/stm32g4xx_ll_exti.h **** #define LL_EXTI_LINE_0                 EXTI_IMR1_IM0           /*!< Extended line 0 */
  91:Drivers/STM32G4xx_HAL_Driver/Inc/stm32g4xx_ll_exti.h **** #define LL_EXTI_LINE_1                 EXTI_IMR1_IM1           /*!< Extended line 1 */
  92:Drivers/STM32G4xx_HAL_Driver/Inc/stm32g4xx_ll_exti.h **** #define LL_EXTI_LINE_2                 EXTI_IMR1_IM2           /*!< Extended line 2 */
  93:Drivers/STM32G4xx_HAL_Driver/Inc/stm32g4xx_ll_exti.h **** #define LL_EXTI_LINE_3                 EXTI_IMR1_IM3           /*!< Extended line 3 */
  94:Drivers/STM32G4xx_HAL_Driver/Inc/stm32g4xx_ll_exti.h **** #define LL_EXTI_LINE_4                 EXTI_IMR1_IM4           /*!< Extended line 4 */
  95:Drivers/STM32G4xx_HAL_Driver/Inc/stm32g4xx_ll_exti.h **** #define LL_EXTI_LINE_5                 EXTI_IMR1_IM5           /*!< Extended line 5 */
  96:Drivers/STM32G4xx_HAL_Driver/Inc/stm32g4xx_ll_exti.h **** #define LL_EXTI_LINE_6                 EXTI_IMR1_IM6           /*!< Extended line 6 */
  97:Drivers/STM32G4xx_HAL_Driver/Inc/stm32g4xx_ll_exti.h **** #define LL_EXTI_LINE_7                 EXTI_IMR1_IM7           /*!< Extended line 7 */
  98:Drivers/STM32G4xx_HAL_Driver/Inc/stm32g4xx_ll_exti.h **** #define LL_EXTI_LINE_8                 EXTI_IMR1_IM8           /*!< Extended line 8 */
  99:Drivers/STM32G4xx_HAL_Driver/Inc/stm32g4xx_ll_exti.h **** #define LL_EXTI_LINE_9                 EXTI_IMR1_IM9           /*!< Extended line 9 */
 100:Drivers/STM32G4xx_HAL_Driver/Inc/stm32g4xx_ll_exti.h **** #define LL_EXTI_LINE_10                EXTI_IMR1_IM10          /*!< Extended line 10 */
 101:Drivers/STM32G4xx_HAL_Driver/Inc/stm32g4xx_ll_exti.h **** #define LL_EXTI_LINE_11                EXTI_IMR1_IM11          /*!< Extended line 11 */
 102:Drivers/STM32G4xx_HAL_Driver/Inc/stm32g4xx_ll_exti.h **** #define LL_EXTI_LINE_12                EXTI_IMR1_IM12          /*!< Extended line 12 */
 103:Drivers/STM32G4xx_HAL_Driver/Inc/stm32g4xx_ll_exti.h **** #define LL_EXTI_LINE_13                EXTI_IMR1_IM13          /*!< Extended line 13 */
 104:Drivers/STM32G4xx_HAL_Driver/Inc/stm32g4xx_ll_exti.h **** #define LL_EXTI_LINE_14                EXTI_IMR1_IM14          /*!< Extended line 14 */
 105:Drivers/STM32G4xx_HAL_Driver/Inc/stm32g4xx_ll_exti.h **** #define LL_EXTI_LINE_15                EXTI_IMR1_IM15          /*!< Extended line 15 */
 106:Drivers/STM32G4xx_HAL_Driver/Inc/stm32g4xx_ll_exti.h **** #if defined(EXTI_IMR1_IM16)
 107:Drivers/STM32G4xx_HAL_Driver/Inc/stm32g4xx_ll_exti.h **** #define LL_EXTI_LINE_16                EXTI_IMR1_IM16          /*!< Extended line 16 */
 108:Drivers/STM32G4xx_HAL_Driver/Inc/stm32g4xx_ll_exti.h **** #endif /* EXTI_IMR1_IM16 */
 109:Drivers/STM32G4xx_HAL_Driver/Inc/stm32g4xx_ll_exti.h **** #define LL_EXTI_LINE_17                EXTI_IMR1_IM17          /*!< Extended line 17 */
 110:Drivers/STM32G4xx_HAL_Driver/Inc/stm32g4xx_ll_exti.h **** #if defined(EXTI_IMR1_IM18)
 111:Drivers/STM32G4xx_HAL_Driver/Inc/stm32g4xx_ll_exti.h **** #define LL_EXTI_LINE_18                EXTI_IMR1_IM18          /*!< Extended line 18 */
 112:Drivers/STM32G4xx_HAL_Driver/Inc/stm32g4xx_ll_exti.h **** #endif /* EXTI_IMR1_IM18 */
 113:Drivers/STM32G4xx_HAL_Driver/Inc/stm32g4xx_ll_exti.h **** #define LL_EXTI_LINE_19                EXTI_IMR1_IM19          /*!< Extended line 19 */
 114:Drivers/STM32G4xx_HAL_Driver/Inc/stm32g4xx_ll_exti.h **** #if defined(EXTI_IMR1_IM20)
 115:Drivers/STM32G4xx_HAL_Driver/Inc/stm32g4xx_ll_exti.h **** #define LL_EXTI_LINE_20                EXTI_IMR1_IM20          /*!< Extended line 20 */
 116:Drivers/STM32G4xx_HAL_Driver/Inc/stm32g4xx_ll_exti.h **** #endif /* EXTI_IMR1_IM20 */
 117:Drivers/STM32G4xx_HAL_Driver/Inc/stm32g4xx_ll_exti.h **** #if defined(EXTI_IMR1_IM21)
 118:Drivers/STM32G4xx_HAL_Driver/Inc/stm32g4xx_ll_exti.h **** #define LL_EXTI_LINE_21                EXTI_IMR1_IM21          /*!< Extended line 21 */
 119:Drivers/STM32G4xx_HAL_Driver/Inc/stm32g4xx_ll_exti.h **** #endif /* EXTI_IMR1_IM21 */
 120:Drivers/STM32G4xx_HAL_Driver/Inc/stm32g4xx_ll_exti.h **** #if defined(EXTI_IMR1_IM22)
 121:Drivers/STM32G4xx_HAL_Driver/Inc/stm32g4xx_ll_exti.h **** #define LL_EXTI_LINE_22                EXTI_IMR1_IM22          /*!< Extended line 22 */
 122:Drivers/STM32G4xx_HAL_Driver/Inc/stm32g4xx_ll_exti.h **** #endif /* EXTI_IMR1_IM22 */
 123:Drivers/STM32G4xx_HAL_Driver/Inc/stm32g4xx_ll_exti.h **** #define LL_EXTI_LINE_23                EXTI_IMR1_IM23          /*!< Extended line 23 */
 124:Drivers/STM32G4xx_HAL_Driver/Inc/stm32g4xx_ll_exti.h **** #if defined(EXTI_IMR1_IM24)
 125:Drivers/STM32G4xx_HAL_Driver/Inc/stm32g4xx_ll_exti.h **** #define LL_EXTI_LINE_24                EXTI_IMR1_IM24          /*!< Extended line 24 */
 126:Drivers/STM32G4xx_HAL_Driver/Inc/stm32g4xx_ll_exti.h **** #endif /* EXTI_IMR1_IM24 */
 127:Drivers/STM32G4xx_HAL_Driver/Inc/stm32g4xx_ll_exti.h **** #if defined(EXTI_IMR1_IM25)
 128:Drivers/STM32G4xx_HAL_Driver/Inc/stm32g4xx_ll_exti.h **** #define LL_EXTI_LINE_25                EXTI_IMR1_IM25          /*!< Extended line 25 */
 129:Drivers/STM32G4xx_HAL_Driver/Inc/stm32g4xx_ll_exti.h **** #endif /* EXTI_IMR1_IM25 */
ARM GAS  /tmp/ccnaf6G9.s 			page 12


 130:Drivers/STM32G4xx_HAL_Driver/Inc/stm32g4xx_ll_exti.h **** #if defined(EXTI_IMR1_IM26)
 131:Drivers/STM32G4xx_HAL_Driver/Inc/stm32g4xx_ll_exti.h **** #define LL_EXTI_LINE_26                EXTI_IMR1_IM26          /*!< Extended line 26 */
 132:Drivers/STM32G4xx_HAL_Driver/Inc/stm32g4xx_ll_exti.h **** #endif /* EXTI_IMR1_IM26 */
 133:Drivers/STM32G4xx_HAL_Driver/Inc/stm32g4xx_ll_exti.h **** #if defined(EXTI_IMR1_IM27)
 134:Drivers/STM32G4xx_HAL_Driver/Inc/stm32g4xx_ll_exti.h **** #define LL_EXTI_LINE_27                EXTI_IMR1_IM27          /*!< Extended line 27 */
 135:Drivers/STM32G4xx_HAL_Driver/Inc/stm32g4xx_ll_exti.h **** #endif /* EXTI_IMR1_IM27 */
 136:Drivers/STM32G4xx_HAL_Driver/Inc/stm32g4xx_ll_exti.h **** #if defined(EXTI_IMR1_IM28)
 137:Drivers/STM32G4xx_HAL_Driver/Inc/stm32g4xx_ll_exti.h **** #define LL_EXTI_LINE_28                EXTI_IMR1_IM28          /*!< Extended line 28 */
 138:Drivers/STM32G4xx_HAL_Driver/Inc/stm32g4xx_ll_exti.h **** #endif /* EXTI_IMR1_IM28 */
 139:Drivers/STM32G4xx_HAL_Driver/Inc/stm32g4xx_ll_exti.h **** #if defined(EXTI_IMR1_IM29)
 140:Drivers/STM32G4xx_HAL_Driver/Inc/stm32g4xx_ll_exti.h **** #define LL_EXTI_LINE_29                EXTI_IMR1_IM29          /*!< Extended line 29 */
 141:Drivers/STM32G4xx_HAL_Driver/Inc/stm32g4xx_ll_exti.h **** #endif /* EXTI_IMR1_IM29 */
 142:Drivers/STM32G4xx_HAL_Driver/Inc/stm32g4xx_ll_exti.h **** #if defined(EXTI_IMR1_IM30)
 143:Drivers/STM32G4xx_HAL_Driver/Inc/stm32g4xx_ll_exti.h **** #define LL_EXTI_LINE_30                EXTI_IMR1_IM30          /*!< Extended line 30 */
 144:Drivers/STM32G4xx_HAL_Driver/Inc/stm32g4xx_ll_exti.h **** #endif /* EXTI_IMR1_IM30 */
 145:Drivers/STM32G4xx_HAL_Driver/Inc/stm32g4xx_ll_exti.h **** #if defined(EXTI_IMR1_IM31)
 146:Drivers/STM32G4xx_HAL_Driver/Inc/stm32g4xx_ll_exti.h **** #define LL_EXTI_LINE_31                EXTI_IMR1_IM31          /*!< Extended line 31 */
 147:Drivers/STM32G4xx_HAL_Driver/Inc/stm32g4xx_ll_exti.h **** #endif /* EXTI_IMR1_IM31 */
 148:Drivers/STM32G4xx_HAL_Driver/Inc/stm32g4xx_ll_exti.h **** #define LL_EXTI_LINE_ALL_0_31          EXTI_IMR1_IM            /*!< All Extended line not reserved*
 149:Drivers/STM32G4xx_HAL_Driver/Inc/stm32g4xx_ll_exti.h **** 
 150:Drivers/STM32G4xx_HAL_Driver/Inc/stm32g4xx_ll_exti.h **** #if defined(EXTI_IMR2_IM32)
 151:Drivers/STM32G4xx_HAL_Driver/Inc/stm32g4xx_ll_exti.h **** #define LL_EXTI_LINE_32                EXTI_IMR2_IM32          /*!< Extended line 32 */
 152:Drivers/STM32G4xx_HAL_Driver/Inc/stm32g4xx_ll_exti.h **** #endif /* EXTI_IMR2_IM32 */
 153:Drivers/STM32G4xx_HAL_Driver/Inc/stm32g4xx_ll_exti.h **** #if defined(EXTI_IMR2_IM33)
 154:Drivers/STM32G4xx_HAL_Driver/Inc/stm32g4xx_ll_exti.h **** #define LL_EXTI_LINE_33                EXTI_IMR2_IM33          /*!< Extended line 33 */
 155:Drivers/STM32G4xx_HAL_Driver/Inc/stm32g4xx_ll_exti.h **** #endif /* EXTI_IMR2_IM33 */
 156:Drivers/STM32G4xx_HAL_Driver/Inc/stm32g4xx_ll_exti.h **** #if defined(EXTI_IMR2_IM34)
 157:Drivers/STM32G4xx_HAL_Driver/Inc/stm32g4xx_ll_exti.h **** #define LL_EXTI_LINE_34                EXTI_IMR2_IM34          /*!< Extended line 34 */
 158:Drivers/STM32G4xx_HAL_Driver/Inc/stm32g4xx_ll_exti.h **** #endif /* EXTI_IMR2_IM34 */
 159:Drivers/STM32G4xx_HAL_Driver/Inc/stm32g4xx_ll_exti.h **** #if defined(EXTI_IMR2_IM35)
 160:Drivers/STM32G4xx_HAL_Driver/Inc/stm32g4xx_ll_exti.h **** #define LL_EXTI_LINE_35                EXTI_IMR2_IM35          /*!< Extended line 35 */
 161:Drivers/STM32G4xx_HAL_Driver/Inc/stm32g4xx_ll_exti.h **** #endif /* EXTI_IMR2_IM35 */
 162:Drivers/STM32G4xx_HAL_Driver/Inc/stm32g4xx_ll_exti.h **** #if defined(EXTI_IMR2_IM36)
 163:Drivers/STM32G4xx_HAL_Driver/Inc/stm32g4xx_ll_exti.h **** #define LL_EXTI_LINE_36                EXTI_IMR2_IM36          /*!< Extended line 36 */
 164:Drivers/STM32G4xx_HAL_Driver/Inc/stm32g4xx_ll_exti.h **** #endif /* EXTI_IMR2_IM36 */
 165:Drivers/STM32G4xx_HAL_Driver/Inc/stm32g4xx_ll_exti.h **** #if defined(EXTI_IMR2_IM37)
 166:Drivers/STM32G4xx_HAL_Driver/Inc/stm32g4xx_ll_exti.h **** #define LL_EXTI_LINE_37                EXTI_IMR2_IM37          /*!< Extended line 37 */
 167:Drivers/STM32G4xx_HAL_Driver/Inc/stm32g4xx_ll_exti.h **** #endif /* EXTI_IMR2_IM37 */
 168:Drivers/STM32G4xx_HAL_Driver/Inc/stm32g4xx_ll_exti.h **** #if defined(EXTI_IMR2_IM38)
 169:Drivers/STM32G4xx_HAL_Driver/Inc/stm32g4xx_ll_exti.h **** #define LL_EXTI_LINE_38                EXTI_IMR2_IM38          /*!< Extended line 38 */
 170:Drivers/STM32G4xx_HAL_Driver/Inc/stm32g4xx_ll_exti.h **** #endif /* EXTI_IMR2_IM38 */
 171:Drivers/STM32G4xx_HAL_Driver/Inc/stm32g4xx_ll_exti.h **** #if defined(EXTI_IMR2_IM39)
 172:Drivers/STM32G4xx_HAL_Driver/Inc/stm32g4xx_ll_exti.h **** #define LL_EXTI_LINE_39                EXTI_IMR2_IM39          /*!< Extended line 39 */
 173:Drivers/STM32G4xx_HAL_Driver/Inc/stm32g4xx_ll_exti.h **** #endif /* EXTI_IMR2_IM39 */
 174:Drivers/STM32G4xx_HAL_Driver/Inc/stm32g4xx_ll_exti.h **** #if defined(EXTI_IMR2_IM40)
 175:Drivers/STM32G4xx_HAL_Driver/Inc/stm32g4xx_ll_exti.h **** #define LL_EXTI_LINE_40                EXTI_IMR2_IM40          /*!< Extended line 40 */
 176:Drivers/STM32G4xx_HAL_Driver/Inc/stm32g4xx_ll_exti.h **** #endif /* EXTI_IMR2_IM40 */
 177:Drivers/STM32G4xx_HAL_Driver/Inc/stm32g4xx_ll_exti.h **** #if defined(EXTI_IMR2_IM41)
 178:Drivers/STM32G4xx_HAL_Driver/Inc/stm32g4xx_ll_exti.h **** #define LL_EXTI_LINE_41                EXTI_IMR2_IM41          /*!< Extended line 41 */
 179:Drivers/STM32G4xx_HAL_Driver/Inc/stm32g4xx_ll_exti.h **** #endif /* EXTI_IMR2_IM41 */
 180:Drivers/STM32G4xx_HAL_Driver/Inc/stm32g4xx_ll_exti.h **** #if defined(EXTI_IMR2_IM42)
 181:Drivers/STM32G4xx_HAL_Driver/Inc/stm32g4xx_ll_exti.h **** #define LL_EXTI_LINE_42                EXTI_IMR2_IM42          /*!< Extended line 42 */
 182:Drivers/STM32G4xx_HAL_Driver/Inc/stm32g4xx_ll_exti.h **** #endif /* EXTI_IMR2_IM42 */
 183:Drivers/STM32G4xx_HAL_Driver/Inc/stm32g4xx_ll_exti.h **** #define LL_EXTI_LINE_ALL_32_63         EXTI_IMR2_IM            /*!< All Extended line not reserved*
 184:Drivers/STM32G4xx_HAL_Driver/Inc/stm32g4xx_ll_exti.h **** 
 185:Drivers/STM32G4xx_HAL_Driver/Inc/stm32g4xx_ll_exti.h **** 
 186:Drivers/STM32G4xx_HAL_Driver/Inc/stm32g4xx_ll_exti.h **** #define LL_EXTI_LINE_ALL               (0xFFFFFFFFU)  /*!< All Extended line */
ARM GAS  /tmp/ccnaf6G9.s 			page 13


 187:Drivers/STM32G4xx_HAL_Driver/Inc/stm32g4xx_ll_exti.h **** 
 188:Drivers/STM32G4xx_HAL_Driver/Inc/stm32g4xx_ll_exti.h **** #if defined(USE_FULL_LL_DRIVER)
 189:Drivers/STM32G4xx_HAL_Driver/Inc/stm32g4xx_ll_exti.h **** #define LL_EXTI_LINE_NONE              0x00000000U             /*!< None Extended line */
 190:Drivers/STM32G4xx_HAL_Driver/Inc/stm32g4xx_ll_exti.h **** #endif /*USE_FULL_LL_DRIVER*/
 191:Drivers/STM32G4xx_HAL_Driver/Inc/stm32g4xx_ll_exti.h **** 
 192:Drivers/STM32G4xx_HAL_Driver/Inc/stm32g4xx_ll_exti.h **** /**
 193:Drivers/STM32G4xx_HAL_Driver/Inc/stm32g4xx_ll_exti.h ****   * @}
 194:Drivers/STM32G4xx_HAL_Driver/Inc/stm32g4xx_ll_exti.h ****   */
 195:Drivers/STM32G4xx_HAL_Driver/Inc/stm32g4xx_ll_exti.h **** #if defined(USE_FULL_LL_DRIVER)
 196:Drivers/STM32G4xx_HAL_Driver/Inc/stm32g4xx_ll_exti.h **** 
 197:Drivers/STM32G4xx_HAL_Driver/Inc/stm32g4xx_ll_exti.h **** /** @defgroup EXTI_LL_EC_MODE Mode
 198:Drivers/STM32G4xx_HAL_Driver/Inc/stm32g4xx_ll_exti.h ****   * @{
 199:Drivers/STM32G4xx_HAL_Driver/Inc/stm32g4xx_ll_exti.h ****   */
 200:Drivers/STM32G4xx_HAL_Driver/Inc/stm32g4xx_ll_exti.h **** #define LL_EXTI_MODE_IT                 ((uint8_t)0x00U) /*!< Interrupt Mode */
 201:Drivers/STM32G4xx_HAL_Driver/Inc/stm32g4xx_ll_exti.h **** #define LL_EXTI_MODE_EVENT              ((uint8_t)0x01U) /*!< Event Mode */
 202:Drivers/STM32G4xx_HAL_Driver/Inc/stm32g4xx_ll_exti.h **** #define LL_EXTI_MODE_IT_EVENT           ((uint8_t)0x02U) /*!< Interrupt & Event Mode */
 203:Drivers/STM32G4xx_HAL_Driver/Inc/stm32g4xx_ll_exti.h **** /**
 204:Drivers/STM32G4xx_HAL_Driver/Inc/stm32g4xx_ll_exti.h ****   * @}
 205:Drivers/STM32G4xx_HAL_Driver/Inc/stm32g4xx_ll_exti.h ****   */
 206:Drivers/STM32G4xx_HAL_Driver/Inc/stm32g4xx_ll_exti.h **** 
 207:Drivers/STM32G4xx_HAL_Driver/Inc/stm32g4xx_ll_exti.h **** /** @defgroup EXTI_LL_EC_TRIGGER Edge Trigger
 208:Drivers/STM32G4xx_HAL_Driver/Inc/stm32g4xx_ll_exti.h ****   * @{
 209:Drivers/STM32G4xx_HAL_Driver/Inc/stm32g4xx_ll_exti.h ****   */
 210:Drivers/STM32G4xx_HAL_Driver/Inc/stm32g4xx_ll_exti.h **** #define LL_EXTI_TRIGGER_NONE            ((uint8_t)0x00U) /*!< No Trigger Mode */
 211:Drivers/STM32G4xx_HAL_Driver/Inc/stm32g4xx_ll_exti.h **** #define LL_EXTI_TRIGGER_RISING          ((uint8_t)0x01U) /*!< Trigger Rising Mode */
 212:Drivers/STM32G4xx_HAL_Driver/Inc/stm32g4xx_ll_exti.h **** #define LL_EXTI_TRIGGER_FALLING         ((uint8_t)0x02U) /*!< Trigger Falling Mode */
 213:Drivers/STM32G4xx_HAL_Driver/Inc/stm32g4xx_ll_exti.h **** #define LL_EXTI_TRIGGER_RISING_FALLING  ((uint8_t)0x03U) /*!< Trigger Rising & Falling Mode */
 214:Drivers/STM32G4xx_HAL_Driver/Inc/stm32g4xx_ll_exti.h **** 
 215:Drivers/STM32G4xx_HAL_Driver/Inc/stm32g4xx_ll_exti.h **** /**
 216:Drivers/STM32G4xx_HAL_Driver/Inc/stm32g4xx_ll_exti.h ****   * @}
 217:Drivers/STM32G4xx_HAL_Driver/Inc/stm32g4xx_ll_exti.h ****   */
 218:Drivers/STM32G4xx_HAL_Driver/Inc/stm32g4xx_ll_exti.h **** 
 219:Drivers/STM32G4xx_HAL_Driver/Inc/stm32g4xx_ll_exti.h **** 
 220:Drivers/STM32G4xx_HAL_Driver/Inc/stm32g4xx_ll_exti.h **** #endif /*USE_FULL_LL_DRIVER*/
 221:Drivers/STM32G4xx_HAL_Driver/Inc/stm32g4xx_ll_exti.h **** 
 222:Drivers/STM32G4xx_HAL_Driver/Inc/stm32g4xx_ll_exti.h **** 
 223:Drivers/STM32G4xx_HAL_Driver/Inc/stm32g4xx_ll_exti.h **** /**
 224:Drivers/STM32G4xx_HAL_Driver/Inc/stm32g4xx_ll_exti.h ****   * @}
 225:Drivers/STM32G4xx_HAL_Driver/Inc/stm32g4xx_ll_exti.h ****   */
 226:Drivers/STM32G4xx_HAL_Driver/Inc/stm32g4xx_ll_exti.h **** 
 227:Drivers/STM32G4xx_HAL_Driver/Inc/stm32g4xx_ll_exti.h **** /* Exported macro ------------------------------------------------------------*/
 228:Drivers/STM32G4xx_HAL_Driver/Inc/stm32g4xx_ll_exti.h **** /** @defgroup EXTI_LL_Exported_Macros EXTI Exported Macros
 229:Drivers/STM32G4xx_HAL_Driver/Inc/stm32g4xx_ll_exti.h ****   * @{
 230:Drivers/STM32G4xx_HAL_Driver/Inc/stm32g4xx_ll_exti.h ****   */
 231:Drivers/STM32G4xx_HAL_Driver/Inc/stm32g4xx_ll_exti.h **** 
 232:Drivers/STM32G4xx_HAL_Driver/Inc/stm32g4xx_ll_exti.h **** /** @defgroup EXTI_LL_EM_WRITE_READ Common Write and read registers Macros
 233:Drivers/STM32G4xx_HAL_Driver/Inc/stm32g4xx_ll_exti.h ****   * @{
 234:Drivers/STM32G4xx_HAL_Driver/Inc/stm32g4xx_ll_exti.h ****   */
 235:Drivers/STM32G4xx_HAL_Driver/Inc/stm32g4xx_ll_exti.h **** 
 236:Drivers/STM32G4xx_HAL_Driver/Inc/stm32g4xx_ll_exti.h **** /**
 237:Drivers/STM32G4xx_HAL_Driver/Inc/stm32g4xx_ll_exti.h ****   * @brief  Write a value in EXTI register
 238:Drivers/STM32G4xx_HAL_Driver/Inc/stm32g4xx_ll_exti.h ****   * @param  __REG__ Register to be written
 239:Drivers/STM32G4xx_HAL_Driver/Inc/stm32g4xx_ll_exti.h ****   * @param  __VALUE__ Value to be written in the register
 240:Drivers/STM32G4xx_HAL_Driver/Inc/stm32g4xx_ll_exti.h ****   * @retval None
 241:Drivers/STM32G4xx_HAL_Driver/Inc/stm32g4xx_ll_exti.h ****   */
 242:Drivers/STM32G4xx_HAL_Driver/Inc/stm32g4xx_ll_exti.h **** #define LL_EXTI_WriteReg(__REG__, __VALUE__) WRITE_REG(EXTI->__REG__, (__VALUE__))
 243:Drivers/STM32G4xx_HAL_Driver/Inc/stm32g4xx_ll_exti.h **** 
ARM GAS  /tmp/ccnaf6G9.s 			page 14


 244:Drivers/STM32G4xx_HAL_Driver/Inc/stm32g4xx_ll_exti.h **** /**
 245:Drivers/STM32G4xx_HAL_Driver/Inc/stm32g4xx_ll_exti.h ****   * @brief  Read a value in EXTI register
 246:Drivers/STM32G4xx_HAL_Driver/Inc/stm32g4xx_ll_exti.h ****   * @param  __REG__ Register to be read
 247:Drivers/STM32G4xx_HAL_Driver/Inc/stm32g4xx_ll_exti.h ****   * @retval Register value
 248:Drivers/STM32G4xx_HAL_Driver/Inc/stm32g4xx_ll_exti.h ****   */
 249:Drivers/STM32G4xx_HAL_Driver/Inc/stm32g4xx_ll_exti.h **** #define LL_EXTI_ReadReg(__REG__) READ_REG(EXTI->__REG__)
 250:Drivers/STM32G4xx_HAL_Driver/Inc/stm32g4xx_ll_exti.h **** /**
 251:Drivers/STM32G4xx_HAL_Driver/Inc/stm32g4xx_ll_exti.h ****   * @}
 252:Drivers/STM32G4xx_HAL_Driver/Inc/stm32g4xx_ll_exti.h ****   */
 253:Drivers/STM32G4xx_HAL_Driver/Inc/stm32g4xx_ll_exti.h **** 
 254:Drivers/STM32G4xx_HAL_Driver/Inc/stm32g4xx_ll_exti.h **** 
 255:Drivers/STM32G4xx_HAL_Driver/Inc/stm32g4xx_ll_exti.h **** /**
 256:Drivers/STM32G4xx_HAL_Driver/Inc/stm32g4xx_ll_exti.h ****   * @}
 257:Drivers/STM32G4xx_HAL_Driver/Inc/stm32g4xx_ll_exti.h ****   */
 258:Drivers/STM32G4xx_HAL_Driver/Inc/stm32g4xx_ll_exti.h **** 
 259:Drivers/STM32G4xx_HAL_Driver/Inc/stm32g4xx_ll_exti.h **** 
 260:Drivers/STM32G4xx_HAL_Driver/Inc/stm32g4xx_ll_exti.h **** 
 261:Drivers/STM32G4xx_HAL_Driver/Inc/stm32g4xx_ll_exti.h **** /* Exported functions --------------------------------------------------------*/
 262:Drivers/STM32G4xx_HAL_Driver/Inc/stm32g4xx_ll_exti.h **** /** @defgroup EXTI_LL_Exported_Functions EXTI Exported Functions
 263:Drivers/STM32G4xx_HAL_Driver/Inc/stm32g4xx_ll_exti.h ****   * @{
 264:Drivers/STM32G4xx_HAL_Driver/Inc/stm32g4xx_ll_exti.h ****   */
 265:Drivers/STM32G4xx_HAL_Driver/Inc/stm32g4xx_ll_exti.h **** /** @defgroup EXTI_LL_EF_IT_Management IT_Management
 266:Drivers/STM32G4xx_HAL_Driver/Inc/stm32g4xx_ll_exti.h ****   * @{
 267:Drivers/STM32G4xx_HAL_Driver/Inc/stm32g4xx_ll_exti.h ****   */
 268:Drivers/STM32G4xx_HAL_Driver/Inc/stm32g4xx_ll_exti.h **** 
 269:Drivers/STM32G4xx_HAL_Driver/Inc/stm32g4xx_ll_exti.h **** /**
 270:Drivers/STM32G4xx_HAL_Driver/Inc/stm32g4xx_ll_exti.h ****   * @brief  Enable ExtiLine Interrupt request for Lines in range 0 to 31
 271:Drivers/STM32G4xx_HAL_Driver/Inc/stm32g4xx_ll_exti.h ****   * @note The reset value for the direct or internal lines (see RM)
 272:Drivers/STM32G4xx_HAL_Driver/Inc/stm32g4xx_ll_exti.h ****   *       is set to 1 in order to enable the interrupt by default.
 273:Drivers/STM32G4xx_HAL_Driver/Inc/stm32g4xx_ll_exti.h ****   *       Bits are set automatically at Power on.
 274:Drivers/STM32G4xx_HAL_Driver/Inc/stm32g4xx_ll_exti.h ****   * @rmtoll IMR1         IMx           LL_EXTI_EnableIT_0_31
 275:Drivers/STM32G4xx_HAL_Driver/Inc/stm32g4xx_ll_exti.h ****   * @param  ExtiLine This parameter can be one of the following values:
 276:Drivers/STM32G4xx_HAL_Driver/Inc/stm32g4xx_ll_exti.h ****   *         @arg @ref LL_EXTI_LINE_0
 277:Drivers/STM32G4xx_HAL_Driver/Inc/stm32g4xx_ll_exti.h ****   *         @arg @ref LL_EXTI_LINE_1
 278:Drivers/STM32G4xx_HAL_Driver/Inc/stm32g4xx_ll_exti.h ****   *         @arg @ref LL_EXTI_LINE_2
 279:Drivers/STM32G4xx_HAL_Driver/Inc/stm32g4xx_ll_exti.h ****   *         @arg @ref LL_EXTI_LINE_3
 280:Drivers/STM32G4xx_HAL_Driver/Inc/stm32g4xx_ll_exti.h ****   *         @arg @ref LL_EXTI_LINE_4
 281:Drivers/STM32G4xx_HAL_Driver/Inc/stm32g4xx_ll_exti.h ****   *         @arg @ref LL_EXTI_LINE_5
 282:Drivers/STM32G4xx_HAL_Driver/Inc/stm32g4xx_ll_exti.h ****   *         @arg @ref LL_EXTI_LINE_6
 283:Drivers/STM32G4xx_HAL_Driver/Inc/stm32g4xx_ll_exti.h ****   *         @arg @ref LL_EXTI_LINE_7
 284:Drivers/STM32G4xx_HAL_Driver/Inc/stm32g4xx_ll_exti.h ****   *         @arg @ref LL_EXTI_LINE_8
 285:Drivers/STM32G4xx_HAL_Driver/Inc/stm32g4xx_ll_exti.h ****   *         @arg @ref LL_EXTI_LINE_9
 286:Drivers/STM32G4xx_HAL_Driver/Inc/stm32g4xx_ll_exti.h ****   *         @arg @ref LL_EXTI_LINE_10
 287:Drivers/STM32G4xx_HAL_Driver/Inc/stm32g4xx_ll_exti.h ****   *         @arg @ref LL_EXTI_LINE_11
 288:Drivers/STM32G4xx_HAL_Driver/Inc/stm32g4xx_ll_exti.h ****   *         @arg @ref LL_EXTI_LINE_12
 289:Drivers/STM32G4xx_HAL_Driver/Inc/stm32g4xx_ll_exti.h ****   *         @arg @ref LL_EXTI_LINE_13
 290:Drivers/STM32G4xx_HAL_Driver/Inc/stm32g4xx_ll_exti.h ****   *         @arg @ref LL_EXTI_LINE_14
 291:Drivers/STM32G4xx_HAL_Driver/Inc/stm32g4xx_ll_exti.h ****   *         @arg @ref LL_EXTI_LINE_15
 292:Drivers/STM32G4xx_HAL_Driver/Inc/stm32g4xx_ll_exti.h ****   *         @arg @ref LL_EXTI_LINE_16
 293:Drivers/STM32G4xx_HAL_Driver/Inc/stm32g4xx_ll_exti.h ****   *         @arg @ref LL_EXTI_LINE_17
 294:Drivers/STM32G4xx_HAL_Driver/Inc/stm32g4xx_ll_exti.h ****   *         @arg @ref LL_EXTI_LINE_18
 295:Drivers/STM32G4xx_HAL_Driver/Inc/stm32g4xx_ll_exti.h ****   *         @arg @ref LL_EXTI_LINE_19
 296:Drivers/STM32G4xx_HAL_Driver/Inc/stm32g4xx_ll_exti.h ****   *         @arg @ref LL_EXTI_LINE_20
 297:Drivers/STM32G4xx_HAL_Driver/Inc/stm32g4xx_ll_exti.h ****   *         @arg @ref LL_EXTI_LINE_21
 298:Drivers/STM32G4xx_HAL_Driver/Inc/stm32g4xx_ll_exti.h ****   *         @arg @ref LL_EXTI_LINE_22
 299:Drivers/STM32G4xx_HAL_Driver/Inc/stm32g4xx_ll_exti.h ****   *         @arg @ref LL_EXTI_LINE_23
 300:Drivers/STM32G4xx_HAL_Driver/Inc/stm32g4xx_ll_exti.h ****   *         @arg @ref LL_EXTI_LINE_24
ARM GAS  /tmp/ccnaf6G9.s 			page 15


 301:Drivers/STM32G4xx_HAL_Driver/Inc/stm32g4xx_ll_exti.h ****   *         @arg @ref LL_EXTI_LINE_25
 302:Drivers/STM32G4xx_HAL_Driver/Inc/stm32g4xx_ll_exti.h ****   *         @arg @ref LL_EXTI_LINE_26
 303:Drivers/STM32G4xx_HAL_Driver/Inc/stm32g4xx_ll_exti.h ****   *         @arg @ref LL_EXTI_LINE_27
 304:Drivers/STM32G4xx_HAL_Driver/Inc/stm32g4xx_ll_exti.h ****   *         @arg @ref LL_EXTI_LINE_28
 305:Drivers/STM32G4xx_HAL_Driver/Inc/stm32g4xx_ll_exti.h ****   *         @arg @ref LL_EXTI_LINE_29
 306:Drivers/STM32G4xx_HAL_Driver/Inc/stm32g4xx_ll_exti.h ****   *         @arg @ref LL_EXTI_LINE_30
 307:Drivers/STM32G4xx_HAL_Driver/Inc/stm32g4xx_ll_exti.h ****   *         @arg @ref LL_EXTI_LINE_31 (*)
 308:Drivers/STM32G4xx_HAL_Driver/Inc/stm32g4xx_ll_exti.h ****   *         @arg @ref LL_EXTI_LINE_ALL_0_31
 309:Drivers/STM32G4xx_HAL_Driver/Inc/stm32g4xx_ll_exti.h ****   * @note   (*): Available in some devices
 310:Drivers/STM32G4xx_HAL_Driver/Inc/stm32g4xx_ll_exti.h ****   * @note   Please check each device line mapping for EXTI Line availability
 311:Drivers/STM32G4xx_HAL_Driver/Inc/stm32g4xx_ll_exti.h ****   * @retval None
 312:Drivers/STM32G4xx_HAL_Driver/Inc/stm32g4xx_ll_exti.h ****   */
 313:Drivers/STM32G4xx_HAL_Driver/Inc/stm32g4xx_ll_exti.h **** __STATIC_INLINE void LL_EXTI_EnableIT_0_31(uint32_t ExtiLine)
 314:Drivers/STM32G4xx_HAL_Driver/Inc/stm32g4xx_ll_exti.h **** {
 315:Drivers/STM32G4xx_HAL_Driver/Inc/stm32g4xx_ll_exti.h ****   SET_BIT(EXTI->IMR1, ExtiLine);
 316:Drivers/STM32G4xx_HAL_Driver/Inc/stm32g4xx_ll_exti.h **** }
 317:Drivers/STM32G4xx_HAL_Driver/Inc/stm32g4xx_ll_exti.h **** /**
 318:Drivers/STM32G4xx_HAL_Driver/Inc/stm32g4xx_ll_exti.h ****   * @brief  Enable ExtiLine Interrupt request for Lines in range 32 to 63
 319:Drivers/STM32G4xx_HAL_Driver/Inc/stm32g4xx_ll_exti.h ****   * @note The reset value for the direct lines (lines from 32 to 34, line
 320:Drivers/STM32G4xx_HAL_Driver/Inc/stm32g4xx_ll_exti.h ****   *       39) is set to 1 in order to enable the interrupt by default.
 321:Drivers/STM32G4xx_HAL_Driver/Inc/stm32g4xx_ll_exti.h ****   *       Bits are set automatically at Power on.
 322:Drivers/STM32G4xx_HAL_Driver/Inc/stm32g4xx_ll_exti.h ****   * @rmtoll IMR2         IMx           LL_EXTI_EnableIT_32_63
 323:Drivers/STM32G4xx_HAL_Driver/Inc/stm32g4xx_ll_exti.h ****   * @param  ExtiLine This parameter can be one of the following values:
 324:Drivers/STM32G4xx_HAL_Driver/Inc/stm32g4xx_ll_exti.h ****   *         @arg @ref LL_EXTI_LINE_32 (*)
 325:Drivers/STM32G4xx_HAL_Driver/Inc/stm32g4xx_ll_exti.h ****   *         @arg @ref LL_EXTI_LINE_33 (*)
 326:Drivers/STM32G4xx_HAL_Driver/Inc/stm32g4xx_ll_exti.h ****   *         @arg @ref LL_EXTI_LINE_34
 327:Drivers/STM32G4xx_HAL_Driver/Inc/stm32g4xx_ll_exti.h ****   *         @arg @ref LL_EXTI_LINE_35 (*)
 328:Drivers/STM32G4xx_HAL_Driver/Inc/stm32g4xx_ll_exti.h ****   *         @arg @ref LL_EXTI_LINE_36
 329:Drivers/STM32G4xx_HAL_Driver/Inc/stm32g4xx_ll_exti.h ****   *         @arg @ref LL_EXTI_LINE_37
 330:Drivers/STM32G4xx_HAL_Driver/Inc/stm32g4xx_ll_exti.h ****   *         @arg @ref LL_EXTI_LINE_38
 331:Drivers/STM32G4xx_HAL_Driver/Inc/stm32g4xx_ll_exti.h ****   *         @arg @ref LL_EXTI_LINE_39
 332:Drivers/STM32G4xx_HAL_Driver/Inc/stm32g4xx_ll_exti.h ****   *         @arg @ref LL_EXTI_LINE_40
 333:Drivers/STM32G4xx_HAL_Driver/Inc/stm32g4xx_ll_exti.h ****   *         @arg @ref LL_EXTI_LINE_41
 334:Drivers/STM32G4xx_HAL_Driver/Inc/stm32g4xx_ll_exti.h ****   *         @arg @ref LL_EXTI_LINE_42(*)
 335:Drivers/STM32G4xx_HAL_Driver/Inc/stm32g4xx_ll_exti.h ****   *         @arg @ref LL_EXTI_LINE_ALL_32_63
 336:Drivers/STM32G4xx_HAL_Driver/Inc/stm32g4xx_ll_exti.h ****   * @note   (*): Available in some devices
 337:Drivers/STM32G4xx_HAL_Driver/Inc/stm32g4xx_ll_exti.h ****   * @retval None
 338:Drivers/STM32G4xx_HAL_Driver/Inc/stm32g4xx_ll_exti.h ****   */
 339:Drivers/STM32G4xx_HAL_Driver/Inc/stm32g4xx_ll_exti.h **** __STATIC_INLINE void LL_EXTI_EnableIT_32_63(uint32_t ExtiLine)
 340:Drivers/STM32G4xx_HAL_Driver/Inc/stm32g4xx_ll_exti.h **** {
 341:Drivers/STM32G4xx_HAL_Driver/Inc/stm32g4xx_ll_exti.h ****   SET_BIT(EXTI->IMR2, ExtiLine);
 342:Drivers/STM32G4xx_HAL_Driver/Inc/stm32g4xx_ll_exti.h **** }
 343:Drivers/STM32G4xx_HAL_Driver/Inc/stm32g4xx_ll_exti.h **** 
 344:Drivers/STM32G4xx_HAL_Driver/Inc/stm32g4xx_ll_exti.h **** /**
 345:Drivers/STM32G4xx_HAL_Driver/Inc/stm32g4xx_ll_exti.h ****   * @brief  Disable ExtiLine Interrupt request for Lines in range 0 to 31
 346:Drivers/STM32G4xx_HAL_Driver/Inc/stm32g4xx_ll_exti.h ****   * @note The reset value for the direct or internal lines (see RM)
 347:Drivers/STM32G4xx_HAL_Driver/Inc/stm32g4xx_ll_exti.h ****   *       is set to 1 in order to enable the interrupt by default.
 348:Drivers/STM32G4xx_HAL_Driver/Inc/stm32g4xx_ll_exti.h ****   *       Bits are set automatically at Power on.
 349:Drivers/STM32G4xx_HAL_Driver/Inc/stm32g4xx_ll_exti.h ****   * @rmtoll IMR1         IMx           LL_EXTI_DisableIT_0_31
 350:Drivers/STM32G4xx_HAL_Driver/Inc/stm32g4xx_ll_exti.h ****   * @param  ExtiLine This parameter can be one of the following values:
 351:Drivers/STM32G4xx_HAL_Driver/Inc/stm32g4xx_ll_exti.h ****   *         @arg @ref LL_EXTI_LINE_0
 352:Drivers/STM32G4xx_HAL_Driver/Inc/stm32g4xx_ll_exti.h ****   *         @arg @ref LL_EXTI_LINE_1
 353:Drivers/STM32G4xx_HAL_Driver/Inc/stm32g4xx_ll_exti.h ****   *         @arg @ref LL_EXTI_LINE_2
 354:Drivers/STM32G4xx_HAL_Driver/Inc/stm32g4xx_ll_exti.h ****   *         @arg @ref LL_EXTI_LINE_3
 355:Drivers/STM32G4xx_HAL_Driver/Inc/stm32g4xx_ll_exti.h ****   *         @arg @ref LL_EXTI_LINE_4
 356:Drivers/STM32G4xx_HAL_Driver/Inc/stm32g4xx_ll_exti.h ****   *         @arg @ref LL_EXTI_LINE_5
 357:Drivers/STM32G4xx_HAL_Driver/Inc/stm32g4xx_ll_exti.h ****   *         @arg @ref LL_EXTI_LINE_6
ARM GAS  /tmp/ccnaf6G9.s 			page 16


 358:Drivers/STM32G4xx_HAL_Driver/Inc/stm32g4xx_ll_exti.h ****   *         @arg @ref LL_EXTI_LINE_7
 359:Drivers/STM32G4xx_HAL_Driver/Inc/stm32g4xx_ll_exti.h ****   *         @arg @ref LL_EXTI_LINE_8
 360:Drivers/STM32G4xx_HAL_Driver/Inc/stm32g4xx_ll_exti.h ****   *         @arg @ref LL_EXTI_LINE_9
 361:Drivers/STM32G4xx_HAL_Driver/Inc/stm32g4xx_ll_exti.h ****   *         @arg @ref LL_EXTI_LINE_10
 362:Drivers/STM32G4xx_HAL_Driver/Inc/stm32g4xx_ll_exti.h ****   *         @arg @ref LL_EXTI_LINE_11
 363:Drivers/STM32G4xx_HAL_Driver/Inc/stm32g4xx_ll_exti.h ****   *         @arg @ref LL_EXTI_LINE_12
 364:Drivers/STM32G4xx_HAL_Driver/Inc/stm32g4xx_ll_exti.h ****   *         @arg @ref LL_EXTI_LINE_13
 365:Drivers/STM32G4xx_HAL_Driver/Inc/stm32g4xx_ll_exti.h ****   *         @arg @ref LL_EXTI_LINE_14
 366:Drivers/STM32G4xx_HAL_Driver/Inc/stm32g4xx_ll_exti.h ****   *         @arg @ref LL_EXTI_LINE_15
 367:Drivers/STM32G4xx_HAL_Driver/Inc/stm32g4xx_ll_exti.h ****   *         @arg @ref LL_EXTI_LINE_16
 368:Drivers/STM32G4xx_HAL_Driver/Inc/stm32g4xx_ll_exti.h ****   *         @arg @ref LL_EXTI_LINE_17
 369:Drivers/STM32G4xx_HAL_Driver/Inc/stm32g4xx_ll_exti.h ****   *         @arg @ref LL_EXTI_LINE_18
 370:Drivers/STM32G4xx_HAL_Driver/Inc/stm32g4xx_ll_exti.h ****   *         @arg @ref LL_EXTI_LINE_19
 371:Drivers/STM32G4xx_HAL_Driver/Inc/stm32g4xx_ll_exti.h ****   *         @arg @ref LL_EXTI_LINE_20
 372:Drivers/STM32G4xx_HAL_Driver/Inc/stm32g4xx_ll_exti.h ****   *         @arg @ref LL_EXTI_LINE_21
 373:Drivers/STM32G4xx_HAL_Driver/Inc/stm32g4xx_ll_exti.h ****   *         @arg @ref LL_EXTI_LINE_22
 374:Drivers/STM32G4xx_HAL_Driver/Inc/stm32g4xx_ll_exti.h ****   *         @arg @ref LL_EXTI_LINE_23
 375:Drivers/STM32G4xx_HAL_Driver/Inc/stm32g4xx_ll_exti.h ****   *         @arg @ref LL_EXTI_LINE_24
 376:Drivers/STM32G4xx_HAL_Driver/Inc/stm32g4xx_ll_exti.h ****   *         @arg @ref LL_EXTI_LINE_25
 377:Drivers/STM32G4xx_HAL_Driver/Inc/stm32g4xx_ll_exti.h ****   *         @arg @ref LL_EXTI_LINE_26
 378:Drivers/STM32G4xx_HAL_Driver/Inc/stm32g4xx_ll_exti.h ****   *         @arg @ref LL_EXTI_LINE_27
 379:Drivers/STM32G4xx_HAL_Driver/Inc/stm32g4xx_ll_exti.h ****   *         @arg @ref LL_EXTI_LINE_28
 380:Drivers/STM32G4xx_HAL_Driver/Inc/stm32g4xx_ll_exti.h ****   *         @arg @ref LL_EXTI_LINE_29
 381:Drivers/STM32G4xx_HAL_Driver/Inc/stm32g4xx_ll_exti.h ****   *         @arg @ref LL_EXTI_LINE_30
 382:Drivers/STM32G4xx_HAL_Driver/Inc/stm32g4xx_ll_exti.h ****   *         @arg @ref LL_EXTI_LINE_31
 383:Drivers/STM32G4xx_HAL_Driver/Inc/stm32g4xx_ll_exti.h ****   *         @arg @ref LL_EXTI_LINE_ALL_0_31 (*)
 384:Drivers/STM32G4xx_HAL_Driver/Inc/stm32g4xx_ll_exti.h ****   * @note   (*): Available in some devices
 385:Drivers/STM32G4xx_HAL_Driver/Inc/stm32g4xx_ll_exti.h ****   * @note   Please check each device line mapping for EXTI Line availability
 386:Drivers/STM32G4xx_HAL_Driver/Inc/stm32g4xx_ll_exti.h ****   * @retval None
 387:Drivers/STM32G4xx_HAL_Driver/Inc/stm32g4xx_ll_exti.h ****   */
 388:Drivers/STM32G4xx_HAL_Driver/Inc/stm32g4xx_ll_exti.h **** __STATIC_INLINE void LL_EXTI_DisableIT_0_31(uint32_t ExtiLine)
 222              		.loc 2 388 22 view .LVU66
 223              	.LBB59:
 389:Drivers/STM32G4xx_HAL_Driver/Inc/stm32g4xx_ll_exti.h **** {
 390:Drivers/STM32G4xx_HAL_Driver/Inc/stm32g4xx_ll_exti.h ****   CLEAR_BIT(EXTI->IMR1, ExtiLine);
 224              		.loc 2 390 3 view .LVU67
 225 0062 414A     		ldr	r2, .L43
 226 0064 0568     		ldr	r5, [r0]
 227 0066 1468     		ldr	r4, [r2]
 228 0068 24EA0504 		bic	r4, r4, r5
 229 006c 1460     		str	r4, [r2]
 230              	.LVL6:
 231              		.loc 2 390 3 is_stmt 0 view .LVU68
 232              	.LBE59:
 233              	.LBE58:
 254:Drivers/STM32G4xx_HAL_Driver/Src/stm32g4xx_ll_exti.c ****     /* De-configure IT EXTI Lines in range from 32 to 63 */
 234              		.loc 1 254 5 is_stmt 1 view .LVU69
 235              	.LBB60:
 236              	.LBI60:
 391:Drivers/STM32G4xx_HAL_Driver/Inc/stm32g4xx_ll_exti.h **** }
 392:Drivers/STM32G4xx_HAL_Driver/Inc/stm32g4xx_ll_exti.h **** 
 393:Drivers/STM32G4xx_HAL_Driver/Inc/stm32g4xx_ll_exti.h **** /**
 394:Drivers/STM32G4xx_HAL_Driver/Inc/stm32g4xx_ll_exti.h ****   * @brief  Disable ExtiLine Interrupt request for Lines in range 32 to 63
 395:Drivers/STM32G4xx_HAL_Driver/Inc/stm32g4xx_ll_exti.h ****   * @note The reset value for the direct lines (lines from 32 to 34, line
 396:Drivers/STM32G4xx_HAL_Driver/Inc/stm32g4xx_ll_exti.h ****   *       39) is set to 1 in order to enable the interrupt by default.
 397:Drivers/STM32G4xx_HAL_Driver/Inc/stm32g4xx_ll_exti.h ****   *       Bits are set automatically at Power on.
 398:Drivers/STM32G4xx_HAL_Driver/Inc/stm32g4xx_ll_exti.h ****   * @rmtoll IMR2         IMx           LL_EXTI_DisableIT_32_63
ARM GAS  /tmp/ccnaf6G9.s 			page 17


 399:Drivers/STM32G4xx_HAL_Driver/Inc/stm32g4xx_ll_exti.h ****   * @param  ExtiLine This parameter can be one of the following values:
 400:Drivers/STM32G4xx_HAL_Driver/Inc/stm32g4xx_ll_exti.h ****   *         @arg @ref LL_EXTI_LINE_32 (*)
 401:Drivers/STM32G4xx_HAL_Driver/Inc/stm32g4xx_ll_exti.h ****   *         @arg @ref LL_EXTI_LINE_33 (*)
 402:Drivers/STM32G4xx_HAL_Driver/Inc/stm32g4xx_ll_exti.h ****   *         @arg @ref LL_EXTI_LINE_34
 403:Drivers/STM32G4xx_HAL_Driver/Inc/stm32g4xx_ll_exti.h ****   *         @arg @ref LL_EXTI_LINE_35 (*)
 404:Drivers/STM32G4xx_HAL_Driver/Inc/stm32g4xx_ll_exti.h ****   *         @arg @ref LL_EXTI_LINE_36
 405:Drivers/STM32G4xx_HAL_Driver/Inc/stm32g4xx_ll_exti.h ****   *         @arg @ref LL_EXTI_LINE_37
 406:Drivers/STM32G4xx_HAL_Driver/Inc/stm32g4xx_ll_exti.h ****   *         @arg @ref LL_EXTI_LINE_38
 407:Drivers/STM32G4xx_HAL_Driver/Inc/stm32g4xx_ll_exti.h ****   *         @arg @ref LL_EXTI_LINE_39
 408:Drivers/STM32G4xx_HAL_Driver/Inc/stm32g4xx_ll_exti.h ****   *         @arg @ref LL_EXTI_LINE_40
 409:Drivers/STM32G4xx_HAL_Driver/Inc/stm32g4xx_ll_exti.h ****   *         @arg @ref LL_EXTI_LINE_41
 410:Drivers/STM32G4xx_HAL_Driver/Inc/stm32g4xx_ll_exti.h ****   *         @arg @ref LL_EXTI_LINE_42(*)
 411:Drivers/STM32G4xx_HAL_Driver/Inc/stm32g4xx_ll_exti.h ****   *         @arg @ref LL_EXTI_LINE_ALL_32_63
 412:Drivers/STM32G4xx_HAL_Driver/Inc/stm32g4xx_ll_exti.h ****   * @note   (*): Available in some devices
 413:Drivers/STM32G4xx_HAL_Driver/Inc/stm32g4xx_ll_exti.h ****   * @retval None
 414:Drivers/STM32G4xx_HAL_Driver/Inc/stm32g4xx_ll_exti.h ****   */
 415:Drivers/STM32G4xx_HAL_Driver/Inc/stm32g4xx_ll_exti.h **** __STATIC_INLINE void LL_EXTI_DisableIT_32_63(uint32_t ExtiLine)
 416:Drivers/STM32G4xx_HAL_Driver/Inc/stm32g4xx_ll_exti.h **** {
 417:Drivers/STM32G4xx_HAL_Driver/Inc/stm32g4xx_ll_exti.h ****   CLEAR_BIT(EXTI->IMR2, ExtiLine);
 418:Drivers/STM32G4xx_HAL_Driver/Inc/stm32g4xx_ll_exti.h **** }
 419:Drivers/STM32G4xx_HAL_Driver/Inc/stm32g4xx_ll_exti.h **** 
 420:Drivers/STM32G4xx_HAL_Driver/Inc/stm32g4xx_ll_exti.h **** /**
 421:Drivers/STM32G4xx_HAL_Driver/Inc/stm32g4xx_ll_exti.h ****   * @brief  Indicate if ExtiLine Interrupt request is enabled for Lines in range 0 to 31
 422:Drivers/STM32G4xx_HAL_Driver/Inc/stm32g4xx_ll_exti.h ****   * @note The reset value for the direct or internal lines (see RM)
 423:Drivers/STM32G4xx_HAL_Driver/Inc/stm32g4xx_ll_exti.h ****   *       is set to 1 in order to enable the interrupt by default.
 424:Drivers/STM32G4xx_HAL_Driver/Inc/stm32g4xx_ll_exti.h ****   *       Bits are set automatically at Power on.
 425:Drivers/STM32G4xx_HAL_Driver/Inc/stm32g4xx_ll_exti.h ****   * @rmtoll IMR1         IMx           LL_EXTI_IsEnabledIT_0_31
 426:Drivers/STM32G4xx_HAL_Driver/Inc/stm32g4xx_ll_exti.h ****   * @param  ExtiLine This parameter can be one of the following values:
 427:Drivers/STM32G4xx_HAL_Driver/Inc/stm32g4xx_ll_exti.h ****   *         @arg @ref LL_EXTI_LINE_0
 428:Drivers/STM32G4xx_HAL_Driver/Inc/stm32g4xx_ll_exti.h ****   *         @arg @ref LL_EXTI_LINE_1
 429:Drivers/STM32G4xx_HAL_Driver/Inc/stm32g4xx_ll_exti.h ****   *         @arg @ref LL_EXTI_LINE_2
 430:Drivers/STM32G4xx_HAL_Driver/Inc/stm32g4xx_ll_exti.h ****   *         @arg @ref LL_EXTI_LINE_3
 431:Drivers/STM32G4xx_HAL_Driver/Inc/stm32g4xx_ll_exti.h ****   *         @arg @ref LL_EXTI_LINE_4
 432:Drivers/STM32G4xx_HAL_Driver/Inc/stm32g4xx_ll_exti.h ****   *         @arg @ref LL_EXTI_LINE_5
 433:Drivers/STM32G4xx_HAL_Driver/Inc/stm32g4xx_ll_exti.h ****   *         @arg @ref LL_EXTI_LINE_6
 434:Drivers/STM32G4xx_HAL_Driver/Inc/stm32g4xx_ll_exti.h ****   *         @arg @ref LL_EXTI_LINE_7
 435:Drivers/STM32G4xx_HAL_Driver/Inc/stm32g4xx_ll_exti.h ****   *         @arg @ref LL_EXTI_LINE_8
 436:Drivers/STM32G4xx_HAL_Driver/Inc/stm32g4xx_ll_exti.h ****   *         @arg @ref LL_EXTI_LINE_9
 437:Drivers/STM32G4xx_HAL_Driver/Inc/stm32g4xx_ll_exti.h ****   *         @arg @ref LL_EXTI_LINE_10
 438:Drivers/STM32G4xx_HAL_Driver/Inc/stm32g4xx_ll_exti.h ****   *         @arg @ref LL_EXTI_LINE_11
 439:Drivers/STM32G4xx_HAL_Driver/Inc/stm32g4xx_ll_exti.h ****   *         @arg @ref LL_EXTI_LINE_12
 440:Drivers/STM32G4xx_HAL_Driver/Inc/stm32g4xx_ll_exti.h ****   *         @arg @ref LL_EXTI_LINE_13
 441:Drivers/STM32G4xx_HAL_Driver/Inc/stm32g4xx_ll_exti.h ****   *         @arg @ref LL_EXTI_LINE_14
 442:Drivers/STM32G4xx_HAL_Driver/Inc/stm32g4xx_ll_exti.h ****   *         @arg @ref LL_EXTI_LINE_15
 443:Drivers/STM32G4xx_HAL_Driver/Inc/stm32g4xx_ll_exti.h ****   *         @arg @ref LL_EXTI_LINE_16
 444:Drivers/STM32G4xx_HAL_Driver/Inc/stm32g4xx_ll_exti.h ****   *         @arg @ref LL_EXTI_LINE_17
 445:Drivers/STM32G4xx_HAL_Driver/Inc/stm32g4xx_ll_exti.h ****   *         @arg @ref LL_EXTI_LINE_18
 446:Drivers/STM32G4xx_HAL_Driver/Inc/stm32g4xx_ll_exti.h ****   *         @arg @ref LL_EXTI_LINE_19
 447:Drivers/STM32G4xx_HAL_Driver/Inc/stm32g4xx_ll_exti.h ****   *         @arg @ref LL_EXTI_LINE_20
 448:Drivers/STM32G4xx_HAL_Driver/Inc/stm32g4xx_ll_exti.h ****   *         @arg @ref LL_EXTI_LINE_21
 449:Drivers/STM32G4xx_HAL_Driver/Inc/stm32g4xx_ll_exti.h ****   *         @arg @ref LL_EXTI_LINE_22
 450:Drivers/STM32G4xx_HAL_Driver/Inc/stm32g4xx_ll_exti.h ****   *         @arg @ref LL_EXTI_LINE_23
 451:Drivers/STM32G4xx_HAL_Driver/Inc/stm32g4xx_ll_exti.h ****   *         @arg @ref LL_EXTI_LINE_24
 452:Drivers/STM32G4xx_HAL_Driver/Inc/stm32g4xx_ll_exti.h ****   *         @arg @ref LL_EXTI_LINE_25
 453:Drivers/STM32G4xx_HAL_Driver/Inc/stm32g4xx_ll_exti.h ****   *         @arg @ref LL_EXTI_LINE_26
 454:Drivers/STM32G4xx_HAL_Driver/Inc/stm32g4xx_ll_exti.h ****   *         @arg @ref LL_EXTI_LINE_27
 455:Drivers/STM32G4xx_HAL_Driver/Inc/stm32g4xx_ll_exti.h ****   *         @arg @ref LL_EXTI_LINE_28
ARM GAS  /tmp/ccnaf6G9.s 			page 18


 456:Drivers/STM32G4xx_HAL_Driver/Inc/stm32g4xx_ll_exti.h ****   *         @arg @ref LL_EXTI_LINE_29
 457:Drivers/STM32G4xx_HAL_Driver/Inc/stm32g4xx_ll_exti.h ****   *         @arg @ref LL_EXTI_LINE_30
 458:Drivers/STM32G4xx_HAL_Driver/Inc/stm32g4xx_ll_exti.h ****   *         @arg @ref LL_EXTI_LINE_31 (*)
 459:Drivers/STM32G4xx_HAL_Driver/Inc/stm32g4xx_ll_exti.h ****   *         @arg @ref LL_EXTI_LINE_ALL_0_31
 460:Drivers/STM32G4xx_HAL_Driver/Inc/stm32g4xx_ll_exti.h ****   * @note   (*): Available in some devices
 461:Drivers/STM32G4xx_HAL_Driver/Inc/stm32g4xx_ll_exti.h ****   * @note   Please check each device line mapping for EXTI Line availability
 462:Drivers/STM32G4xx_HAL_Driver/Inc/stm32g4xx_ll_exti.h ****   * @retval State of bit (1 or 0).
 463:Drivers/STM32G4xx_HAL_Driver/Inc/stm32g4xx_ll_exti.h ****   */
 464:Drivers/STM32G4xx_HAL_Driver/Inc/stm32g4xx_ll_exti.h **** __STATIC_INLINE uint32_t LL_EXTI_IsEnabledIT_0_31(uint32_t ExtiLine)
 465:Drivers/STM32G4xx_HAL_Driver/Inc/stm32g4xx_ll_exti.h **** {
 466:Drivers/STM32G4xx_HAL_Driver/Inc/stm32g4xx_ll_exti.h ****   return ((READ_BIT(EXTI->IMR1, ExtiLine) == (ExtiLine)) ? 1UL : 0UL);
 467:Drivers/STM32G4xx_HAL_Driver/Inc/stm32g4xx_ll_exti.h **** }
 468:Drivers/STM32G4xx_HAL_Driver/Inc/stm32g4xx_ll_exti.h **** 
 469:Drivers/STM32G4xx_HAL_Driver/Inc/stm32g4xx_ll_exti.h **** /**
 470:Drivers/STM32G4xx_HAL_Driver/Inc/stm32g4xx_ll_exti.h ****   * @brief  Indicate if ExtiLine Interrupt request is enabled for Lines in range 32 to 63
 471:Drivers/STM32G4xx_HAL_Driver/Inc/stm32g4xx_ll_exti.h ****   * @note The reset value for the direct lines (lines from 32 to 34, line
 472:Drivers/STM32G4xx_HAL_Driver/Inc/stm32g4xx_ll_exti.h ****   *       39) is set to 1 in order to enable the interrupt by default.
 473:Drivers/STM32G4xx_HAL_Driver/Inc/stm32g4xx_ll_exti.h ****   *       Bits are set automatically at Power on.
 474:Drivers/STM32G4xx_HAL_Driver/Inc/stm32g4xx_ll_exti.h ****   * @rmtoll IMR2         IMx           LL_EXTI_IsEnabledIT_32_63
 475:Drivers/STM32G4xx_HAL_Driver/Inc/stm32g4xx_ll_exti.h ****   * @param  ExtiLine This parameter can be one of the following values:
 476:Drivers/STM32G4xx_HAL_Driver/Inc/stm32g4xx_ll_exti.h ****   *         @arg @ref LL_EXTI_LINE_32 (*)
 477:Drivers/STM32G4xx_HAL_Driver/Inc/stm32g4xx_ll_exti.h ****   *         @arg @ref LL_EXTI_LINE_33 (*)
 478:Drivers/STM32G4xx_HAL_Driver/Inc/stm32g4xx_ll_exti.h ****   *         @arg @ref LL_EXTI_LINE_34
 479:Drivers/STM32G4xx_HAL_Driver/Inc/stm32g4xx_ll_exti.h ****   *         @arg @ref LL_EXTI_LINE_35 (*)
 480:Drivers/STM32G4xx_HAL_Driver/Inc/stm32g4xx_ll_exti.h ****   *         @arg @ref LL_EXTI_LINE_36
 481:Drivers/STM32G4xx_HAL_Driver/Inc/stm32g4xx_ll_exti.h ****   *         @arg @ref LL_EXTI_LINE_37
 482:Drivers/STM32G4xx_HAL_Driver/Inc/stm32g4xx_ll_exti.h ****   *         @arg @ref LL_EXTI_LINE_38
 483:Drivers/STM32G4xx_HAL_Driver/Inc/stm32g4xx_ll_exti.h ****   *         @arg @ref LL_EXTI_LINE_39
 484:Drivers/STM32G4xx_HAL_Driver/Inc/stm32g4xx_ll_exti.h ****   *         @arg @ref LL_EXTI_LINE_40
 485:Drivers/STM32G4xx_HAL_Driver/Inc/stm32g4xx_ll_exti.h ****   *         @arg @ref LL_EXTI_LINE_41
 486:Drivers/STM32G4xx_HAL_Driver/Inc/stm32g4xx_ll_exti.h ****   *         @arg @ref LL_EXTI_LINE_42(*)
 487:Drivers/STM32G4xx_HAL_Driver/Inc/stm32g4xx_ll_exti.h ****   *         @arg @ref LL_EXTI_LINE_ALL_32_63
 488:Drivers/STM32G4xx_HAL_Driver/Inc/stm32g4xx_ll_exti.h ****   * @note   (*): Available in some devices
 489:Drivers/STM32G4xx_HAL_Driver/Inc/stm32g4xx_ll_exti.h ****   * @retval State of bit (1 or 0).
 490:Drivers/STM32G4xx_HAL_Driver/Inc/stm32g4xx_ll_exti.h ****   */
 491:Drivers/STM32G4xx_HAL_Driver/Inc/stm32g4xx_ll_exti.h **** __STATIC_INLINE uint32_t LL_EXTI_IsEnabledIT_32_63(uint32_t ExtiLine)
 492:Drivers/STM32G4xx_HAL_Driver/Inc/stm32g4xx_ll_exti.h **** {
 493:Drivers/STM32G4xx_HAL_Driver/Inc/stm32g4xx_ll_exti.h ****   return ((READ_BIT(EXTI->IMR2, ExtiLine) == (ExtiLine)) ? 1UL : 0UL);
 494:Drivers/STM32G4xx_HAL_Driver/Inc/stm32g4xx_ll_exti.h **** }
 495:Drivers/STM32G4xx_HAL_Driver/Inc/stm32g4xx_ll_exti.h **** 
 496:Drivers/STM32G4xx_HAL_Driver/Inc/stm32g4xx_ll_exti.h **** /**
 497:Drivers/STM32G4xx_HAL_Driver/Inc/stm32g4xx_ll_exti.h ****   * @}
 498:Drivers/STM32G4xx_HAL_Driver/Inc/stm32g4xx_ll_exti.h ****   */
 499:Drivers/STM32G4xx_HAL_Driver/Inc/stm32g4xx_ll_exti.h **** 
 500:Drivers/STM32G4xx_HAL_Driver/Inc/stm32g4xx_ll_exti.h **** /** @defgroup EXTI_LL_EF_Event_Management Event_Management
 501:Drivers/STM32G4xx_HAL_Driver/Inc/stm32g4xx_ll_exti.h ****   * @{
 502:Drivers/STM32G4xx_HAL_Driver/Inc/stm32g4xx_ll_exti.h ****   */
 503:Drivers/STM32G4xx_HAL_Driver/Inc/stm32g4xx_ll_exti.h **** 
 504:Drivers/STM32G4xx_HAL_Driver/Inc/stm32g4xx_ll_exti.h **** /**
 505:Drivers/STM32G4xx_HAL_Driver/Inc/stm32g4xx_ll_exti.h ****   * @brief  Enable ExtiLine Event request for Lines in range 0 to 31
 506:Drivers/STM32G4xx_HAL_Driver/Inc/stm32g4xx_ll_exti.h ****   * @rmtoll EMR1         EMx           LL_EXTI_EnableEvent_0_31
 507:Drivers/STM32G4xx_HAL_Driver/Inc/stm32g4xx_ll_exti.h ****   * @param  ExtiLine This parameter can be one of the following values:
 508:Drivers/STM32G4xx_HAL_Driver/Inc/stm32g4xx_ll_exti.h ****   *         @arg @ref LL_EXTI_LINE_0
 509:Drivers/STM32G4xx_HAL_Driver/Inc/stm32g4xx_ll_exti.h ****   *         @arg @ref LL_EXTI_LINE_1
 510:Drivers/STM32G4xx_HAL_Driver/Inc/stm32g4xx_ll_exti.h ****   *         @arg @ref LL_EXTI_LINE_2
 511:Drivers/STM32G4xx_HAL_Driver/Inc/stm32g4xx_ll_exti.h ****   *         @arg @ref LL_EXTI_LINE_3
 512:Drivers/STM32G4xx_HAL_Driver/Inc/stm32g4xx_ll_exti.h ****   *         @arg @ref LL_EXTI_LINE_4
ARM GAS  /tmp/ccnaf6G9.s 			page 19


 513:Drivers/STM32G4xx_HAL_Driver/Inc/stm32g4xx_ll_exti.h ****   *         @arg @ref LL_EXTI_LINE_5
 514:Drivers/STM32G4xx_HAL_Driver/Inc/stm32g4xx_ll_exti.h ****   *         @arg @ref LL_EXTI_LINE_6
 515:Drivers/STM32G4xx_HAL_Driver/Inc/stm32g4xx_ll_exti.h ****   *         @arg @ref LL_EXTI_LINE_7
 516:Drivers/STM32G4xx_HAL_Driver/Inc/stm32g4xx_ll_exti.h ****   *         @arg @ref LL_EXTI_LINE_8
 517:Drivers/STM32G4xx_HAL_Driver/Inc/stm32g4xx_ll_exti.h ****   *         @arg @ref LL_EXTI_LINE_9
 518:Drivers/STM32G4xx_HAL_Driver/Inc/stm32g4xx_ll_exti.h ****   *         @arg @ref LL_EXTI_LINE_10
 519:Drivers/STM32G4xx_HAL_Driver/Inc/stm32g4xx_ll_exti.h ****   *         @arg @ref LL_EXTI_LINE_11
 520:Drivers/STM32G4xx_HAL_Driver/Inc/stm32g4xx_ll_exti.h ****   *         @arg @ref LL_EXTI_LINE_12
 521:Drivers/STM32G4xx_HAL_Driver/Inc/stm32g4xx_ll_exti.h ****   *         @arg @ref LL_EXTI_LINE_13
 522:Drivers/STM32G4xx_HAL_Driver/Inc/stm32g4xx_ll_exti.h ****   *         @arg @ref LL_EXTI_LINE_14
 523:Drivers/STM32G4xx_HAL_Driver/Inc/stm32g4xx_ll_exti.h ****   *         @arg @ref LL_EXTI_LINE_15
 524:Drivers/STM32G4xx_HAL_Driver/Inc/stm32g4xx_ll_exti.h ****   *         @arg @ref LL_EXTI_LINE_16
 525:Drivers/STM32G4xx_HAL_Driver/Inc/stm32g4xx_ll_exti.h ****   *         @arg @ref LL_EXTI_LINE_17
 526:Drivers/STM32G4xx_HAL_Driver/Inc/stm32g4xx_ll_exti.h ****   *         @arg @ref LL_EXTI_LINE_18
 527:Drivers/STM32G4xx_HAL_Driver/Inc/stm32g4xx_ll_exti.h ****   *         @arg @ref LL_EXTI_LINE_19
 528:Drivers/STM32G4xx_HAL_Driver/Inc/stm32g4xx_ll_exti.h ****   *         @arg @ref LL_EXTI_LINE_20
 529:Drivers/STM32G4xx_HAL_Driver/Inc/stm32g4xx_ll_exti.h ****   *         @arg @ref LL_EXTI_LINE_21
 530:Drivers/STM32G4xx_HAL_Driver/Inc/stm32g4xx_ll_exti.h ****   *         @arg @ref LL_EXTI_LINE_22
 531:Drivers/STM32G4xx_HAL_Driver/Inc/stm32g4xx_ll_exti.h ****   *         @arg @ref LL_EXTI_LINE_23
 532:Drivers/STM32G4xx_HAL_Driver/Inc/stm32g4xx_ll_exti.h ****   *         @arg @ref LL_EXTI_LINE_24
 533:Drivers/STM32G4xx_HAL_Driver/Inc/stm32g4xx_ll_exti.h ****   *         @arg @ref LL_EXTI_LINE_25
 534:Drivers/STM32G4xx_HAL_Driver/Inc/stm32g4xx_ll_exti.h ****   *         @arg @ref LL_EXTI_LINE_26
 535:Drivers/STM32G4xx_HAL_Driver/Inc/stm32g4xx_ll_exti.h ****   *         @arg @ref LL_EXTI_LINE_27
 536:Drivers/STM32G4xx_HAL_Driver/Inc/stm32g4xx_ll_exti.h ****   *         @arg @ref LL_EXTI_LINE_28
 537:Drivers/STM32G4xx_HAL_Driver/Inc/stm32g4xx_ll_exti.h ****   *         @arg @ref LL_EXTI_LINE_29
 538:Drivers/STM32G4xx_HAL_Driver/Inc/stm32g4xx_ll_exti.h ****   *         @arg @ref LL_EXTI_LINE_30
 539:Drivers/STM32G4xx_HAL_Driver/Inc/stm32g4xx_ll_exti.h ****   *         @arg @ref LL_EXTI_LINE_31
 540:Drivers/STM32G4xx_HAL_Driver/Inc/stm32g4xx_ll_exti.h ****   *         @arg @ref LL_EXTI_LINE_ALL_0_31 (*)
 541:Drivers/STM32G4xx_HAL_Driver/Inc/stm32g4xx_ll_exti.h ****   * @note   (*): Available in some devices
 542:Drivers/STM32G4xx_HAL_Driver/Inc/stm32g4xx_ll_exti.h ****   * @note   Please check each device line mapping for EXTI Line availability
 543:Drivers/STM32G4xx_HAL_Driver/Inc/stm32g4xx_ll_exti.h ****   * @retval None
 544:Drivers/STM32G4xx_HAL_Driver/Inc/stm32g4xx_ll_exti.h ****   */
 545:Drivers/STM32G4xx_HAL_Driver/Inc/stm32g4xx_ll_exti.h **** __STATIC_INLINE void LL_EXTI_EnableEvent_0_31(uint32_t ExtiLine)
 546:Drivers/STM32G4xx_HAL_Driver/Inc/stm32g4xx_ll_exti.h **** {
 547:Drivers/STM32G4xx_HAL_Driver/Inc/stm32g4xx_ll_exti.h ****   SET_BIT(EXTI->EMR1, ExtiLine);
 548:Drivers/STM32G4xx_HAL_Driver/Inc/stm32g4xx_ll_exti.h **** 
 549:Drivers/STM32G4xx_HAL_Driver/Inc/stm32g4xx_ll_exti.h **** }
 550:Drivers/STM32G4xx_HAL_Driver/Inc/stm32g4xx_ll_exti.h **** 
 551:Drivers/STM32G4xx_HAL_Driver/Inc/stm32g4xx_ll_exti.h **** /**
 552:Drivers/STM32G4xx_HAL_Driver/Inc/stm32g4xx_ll_exti.h ****   * @brief  Enable ExtiLine Event request for Lines in range 32 to 63
 553:Drivers/STM32G4xx_HAL_Driver/Inc/stm32g4xx_ll_exti.h ****   * @rmtoll EMR2         EMx           LL_EXTI_EnableEvent_32_63
 554:Drivers/STM32G4xx_HAL_Driver/Inc/stm32g4xx_ll_exti.h ****   * @param  ExtiLine This parameter can be a combination of the following values:
 555:Drivers/STM32G4xx_HAL_Driver/Inc/stm32g4xx_ll_exti.h ****   *         @arg @ref LL_EXTI_LINE_32 (*)
 556:Drivers/STM32G4xx_HAL_Driver/Inc/stm32g4xx_ll_exti.h ****   *         @arg @ref LL_EXTI_LINE_33 (*)
 557:Drivers/STM32G4xx_HAL_Driver/Inc/stm32g4xx_ll_exti.h ****   *         @arg @ref LL_EXTI_LINE_34
 558:Drivers/STM32G4xx_HAL_Driver/Inc/stm32g4xx_ll_exti.h ****   *         @arg @ref LL_EXTI_LINE_35 (*)
 559:Drivers/STM32G4xx_HAL_Driver/Inc/stm32g4xx_ll_exti.h ****   *         @arg @ref LL_EXTI_LINE_36
 560:Drivers/STM32G4xx_HAL_Driver/Inc/stm32g4xx_ll_exti.h ****   *         @arg @ref LL_EXTI_LINE_37
 561:Drivers/STM32G4xx_HAL_Driver/Inc/stm32g4xx_ll_exti.h ****   *         @arg @ref LL_EXTI_LINE_38
 562:Drivers/STM32G4xx_HAL_Driver/Inc/stm32g4xx_ll_exti.h ****   *         @arg @ref LL_EXTI_LINE_39
 563:Drivers/STM32G4xx_HAL_Driver/Inc/stm32g4xx_ll_exti.h ****   *         @arg @ref LL_EXTI_LINE_40
 564:Drivers/STM32G4xx_HAL_Driver/Inc/stm32g4xx_ll_exti.h ****   *         @arg @ref LL_EXTI_LINE_41
 565:Drivers/STM32G4xx_HAL_Driver/Inc/stm32g4xx_ll_exti.h ****   *         @arg @ref LL_EXTI_LINE_42(*)
 566:Drivers/STM32G4xx_HAL_Driver/Inc/stm32g4xx_ll_exti.h ****   *         @arg @ref LL_EXTI_LINE_ALL_32_63
 567:Drivers/STM32G4xx_HAL_Driver/Inc/stm32g4xx_ll_exti.h ****   * @note   (*): Available in some devices
 568:Drivers/STM32G4xx_HAL_Driver/Inc/stm32g4xx_ll_exti.h ****   * @retval None
 569:Drivers/STM32G4xx_HAL_Driver/Inc/stm32g4xx_ll_exti.h ****   */
ARM GAS  /tmp/ccnaf6G9.s 			page 20


 570:Drivers/STM32G4xx_HAL_Driver/Inc/stm32g4xx_ll_exti.h **** __STATIC_INLINE void LL_EXTI_EnableEvent_32_63(uint32_t ExtiLine)
 571:Drivers/STM32G4xx_HAL_Driver/Inc/stm32g4xx_ll_exti.h **** {
 572:Drivers/STM32G4xx_HAL_Driver/Inc/stm32g4xx_ll_exti.h ****   SET_BIT(EXTI->EMR2, ExtiLine);
 573:Drivers/STM32G4xx_HAL_Driver/Inc/stm32g4xx_ll_exti.h **** }
 574:Drivers/STM32G4xx_HAL_Driver/Inc/stm32g4xx_ll_exti.h **** 
 575:Drivers/STM32G4xx_HAL_Driver/Inc/stm32g4xx_ll_exti.h **** /**
 576:Drivers/STM32G4xx_HAL_Driver/Inc/stm32g4xx_ll_exti.h ****   * @brief  Disable ExtiLine Event request for Lines in range 0 to 31
 577:Drivers/STM32G4xx_HAL_Driver/Inc/stm32g4xx_ll_exti.h ****   * @rmtoll EMR1         EMx           LL_EXTI_DisableEvent_0_31
 578:Drivers/STM32G4xx_HAL_Driver/Inc/stm32g4xx_ll_exti.h ****   * @param  ExtiLine This parameter can be one of the following values:
 579:Drivers/STM32G4xx_HAL_Driver/Inc/stm32g4xx_ll_exti.h ****   *         @arg @ref LL_EXTI_LINE_0
 580:Drivers/STM32G4xx_HAL_Driver/Inc/stm32g4xx_ll_exti.h ****   *         @arg @ref LL_EXTI_LINE_1
 581:Drivers/STM32G4xx_HAL_Driver/Inc/stm32g4xx_ll_exti.h ****   *         @arg @ref LL_EXTI_LINE_2
 582:Drivers/STM32G4xx_HAL_Driver/Inc/stm32g4xx_ll_exti.h ****   *         @arg @ref LL_EXTI_LINE_3
 583:Drivers/STM32G4xx_HAL_Driver/Inc/stm32g4xx_ll_exti.h ****   *         @arg @ref LL_EXTI_LINE_4
 584:Drivers/STM32G4xx_HAL_Driver/Inc/stm32g4xx_ll_exti.h ****   *         @arg @ref LL_EXTI_LINE_5
 585:Drivers/STM32G4xx_HAL_Driver/Inc/stm32g4xx_ll_exti.h ****   *         @arg @ref LL_EXTI_LINE_6
 586:Drivers/STM32G4xx_HAL_Driver/Inc/stm32g4xx_ll_exti.h ****   *         @arg @ref LL_EXTI_LINE_7
 587:Drivers/STM32G4xx_HAL_Driver/Inc/stm32g4xx_ll_exti.h ****   *         @arg @ref LL_EXTI_LINE_8
 588:Drivers/STM32G4xx_HAL_Driver/Inc/stm32g4xx_ll_exti.h ****   *         @arg @ref LL_EXTI_LINE_9
 589:Drivers/STM32G4xx_HAL_Driver/Inc/stm32g4xx_ll_exti.h ****   *         @arg @ref LL_EXTI_LINE_10
 590:Drivers/STM32G4xx_HAL_Driver/Inc/stm32g4xx_ll_exti.h ****   *         @arg @ref LL_EXTI_LINE_11
 591:Drivers/STM32G4xx_HAL_Driver/Inc/stm32g4xx_ll_exti.h ****   *         @arg @ref LL_EXTI_LINE_12
 592:Drivers/STM32G4xx_HAL_Driver/Inc/stm32g4xx_ll_exti.h ****   *         @arg @ref LL_EXTI_LINE_13
 593:Drivers/STM32G4xx_HAL_Driver/Inc/stm32g4xx_ll_exti.h ****   *         @arg @ref LL_EXTI_LINE_14
 594:Drivers/STM32G4xx_HAL_Driver/Inc/stm32g4xx_ll_exti.h ****   *         @arg @ref LL_EXTI_LINE_15
 595:Drivers/STM32G4xx_HAL_Driver/Inc/stm32g4xx_ll_exti.h ****   *         @arg @ref LL_EXTI_LINE_16
 596:Drivers/STM32G4xx_HAL_Driver/Inc/stm32g4xx_ll_exti.h ****   *         @arg @ref LL_EXTI_LINE_17
 597:Drivers/STM32G4xx_HAL_Driver/Inc/stm32g4xx_ll_exti.h ****   *         @arg @ref LL_EXTI_LINE_18
 598:Drivers/STM32G4xx_HAL_Driver/Inc/stm32g4xx_ll_exti.h ****   *         @arg @ref LL_EXTI_LINE_19
 599:Drivers/STM32G4xx_HAL_Driver/Inc/stm32g4xx_ll_exti.h ****   *         @arg @ref LL_EXTI_LINE_20
 600:Drivers/STM32G4xx_HAL_Driver/Inc/stm32g4xx_ll_exti.h ****   *         @arg @ref LL_EXTI_LINE_21
 601:Drivers/STM32G4xx_HAL_Driver/Inc/stm32g4xx_ll_exti.h ****   *         @arg @ref LL_EXTI_LINE_22
 602:Drivers/STM32G4xx_HAL_Driver/Inc/stm32g4xx_ll_exti.h ****   *         @arg @ref LL_EXTI_LINE_23
 603:Drivers/STM32G4xx_HAL_Driver/Inc/stm32g4xx_ll_exti.h ****   *         @arg @ref LL_EXTI_LINE_24
 604:Drivers/STM32G4xx_HAL_Driver/Inc/stm32g4xx_ll_exti.h ****   *         @arg @ref LL_EXTI_LINE_25
 605:Drivers/STM32G4xx_HAL_Driver/Inc/stm32g4xx_ll_exti.h ****   *         @arg @ref LL_EXTI_LINE_26
 606:Drivers/STM32G4xx_HAL_Driver/Inc/stm32g4xx_ll_exti.h ****   *         @arg @ref LL_EXTI_LINE_27
 607:Drivers/STM32G4xx_HAL_Driver/Inc/stm32g4xx_ll_exti.h ****   *         @arg @ref LL_EXTI_LINE_28
 608:Drivers/STM32G4xx_HAL_Driver/Inc/stm32g4xx_ll_exti.h ****   *         @arg @ref LL_EXTI_LINE_29
 609:Drivers/STM32G4xx_HAL_Driver/Inc/stm32g4xx_ll_exti.h ****   *         @arg @ref LL_EXTI_LINE_30
 610:Drivers/STM32G4xx_HAL_Driver/Inc/stm32g4xx_ll_exti.h ****   *         @arg @ref LL_EXTI_LINE_31 (*)
 611:Drivers/STM32G4xx_HAL_Driver/Inc/stm32g4xx_ll_exti.h ****   *         @arg @ref LL_EXTI_LINE_ALL_0_31
 612:Drivers/STM32G4xx_HAL_Driver/Inc/stm32g4xx_ll_exti.h ****   * @note   (*): Available in some devices
 613:Drivers/STM32G4xx_HAL_Driver/Inc/stm32g4xx_ll_exti.h ****   * @note   Please check each device line mapping for EXTI Line availability
 614:Drivers/STM32G4xx_HAL_Driver/Inc/stm32g4xx_ll_exti.h ****   * @retval None
 615:Drivers/STM32G4xx_HAL_Driver/Inc/stm32g4xx_ll_exti.h ****   */
 616:Drivers/STM32G4xx_HAL_Driver/Inc/stm32g4xx_ll_exti.h **** __STATIC_INLINE void LL_EXTI_DisableEvent_0_31(uint32_t ExtiLine)
 237              		.loc 2 616 22 view .LVU70
 238              	.LBB61:
 617:Drivers/STM32G4xx_HAL_Driver/Inc/stm32g4xx_ll_exti.h **** {
 618:Drivers/STM32G4xx_HAL_Driver/Inc/stm32g4xx_ll_exti.h ****   CLEAR_BIT(EXTI->EMR1, ExtiLine);
 239              		.loc 2 618 3 view .LVU71
 240 006e 5168     		ldr	r1, [r2, #4]
 241 0070 21EA0501 		bic	r1, r1, r5
 242 0074 5160     		str	r1, [r2, #4]
 243              	.LVL7:
 244              		.loc 2 618 3 is_stmt 0 view .LVU72
ARM GAS  /tmp/ccnaf6G9.s 			page 21


 245              	.LBE61:
 246              	.LBE60:
 256:Drivers/STM32G4xx_HAL_Driver/Src/stm32g4xx_ll_exti.c ****     /* De-configure Event EXTI Lines in range from 32 to 63 */
 247              		.loc 1 256 5 is_stmt 1 view .LVU73
 248              	.LBB62:
 249              	.LBI62:
 415:Drivers/STM32G4xx_HAL_Driver/Inc/stm32g4xx_ll_exti.h **** {
 250              		.loc 2 415 22 view .LVU74
 251              	.LBB63:
 417:Drivers/STM32G4xx_HAL_Driver/Inc/stm32g4xx_ll_exti.h **** }
 252              		.loc 2 417 3 view .LVU75
 253 0076 4468     		ldr	r4, [r0, #4]
 254 0078 106A     		ldr	r0, [r2, #32]
 255              	.LVL8:
 417:Drivers/STM32G4xx_HAL_Driver/Inc/stm32g4xx_ll_exti.h **** }
 256              		.loc 2 417 3 is_stmt 0 view .LVU76
 257 007a 20EA0400 		bic	r0, r0, r4
 258 007e 1062     		str	r0, [r2, #32]
 259              	.LVL9:
 417:Drivers/STM32G4xx_HAL_Driver/Inc/stm32g4xx_ll_exti.h **** }
 260              		.loc 2 417 3 view .LVU77
 261              	.LBE63:
 262              	.LBE62:
 258:Drivers/STM32G4xx_HAL_Driver/Src/stm32g4xx_ll_exti.c ****   }
 263              		.loc 1 258 5 is_stmt 1 view .LVU78
 264              	.LBB64:
 265              	.LBI64:
 619:Drivers/STM32G4xx_HAL_Driver/Inc/stm32g4xx_ll_exti.h **** }
 620:Drivers/STM32G4xx_HAL_Driver/Inc/stm32g4xx_ll_exti.h **** 
 621:Drivers/STM32G4xx_HAL_Driver/Inc/stm32g4xx_ll_exti.h **** /**
 622:Drivers/STM32G4xx_HAL_Driver/Inc/stm32g4xx_ll_exti.h ****   * @brief  Disable ExtiLine Event request for Lines in range 32 to 63
 623:Drivers/STM32G4xx_HAL_Driver/Inc/stm32g4xx_ll_exti.h ****   * @rmtoll EMR2         EMx           LL_EXTI_DisableEvent_32_63
 624:Drivers/STM32G4xx_HAL_Driver/Inc/stm32g4xx_ll_exti.h ****   * @param  ExtiLine This parameter can be a combination of the following values:
 625:Drivers/STM32G4xx_HAL_Driver/Inc/stm32g4xx_ll_exti.h ****   *         @arg @ref LL_EXTI_LINE_32 (*)
 626:Drivers/STM32G4xx_HAL_Driver/Inc/stm32g4xx_ll_exti.h ****   *         @arg @ref LL_EXTI_LINE_33 (*)
 627:Drivers/STM32G4xx_HAL_Driver/Inc/stm32g4xx_ll_exti.h ****   *         @arg @ref LL_EXTI_LINE_34
 628:Drivers/STM32G4xx_HAL_Driver/Inc/stm32g4xx_ll_exti.h ****   *         @arg @ref LL_EXTI_LINE_35 (*)
 629:Drivers/STM32G4xx_HAL_Driver/Inc/stm32g4xx_ll_exti.h ****   *         @arg @ref LL_EXTI_LINE_36
 630:Drivers/STM32G4xx_HAL_Driver/Inc/stm32g4xx_ll_exti.h ****   *         @arg @ref LL_EXTI_LINE_37
 631:Drivers/STM32G4xx_HAL_Driver/Inc/stm32g4xx_ll_exti.h ****   *         @arg @ref LL_EXTI_LINE_38
 632:Drivers/STM32G4xx_HAL_Driver/Inc/stm32g4xx_ll_exti.h ****   *         @arg @ref LL_EXTI_LINE_39
 633:Drivers/STM32G4xx_HAL_Driver/Inc/stm32g4xx_ll_exti.h ****   *         @arg @ref LL_EXTI_LINE_40
 634:Drivers/STM32G4xx_HAL_Driver/Inc/stm32g4xx_ll_exti.h ****   *         @arg @ref LL_EXTI_LINE_41
 635:Drivers/STM32G4xx_HAL_Driver/Inc/stm32g4xx_ll_exti.h ****   *         @arg @ref LL_EXTI_LINE_42(*)
 636:Drivers/STM32G4xx_HAL_Driver/Inc/stm32g4xx_ll_exti.h ****   *         @arg @ref LL_EXTI_LINE_ALL_32_63
 637:Drivers/STM32G4xx_HAL_Driver/Inc/stm32g4xx_ll_exti.h ****   * @note   (*): Available in some devices
 638:Drivers/STM32G4xx_HAL_Driver/Inc/stm32g4xx_ll_exti.h ****   * @retval None
 639:Drivers/STM32G4xx_HAL_Driver/Inc/stm32g4xx_ll_exti.h ****   */
 640:Drivers/STM32G4xx_HAL_Driver/Inc/stm32g4xx_ll_exti.h **** __STATIC_INLINE void LL_EXTI_DisableEvent_32_63(uint32_t ExtiLine)
 266              		.loc 2 640 22 view .LVU79
 267              	.LBB65:
 641:Drivers/STM32G4xx_HAL_Driver/Inc/stm32g4xx_ll_exti.h **** {
 642:Drivers/STM32G4xx_HAL_Driver/Inc/stm32g4xx_ll_exti.h ****   CLEAR_BIT(EXTI->EMR2, ExtiLine);
 268              		.loc 2 642 3 view .LVU80
 269 0080 516A     		ldr	r1, [r2, #36]
 270 0082 21EA0401 		bic	r1, r1, r4
 271              	.LVL10:
ARM GAS  /tmp/ccnaf6G9.s 			page 22


 272              		.loc 2 642 3 is_stmt 0 view .LVU81
 273              	.LBE65:
 274              	.LBE64:
 261:Drivers/STM32G4xx_HAL_Driver/Src/stm32g4xx_ll_exti.c **** }
 275              		.loc 1 261 3 is_stmt 1 view .LVU82
 276              		.loc 1 262 1 is_stmt 0 view .LVU83
 277 0086 1846     		mov	r0, r3
 278 0088 30BC     		pop	{r4, r5}
 279              	.LCFI5:
 280              		.cfi_remember_state
 281              		.cfi_restore 5
 282              		.cfi_restore 4
 283              		.cfi_def_cfa_offset 0
 284              	.LBB67:
 285              	.LBB66:
 286              		.loc 2 642 3 view .LVU84
 287 008a 5162     		str	r1, [r2, #36]
 288              	.LBE66:
 289              	.LBE67:
 290              		.loc 1 262 1 view .LVU85
 291 008c 7047     		bx	lr
 292              	.LVL11:
 293              	.L39:
 294              	.LCFI6:
 295              		.cfi_restore_state
 199:Drivers/STM32G4xx_HAL_Driver/Src/stm32g4xx_ll_exti.c ****           /* Then Enable IT on provided Lines */
 296              		.loc 1 199 11 is_stmt 1 view .LVU86
 297              	.LBB68:
 298              	.LBI68:
 640:Drivers/STM32G4xx_HAL_Driver/Inc/stm32g4xx_ll_exti.h **** {
 299              		.loc 2 640 22 view .LVU87
 300              	.LBB69:
 301              		.loc 2 642 3 view .LVU88
 302 008e 01F18041 		add	r1, r1, #1073741824
 303 0092 01F58231 		add	r1, r1, #66560
 304 0096 4C6A     		ldr	r4, [r1, #36]
 305 0098 24EA0204 		bic	r4, r4, r2
 306 009c 4C62     		str	r4, [r1, #36]
 307              	.LVL12:
 308              		.loc 2 642 3 is_stmt 0 view .LVU89
 309              	.LBE69:
 310              	.LBE68:
 201:Drivers/STM32G4xx_HAL_Driver/Src/stm32g4xx_ll_exti.c ****           break;
 311              		.loc 1 201 11 is_stmt 1 view .LVU90
 312              	.LBB70:
 313              	.LBI70:
 339:Drivers/STM32G4xx_HAL_Driver/Inc/stm32g4xx_ll_exti.h **** {
 314              		.loc 2 339 22 view .LVU91
 315              	.LBB71:
 341:Drivers/STM32G4xx_HAL_Driver/Inc/stm32g4xx_ll_exti.h **** }
 316              		.loc 2 341 3 view .LVU92
 317 009e 0C6A     		ldr	r4, [r1, #32]
 318 00a0 1443     		orrs	r4, r4, r2
 319 00a2 0C62     		str	r4, [r1, #32]
 342:Drivers/STM32G4xx_HAL_Driver/Inc/stm32g4xx_ll_exti.h **** 
 320              		.loc 2 342 1 is_stmt 0 view .LVU93
 321 00a4 D0E7     		b	.L19
ARM GAS  /tmp/ccnaf6G9.s 			page 23


 322              	.LVL13:
 323              	.L17:
 342:Drivers/STM32G4xx_HAL_Driver/Inc/stm32g4xx_ll_exti.h **** 
 324              		.loc 2 342 1 view .LVU94
 325              	.LBE71:
 326              	.LBE70:
 211:Drivers/STM32G4xx_HAL_Driver/Src/stm32g4xx_ll_exti.c ****           /* Directly Enable IT on provided Lines */
 327              		.loc 1 211 11 is_stmt 1 view .LVU95
 328              	.LBB72:
 329              	.LBI72:
 339:Drivers/STM32G4xx_HAL_Driver/Inc/stm32g4xx_ll_exti.h **** {
 330              		.loc 2 339 22 view .LVU96
 331              	.LBB73:
 341:Drivers/STM32G4xx_HAL_Driver/Inc/stm32g4xx_ll_exti.h **** }
 332              		.loc 2 341 3 view .LVU97
 333 00a6 3049     		ldr	r1, .L43
 334 00a8 0C6A     		ldr	r4, [r1, #32]
 335 00aa 1443     		orrs	r4, r4, r2
 336 00ac 0C62     		str	r4, [r1, #32]
 337              	.LVL14:
 341:Drivers/STM32G4xx_HAL_Driver/Inc/stm32g4xx_ll_exti.h **** }
 338              		.loc 2 341 3 is_stmt 0 view .LVU98
 339              	.LBE73:
 340              	.LBE72:
 213:Drivers/STM32G4xx_HAL_Driver/Src/stm32g4xx_ll_exti.c ****           break;
 341              		.loc 1 213 11 is_stmt 1 view .LVU99
 342              	.LBB74:
 343              	.LBI74:
 570:Drivers/STM32G4xx_HAL_Driver/Inc/stm32g4xx_ll_exti.h **** {
 344              		.loc 2 570 22 view .LVU100
 345              	.LBB75:
 572:Drivers/STM32G4xx_HAL_Driver/Inc/stm32g4xx_ll_exti.h **** }
 346              		.loc 2 572 3 view .LVU101
 347 00ae 4C6A     		ldr	r4, [r1, #36]
 348 00b0 1443     		orrs	r4, r4, r2
 349 00b2 4C62     		str	r4, [r1, #36]
 573:Drivers/STM32G4xx_HAL_Driver/Inc/stm32g4xx_ll_exti.h **** 
 350              		.loc 2 573 1 is_stmt 0 view .LVU102
 351 00b4 C8E7     		b	.L19
 352              	.LVL15:
 353              	.L10:
 573:Drivers/STM32G4xx_HAL_Driver/Inc/stm32g4xx_ll_exti.h **** 
 354              		.loc 2 573 1 view .LVU103
 355              	.LBE75:
 356              	.LBE74:
 156:Drivers/STM32G4xx_HAL_Driver/Src/stm32g4xx_ll_exti.c ****           /* Directly Enable Event on provided Lines */
 357              		.loc 1 156 11 is_stmt 1 view .LVU104
 358              	.LBB76:
 359              	.LBI76:
 313:Drivers/STM32G4xx_HAL_Driver/Inc/stm32g4xx_ll_exti.h **** {
 360              		.loc 2 313 22 view .LVU105
 361              	.LBB77:
 315:Drivers/STM32G4xx_HAL_Driver/Inc/stm32g4xx_ll_exti.h **** }
 362              		.loc 2 315 3 view .LVU106
 363 00b6 2C4A     		ldr	r2, .L43
 364 00b8 1168     		ldr	r1, [r2]
 365 00ba 1943     		orrs	r1, r1, r3
ARM GAS  /tmp/ccnaf6G9.s 			page 24


 366              	.LVL16:
 367              	.L35:
 315:Drivers/STM32G4xx_HAL_Driver/Inc/stm32g4xx_ll_exti.h **** }
 368              		.loc 2 315 3 is_stmt 0 view .LVU107
 369 00bc 1160     		str	r1, [r2]
 370              	.LBE77:
 371              	.LBE76:
 158:Drivers/STM32G4xx_HAL_Driver/Src/stm32g4xx_ll_exti.c ****           break;
 372              		.loc 1 158 11 is_stmt 1 view .LVU108
 373              	.LVL17:
 374              	.LBB78:
 375              	.LBI78:
 545:Drivers/STM32G4xx_HAL_Driver/Inc/stm32g4xx_ll_exti.h **** {
 376              		.loc 2 545 22 view .LVU109
 377              	.LBB79:
 547:Drivers/STM32G4xx_HAL_Driver/Inc/stm32g4xx_ll_exti.h **** 
 378              		.loc 2 547 3 view .LVU110
 379 00be 5168     		ldr	r1, [r2, #4]
 380 00c0 1943     		orrs	r1, r1, r3
 381 00c2 5160     		str	r1, [r2, #4]
 382              	.LBE79:
 383              	.LBE78:
 164:Drivers/STM32G4xx_HAL_Driver/Src/stm32g4xx_ll_exti.c ****       {
 384              		.loc 1 164 26 is_stmt 0 view .LVU111
 385 00c4 817A     		ldrb	r1, [r0, #10]	@ zero_extendqisi2
 124:Drivers/STM32G4xx_HAL_Driver/Src/stm32g4xx_ll_exti.c **** 
 386              		.loc 1 124 12 view .LVU112
 387 00c6 0022     		movs	r2, #0
 388              	.LVL18:
 164:Drivers/STM32G4xx_HAL_Driver/Src/stm32g4xx_ll_exti.c ****       {
 389              		.loc 1 164 7 is_stmt 1 view .LVU113
 164:Drivers/STM32G4xx_HAL_Driver/Src/stm32g4xx_ll_exti.c ****       {
 390              		.loc 1 164 10 is_stmt 0 view .LVU114
 391 00c8 0029     		cmp	r1, #0
 392 00ca A9D1     		bne	.L41
 393              	.L24:
 190:Drivers/STM32G4xx_HAL_Driver/Src/stm32g4xx_ll_exti.c ****     }
 394              		.loc 1 190 7 view .LVU115
 395 00cc 1346     		mov	r3, r2
 396              	.LVL19:
 193:Drivers/STM32G4xx_HAL_Driver/Src/stm32g4xx_ll_exti.c ****     {
 397              		.loc 1 193 5 is_stmt 1 view .LVU116
 193:Drivers/STM32G4xx_HAL_Driver/Src/stm32g4xx_ll_exti.c ****     {
 398              		.loc 1 193 24 is_stmt 0 view .LVU117
 399 00ce 4268     		ldr	r2, [r0, #4]
 193:Drivers/STM32G4xx_HAL_Driver/Src/stm32g4xx_ll_exti.c ****     {
 400              		.loc 1 193 8 view .LVU118
 401 00d0 002A     		cmp	r2, #0
 402 00d2 C3D0     		beq	.L6
 403 00d4 B0E7     		b	.L42
 404              	.LVL20:
 405              	.L37:
 144:Drivers/STM32G4xx_HAL_Driver/Src/stm32g4xx_ll_exti.c ****           /* Then Enable IT on provided Lines */
 406              		.loc 1 144 11 is_stmt 1 view .LVU119
 407              	.LBB80:
 408              	.LBI80:
 616:Drivers/STM32G4xx_HAL_Driver/Inc/stm32g4xx_ll_exti.h **** {
ARM GAS  /tmp/ccnaf6G9.s 			page 25


 409              		.loc 2 616 22 view .LVU120
 410              	.LBB81:
 618:Drivers/STM32G4xx_HAL_Driver/Inc/stm32g4xx_ll_exti.h **** }
 411              		.loc 2 618 3 view .LVU121
 412 00d6 2449     		ldr	r1, .L43
 413 00d8 4C68     		ldr	r4, [r1, #4]
 414 00da 24EA0304 		bic	r4, r4, r3
 415 00de 4C60     		str	r4, [r1, #4]
 416              	.LVL21:
 618:Drivers/STM32G4xx_HAL_Driver/Inc/stm32g4xx_ll_exti.h **** }
 417              		.loc 2 618 3 is_stmt 0 view .LVU122
 418              	.LBE81:
 419              	.LBE80:
 146:Drivers/STM32G4xx_HAL_Driver/Src/stm32g4xx_ll_exti.c ****           break;
 420              		.loc 1 146 11 is_stmt 1 view .LVU123
 421              	.LBB82:
 422              	.LBI82:
 313:Drivers/STM32G4xx_HAL_Driver/Inc/stm32g4xx_ll_exti.h **** {
 423              		.loc 2 313 22 view .LVU124
 424              	.LBB83:
 315:Drivers/STM32G4xx_HAL_Driver/Inc/stm32g4xx_ll_exti.h **** }
 425              		.loc 2 315 3 view .LVU125
 426 00e0 0C68     		ldr	r4, [r1]
 427 00e2 1C43     		orrs	r4, r4, r3
 428 00e4 0C60     		str	r4, [r1]
 316:Drivers/STM32G4xx_HAL_Driver/Inc/stm32g4xx_ll_exti.h **** /**
 429              		.loc 2 316 1 is_stmt 0 view .LVU126
 430 00e6 98E7     		b	.L11
 431              	.LVL22:
 432              	.L16:
 316:Drivers/STM32G4xx_HAL_Driver/Inc/stm32g4xx_ll_exti.h **** /**
 433              		.loc 2 316 1 view .LVU127
 434              	.LBE83:
 435              	.LBE82:
 205:Drivers/STM32G4xx_HAL_Driver/Src/stm32g4xx_ll_exti.c ****           /* Then Enable Event on provided Lines */
 436              		.loc 1 205 11 is_stmt 1 view .LVU128
 437              	.LBB84:
 438              	.LBI84:
 415:Drivers/STM32G4xx_HAL_Driver/Inc/stm32g4xx_ll_exti.h **** {
 439              		.loc 2 415 22 view .LVU129
 440              	.LBB85:
 417:Drivers/STM32G4xx_HAL_Driver/Inc/stm32g4xx_ll_exti.h **** }
 441              		.loc 2 417 3 view .LVU130
 442 00e8 1F49     		ldr	r1, .L43
 443 00ea 0C6A     		ldr	r4, [r1, #32]
 444 00ec 24EA0204 		bic	r4, r4, r2
 445 00f0 0C62     		str	r4, [r1, #32]
 446              	.LVL23:
 417:Drivers/STM32G4xx_HAL_Driver/Inc/stm32g4xx_ll_exti.h **** }
 447              		.loc 2 417 3 is_stmt 0 view .LVU131
 448              	.LBE85:
 449              	.LBE84:
 207:Drivers/STM32G4xx_HAL_Driver/Src/stm32g4xx_ll_exti.c ****           break;
 450              		.loc 1 207 11 is_stmt 1 view .LVU132
 451              	.LBB86:
 452              	.LBI86:
 570:Drivers/STM32G4xx_HAL_Driver/Inc/stm32g4xx_ll_exti.h **** {
ARM GAS  /tmp/ccnaf6G9.s 			page 26


 453              		.loc 2 570 22 view .LVU133
 454              	.LBB87:
 572:Drivers/STM32G4xx_HAL_Driver/Inc/stm32g4xx_ll_exti.h **** }
 455              		.loc 2 572 3 view .LVU134
 456 00f2 4C6A     		ldr	r4, [r1, #36]
 457 00f4 1443     		orrs	r4, r4, r2
 458 00f6 4C62     		str	r4, [r1, #36]
 573:Drivers/STM32G4xx_HAL_Driver/Inc/stm32g4xx_ll_exti.h **** 
 459              		.loc 2 573 1 is_stmt 0 view .LVU135
 460 00f8 A6E7     		b	.L19
 461              	.LVL24:
 462              	.L9:
 573:Drivers/STM32G4xx_HAL_Driver/Inc/stm32g4xx_ll_exti.h **** 
 463              		.loc 2 573 1 view .LVU136
 464              	.LBE87:
 465              	.LBE86:
 150:Drivers/STM32G4xx_HAL_Driver/Src/stm32g4xx_ll_exti.c ****           /* Then Enable Event on provided Lines */
 466              		.loc 1 150 11 is_stmt 1 view .LVU137
 467              	.LBB88:
 468              	.LBI88:
 388:Drivers/STM32G4xx_HAL_Driver/Inc/stm32g4xx_ll_exti.h **** {
 469              		.loc 2 388 22 view .LVU138
 470              	.LBB89:
 390:Drivers/STM32G4xx_HAL_Driver/Inc/stm32g4xx_ll_exti.h **** }
 471              		.loc 2 390 3 view .LVU139
 472 00fa 1B4A     		ldr	r2, .L43
 473 00fc 1168     		ldr	r1, [r2]
 474 00fe 21EA0301 		bic	r1, r1, r3
 475 0102 DBE7     		b	.L35
 476              	.LVL25:
 477              	.L12:
 390:Drivers/STM32G4xx_HAL_Driver/Inc/stm32g4xx_ll_exti.h **** }
 478              		.loc 2 390 3 is_stmt 0 view .LVU140
 479              	.LBE89:
 480              	.LBE88:
 176:Drivers/STM32G4xx_HAL_Driver/Src/stm32g4xx_ll_exti.c ****             /* Then Enable Falling Trigger on provided Lines */
 481              		.loc 1 176 13 is_stmt 1 view .LVU141
 482              	.LBB90:
 483              	.LBI90:
 643:Drivers/STM32G4xx_HAL_Driver/Inc/stm32g4xx_ll_exti.h **** }
 644:Drivers/STM32G4xx_HAL_Driver/Inc/stm32g4xx_ll_exti.h **** 
 645:Drivers/STM32G4xx_HAL_Driver/Inc/stm32g4xx_ll_exti.h **** /**
 646:Drivers/STM32G4xx_HAL_Driver/Inc/stm32g4xx_ll_exti.h ****   * @brief  Indicate if ExtiLine Event request is enabled for Lines in range 0 to 31
 647:Drivers/STM32G4xx_HAL_Driver/Inc/stm32g4xx_ll_exti.h ****   * @rmtoll EMR1         EMx           LL_EXTI_IsEnabledEvent_0_31
 648:Drivers/STM32G4xx_HAL_Driver/Inc/stm32g4xx_ll_exti.h ****   * @param  ExtiLine This parameter can be one of the following values:
 649:Drivers/STM32G4xx_HAL_Driver/Inc/stm32g4xx_ll_exti.h ****   *         @arg @ref LL_EXTI_LINE_0
 650:Drivers/STM32G4xx_HAL_Driver/Inc/stm32g4xx_ll_exti.h ****   *         @arg @ref LL_EXTI_LINE_1
 651:Drivers/STM32G4xx_HAL_Driver/Inc/stm32g4xx_ll_exti.h ****   *         @arg @ref LL_EXTI_LINE_2
 652:Drivers/STM32G4xx_HAL_Driver/Inc/stm32g4xx_ll_exti.h ****   *         @arg @ref LL_EXTI_LINE_3
 653:Drivers/STM32G4xx_HAL_Driver/Inc/stm32g4xx_ll_exti.h ****   *         @arg @ref LL_EXTI_LINE_4
 654:Drivers/STM32G4xx_HAL_Driver/Inc/stm32g4xx_ll_exti.h ****   *         @arg @ref LL_EXTI_LINE_5
 655:Drivers/STM32G4xx_HAL_Driver/Inc/stm32g4xx_ll_exti.h ****   *         @arg @ref LL_EXTI_LINE_6
 656:Drivers/STM32G4xx_HAL_Driver/Inc/stm32g4xx_ll_exti.h ****   *         @arg @ref LL_EXTI_LINE_7
 657:Drivers/STM32G4xx_HAL_Driver/Inc/stm32g4xx_ll_exti.h ****   *         @arg @ref LL_EXTI_LINE_8
 658:Drivers/STM32G4xx_HAL_Driver/Inc/stm32g4xx_ll_exti.h ****   *         @arg @ref LL_EXTI_LINE_9
 659:Drivers/STM32G4xx_HAL_Driver/Inc/stm32g4xx_ll_exti.h ****   *         @arg @ref LL_EXTI_LINE_10
 660:Drivers/STM32G4xx_HAL_Driver/Inc/stm32g4xx_ll_exti.h ****   *         @arg @ref LL_EXTI_LINE_11
ARM GAS  /tmp/ccnaf6G9.s 			page 27


 661:Drivers/STM32G4xx_HAL_Driver/Inc/stm32g4xx_ll_exti.h ****   *         @arg @ref LL_EXTI_LINE_12
 662:Drivers/STM32G4xx_HAL_Driver/Inc/stm32g4xx_ll_exti.h ****   *         @arg @ref LL_EXTI_LINE_13
 663:Drivers/STM32G4xx_HAL_Driver/Inc/stm32g4xx_ll_exti.h ****   *         @arg @ref LL_EXTI_LINE_14
 664:Drivers/STM32G4xx_HAL_Driver/Inc/stm32g4xx_ll_exti.h ****   *         @arg @ref LL_EXTI_LINE_15
 665:Drivers/STM32G4xx_HAL_Driver/Inc/stm32g4xx_ll_exti.h ****   *         @arg @ref LL_EXTI_LINE_16
 666:Drivers/STM32G4xx_HAL_Driver/Inc/stm32g4xx_ll_exti.h ****   *         @arg @ref LL_EXTI_LINE_17
 667:Drivers/STM32G4xx_HAL_Driver/Inc/stm32g4xx_ll_exti.h ****   *         @arg @ref LL_EXTI_LINE_18
 668:Drivers/STM32G4xx_HAL_Driver/Inc/stm32g4xx_ll_exti.h ****   *         @arg @ref LL_EXTI_LINE_19
 669:Drivers/STM32G4xx_HAL_Driver/Inc/stm32g4xx_ll_exti.h ****   *         @arg @ref LL_EXTI_LINE_20
 670:Drivers/STM32G4xx_HAL_Driver/Inc/stm32g4xx_ll_exti.h ****   *         @arg @ref LL_EXTI_LINE_21
 671:Drivers/STM32G4xx_HAL_Driver/Inc/stm32g4xx_ll_exti.h ****   *         @arg @ref LL_EXTI_LINE_22
 672:Drivers/STM32G4xx_HAL_Driver/Inc/stm32g4xx_ll_exti.h ****   *         @arg @ref LL_EXTI_LINE_23
 673:Drivers/STM32G4xx_HAL_Driver/Inc/stm32g4xx_ll_exti.h ****   *         @arg @ref LL_EXTI_LINE_24
 674:Drivers/STM32G4xx_HAL_Driver/Inc/stm32g4xx_ll_exti.h ****   *         @arg @ref LL_EXTI_LINE_25
 675:Drivers/STM32G4xx_HAL_Driver/Inc/stm32g4xx_ll_exti.h ****   *         @arg @ref LL_EXTI_LINE_26
 676:Drivers/STM32G4xx_HAL_Driver/Inc/stm32g4xx_ll_exti.h ****   *         @arg @ref LL_EXTI_LINE_27
 677:Drivers/STM32G4xx_HAL_Driver/Inc/stm32g4xx_ll_exti.h ****   *         @arg @ref LL_EXTI_LINE_28
 678:Drivers/STM32G4xx_HAL_Driver/Inc/stm32g4xx_ll_exti.h ****   *         @arg @ref LL_EXTI_LINE_29
 679:Drivers/STM32G4xx_HAL_Driver/Inc/stm32g4xx_ll_exti.h ****   *         @arg @ref LL_EXTI_LINE_30
 680:Drivers/STM32G4xx_HAL_Driver/Inc/stm32g4xx_ll_exti.h ****   *         @arg @ref LL_EXTI_LINE_31
 681:Drivers/STM32G4xx_HAL_Driver/Inc/stm32g4xx_ll_exti.h ****   *         @arg @ref LL_EXTI_LINE_ALL_0_31 (*)
 682:Drivers/STM32G4xx_HAL_Driver/Inc/stm32g4xx_ll_exti.h ****   * @note   (*): Available in some devices
 683:Drivers/STM32G4xx_HAL_Driver/Inc/stm32g4xx_ll_exti.h ****   * @note   Please check each device line mapping for EXTI Line availability
 684:Drivers/STM32G4xx_HAL_Driver/Inc/stm32g4xx_ll_exti.h ****   * @retval State of bit (1 or 0).
 685:Drivers/STM32G4xx_HAL_Driver/Inc/stm32g4xx_ll_exti.h ****   */
 686:Drivers/STM32G4xx_HAL_Driver/Inc/stm32g4xx_ll_exti.h **** __STATIC_INLINE uint32_t LL_EXTI_IsEnabledEvent_0_31(uint32_t ExtiLine)
 687:Drivers/STM32G4xx_HAL_Driver/Inc/stm32g4xx_ll_exti.h **** {
 688:Drivers/STM32G4xx_HAL_Driver/Inc/stm32g4xx_ll_exti.h ****   return ((READ_BIT(EXTI->EMR1, ExtiLine) == (ExtiLine)) ? 1UL : 0UL);
 689:Drivers/STM32G4xx_HAL_Driver/Inc/stm32g4xx_ll_exti.h **** 
 690:Drivers/STM32G4xx_HAL_Driver/Inc/stm32g4xx_ll_exti.h **** }
 691:Drivers/STM32G4xx_HAL_Driver/Inc/stm32g4xx_ll_exti.h **** 
 692:Drivers/STM32G4xx_HAL_Driver/Inc/stm32g4xx_ll_exti.h **** /**
 693:Drivers/STM32G4xx_HAL_Driver/Inc/stm32g4xx_ll_exti.h ****   * @brief  Indicate if ExtiLine Event request is enabled for Lines in range 32 to 63
 694:Drivers/STM32G4xx_HAL_Driver/Inc/stm32g4xx_ll_exti.h ****   * @rmtoll EMR2         EMx           LL_EXTI_IsEnabledEvent_32_63
 695:Drivers/STM32G4xx_HAL_Driver/Inc/stm32g4xx_ll_exti.h ****   * @param  ExtiLine This parameter can be a combination of the following values:
 696:Drivers/STM32G4xx_HAL_Driver/Inc/stm32g4xx_ll_exti.h ****   *         @arg @ref LL_EXTI_LINE_32 (*)
 697:Drivers/STM32G4xx_HAL_Driver/Inc/stm32g4xx_ll_exti.h ****   *         @arg @ref LL_EXTI_LINE_33 (*)
 698:Drivers/STM32G4xx_HAL_Driver/Inc/stm32g4xx_ll_exti.h ****   *         @arg @ref LL_EXTI_LINE_34
 699:Drivers/STM32G4xx_HAL_Driver/Inc/stm32g4xx_ll_exti.h ****   *         @arg @ref LL_EXTI_LINE_35 (*)
 700:Drivers/STM32G4xx_HAL_Driver/Inc/stm32g4xx_ll_exti.h ****   *         @arg @ref LL_EXTI_LINE_36
 701:Drivers/STM32G4xx_HAL_Driver/Inc/stm32g4xx_ll_exti.h ****   *         @arg @ref LL_EXTI_LINE_37
 702:Drivers/STM32G4xx_HAL_Driver/Inc/stm32g4xx_ll_exti.h ****   *         @arg @ref LL_EXTI_LINE_38
 703:Drivers/STM32G4xx_HAL_Driver/Inc/stm32g4xx_ll_exti.h ****   *         @arg @ref LL_EXTI_LINE_39
 704:Drivers/STM32G4xx_HAL_Driver/Inc/stm32g4xx_ll_exti.h ****   *         @arg @ref LL_EXTI_LINE_40
 705:Drivers/STM32G4xx_HAL_Driver/Inc/stm32g4xx_ll_exti.h ****   *         @arg @ref LL_EXTI_LINE_41
 706:Drivers/STM32G4xx_HAL_Driver/Inc/stm32g4xx_ll_exti.h ****   *         @arg @ref LL_EXTI_LINE_42(*)
 707:Drivers/STM32G4xx_HAL_Driver/Inc/stm32g4xx_ll_exti.h ****   *         @arg @ref LL_EXTI_LINE_ALL_32_63
 708:Drivers/STM32G4xx_HAL_Driver/Inc/stm32g4xx_ll_exti.h ****   * @note   (*): Available in some devices
 709:Drivers/STM32G4xx_HAL_Driver/Inc/stm32g4xx_ll_exti.h ****   * @retval State of bit (1 or 0).
 710:Drivers/STM32G4xx_HAL_Driver/Inc/stm32g4xx_ll_exti.h ****   */
 711:Drivers/STM32G4xx_HAL_Driver/Inc/stm32g4xx_ll_exti.h **** __STATIC_INLINE uint32_t LL_EXTI_IsEnabledEvent_32_63(uint32_t ExtiLine)
 712:Drivers/STM32G4xx_HAL_Driver/Inc/stm32g4xx_ll_exti.h **** {
 713:Drivers/STM32G4xx_HAL_Driver/Inc/stm32g4xx_ll_exti.h ****   return ((READ_BIT(EXTI->EMR2, ExtiLine) == (ExtiLine)) ? 1UL : 0UL);
 714:Drivers/STM32G4xx_HAL_Driver/Inc/stm32g4xx_ll_exti.h **** }
 715:Drivers/STM32G4xx_HAL_Driver/Inc/stm32g4xx_ll_exti.h **** 
 716:Drivers/STM32G4xx_HAL_Driver/Inc/stm32g4xx_ll_exti.h **** /**
 717:Drivers/STM32G4xx_HAL_Driver/Inc/stm32g4xx_ll_exti.h ****   * @}
ARM GAS  /tmp/ccnaf6G9.s 			page 28


 718:Drivers/STM32G4xx_HAL_Driver/Inc/stm32g4xx_ll_exti.h ****   */
 719:Drivers/STM32G4xx_HAL_Driver/Inc/stm32g4xx_ll_exti.h **** 
 720:Drivers/STM32G4xx_HAL_Driver/Inc/stm32g4xx_ll_exti.h **** /** @defgroup EXTI_LL_EF_Rising_Trigger_Management Rising_Trigger_Management
 721:Drivers/STM32G4xx_HAL_Driver/Inc/stm32g4xx_ll_exti.h ****   * @{
 722:Drivers/STM32G4xx_HAL_Driver/Inc/stm32g4xx_ll_exti.h ****   */
 723:Drivers/STM32G4xx_HAL_Driver/Inc/stm32g4xx_ll_exti.h **** 
 724:Drivers/STM32G4xx_HAL_Driver/Inc/stm32g4xx_ll_exti.h **** /**
 725:Drivers/STM32G4xx_HAL_Driver/Inc/stm32g4xx_ll_exti.h ****   * @brief  Enable ExtiLine Rising Edge Trigger for Lines in range 0 to 31
 726:Drivers/STM32G4xx_HAL_Driver/Inc/stm32g4xx_ll_exti.h ****   * @note The configurable wakeup lines are edge-triggered. No glitch must be
 727:Drivers/STM32G4xx_HAL_Driver/Inc/stm32g4xx_ll_exti.h ****   *       generated on these lines. If a rising edge on a configurable interrupt
 728:Drivers/STM32G4xx_HAL_Driver/Inc/stm32g4xx_ll_exti.h ****   *       line occurs during a write operation in the EXTI_RTSR register, the
 729:Drivers/STM32G4xx_HAL_Driver/Inc/stm32g4xx_ll_exti.h ****   *       pending bit is not set.
 730:Drivers/STM32G4xx_HAL_Driver/Inc/stm32g4xx_ll_exti.h ****   *       Rising and falling edge triggers can be set for
 731:Drivers/STM32G4xx_HAL_Driver/Inc/stm32g4xx_ll_exti.h ****   *       the same interrupt line. In this case, both generate a trigger
 732:Drivers/STM32G4xx_HAL_Driver/Inc/stm32g4xx_ll_exti.h ****   *       condition.
 733:Drivers/STM32G4xx_HAL_Driver/Inc/stm32g4xx_ll_exti.h ****   * @rmtoll RTSR1        RTx           LL_EXTI_EnableRisingTrig_0_31
 734:Drivers/STM32G4xx_HAL_Driver/Inc/stm32g4xx_ll_exti.h ****   * @param  ExtiLine This parameter can be a combination of the following values:
 735:Drivers/STM32G4xx_HAL_Driver/Inc/stm32g4xx_ll_exti.h ****   *         @arg @ref LL_EXTI_LINE_0
 736:Drivers/STM32G4xx_HAL_Driver/Inc/stm32g4xx_ll_exti.h ****   *         @arg @ref LL_EXTI_LINE_1
 737:Drivers/STM32G4xx_HAL_Driver/Inc/stm32g4xx_ll_exti.h ****   *         @arg @ref LL_EXTI_LINE_2
 738:Drivers/STM32G4xx_HAL_Driver/Inc/stm32g4xx_ll_exti.h ****   *         @arg @ref LL_EXTI_LINE_3
 739:Drivers/STM32G4xx_HAL_Driver/Inc/stm32g4xx_ll_exti.h ****   *         @arg @ref LL_EXTI_LINE_4
 740:Drivers/STM32G4xx_HAL_Driver/Inc/stm32g4xx_ll_exti.h ****   *         @arg @ref LL_EXTI_LINE_5
 741:Drivers/STM32G4xx_HAL_Driver/Inc/stm32g4xx_ll_exti.h ****   *         @arg @ref LL_EXTI_LINE_6
 742:Drivers/STM32G4xx_HAL_Driver/Inc/stm32g4xx_ll_exti.h ****   *         @arg @ref LL_EXTI_LINE_7
 743:Drivers/STM32G4xx_HAL_Driver/Inc/stm32g4xx_ll_exti.h ****   *         @arg @ref LL_EXTI_LINE_8
 744:Drivers/STM32G4xx_HAL_Driver/Inc/stm32g4xx_ll_exti.h ****   *         @arg @ref LL_EXTI_LINE_9
 745:Drivers/STM32G4xx_HAL_Driver/Inc/stm32g4xx_ll_exti.h ****   *         @arg @ref LL_EXTI_LINE_10
 746:Drivers/STM32G4xx_HAL_Driver/Inc/stm32g4xx_ll_exti.h ****   *         @arg @ref LL_EXTI_LINE_11
 747:Drivers/STM32G4xx_HAL_Driver/Inc/stm32g4xx_ll_exti.h ****   *         @arg @ref LL_EXTI_LINE_12
 748:Drivers/STM32G4xx_HAL_Driver/Inc/stm32g4xx_ll_exti.h ****   *         @arg @ref LL_EXTI_LINE_13
 749:Drivers/STM32G4xx_HAL_Driver/Inc/stm32g4xx_ll_exti.h ****   *         @arg @ref LL_EXTI_LINE_14
 750:Drivers/STM32G4xx_HAL_Driver/Inc/stm32g4xx_ll_exti.h ****   *         @arg @ref LL_EXTI_LINE_15
 751:Drivers/STM32G4xx_HAL_Driver/Inc/stm32g4xx_ll_exti.h ****   *         @arg @ref LL_EXTI_LINE_16
 752:Drivers/STM32G4xx_HAL_Driver/Inc/stm32g4xx_ll_exti.h ****   *         @arg @ref LL_EXTI_LINE_18
 753:Drivers/STM32G4xx_HAL_Driver/Inc/stm32g4xx_ll_exti.h ****   *         @arg @ref LL_EXTI_LINE_19
 754:Drivers/STM32G4xx_HAL_Driver/Inc/stm32g4xx_ll_exti.h ****   *         @arg @ref LL_EXTI_LINE_20
 755:Drivers/STM32G4xx_HAL_Driver/Inc/stm32g4xx_ll_exti.h ****   *         @arg @ref LL_EXTI_LINE_21
 756:Drivers/STM32G4xx_HAL_Driver/Inc/stm32g4xx_ll_exti.h ****   *         @arg @ref LL_EXTI_LINE_22
 757:Drivers/STM32G4xx_HAL_Driver/Inc/stm32g4xx_ll_exti.h ****   *         @arg @ref LL_EXTI_LINE_29
 758:Drivers/STM32G4xx_HAL_Driver/Inc/stm32g4xx_ll_exti.h ****   *         @arg @ref LL_EXTI_LINE_30
 759:Drivers/STM32G4xx_HAL_Driver/Inc/stm32g4xx_ll_exti.h ****   *         @arg @ref LL_EXTI_LINE_31 (*)
 760:Drivers/STM32G4xx_HAL_Driver/Inc/stm32g4xx_ll_exti.h ****   * @note   (*): Available in some devices
 761:Drivers/STM32G4xx_HAL_Driver/Inc/stm32g4xx_ll_exti.h ****   * @note   Please check each device line mapping for EXTI Line availability
 762:Drivers/STM32G4xx_HAL_Driver/Inc/stm32g4xx_ll_exti.h ****   * @retval None
 763:Drivers/STM32G4xx_HAL_Driver/Inc/stm32g4xx_ll_exti.h ****   */
 764:Drivers/STM32G4xx_HAL_Driver/Inc/stm32g4xx_ll_exti.h **** __STATIC_INLINE void LL_EXTI_EnableRisingTrig_0_31(uint32_t ExtiLine)
 765:Drivers/STM32G4xx_HAL_Driver/Inc/stm32g4xx_ll_exti.h **** {
 766:Drivers/STM32G4xx_HAL_Driver/Inc/stm32g4xx_ll_exti.h ****   SET_BIT(EXTI->RTSR1, ExtiLine);
 767:Drivers/STM32G4xx_HAL_Driver/Inc/stm32g4xx_ll_exti.h **** 
 768:Drivers/STM32G4xx_HAL_Driver/Inc/stm32g4xx_ll_exti.h **** }
 769:Drivers/STM32G4xx_HAL_Driver/Inc/stm32g4xx_ll_exti.h **** 
 770:Drivers/STM32G4xx_HAL_Driver/Inc/stm32g4xx_ll_exti.h **** /**
 771:Drivers/STM32G4xx_HAL_Driver/Inc/stm32g4xx_ll_exti.h ****   * @brief  Enable ExtiLine Rising Edge Trigger for Lines in range 32 to 63
 772:Drivers/STM32G4xx_HAL_Driver/Inc/stm32g4xx_ll_exti.h ****   * @note The configurable wakeup lines are edge-triggered. No glitch must be
 773:Drivers/STM32G4xx_HAL_Driver/Inc/stm32g4xx_ll_exti.h ****   *       generated on these lines. If a rising edge on a configurable interrupt
 774:Drivers/STM32G4xx_HAL_Driver/Inc/stm32g4xx_ll_exti.h ****   *       line occurs during a write operation in the EXTI_RTSR register, the
ARM GAS  /tmp/ccnaf6G9.s 			page 29


 775:Drivers/STM32G4xx_HAL_Driver/Inc/stm32g4xx_ll_exti.h ****   *       pending bit is not set.Rising and falling edge triggers can be set for
 776:Drivers/STM32G4xx_HAL_Driver/Inc/stm32g4xx_ll_exti.h ****   *       the same interrupt line. In this case, both generate a trigger
 777:Drivers/STM32G4xx_HAL_Driver/Inc/stm32g4xx_ll_exti.h ****   *       condition.
 778:Drivers/STM32G4xx_HAL_Driver/Inc/stm32g4xx_ll_exti.h ****   * @rmtoll RTSR2        RTx           LL_EXTI_EnableRisingTrig_32_63
 779:Drivers/STM32G4xx_HAL_Driver/Inc/stm32g4xx_ll_exti.h ****   * @param  ExtiLine This parameter can be a combination of the following values:
 780:Drivers/STM32G4xx_HAL_Driver/Inc/stm32g4xx_ll_exti.h ****   *         @arg @ref LL_EXTI_LINE_32 (*)
 781:Drivers/STM32G4xx_HAL_Driver/Inc/stm32g4xx_ll_exti.h ****   *         @arg @ref LL_EXTI_LINE_33 (*)
 782:Drivers/STM32G4xx_HAL_Driver/Inc/stm32g4xx_ll_exti.h ****   *         @arg @ref LL_EXTI_LINE_38
 783:Drivers/STM32G4xx_HAL_Driver/Inc/stm32g4xx_ll_exti.h ****   *         @arg @ref LL_EXTI_LINE_39
 784:Drivers/STM32G4xx_HAL_Driver/Inc/stm32g4xx_ll_exti.h ****   *         @arg @ref LL_EXTI_LINE_40
 785:Drivers/STM32G4xx_HAL_Driver/Inc/stm32g4xx_ll_exti.h ****   *         @arg @ref LL_EXTI_LINE_41
 786:Drivers/STM32G4xx_HAL_Driver/Inc/stm32g4xx_ll_exti.h ****   * @note   (*): Available in some devices
 787:Drivers/STM32G4xx_HAL_Driver/Inc/stm32g4xx_ll_exti.h ****   * @retval None
 788:Drivers/STM32G4xx_HAL_Driver/Inc/stm32g4xx_ll_exti.h ****   */
 789:Drivers/STM32G4xx_HAL_Driver/Inc/stm32g4xx_ll_exti.h **** __STATIC_INLINE void LL_EXTI_EnableRisingTrig_32_63(uint32_t ExtiLine)
 790:Drivers/STM32G4xx_HAL_Driver/Inc/stm32g4xx_ll_exti.h **** {
 791:Drivers/STM32G4xx_HAL_Driver/Inc/stm32g4xx_ll_exti.h ****   SET_BIT(EXTI->RTSR2, ExtiLine);
 792:Drivers/STM32G4xx_HAL_Driver/Inc/stm32g4xx_ll_exti.h **** }
 793:Drivers/STM32G4xx_HAL_Driver/Inc/stm32g4xx_ll_exti.h **** 
 794:Drivers/STM32G4xx_HAL_Driver/Inc/stm32g4xx_ll_exti.h **** /**
 795:Drivers/STM32G4xx_HAL_Driver/Inc/stm32g4xx_ll_exti.h ****   * @brief  Disable ExtiLine Rising Edge Trigger for Lines in range 0 to 31
 796:Drivers/STM32G4xx_HAL_Driver/Inc/stm32g4xx_ll_exti.h ****   * @note The configurable wakeup lines are edge-triggered. No glitch must be
 797:Drivers/STM32G4xx_HAL_Driver/Inc/stm32g4xx_ll_exti.h ****   *       generated on these lines. If a rising edge on a configurable interrupt
 798:Drivers/STM32G4xx_HAL_Driver/Inc/stm32g4xx_ll_exti.h ****   *       line occurs during a write operation in the EXTI_RTSR register, the
 799:Drivers/STM32G4xx_HAL_Driver/Inc/stm32g4xx_ll_exti.h ****   *       pending bit is not set.
 800:Drivers/STM32G4xx_HAL_Driver/Inc/stm32g4xx_ll_exti.h ****   *       Rising and falling edge triggers can be set for
 801:Drivers/STM32G4xx_HAL_Driver/Inc/stm32g4xx_ll_exti.h ****   *       the same interrupt line. In this case, both generate a trigger
 802:Drivers/STM32G4xx_HAL_Driver/Inc/stm32g4xx_ll_exti.h ****   *       condition.
 803:Drivers/STM32G4xx_HAL_Driver/Inc/stm32g4xx_ll_exti.h ****   * @rmtoll RTSR1        RTx           LL_EXTI_DisableRisingTrig_0_31
 804:Drivers/STM32G4xx_HAL_Driver/Inc/stm32g4xx_ll_exti.h ****   * @param  ExtiLine This parameter can be a combination of the following values:
 805:Drivers/STM32G4xx_HAL_Driver/Inc/stm32g4xx_ll_exti.h ****   *         @arg @ref LL_EXTI_LINE_0
 806:Drivers/STM32G4xx_HAL_Driver/Inc/stm32g4xx_ll_exti.h ****   *         @arg @ref LL_EXTI_LINE_1
 807:Drivers/STM32G4xx_HAL_Driver/Inc/stm32g4xx_ll_exti.h ****   *         @arg @ref LL_EXTI_LINE_2
 808:Drivers/STM32G4xx_HAL_Driver/Inc/stm32g4xx_ll_exti.h ****   *         @arg @ref LL_EXTI_LINE_3
 809:Drivers/STM32G4xx_HAL_Driver/Inc/stm32g4xx_ll_exti.h ****   *         @arg @ref LL_EXTI_LINE_4
 810:Drivers/STM32G4xx_HAL_Driver/Inc/stm32g4xx_ll_exti.h ****   *         @arg @ref LL_EXTI_LINE_5
 811:Drivers/STM32G4xx_HAL_Driver/Inc/stm32g4xx_ll_exti.h ****   *         @arg @ref LL_EXTI_LINE_6
 812:Drivers/STM32G4xx_HAL_Driver/Inc/stm32g4xx_ll_exti.h ****   *         @arg @ref LL_EXTI_LINE_7
 813:Drivers/STM32G4xx_HAL_Driver/Inc/stm32g4xx_ll_exti.h ****   *         @arg @ref LL_EXTI_LINE_8
 814:Drivers/STM32G4xx_HAL_Driver/Inc/stm32g4xx_ll_exti.h ****   *         @arg @ref LL_EXTI_LINE_9
 815:Drivers/STM32G4xx_HAL_Driver/Inc/stm32g4xx_ll_exti.h ****   *         @arg @ref LL_EXTI_LINE_10
 816:Drivers/STM32G4xx_HAL_Driver/Inc/stm32g4xx_ll_exti.h ****   *         @arg @ref LL_EXTI_LINE_11
 817:Drivers/STM32G4xx_HAL_Driver/Inc/stm32g4xx_ll_exti.h ****   *         @arg @ref LL_EXTI_LINE_12
 818:Drivers/STM32G4xx_HAL_Driver/Inc/stm32g4xx_ll_exti.h ****   *         @arg @ref LL_EXTI_LINE_13
 819:Drivers/STM32G4xx_HAL_Driver/Inc/stm32g4xx_ll_exti.h ****   *         @arg @ref LL_EXTI_LINE_14
 820:Drivers/STM32G4xx_HAL_Driver/Inc/stm32g4xx_ll_exti.h ****   *         @arg @ref LL_EXTI_LINE_15
 821:Drivers/STM32G4xx_HAL_Driver/Inc/stm32g4xx_ll_exti.h ****   *         @arg @ref LL_EXTI_LINE_16
 822:Drivers/STM32G4xx_HAL_Driver/Inc/stm32g4xx_ll_exti.h ****   *         @arg @ref LL_EXTI_LINE_18
 823:Drivers/STM32G4xx_HAL_Driver/Inc/stm32g4xx_ll_exti.h ****   *         @arg @ref LL_EXTI_LINE_19
 824:Drivers/STM32G4xx_HAL_Driver/Inc/stm32g4xx_ll_exti.h ****   *         @arg @ref LL_EXTI_LINE_20
 825:Drivers/STM32G4xx_HAL_Driver/Inc/stm32g4xx_ll_exti.h ****   *         @arg @ref LL_EXTI_LINE_21
 826:Drivers/STM32G4xx_HAL_Driver/Inc/stm32g4xx_ll_exti.h ****   *         @arg @ref LL_EXTI_LINE_22
 827:Drivers/STM32G4xx_HAL_Driver/Inc/stm32g4xx_ll_exti.h ****   *         @arg @ref LL_EXTI_LINE_29
 828:Drivers/STM32G4xx_HAL_Driver/Inc/stm32g4xx_ll_exti.h ****   *         @arg @ref LL_EXTI_LINE_30
 829:Drivers/STM32G4xx_HAL_Driver/Inc/stm32g4xx_ll_exti.h ****   *         @arg @ref LL_EXTI_LINE_31 (*)
 830:Drivers/STM32G4xx_HAL_Driver/Inc/stm32g4xx_ll_exti.h ****   * @note   (*): Available in some devices
 831:Drivers/STM32G4xx_HAL_Driver/Inc/stm32g4xx_ll_exti.h ****   * @note   Please check each device line mapping for EXTI Line availability
ARM GAS  /tmp/ccnaf6G9.s 			page 30


 832:Drivers/STM32G4xx_HAL_Driver/Inc/stm32g4xx_ll_exti.h ****   * @retval None
 833:Drivers/STM32G4xx_HAL_Driver/Inc/stm32g4xx_ll_exti.h ****   */
 834:Drivers/STM32G4xx_HAL_Driver/Inc/stm32g4xx_ll_exti.h **** __STATIC_INLINE void LL_EXTI_DisableRisingTrig_0_31(uint32_t ExtiLine)
 484              		.loc 2 834 22 view .LVU142
 485              	.LBB91:
 835:Drivers/STM32G4xx_HAL_Driver/Inc/stm32g4xx_ll_exti.h **** {
 836:Drivers/STM32G4xx_HAL_Driver/Inc/stm32g4xx_ll_exti.h ****   CLEAR_BIT(EXTI->RTSR1, ExtiLine);
 486              		.loc 2 836 3 view .LVU143
 487 0104 1849     		ldr	r1, .L43
 488 0106 8C68     		ldr	r4, [r1, #8]
 489 0108 24EA0304 		bic	r4, r4, r3
 490              	.LVL26:
 491              	.L36:
 492              		.loc 2 836 3 is_stmt 0 view .LVU144
 493              	.LBE91:
 494              	.LBE90:
 495              	.LBB92:
 496              	.LBB93:
 766:Drivers/STM32G4xx_HAL_Driver/Inc/stm32g4xx_ll_exti.h **** 
 497              		.loc 2 766 3 view .LVU145
 498 010c 8C60     		str	r4, [r1, #8]
 499              	.LBE93:
 500              	.LBE92:
 184:Drivers/STM32G4xx_HAL_Driver/Src/stm32g4xx_ll_exti.c ****             break;
 501              		.loc 1 184 13 is_stmt 1 view .LVU146
 502              	.LVL27:
 503              	.LBB95:
 504              	.LBI95:
 837:Drivers/STM32G4xx_HAL_Driver/Inc/stm32g4xx_ll_exti.h **** 
 838:Drivers/STM32G4xx_HAL_Driver/Inc/stm32g4xx_ll_exti.h **** }
 839:Drivers/STM32G4xx_HAL_Driver/Inc/stm32g4xx_ll_exti.h **** 
 840:Drivers/STM32G4xx_HAL_Driver/Inc/stm32g4xx_ll_exti.h **** /**
 841:Drivers/STM32G4xx_HAL_Driver/Inc/stm32g4xx_ll_exti.h ****   * @brief  Disable ExtiLine Rising Edge Trigger for Lines in range 32 to 63
 842:Drivers/STM32G4xx_HAL_Driver/Inc/stm32g4xx_ll_exti.h ****   * @note The configurable wakeup lines are edge-triggered. No glitch must be
 843:Drivers/STM32G4xx_HAL_Driver/Inc/stm32g4xx_ll_exti.h ****   *       generated on these lines. If a rising edge on a configurable interrupt
 844:Drivers/STM32G4xx_HAL_Driver/Inc/stm32g4xx_ll_exti.h ****   *       line occurs during a write operation in the EXTI_RTSR register, the
 845:Drivers/STM32G4xx_HAL_Driver/Inc/stm32g4xx_ll_exti.h ****   *       pending bit is not set.
 846:Drivers/STM32G4xx_HAL_Driver/Inc/stm32g4xx_ll_exti.h ****   *       Rising and falling edge triggers can be set for
 847:Drivers/STM32G4xx_HAL_Driver/Inc/stm32g4xx_ll_exti.h ****   *       the same interrupt line. In this case, both generate a trigger
 848:Drivers/STM32G4xx_HAL_Driver/Inc/stm32g4xx_ll_exti.h ****   *       condition.
 849:Drivers/STM32G4xx_HAL_Driver/Inc/stm32g4xx_ll_exti.h ****   * @rmtoll RTSR2        RTx           LL_EXTI_DisableRisingTrig_32_63
 850:Drivers/STM32G4xx_HAL_Driver/Inc/stm32g4xx_ll_exti.h ****   * @param  ExtiLine This parameter can be a combination of the following values:
 851:Drivers/STM32G4xx_HAL_Driver/Inc/stm32g4xx_ll_exti.h ****   *         @arg @ref LL_EXTI_LINE_32 (*)
 852:Drivers/STM32G4xx_HAL_Driver/Inc/stm32g4xx_ll_exti.h ****   *         @arg @ref LL_EXTI_LINE_33 (*)
 853:Drivers/STM32G4xx_HAL_Driver/Inc/stm32g4xx_ll_exti.h ****   *         @arg @ref LL_EXTI_LINE_38
 854:Drivers/STM32G4xx_HAL_Driver/Inc/stm32g4xx_ll_exti.h ****   *         @arg @ref LL_EXTI_LINE_39
 855:Drivers/STM32G4xx_HAL_Driver/Inc/stm32g4xx_ll_exti.h ****   *         @arg @ref LL_EXTI_LINE_40
 856:Drivers/STM32G4xx_HAL_Driver/Inc/stm32g4xx_ll_exti.h ****   *         @arg @ref LL_EXTI_LINE_41
 857:Drivers/STM32G4xx_HAL_Driver/Inc/stm32g4xx_ll_exti.h ****   * @note   (*): Available in some devices
 858:Drivers/STM32G4xx_HAL_Driver/Inc/stm32g4xx_ll_exti.h ****   * @retval None
 859:Drivers/STM32G4xx_HAL_Driver/Inc/stm32g4xx_ll_exti.h ****   */
 860:Drivers/STM32G4xx_HAL_Driver/Inc/stm32g4xx_ll_exti.h **** __STATIC_INLINE void LL_EXTI_DisableRisingTrig_32_63(uint32_t ExtiLine)
 861:Drivers/STM32G4xx_HAL_Driver/Inc/stm32g4xx_ll_exti.h **** {
 862:Drivers/STM32G4xx_HAL_Driver/Inc/stm32g4xx_ll_exti.h ****   CLEAR_BIT(EXTI->RTSR2, ExtiLine);
 863:Drivers/STM32G4xx_HAL_Driver/Inc/stm32g4xx_ll_exti.h **** }
 864:Drivers/STM32G4xx_HAL_Driver/Inc/stm32g4xx_ll_exti.h **** 
 865:Drivers/STM32G4xx_HAL_Driver/Inc/stm32g4xx_ll_exti.h **** /**
ARM GAS  /tmp/ccnaf6G9.s 			page 31


 866:Drivers/STM32G4xx_HAL_Driver/Inc/stm32g4xx_ll_exti.h ****   * @brief  Check if rising edge trigger is enabled for Lines in range 0 to 31
 867:Drivers/STM32G4xx_HAL_Driver/Inc/stm32g4xx_ll_exti.h ****   * @rmtoll RTSR1        RTx           LL_EXTI_IsEnabledRisingTrig_0_31
 868:Drivers/STM32G4xx_HAL_Driver/Inc/stm32g4xx_ll_exti.h ****   * @param  ExtiLine This parameter can be a combination of the following values:
 869:Drivers/STM32G4xx_HAL_Driver/Inc/stm32g4xx_ll_exti.h ****   *         @arg @ref LL_EXTI_LINE_0
 870:Drivers/STM32G4xx_HAL_Driver/Inc/stm32g4xx_ll_exti.h ****   *         @arg @ref LL_EXTI_LINE_1
 871:Drivers/STM32G4xx_HAL_Driver/Inc/stm32g4xx_ll_exti.h ****   *         @arg @ref LL_EXTI_LINE_2
 872:Drivers/STM32G4xx_HAL_Driver/Inc/stm32g4xx_ll_exti.h ****   *         @arg @ref LL_EXTI_LINE_3
 873:Drivers/STM32G4xx_HAL_Driver/Inc/stm32g4xx_ll_exti.h ****   *         @arg @ref LL_EXTI_LINE_4
 874:Drivers/STM32G4xx_HAL_Driver/Inc/stm32g4xx_ll_exti.h ****   *         @arg @ref LL_EXTI_LINE_5
 875:Drivers/STM32G4xx_HAL_Driver/Inc/stm32g4xx_ll_exti.h ****   *         @arg @ref LL_EXTI_LINE_6
 876:Drivers/STM32G4xx_HAL_Driver/Inc/stm32g4xx_ll_exti.h ****   *         @arg @ref LL_EXTI_LINE_7
 877:Drivers/STM32G4xx_HAL_Driver/Inc/stm32g4xx_ll_exti.h ****   *         @arg @ref LL_EXTI_LINE_8
 878:Drivers/STM32G4xx_HAL_Driver/Inc/stm32g4xx_ll_exti.h ****   *         @arg @ref LL_EXTI_LINE_9
 879:Drivers/STM32G4xx_HAL_Driver/Inc/stm32g4xx_ll_exti.h ****   *         @arg @ref LL_EXTI_LINE_10
 880:Drivers/STM32G4xx_HAL_Driver/Inc/stm32g4xx_ll_exti.h ****   *         @arg @ref LL_EXTI_LINE_11
 881:Drivers/STM32G4xx_HAL_Driver/Inc/stm32g4xx_ll_exti.h ****   *         @arg @ref LL_EXTI_LINE_12
 882:Drivers/STM32G4xx_HAL_Driver/Inc/stm32g4xx_ll_exti.h ****   *         @arg @ref LL_EXTI_LINE_13
 883:Drivers/STM32G4xx_HAL_Driver/Inc/stm32g4xx_ll_exti.h ****   *         @arg @ref LL_EXTI_LINE_14
 884:Drivers/STM32G4xx_HAL_Driver/Inc/stm32g4xx_ll_exti.h ****   *         @arg @ref LL_EXTI_LINE_15
 885:Drivers/STM32G4xx_HAL_Driver/Inc/stm32g4xx_ll_exti.h ****   *         @arg @ref LL_EXTI_LINE_16
 886:Drivers/STM32G4xx_HAL_Driver/Inc/stm32g4xx_ll_exti.h ****   *         @arg @ref LL_EXTI_LINE_18
 887:Drivers/STM32G4xx_HAL_Driver/Inc/stm32g4xx_ll_exti.h ****   *         @arg @ref LL_EXTI_LINE_19
 888:Drivers/STM32G4xx_HAL_Driver/Inc/stm32g4xx_ll_exti.h ****   *         @arg @ref LL_EXTI_LINE_20
 889:Drivers/STM32G4xx_HAL_Driver/Inc/stm32g4xx_ll_exti.h ****   *         @arg @ref LL_EXTI_LINE_21
 890:Drivers/STM32G4xx_HAL_Driver/Inc/stm32g4xx_ll_exti.h ****   *         @arg @ref LL_EXTI_LINE_22
 891:Drivers/STM32G4xx_HAL_Driver/Inc/stm32g4xx_ll_exti.h ****   *         @arg @ref LL_EXTI_LINE_29
 892:Drivers/STM32G4xx_HAL_Driver/Inc/stm32g4xx_ll_exti.h ****   *         @arg @ref LL_EXTI_LINE_30
 893:Drivers/STM32G4xx_HAL_Driver/Inc/stm32g4xx_ll_exti.h ****   *         @arg @ref LL_EXTI_LINE_31 (*)
 894:Drivers/STM32G4xx_HAL_Driver/Inc/stm32g4xx_ll_exti.h ****   * @note   (*): Available in some devices
 895:Drivers/STM32G4xx_HAL_Driver/Inc/stm32g4xx_ll_exti.h ****   * @note   Please check each device line mapping for EXTI Line availability
 896:Drivers/STM32G4xx_HAL_Driver/Inc/stm32g4xx_ll_exti.h ****   * @retval State of bit (1 or 0).
 897:Drivers/STM32G4xx_HAL_Driver/Inc/stm32g4xx_ll_exti.h ****   */
 898:Drivers/STM32G4xx_HAL_Driver/Inc/stm32g4xx_ll_exti.h **** __STATIC_INLINE uint32_t LL_EXTI_IsEnabledRisingTrig_0_31(uint32_t ExtiLine)
 899:Drivers/STM32G4xx_HAL_Driver/Inc/stm32g4xx_ll_exti.h **** {
 900:Drivers/STM32G4xx_HAL_Driver/Inc/stm32g4xx_ll_exti.h ****   return ((READ_BIT(EXTI->RTSR1, ExtiLine) == (ExtiLine)) ? 1UL : 0UL);
 901:Drivers/STM32G4xx_HAL_Driver/Inc/stm32g4xx_ll_exti.h **** }
 902:Drivers/STM32G4xx_HAL_Driver/Inc/stm32g4xx_ll_exti.h **** 
 903:Drivers/STM32G4xx_HAL_Driver/Inc/stm32g4xx_ll_exti.h **** /**
 904:Drivers/STM32G4xx_HAL_Driver/Inc/stm32g4xx_ll_exti.h ****   * @brief  Check if rising edge trigger is enabled for Lines in range 32 to 63
 905:Drivers/STM32G4xx_HAL_Driver/Inc/stm32g4xx_ll_exti.h ****   * @rmtoll RTSR2        RTx           LL_EXTI_IsEnabledRisingTrig_32_63
 906:Drivers/STM32G4xx_HAL_Driver/Inc/stm32g4xx_ll_exti.h ****   * @param  ExtiLine This parameter can be a combination of the following values:
 907:Drivers/STM32G4xx_HAL_Driver/Inc/stm32g4xx_ll_exti.h ****   *         @arg @ref LL_EXTI_LINE_32 (*)
 908:Drivers/STM32G4xx_HAL_Driver/Inc/stm32g4xx_ll_exti.h ****   *         @arg @ref LL_EXTI_LINE_33 (*)
 909:Drivers/STM32G4xx_HAL_Driver/Inc/stm32g4xx_ll_exti.h ****   *         @arg @ref LL_EXTI_LINE_38
 910:Drivers/STM32G4xx_HAL_Driver/Inc/stm32g4xx_ll_exti.h ****   *         @arg @ref LL_EXTI_LINE_39
 911:Drivers/STM32G4xx_HAL_Driver/Inc/stm32g4xx_ll_exti.h ****   *         @arg @ref LL_EXTI_LINE_40
 912:Drivers/STM32G4xx_HAL_Driver/Inc/stm32g4xx_ll_exti.h ****   *         @arg @ref LL_EXTI_LINE_41
 913:Drivers/STM32G4xx_HAL_Driver/Inc/stm32g4xx_ll_exti.h ****   * @note   (*): Available in some devices
 914:Drivers/STM32G4xx_HAL_Driver/Inc/stm32g4xx_ll_exti.h ****   * @retval State of bit (1 or 0).
 915:Drivers/STM32G4xx_HAL_Driver/Inc/stm32g4xx_ll_exti.h ****   */
 916:Drivers/STM32G4xx_HAL_Driver/Inc/stm32g4xx_ll_exti.h **** __STATIC_INLINE uint32_t LL_EXTI_IsEnabledRisingTrig_32_63(uint32_t ExtiLine)
 917:Drivers/STM32G4xx_HAL_Driver/Inc/stm32g4xx_ll_exti.h **** {
 918:Drivers/STM32G4xx_HAL_Driver/Inc/stm32g4xx_ll_exti.h ****   return ((READ_BIT(EXTI->RTSR2, ExtiLine) == (ExtiLine)) ? 1UL : 0UL);
 919:Drivers/STM32G4xx_HAL_Driver/Inc/stm32g4xx_ll_exti.h **** }
 920:Drivers/STM32G4xx_HAL_Driver/Inc/stm32g4xx_ll_exti.h **** 
 921:Drivers/STM32G4xx_HAL_Driver/Inc/stm32g4xx_ll_exti.h **** /**
 922:Drivers/STM32G4xx_HAL_Driver/Inc/stm32g4xx_ll_exti.h ****   * @}
ARM GAS  /tmp/ccnaf6G9.s 			page 32


 923:Drivers/STM32G4xx_HAL_Driver/Inc/stm32g4xx_ll_exti.h ****   */
 924:Drivers/STM32G4xx_HAL_Driver/Inc/stm32g4xx_ll_exti.h **** 
 925:Drivers/STM32G4xx_HAL_Driver/Inc/stm32g4xx_ll_exti.h **** /** @defgroup EXTI_LL_EF_Falling_Trigger_Management Falling_Trigger_Management
 926:Drivers/STM32G4xx_HAL_Driver/Inc/stm32g4xx_ll_exti.h ****   * @{
 927:Drivers/STM32G4xx_HAL_Driver/Inc/stm32g4xx_ll_exti.h ****   */
 928:Drivers/STM32G4xx_HAL_Driver/Inc/stm32g4xx_ll_exti.h **** 
 929:Drivers/STM32G4xx_HAL_Driver/Inc/stm32g4xx_ll_exti.h **** /**
 930:Drivers/STM32G4xx_HAL_Driver/Inc/stm32g4xx_ll_exti.h ****   * @brief  Enable ExtiLine Falling Edge Trigger for Lines in range 0 to 31
 931:Drivers/STM32G4xx_HAL_Driver/Inc/stm32g4xx_ll_exti.h ****   * @note The configurable wakeup lines are edge-triggered. No glitch must be
 932:Drivers/STM32G4xx_HAL_Driver/Inc/stm32g4xx_ll_exti.h ****   *       generated on these lines. If a falling edge on a configurable interrupt
 933:Drivers/STM32G4xx_HAL_Driver/Inc/stm32g4xx_ll_exti.h ****   *       line occurs during a write operation in the EXTI_FTSR register, the
 934:Drivers/STM32G4xx_HAL_Driver/Inc/stm32g4xx_ll_exti.h ****   *       pending bit is not set.
 935:Drivers/STM32G4xx_HAL_Driver/Inc/stm32g4xx_ll_exti.h ****   *       Rising and falling edge triggers can be set for
 936:Drivers/STM32G4xx_HAL_Driver/Inc/stm32g4xx_ll_exti.h ****   *       the same interrupt line. In this case, both generate a trigger
 937:Drivers/STM32G4xx_HAL_Driver/Inc/stm32g4xx_ll_exti.h ****   *       condition.
 938:Drivers/STM32G4xx_HAL_Driver/Inc/stm32g4xx_ll_exti.h ****   * @rmtoll FTSR1        FTx           LL_EXTI_EnableFallingTrig_0_31
 939:Drivers/STM32G4xx_HAL_Driver/Inc/stm32g4xx_ll_exti.h ****   * @param  ExtiLine This parameter can be a combination of the following values:
 940:Drivers/STM32G4xx_HAL_Driver/Inc/stm32g4xx_ll_exti.h ****   *         @arg @ref LL_EXTI_LINE_0
 941:Drivers/STM32G4xx_HAL_Driver/Inc/stm32g4xx_ll_exti.h ****   *         @arg @ref LL_EXTI_LINE_1
 942:Drivers/STM32G4xx_HAL_Driver/Inc/stm32g4xx_ll_exti.h ****   *         @arg @ref LL_EXTI_LINE_2
 943:Drivers/STM32G4xx_HAL_Driver/Inc/stm32g4xx_ll_exti.h ****   *         @arg @ref LL_EXTI_LINE_3
 944:Drivers/STM32G4xx_HAL_Driver/Inc/stm32g4xx_ll_exti.h ****   *         @arg @ref LL_EXTI_LINE_4
 945:Drivers/STM32G4xx_HAL_Driver/Inc/stm32g4xx_ll_exti.h ****   *         @arg @ref LL_EXTI_LINE_5
 946:Drivers/STM32G4xx_HAL_Driver/Inc/stm32g4xx_ll_exti.h ****   *         @arg @ref LL_EXTI_LINE_6
 947:Drivers/STM32G4xx_HAL_Driver/Inc/stm32g4xx_ll_exti.h ****   *         @arg @ref LL_EXTI_LINE_7
 948:Drivers/STM32G4xx_HAL_Driver/Inc/stm32g4xx_ll_exti.h ****   *         @arg @ref LL_EXTI_LINE_8
 949:Drivers/STM32G4xx_HAL_Driver/Inc/stm32g4xx_ll_exti.h ****   *         @arg @ref LL_EXTI_LINE_9
 950:Drivers/STM32G4xx_HAL_Driver/Inc/stm32g4xx_ll_exti.h ****   *         @arg @ref LL_EXTI_LINE_10
 951:Drivers/STM32G4xx_HAL_Driver/Inc/stm32g4xx_ll_exti.h ****   *         @arg @ref LL_EXTI_LINE_11
 952:Drivers/STM32G4xx_HAL_Driver/Inc/stm32g4xx_ll_exti.h ****   *         @arg @ref LL_EXTI_LINE_12
 953:Drivers/STM32G4xx_HAL_Driver/Inc/stm32g4xx_ll_exti.h ****   *         @arg @ref LL_EXTI_LINE_13
 954:Drivers/STM32G4xx_HAL_Driver/Inc/stm32g4xx_ll_exti.h ****   *         @arg @ref LL_EXTI_LINE_14
 955:Drivers/STM32G4xx_HAL_Driver/Inc/stm32g4xx_ll_exti.h ****   *         @arg @ref LL_EXTI_LINE_15
 956:Drivers/STM32G4xx_HAL_Driver/Inc/stm32g4xx_ll_exti.h ****   *         @arg @ref LL_EXTI_LINE_16
 957:Drivers/STM32G4xx_HAL_Driver/Inc/stm32g4xx_ll_exti.h ****   *         @arg @ref LL_EXTI_LINE_18
 958:Drivers/STM32G4xx_HAL_Driver/Inc/stm32g4xx_ll_exti.h ****   *         @arg @ref LL_EXTI_LINE_19
 959:Drivers/STM32G4xx_HAL_Driver/Inc/stm32g4xx_ll_exti.h ****   *         @arg @ref LL_EXTI_LINE_20
 960:Drivers/STM32G4xx_HAL_Driver/Inc/stm32g4xx_ll_exti.h ****   *         @arg @ref LL_EXTI_LINE_21
 961:Drivers/STM32G4xx_HAL_Driver/Inc/stm32g4xx_ll_exti.h ****   *         @arg @ref LL_EXTI_LINE_22
 962:Drivers/STM32G4xx_HAL_Driver/Inc/stm32g4xx_ll_exti.h ****   *         @arg @ref LL_EXTI_LINE_29
 963:Drivers/STM32G4xx_HAL_Driver/Inc/stm32g4xx_ll_exti.h ****   *         @arg @ref LL_EXTI_LINE_30
 964:Drivers/STM32G4xx_HAL_Driver/Inc/stm32g4xx_ll_exti.h ****   *         @arg @ref LL_EXTI_LINE_31 (*)
 965:Drivers/STM32G4xx_HAL_Driver/Inc/stm32g4xx_ll_exti.h ****   * @note   (*): Available in some devices
 966:Drivers/STM32G4xx_HAL_Driver/Inc/stm32g4xx_ll_exti.h ****   * @note   Please check each device line mapping for EXTI Line availability
 967:Drivers/STM32G4xx_HAL_Driver/Inc/stm32g4xx_ll_exti.h ****   * @retval None
 968:Drivers/STM32G4xx_HAL_Driver/Inc/stm32g4xx_ll_exti.h ****   */
 969:Drivers/STM32G4xx_HAL_Driver/Inc/stm32g4xx_ll_exti.h **** __STATIC_INLINE void LL_EXTI_EnableFallingTrig_0_31(uint32_t ExtiLine)
 505              		.loc 2 969 22 view .LVU147
 506              	.LBB96:
 970:Drivers/STM32G4xx_HAL_Driver/Inc/stm32g4xx_ll_exti.h **** {
 971:Drivers/STM32G4xx_HAL_Driver/Inc/stm32g4xx_ll_exti.h ****   SET_BIT(EXTI->FTSR1, ExtiLine);
 507              		.loc 2 971 3 view .LVU148
 508 010e CC68     		ldr	r4, [r1, #12]
 509 0110 2343     		orrs	r3, r3, r4
 510              	.LVL28:
 511              		.loc 2 971 3 is_stmt 0 view .LVU149
 512 0112 CB60     		str	r3, [r1, #12]
ARM GAS  /tmp/ccnaf6G9.s 			page 33


 972:Drivers/STM32G4xx_HAL_Driver/Inc/stm32g4xx_ll_exti.h **** }
 513              		.loc 2 972 1 view .LVU150
 514 0114 1346     		mov	r3, r2
 515 0116 8DE7     		b	.L8
 516              	.LVL29:
 517              	.L40:
 518              		.loc 2 972 1 view .LVU151
 519              	.LBE96:
 520              	.LBE95:
 225:Drivers/STM32G4xx_HAL_Driver/Src/stm32g4xx_ll_exti.c ****             /* Then Enable IT on provided Lines */
 521              		.loc 1 225 13 is_stmt 1 view .LVU152
 522              	.LBB97:
 523              	.LBI97:
 973:Drivers/STM32G4xx_HAL_Driver/Inc/stm32g4xx_ll_exti.h **** 
 974:Drivers/STM32G4xx_HAL_Driver/Inc/stm32g4xx_ll_exti.h **** /**
 975:Drivers/STM32G4xx_HAL_Driver/Inc/stm32g4xx_ll_exti.h ****   * @brief  Enable ExtiLine Falling Edge Trigger for Lines in range 32 to 63
 976:Drivers/STM32G4xx_HAL_Driver/Inc/stm32g4xx_ll_exti.h ****   * @note The configurable wakeup lines are edge-triggered. No glitch must be
 977:Drivers/STM32G4xx_HAL_Driver/Inc/stm32g4xx_ll_exti.h ****   *       generated on these lines. If a Falling edge on a configurable interrupt
 978:Drivers/STM32G4xx_HAL_Driver/Inc/stm32g4xx_ll_exti.h ****   *       line occurs during a write operation in the EXTI_FTSR register, the
 979:Drivers/STM32G4xx_HAL_Driver/Inc/stm32g4xx_ll_exti.h ****   *       pending bit is not set.
 980:Drivers/STM32G4xx_HAL_Driver/Inc/stm32g4xx_ll_exti.h ****   *       Rising and falling edge triggers can be set for
 981:Drivers/STM32G4xx_HAL_Driver/Inc/stm32g4xx_ll_exti.h ****   *       the same interrupt line. In this case, both generate a trigger
 982:Drivers/STM32G4xx_HAL_Driver/Inc/stm32g4xx_ll_exti.h ****   *       condition.
 983:Drivers/STM32G4xx_HAL_Driver/Inc/stm32g4xx_ll_exti.h ****   * @rmtoll FTSR2        FTx           LL_EXTI_EnableFallingTrig_32_63
 984:Drivers/STM32G4xx_HAL_Driver/Inc/stm32g4xx_ll_exti.h ****   * @param  ExtiLine This parameter can be a combination of the following values:
 985:Drivers/STM32G4xx_HAL_Driver/Inc/stm32g4xx_ll_exti.h ****   *         @arg @ref LL_EXTI_LINE_32 (*)
 986:Drivers/STM32G4xx_HAL_Driver/Inc/stm32g4xx_ll_exti.h ****   *         @arg @ref LL_EXTI_LINE_33 (*)
 987:Drivers/STM32G4xx_HAL_Driver/Inc/stm32g4xx_ll_exti.h ****   *         @arg @ref LL_EXTI_LINE_38
 988:Drivers/STM32G4xx_HAL_Driver/Inc/stm32g4xx_ll_exti.h ****   *         @arg @ref LL_EXTI_LINE_39
 989:Drivers/STM32G4xx_HAL_Driver/Inc/stm32g4xx_ll_exti.h ****   *         @arg @ref LL_EXTI_LINE_40
 990:Drivers/STM32G4xx_HAL_Driver/Inc/stm32g4xx_ll_exti.h ****   *         @arg @ref LL_EXTI_LINE_41
 991:Drivers/STM32G4xx_HAL_Driver/Inc/stm32g4xx_ll_exti.h ****   * @note   (*): Available in some devices
 992:Drivers/STM32G4xx_HAL_Driver/Inc/stm32g4xx_ll_exti.h ****   * @retval None
 993:Drivers/STM32G4xx_HAL_Driver/Inc/stm32g4xx_ll_exti.h ****   */
 994:Drivers/STM32G4xx_HAL_Driver/Inc/stm32g4xx_ll_exti.h **** __STATIC_INLINE void LL_EXTI_EnableFallingTrig_32_63(uint32_t ExtiLine)
 995:Drivers/STM32G4xx_HAL_Driver/Inc/stm32g4xx_ll_exti.h **** {
 996:Drivers/STM32G4xx_HAL_Driver/Inc/stm32g4xx_ll_exti.h ****   SET_BIT(EXTI->FTSR2, ExtiLine);
 997:Drivers/STM32G4xx_HAL_Driver/Inc/stm32g4xx_ll_exti.h **** }
 998:Drivers/STM32G4xx_HAL_Driver/Inc/stm32g4xx_ll_exti.h **** 
 999:Drivers/STM32G4xx_HAL_Driver/Inc/stm32g4xx_ll_exti.h **** /**
1000:Drivers/STM32G4xx_HAL_Driver/Inc/stm32g4xx_ll_exti.h ****   * @brief  Disable ExtiLine Falling Edge Trigger for Lines in range 0 to 31
1001:Drivers/STM32G4xx_HAL_Driver/Inc/stm32g4xx_ll_exti.h ****   * @note The configurable wakeup lines are edge-triggered. No glitch must be
1002:Drivers/STM32G4xx_HAL_Driver/Inc/stm32g4xx_ll_exti.h ****   *       generated on these lines. If a Falling edge on a configurable interrupt
1003:Drivers/STM32G4xx_HAL_Driver/Inc/stm32g4xx_ll_exti.h ****   *       line occurs during a write operation in the EXTI_FTSR register, the
1004:Drivers/STM32G4xx_HAL_Driver/Inc/stm32g4xx_ll_exti.h ****   *       pending bit is not set.
1005:Drivers/STM32G4xx_HAL_Driver/Inc/stm32g4xx_ll_exti.h ****   *       Rising and falling edge triggers can be set for the same interrupt line.
1006:Drivers/STM32G4xx_HAL_Driver/Inc/stm32g4xx_ll_exti.h ****   *       In this case, both generate a trigger condition.
1007:Drivers/STM32G4xx_HAL_Driver/Inc/stm32g4xx_ll_exti.h ****   * @rmtoll FTSR1        FTx           LL_EXTI_DisableFallingTrig_0_31
1008:Drivers/STM32G4xx_HAL_Driver/Inc/stm32g4xx_ll_exti.h ****   * @param  ExtiLine This parameter can be a combination of the following values:
1009:Drivers/STM32G4xx_HAL_Driver/Inc/stm32g4xx_ll_exti.h ****   *         @arg @ref LL_EXTI_LINE_0
1010:Drivers/STM32G4xx_HAL_Driver/Inc/stm32g4xx_ll_exti.h ****   *         @arg @ref LL_EXTI_LINE_1
1011:Drivers/STM32G4xx_HAL_Driver/Inc/stm32g4xx_ll_exti.h ****   *         @arg @ref LL_EXTI_LINE_2
1012:Drivers/STM32G4xx_HAL_Driver/Inc/stm32g4xx_ll_exti.h ****   *         @arg @ref LL_EXTI_LINE_3
1013:Drivers/STM32G4xx_HAL_Driver/Inc/stm32g4xx_ll_exti.h ****   *         @arg @ref LL_EXTI_LINE_4
1014:Drivers/STM32G4xx_HAL_Driver/Inc/stm32g4xx_ll_exti.h ****   *         @arg @ref LL_EXTI_LINE_5
1015:Drivers/STM32G4xx_HAL_Driver/Inc/stm32g4xx_ll_exti.h ****   *         @arg @ref LL_EXTI_LINE_6
1016:Drivers/STM32G4xx_HAL_Driver/Inc/stm32g4xx_ll_exti.h ****   *         @arg @ref LL_EXTI_LINE_7
ARM GAS  /tmp/ccnaf6G9.s 			page 34


1017:Drivers/STM32G4xx_HAL_Driver/Inc/stm32g4xx_ll_exti.h ****   *         @arg @ref LL_EXTI_LINE_8
1018:Drivers/STM32G4xx_HAL_Driver/Inc/stm32g4xx_ll_exti.h ****   *         @arg @ref LL_EXTI_LINE_9
1019:Drivers/STM32G4xx_HAL_Driver/Inc/stm32g4xx_ll_exti.h ****   *         @arg @ref LL_EXTI_LINE_10
1020:Drivers/STM32G4xx_HAL_Driver/Inc/stm32g4xx_ll_exti.h ****   *         @arg @ref LL_EXTI_LINE_11
1021:Drivers/STM32G4xx_HAL_Driver/Inc/stm32g4xx_ll_exti.h ****   *         @arg @ref LL_EXTI_LINE_12
1022:Drivers/STM32G4xx_HAL_Driver/Inc/stm32g4xx_ll_exti.h ****   *         @arg @ref LL_EXTI_LINE_13
1023:Drivers/STM32G4xx_HAL_Driver/Inc/stm32g4xx_ll_exti.h ****   *         @arg @ref LL_EXTI_LINE_14
1024:Drivers/STM32G4xx_HAL_Driver/Inc/stm32g4xx_ll_exti.h ****   *         @arg @ref LL_EXTI_LINE_15
1025:Drivers/STM32G4xx_HAL_Driver/Inc/stm32g4xx_ll_exti.h ****   *         @arg @ref LL_EXTI_LINE_16
1026:Drivers/STM32G4xx_HAL_Driver/Inc/stm32g4xx_ll_exti.h ****   *         @arg @ref LL_EXTI_LINE_18
1027:Drivers/STM32G4xx_HAL_Driver/Inc/stm32g4xx_ll_exti.h ****   *         @arg @ref LL_EXTI_LINE_19
1028:Drivers/STM32G4xx_HAL_Driver/Inc/stm32g4xx_ll_exti.h ****   *         @arg @ref LL_EXTI_LINE_20
1029:Drivers/STM32G4xx_HAL_Driver/Inc/stm32g4xx_ll_exti.h ****   *         @arg @ref LL_EXTI_LINE_21
1030:Drivers/STM32G4xx_HAL_Driver/Inc/stm32g4xx_ll_exti.h ****   *         @arg @ref LL_EXTI_LINE_22
1031:Drivers/STM32G4xx_HAL_Driver/Inc/stm32g4xx_ll_exti.h ****   *         @arg @ref LL_EXTI_LINE_29
1032:Drivers/STM32G4xx_HAL_Driver/Inc/stm32g4xx_ll_exti.h ****   *         @arg @ref LL_EXTI_LINE_30
1033:Drivers/STM32G4xx_HAL_Driver/Inc/stm32g4xx_ll_exti.h ****   *         @arg @ref LL_EXTI_LINE_31 (*)
1034:Drivers/STM32G4xx_HAL_Driver/Inc/stm32g4xx_ll_exti.h ****   * @note   (*): Available in some devices
1035:Drivers/STM32G4xx_HAL_Driver/Inc/stm32g4xx_ll_exti.h ****   * @note   Please check each device line mapping for EXTI Line availability
1036:Drivers/STM32G4xx_HAL_Driver/Inc/stm32g4xx_ll_exti.h ****   * @retval None
1037:Drivers/STM32G4xx_HAL_Driver/Inc/stm32g4xx_ll_exti.h ****   */
1038:Drivers/STM32G4xx_HAL_Driver/Inc/stm32g4xx_ll_exti.h **** __STATIC_INLINE void LL_EXTI_DisableFallingTrig_0_31(uint32_t ExtiLine)
1039:Drivers/STM32G4xx_HAL_Driver/Inc/stm32g4xx_ll_exti.h **** {
1040:Drivers/STM32G4xx_HAL_Driver/Inc/stm32g4xx_ll_exti.h ****   CLEAR_BIT(EXTI->FTSR1, ExtiLine);
1041:Drivers/STM32G4xx_HAL_Driver/Inc/stm32g4xx_ll_exti.h **** }
1042:Drivers/STM32G4xx_HAL_Driver/Inc/stm32g4xx_ll_exti.h **** 
1043:Drivers/STM32G4xx_HAL_Driver/Inc/stm32g4xx_ll_exti.h **** /**
1044:Drivers/STM32G4xx_HAL_Driver/Inc/stm32g4xx_ll_exti.h ****   * @brief  Disable ExtiLine Falling Edge Trigger for Lines in range 32 to 63
1045:Drivers/STM32G4xx_HAL_Driver/Inc/stm32g4xx_ll_exti.h ****   * @note The configurable wakeup lines are edge-triggered. No glitch must be
1046:Drivers/STM32G4xx_HAL_Driver/Inc/stm32g4xx_ll_exti.h ****   *       generated on these lines. If a Falling edge on a configurable interrupt
1047:Drivers/STM32G4xx_HAL_Driver/Inc/stm32g4xx_ll_exti.h ****   *       line occurs during a write operation in the EXTI_FTSR register, the
1048:Drivers/STM32G4xx_HAL_Driver/Inc/stm32g4xx_ll_exti.h ****   *       pending bit is not set.
1049:Drivers/STM32G4xx_HAL_Driver/Inc/stm32g4xx_ll_exti.h ****   *       Rising and falling edge triggers can be set for the same interrupt line.
1050:Drivers/STM32G4xx_HAL_Driver/Inc/stm32g4xx_ll_exti.h ****   *       In this case, both generate a trigger condition.
1051:Drivers/STM32G4xx_HAL_Driver/Inc/stm32g4xx_ll_exti.h ****   * @rmtoll FTSR2        FTx           LL_EXTI_DisableFallingTrig_32_63
1052:Drivers/STM32G4xx_HAL_Driver/Inc/stm32g4xx_ll_exti.h ****   * @param  ExtiLine This parameter can be a combination of the following values:
1053:Drivers/STM32G4xx_HAL_Driver/Inc/stm32g4xx_ll_exti.h ****   *         @arg @ref LL_EXTI_LINE_32 (*)
1054:Drivers/STM32G4xx_HAL_Driver/Inc/stm32g4xx_ll_exti.h ****   *         @arg @ref LL_EXTI_LINE_33 (*)
1055:Drivers/STM32G4xx_HAL_Driver/Inc/stm32g4xx_ll_exti.h ****   *         @arg @ref LL_EXTI_LINE_38
1056:Drivers/STM32G4xx_HAL_Driver/Inc/stm32g4xx_ll_exti.h ****   *         @arg @ref LL_EXTI_LINE_39
1057:Drivers/STM32G4xx_HAL_Driver/Inc/stm32g4xx_ll_exti.h ****   *         @arg @ref LL_EXTI_LINE_40
1058:Drivers/STM32G4xx_HAL_Driver/Inc/stm32g4xx_ll_exti.h ****   *         @arg @ref LL_EXTI_LINE_41
1059:Drivers/STM32G4xx_HAL_Driver/Inc/stm32g4xx_ll_exti.h ****   * @note   (*): Available in some devices
1060:Drivers/STM32G4xx_HAL_Driver/Inc/stm32g4xx_ll_exti.h ****   * @retval None
1061:Drivers/STM32G4xx_HAL_Driver/Inc/stm32g4xx_ll_exti.h ****   */
1062:Drivers/STM32G4xx_HAL_Driver/Inc/stm32g4xx_ll_exti.h **** __STATIC_INLINE void LL_EXTI_DisableFallingTrig_32_63(uint32_t ExtiLine)
 524              		.loc 2 1062 22 view .LVU153
 525              	.LBB98:
1063:Drivers/STM32G4xx_HAL_Driver/Inc/stm32g4xx_ll_exti.h **** {
1064:Drivers/STM32G4xx_HAL_Driver/Inc/stm32g4xx_ll_exti.h ****   CLEAR_BIT(EXTI->FTSR2, ExtiLine);
 526              		.loc 2 1064 3 view .LVU154
 527 0118 1349     		ldr	r1, .L43
 528 011a C86A     		ldr	r0, [r1, #44]
 529              	.LVL30:
 530              		.loc 2 1064 3 is_stmt 0 view .LVU155
 531 011c 20EA0200 		bic	r0, r0, r2
 532 0120 C862     		str	r0, [r1, #44]
ARM GAS  /tmp/ccnaf6G9.s 			page 35


 533              	.LVL31:
 534              		.loc 2 1064 3 view .LVU156
 535              	.LBE98:
 536              	.LBE97:
 227:Drivers/STM32G4xx_HAL_Driver/Src/stm32g4xx_ll_exti.c ****             break;
 537              		.loc 1 227 13 is_stmt 1 view .LVU157
 538              	.LBB99:
 539              	.LBI99:
 789:Drivers/STM32G4xx_HAL_Driver/Inc/stm32g4xx_ll_exti.h **** {
 540              		.loc 2 789 22 view .LVU158
 541              	.LBB100:
 791:Drivers/STM32G4xx_HAL_Driver/Inc/stm32g4xx_ll_exti.h **** }
 542              		.loc 2 791 3 view .LVU159
 543 0122 886A     		ldr	r0, [r1, #40]
 544 0124 0243     		orrs	r2, r2, r0
 545              	.LVL32:
 791:Drivers/STM32G4xx_HAL_Driver/Inc/stm32g4xx_ll_exti.h **** }
 546              		.loc 2 791 3 is_stmt 0 view .LVU160
 547 0126 8A62     		str	r2, [r1, #40]
 792:Drivers/STM32G4xx_HAL_Driver/Inc/stm32g4xx_ll_exti.h **** 
 548              		.loc 2 792 1 view .LVU161
 549 0128 98E7     		b	.L6
 550              	.LVL33:
 551              	.L21:
 792:Drivers/STM32G4xx_HAL_Driver/Inc/stm32g4xx_ll_exti.h **** 
 552              		.loc 2 792 1 view .LVU162
 553              	.LBE100:
 554              	.LBE99:
 237:Drivers/STM32G4xx_HAL_Driver/Src/stm32g4xx_ll_exti.c ****             /* Enable Falling Trigger on provided Lines */
 555              		.loc 1 237 13 is_stmt 1 view .LVU163
 556              	.LBB101:
 557              	.LBI101:
 789:Drivers/STM32G4xx_HAL_Driver/Inc/stm32g4xx_ll_exti.h **** {
 558              		.loc 2 789 22 view .LVU164
 559              	.LBB102:
 791:Drivers/STM32G4xx_HAL_Driver/Inc/stm32g4xx_ll_exti.h **** }
 560              		.loc 2 791 3 view .LVU165
 561 012a 0F49     		ldr	r1, .L43
 562 012c 886A     		ldr	r0, [r1, #40]
 563              	.LVL34:
 791:Drivers/STM32G4xx_HAL_Driver/Inc/stm32g4xx_ll_exti.h **** }
 564              		.loc 2 791 3 is_stmt 0 view .LVU166
 565 012e 1043     		orrs	r0, r0, r2
 566 0130 8862     		str	r0, [r1, #40]
 567              	.LVL35:
 791:Drivers/STM32G4xx_HAL_Driver/Inc/stm32g4xx_ll_exti.h **** }
 568              		.loc 2 791 3 view .LVU167
 569              	.LBE102:
 570              	.LBE101:
 239:Drivers/STM32G4xx_HAL_Driver/Src/stm32g4xx_ll_exti.c ****             break;
 571              		.loc 1 239 13 is_stmt 1 view .LVU168
 572              	.LBB103:
 573              	.LBI103:
 994:Drivers/STM32G4xx_HAL_Driver/Inc/stm32g4xx_ll_exti.h **** {
 574              		.loc 2 994 22 view .LVU169
 575              	.LBB104:
 996:Drivers/STM32G4xx_HAL_Driver/Inc/stm32g4xx_ll_exti.h **** }
ARM GAS  /tmp/ccnaf6G9.s 			page 36


 576              		.loc 2 996 3 view .LVU170
 577 0132 C86A     		ldr	r0, [r1, #44]
 578 0134 0243     		orrs	r2, r2, r0
 579              	.LVL36:
 996:Drivers/STM32G4xx_HAL_Driver/Inc/stm32g4xx_ll_exti.h **** }
 580              		.loc 2 996 3 is_stmt 0 view .LVU171
 581 0136 CA62     		str	r2, [r1, #44]
 997:Drivers/STM32G4xx_HAL_Driver/Inc/stm32g4xx_ll_exti.h **** 
 582              		.loc 2 997 1 view .LVU172
 583 0138 90E7     		b	.L6
 584              	.LVL37:
 585              	.L20:
 997:Drivers/STM32G4xx_HAL_Driver/Inc/stm32g4xx_ll_exti.h **** 
 586              		.loc 2 997 1 view .LVU173
 587              	.LBE104:
 588              	.LBE103:
 231:Drivers/STM32G4xx_HAL_Driver/Src/stm32g4xx_ll_exti.c ****             /* Then Enable Falling Trigger on provided Lines */
 589              		.loc 1 231 13 is_stmt 1 view .LVU174
 590              	.LBB105:
 591              	.LBI105:
 860:Drivers/STM32G4xx_HAL_Driver/Inc/stm32g4xx_ll_exti.h **** {
 592              		.loc 2 860 22 view .LVU175
 593              	.LBB106:
 862:Drivers/STM32G4xx_HAL_Driver/Inc/stm32g4xx_ll_exti.h **** }
 594              		.loc 2 862 3 view .LVU176
 595 013a 0B49     		ldr	r1, .L43
 596 013c 886A     		ldr	r0, [r1, #40]
 597              	.LVL38:
 862:Drivers/STM32G4xx_HAL_Driver/Inc/stm32g4xx_ll_exti.h **** }
 598              		.loc 2 862 3 is_stmt 0 view .LVU177
 599 013e 20EA0200 		bic	r0, r0, r2
 600 0142 8862     		str	r0, [r1, #40]
 601              	.LVL39:
 862:Drivers/STM32G4xx_HAL_Driver/Inc/stm32g4xx_ll_exti.h **** }
 602              		.loc 2 862 3 view .LVU178
 603              	.LBE106:
 604              	.LBE105:
 233:Drivers/STM32G4xx_HAL_Driver/Src/stm32g4xx_ll_exti.c ****             break;
 605              		.loc 1 233 13 is_stmt 1 view .LVU179
 606              	.LBB107:
 607              	.LBI107:
 994:Drivers/STM32G4xx_HAL_Driver/Inc/stm32g4xx_ll_exti.h **** {
 608              		.loc 2 994 22 view .LVU180
 609              	.LBB108:
 996:Drivers/STM32G4xx_HAL_Driver/Inc/stm32g4xx_ll_exti.h **** }
 610              		.loc 2 996 3 view .LVU181
 611 0144 C86A     		ldr	r0, [r1, #44]
 612 0146 0243     		orrs	r2, r2, r0
 613              	.LVL40:
 996:Drivers/STM32G4xx_HAL_Driver/Inc/stm32g4xx_ll_exti.h **** }
 614              		.loc 2 996 3 is_stmt 0 view .LVU182
 615 0148 CA62     		str	r2, [r1, #44]
 997:Drivers/STM32G4xx_HAL_Driver/Inc/stm32g4xx_ll_exti.h **** 
 616              		.loc 2 997 1 view .LVU183
 617 014a 87E7     		b	.L6
 618              	.LVL41:
 619              	.L38:
ARM GAS  /tmp/ccnaf6G9.s 			page 37


 997:Drivers/STM32G4xx_HAL_Driver/Inc/stm32g4xx_ll_exti.h **** 
 620              		.loc 2 997 1 view .LVU184
 621              	.LBE108:
 622              	.LBE107:
 170:Drivers/STM32G4xx_HAL_Driver/Src/stm32g4xx_ll_exti.c ****             /* Then Enable Rising Trigger on provided Lines */
 623              		.loc 1 170 13 is_stmt 1 view .LVU185
 624              	.LBB109:
 625              	.LBI109:
1038:Drivers/STM32G4xx_HAL_Driver/Inc/stm32g4xx_ll_exti.h **** {
 626              		.loc 2 1038 22 view .LVU186
 627              	.LBB110:
1040:Drivers/STM32G4xx_HAL_Driver/Inc/stm32g4xx_ll_exti.h **** }
 628              		.loc 2 1040 3 view .LVU187
 629 014c 0649     		ldr	r1, .L43
 630 014e CC68     		ldr	r4, [r1, #12]
 631 0150 24EA0304 		bic	r4, r4, r3
 632 0154 CC60     		str	r4, [r1, #12]
 633              	.LVL42:
1040:Drivers/STM32G4xx_HAL_Driver/Inc/stm32g4xx_ll_exti.h **** }
 634              		.loc 2 1040 3 is_stmt 0 view .LVU188
 635              	.LBE110:
 636              	.LBE109:
 172:Drivers/STM32G4xx_HAL_Driver/Src/stm32g4xx_ll_exti.c ****             break;
 637              		.loc 1 172 13 is_stmt 1 view .LVU189
 638              	.LBB111:
 639              	.LBI111:
 764:Drivers/STM32G4xx_HAL_Driver/Inc/stm32g4xx_ll_exti.h **** {
 640              		.loc 2 764 22 view .LVU190
 641              	.LBB112:
 766:Drivers/STM32G4xx_HAL_Driver/Inc/stm32g4xx_ll_exti.h **** 
 642              		.loc 2 766 3 view .LVU191
 643 0156 8C68     		ldr	r4, [r1, #8]
 644 0158 2343     		orrs	r3, r3, r4
 645              	.LVL43:
 766:Drivers/STM32G4xx_HAL_Driver/Inc/stm32g4xx_ll_exti.h **** 
 646              		.loc 2 766 3 is_stmt 0 view .LVU192
 647 015a 8B60     		str	r3, [r1, #8]
 768:Drivers/STM32G4xx_HAL_Driver/Inc/stm32g4xx_ll_exti.h **** 
 648              		.loc 2 768 1 view .LVU193
 649 015c 1346     		mov	r3, r2
 650 015e 69E7     		b	.L8
 651              	.L13:
 768:Drivers/STM32G4xx_HAL_Driver/Inc/stm32g4xx_ll_exti.h **** 
 652              		.loc 2 768 1 view .LVU194
 653              	.LBE112:
 654              	.LBE111:
 182:Drivers/STM32G4xx_HAL_Driver/Src/stm32g4xx_ll_exti.c ****             /* Enable Falling Trigger on provided Lines */
 655              		.loc 1 182 13 is_stmt 1 view .LVU195
 656              	.LVL44:
 657              	.LBB113:
 658              	.LBI92:
 764:Drivers/STM32G4xx_HAL_Driver/Inc/stm32g4xx_ll_exti.h **** {
 659              		.loc 2 764 22 view .LVU196
 660              	.LBB94:
 766:Drivers/STM32G4xx_HAL_Driver/Inc/stm32g4xx_ll_exti.h **** 
 661              		.loc 2 766 3 view .LVU197
 662 0160 0149     		ldr	r1, .L43
ARM GAS  /tmp/ccnaf6G9.s 			page 38


 663 0162 8C68     		ldr	r4, [r1, #8]
 664 0164 1C43     		orrs	r4, r4, r3
 665 0166 D1E7     		b	.L36
 666              	.L44:
 667              		.align	2
 668              	.L43:
 669 0168 00040140 		.word	1073808384
 670              	.LBE94:
 671              	.LBE113:
 672              		.cfi_endproc
 673              	.LFE362:
 675              		.section	.text.LL_EXTI_StructInit,"ax",%progbits
 676              		.align	1
 677              		.p2align 2,,3
 678              		.global	LL_EXTI_StructInit
 679              		.syntax unified
 680              		.thumb
 681              		.thumb_func
 682              		.fpu fpv4-sp-d16
 684              	LL_EXTI_StructInit:
 685              	.LVL45:
 686              	.LFB363:
 263:Drivers/STM32G4xx_HAL_Driver/Src/stm32g4xx_ll_exti.c **** 
 264:Drivers/STM32G4xx_HAL_Driver/Src/stm32g4xx_ll_exti.c **** /**
 265:Drivers/STM32G4xx_HAL_Driver/Src/stm32g4xx_ll_exti.c ****   * @brief  Set each @ref LL_EXTI_InitTypeDef field to default value.
 266:Drivers/STM32G4xx_HAL_Driver/Src/stm32g4xx_ll_exti.c ****   * @param  EXTI_InitStruct Pointer to a @ref LL_EXTI_InitTypeDef structure.
 267:Drivers/STM32G4xx_HAL_Driver/Src/stm32g4xx_ll_exti.c ****   * @retval None
 268:Drivers/STM32G4xx_HAL_Driver/Src/stm32g4xx_ll_exti.c ****   */
 269:Drivers/STM32G4xx_HAL_Driver/Src/stm32g4xx_ll_exti.c **** void LL_EXTI_StructInit(LL_EXTI_InitTypeDef *EXTI_InitStruct)
 270:Drivers/STM32G4xx_HAL_Driver/Src/stm32g4xx_ll_exti.c **** {
 687              		.loc 1 270 1 view -0
 688              		.cfi_startproc
 689              		@ args = 0, pretend = 0, frame = 0
 690              		@ frame_needed = 0, uses_anonymous_args = 0
 691              		@ link register save eliminated.
 271:Drivers/STM32G4xx_HAL_Driver/Src/stm32g4xx_ll_exti.c ****   EXTI_InitStruct->Line_0_31      = LL_EXTI_LINE_NONE;
 692              		.loc 1 271 3 view .LVU199
 272:Drivers/STM32G4xx_HAL_Driver/Src/stm32g4xx_ll_exti.c ****   EXTI_InitStruct->Line_32_63     = LL_EXTI_LINE_NONE;
 693              		.loc 1 272 3 view .LVU200
 273:Drivers/STM32G4xx_HAL_Driver/Src/stm32g4xx_ll_exti.c ****   EXTI_InitStruct->LineCommand    = DISABLE;
 694              		.loc 1 273 3 view .LVU201
 274:Drivers/STM32G4xx_HAL_Driver/Src/stm32g4xx_ll_exti.c ****   EXTI_InitStruct->Mode           = LL_EXTI_MODE_IT;
 695              		.loc 1 274 3 view .LVU202
 275:Drivers/STM32G4xx_HAL_Driver/Src/stm32g4xx_ll_exti.c ****   EXTI_InitStruct->Trigger        = LL_EXTI_TRIGGER_FALLING;
 696              		.loc 1 275 3 view .LVU203
 271:Drivers/STM32G4xx_HAL_Driver/Src/stm32g4xx_ll_exti.c ****   EXTI_InitStruct->Line_32_63     = LL_EXTI_LINE_NONE;
 697              		.loc 1 271 35 is_stmt 0 view .LVU204
 698 0000 0023     		movs	r3, #0
 699              		.loc 1 275 35 view .LVU205
 700 0002 0222     		movs	r2, #2
 272:Drivers/STM32G4xx_HAL_Driver/Src/stm32g4xx_ll_exti.c ****   EXTI_InitStruct->LineCommand    = DISABLE;
 701              		.loc 1 272 35 view .LVU206
 702 0004 C0E90033 		strd	r3, r3, [r0]
 703              		.loc 1 275 35 view .LVU207
 704 0008 8272     		strb	r2, [r0, #10]
 273:Drivers/STM32G4xx_HAL_Driver/Src/stm32g4xx_ll_exti.c ****   EXTI_InitStruct->Mode           = LL_EXTI_MODE_IT;
 705              		.loc 1 273 35 view .LVU208
ARM GAS  /tmp/ccnaf6G9.s 			page 39


 706 000a 0381     		strh	r3, [r0, #8]	@ movhi
 276:Drivers/STM32G4xx_HAL_Driver/Src/stm32g4xx_ll_exti.c **** }
 707              		.loc 1 276 1 view .LVU209
 708 000c 7047     		bx	lr
 709              		.cfi_endproc
 710              	.LFE363:
 712 000e 00BF     		.text
 713              	.Letext0:
 714              		.file 3 "/usr/lib/gcc/arm-none-eabi/9.2.1/include/stdint.h"
 715              		.file 4 "Drivers/CMSIS/Include/core_cm4.h"
 716              		.file 5 "Drivers/CMSIS/Device/ST/STM32G4xx/Include/system_stm32g4xx.h"
 717              		.file 6 "Drivers/CMSIS/Device/ST/STM32G4xx/Include/stm32g474xx.h"
 718              		.file 7 "Drivers/CMSIS/Device/ST/STM32G4xx/Include/stm32g4xx.h"
 719              		.file 8 "Drivers/STM32G4xx_HAL_Driver/Inc/stm32g4xx_hal_def.h"
 720              		.file 9 "Drivers/STM32G4xx_HAL_Driver/Inc/stm32g4xx_hal_flash.h"
 721              		.file 10 "Drivers/STM32G4xx_HAL_Driver/Inc/stm32g4xx_hal.h"
ARM GAS  /tmp/ccnaf6G9.s 			page 40

