ARM GAS  /tmp/ccQfBzxp.s 			page 1


   1              		.cpu cortex-m4
   2              		.eabi_attribute 27, 1
   3              		.eabi_attribute 28, 1
   4              		.eabi_attribute 20, 1
   5              		.eabi_attribute 21, 1
   6              		.eabi_attribute 23, 3
   7              		.eabi_attribute 24, 1
   8              		.eabi_attribute 25, 1
   9              		.eabi_attribute 26, 1
  10              		.eabi_attribute 30, 2
  11              		.eabi_attribute 34, 1
  12              		.eabi_attribute 18, 4
  13              		.file	"stm32g4xx_hal_dma.c"
  14              		.text
  15              	.Ltext0:
  16              		.cfi_sections	.debug_frame
  17              		.section	.text.HAL_DMA_Init,"ax",%progbits
  18              		.align	1
  19              		.p2align 2,,3
  20              		.global	HAL_DMA_Init
  21              		.arch armv7e-m
  22              		.syntax unified
  23              		.thumb
  24              		.thumb_func
  25              		.fpu fpv4-sp-d16
  27              	HAL_DMA_Init:
  28              	.LVL0:
  29              	.LFB329:
  30              		.file 1 "Drivers/STM32G4xx_HAL_Driver/Src/stm32g4xx_hal_dma.c"
   1:Drivers/STM32G4xx_HAL_Driver/Src/stm32g4xx_hal_dma.c **** /**
   2:Drivers/STM32G4xx_HAL_Driver/Src/stm32g4xx_hal_dma.c ****   ******************************************************************************
   3:Drivers/STM32G4xx_HAL_Driver/Src/stm32g4xx_hal_dma.c ****   * @file    stm32g4xx_hal_dma.c
   4:Drivers/STM32G4xx_HAL_Driver/Src/stm32g4xx_hal_dma.c ****   * @author  MCD Application Team
   5:Drivers/STM32G4xx_HAL_Driver/Src/stm32g4xx_hal_dma.c ****   * @brief   DMA HAL module driver.
   6:Drivers/STM32G4xx_HAL_Driver/Src/stm32g4xx_hal_dma.c ****   *         This file provides firmware functions to manage the following
   7:Drivers/STM32G4xx_HAL_Driver/Src/stm32g4xx_hal_dma.c ****   *         functionalities of the Direct Memory Access (DMA) peripheral:
   8:Drivers/STM32G4xx_HAL_Driver/Src/stm32g4xx_hal_dma.c ****   *           + Initialization and de-initialization functions
   9:Drivers/STM32G4xx_HAL_Driver/Src/stm32g4xx_hal_dma.c ****   *           + IO operation functions
  10:Drivers/STM32G4xx_HAL_Driver/Src/stm32g4xx_hal_dma.c ****   *           + Peripheral State and errors functions
  11:Drivers/STM32G4xx_HAL_Driver/Src/stm32g4xx_hal_dma.c ****   @verbatim
  12:Drivers/STM32G4xx_HAL_Driver/Src/stm32g4xx_hal_dma.c ****   ==============================================================================
  13:Drivers/STM32G4xx_HAL_Driver/Src/stm32g4xx_hal_dma.c ****                         ##### How to use this driver #####
  14:Drivers/STM32G4xx_HAL_Driver/Src/stm32g4xx_hal_dma.c ****   ==============================================================================
  15:Drivers/STM32G4xx_HAL_Driver/Src/stm32g4xx_hal_dma.c ****   [..]
  16:Drivers/STM32G4xx_HAL_Driver/Src/stm32g4xx_hal_dma.c ****    (#) Enable and configure the peripheral to be connected to the DMA Channel
  17:Drivers/STM32G4xx_HAL_Driver/Src/stm32g4xx_hal_dma.c ****        (except for internal SRAM / FLASH memories: no initialization is
  18:Drivers/STM32G4xx_HAL_Driver/Src/stm32g4xx_hal_dma.c ****        necessary). Please refer to the Reference manual for connection between peripherals
  19:Drivers/STM32G4xx_HAL_Driver/Src/stm32g4xx_hal_dma.c ****        and DMA requests.
  20:Drivers/STM32G4xx_HAL_Driver/Src/stm32g4xx_hal_dma.c **** 
  21:Drivers/STM32G4xx_HAL_Driver/Src/stm32g4xx_hal_dma.c ****    (#) For a given Channel, program the required configuration through the following parameters:
  22:Drivers/STM32G4xx_HAL_Driver/Src/stm32g4xx_hal_dma.c ****        Channel request, Transfer Direction, Source and Destination data formats,
  23:Drivers/STM32G4xx_HAL_Driver/Src/stm32g4xx_hal_dma.c ****        Circular or Normal mode, Channel Priority level, Source and Destination Increment mode
  24:Drivers/STM32G4xx_HAL_Driver/Src/stm32g4xx_hal_dma.c ****        using HAL_DMA_Init() function.
  25:Drivers/STM32G4xx_HAL_Driver/Src/stm32g4xx_hal_dma.c **** 
  26:Drivers/STM32G4xx_HAL_Driver/Src/stm32g4xx_hal_dma.c ****        Prior to HAL_DMA_Init the peripheral clock shall be enabled for both DMA & DMAMUX
  27:Drivers/STM32G4xx_HAL_Driver/Src/stm32g4xx_hal_dma.c ****        thanks to:
  28:Drivers/STM32G4xx_HAL_Driver/Src/stm32g4xx_hal_dma.c ****       (##) DMA1 or DMA2: __HAL_RCC_DMA1_CLK_ENABLE() or  __HAL_RCC_DMA2_CLK_ENABLE() ;
ARM GAS  /tmp/ccQfBzxp.s 			page 2


  29:Drivers/STM32G4xx_HAL_Driver/Src/stm32g4xx_hal_dma.c ****       (##) DMAMUX1:      __HAL_RCC_DMAMUX1_CLK_ENABLE();
  30:Drivers/STM32G4xx_HAL_Driver/Src/stm32g4xx_hal_dma.c **** 
  31:Drivers/STM32G4xx_HAL_Driver/Src/stm32g4xx_hal_dma.c ****    (#) Use HAL_DMA_GetState() function to return the DMA state and HAL_DMA_GetError() in case of er
  32:Drivers/STM32G4xx_HAL_Driver/Src/stm32g4xx_hal_dma.c ****        detection.
  33:Drivers/STM32G4xx_HAL_Driver/Src/stm32g4xx_hal_dma.c **** 
  34:Drivers/STM32G4xx_HAL_Driver/Src/stm32g4xx_hal_dma.c ****    (#) Use HAL_DMA_Abort() function to abort the current transfer
  35:Drivers/STM32G4xx_HAL_Driver/Src/stm32g4xx_hal_dma.c **** 
  36:Drivers/STM32G4xx_HAL_Driver/Src/stm32g4xx_hal_dma.c ****      -@-   In Memory-to-Memory transfer mode, Circular mode is not allowed.
  37:Drivers/STM32G4xx_HAL_Driver/Src/stm32g4xx_hal_dma.c **** 
  38:Drivers/STM32G4xx_HAL_Driver/Src/stm32g4xx_hal_dma.c ****      *** Polling mode IO operation ***
  39:Drivers/STM32G4xx_HAL_Driver/Src/stm32g4xx_hal_dma.c ****      =================================
  40:Drivers/STM32G4xx_HAL_Driver/Src/stm32g4xx_hal_dma.c ****     [..]
  41:Drivers/STM32G4xx_HAL_Driver/Src/stm32g4xx_hal_dma.c ****           (+) Use HAL_DMA_Start() to start DMA transfer after the configuration of Source
  42:Drivers/STM32G4xx_HAL_Driver/Src/stm32g4xx_hal_dma.c ****               address and destination address and the Length of data to be transferred
  43:Drivers/STM32G4xx_HAL_Driver/Src/stm32g4xx_hal_dma.c ****           (+) Use HAL_DMA_PollForTransfer() to poll for the end of current transfer, in this
  44:Drivers/STM32G4xx_HAL_Driver/Src/stm32g4xx_hal_dma.c ****               case a fixed Timeout can be configured by User depending from his application.
  45:Drivers/STM32G4xx_HAL_Driver/Src/stm32g4xx_hal_dma.c **** 
  46:Drivers/STM32G4xx_HAL_Driver/Src/stm32g4xx_hal_dma.c ****      *** Interrupt mode IO operation ***
  47:Drivers/STM32G4xx_HAL_Driver/Src/stm32g4xx_hal_dma.c ****      ===================================
  48:Drivers/STM32G4xx_HAL_Driver/Src/stm32g4xx_hal_dma.c ****     [..]
  49:Drivers/STM32G4xx_HAL_Driver/Src/stm32g4xx_hal_dma.c ****           (+) Configure the DMA interrupt priority using HAL_NVIC_SetPriority()
  50:Drivers/STM32G4xx_HAL_Driver/Src/stm32g4xx_hal_dma.c ****           (+) Enable the DMA IRQ handler using HAL_NVIC_EnableIRQ()
  51:Drivers/STM32G4xx_HAL_Driver/Src/stm32g4xx_hal_dma.c ****           (+) Use HAL_DMA_Start_IT() to start DMA transfer after the configuration of
  52:Drivers/STM32G4xx_HAL_Driver/Src/stm32g4xx_hal_dma.c ****               Source address and destination address and the Length of data to be transferred.
  53:Drivers/STM32G4xx_HAL_Driver/Src/stm32g4xx_hal_dma.c ****               In this case the DMA interrupt is configured
  54:Drivers/STM32G4xx_HAL_Driver/Src/stm32g4xx_hal_dma.c ****           (+) Use HAL_DMA_IRQHandler() called under DMA_IRQHandler() Interrupt subroutine
  55:Drivers/STM32G4xx_HAL_Driver/Src/stm32g4xx_hal_dma.c ****           (+) At the end of data transfer HAL_DMA_IRQHandler() function is executed and user can
  56:Drivers/STM32G4xx_HAL_Driver/Src/stm32g4xx_hal_dma.c ****               add his own function to register callbacks with HAL_DMA_RegisterCallback().
  57:Drivers/STM32G4xx_HAL_Driver/Src/stm32g4xx_hal_dma.c **** 
  58:Drivers/STM32G4xx_HAL_Driver/Src/stm32g4xx_hal_dma.c ****      *** DMA HAL driver macros list ***
  59:Drivers/STM32G4xx_HAL_Driver/Src/stm32g4xx_hal_dma.c ****      =============================================
  60:Drivers/STM32G4xx_HAL_Driver/Src/stm32g4xx_hal_dma.c ****       [..]
  61:Drivers/STM32G4xx_HAL_Driver/Src/stm32g4xx_hal_dma.c ****        Below the list of macros in DMA HAL driver.
  62:Drivers/STM32G4xx_HAL_Driver/Src/stm32g4xx_hal_dma.c **** 
  63:Drivers/STM32G4xx_HAL_Driver/Src/stm32g4xx_hal_dma.c ****        (+) __HAL_DMA_ENABLE: Enable the specified DMA Channel.
  64:Drivers/STM32G4xx_HAL_Driver/Src/stm32g4xx_hal_dma.c ****        (+) __HAL_DMA_DISABLE: Disable the specified DMA Channel.
  65:Drivers/STM32G4xx_HAL_Driver/Src/stm32g4xx_hal_dma.c ****        (+) __HAL_DMA_GET_FLAG: Get the DMA Channel pending flags.
  66:Drivers/STM32G4xx_HAL_Driver/Src/stm32g4xx_hal_dma.c ****        (+) __HAL_DMA_CLEAR_FLAG: Clear the DMA Channel pending flags.
  67:Drivers/STM32G4xx_HAL_Driver/Src/stm32g4xx_hal_dma.c ****        (+) __HAL_DMA_ENABLE_IT: Enable the specified DMA Channel interrupts.
  68:Drivers/STM32G4xx_HAL_Driver/Src/stm32g4xx_hal_dma.c ****        (+) __HAL_DMA_DISABLE_IT: Disable the specified DMA Channel interrupts.
  69:Drivers/STM32G4xx_HAL_Driver/Src/stm32g4xx_hal_dma.c ****        (+) __HAL_DMA_GET_IT_SOURCE: Check whether the specified DMA Channel interrupt has occurred 
  70:Drivers/STM32G4xx_HAL_Driver/Src/stm32g4xx_hal_dma.c **** 
  71:Drivers/STM32G4xx_HAL_Driver/Src/stm32g4xx_hal_dma.c ****      [..]
  72:Drivers/STM32G4xx_HAL_Driver/Src/stm32g4xx_hal_dma.c ****       (@) You can refer to the DMA HAL driver header file for more useful macros
  73:Drivers/STM32G4xx_HAL_Driver/Src/stm32g4xx_hal_dma.c **** 
  74:Drivers/STM32G4xx_HAL_Driver/Src/stm32g4xx_hal_dma.c ****   @endverbatim
  75:Drivers/STM32G4xx_HAL_Driver/Src/stm32g4xx_hal_dma.c ****   ******************************************************************************
  76:Drivers/STM32G4xx_HAL_Driver/Src/stm32g4xx_hal_dma.c ****   * @attention
  77:Drivers/STM32G4xx_HAL_Driver/Src/stm32g4xx_hal_dma.c ****   *
  78:Drivers/STM32G4xx_HAL_Driver/Src/stm32g4xx_hal_dma.c ****   * <h2><center>&copy; Copyright (c) 2019 STMicroelectronics.
  79:Drivers/STM32G4xx_HAL_Driver/Src/stm32g4xx_hal_dma.c ****   * All rights reserved.</center></h2>
  80:Drivers/STM32G4xx_HAL_Driver/Src/stm32g4xx_hal_dma.c ****   *
  81:Drivers/STM32G4xx_HAL_Driver/Src/stm32g4xx_hal_dma.c ****   * This software component is licensed by ST under BSD 3-Clause license,
  82:Drivers/STM32G4xx_HAL_Driver/Src/stm32g4xx_hal_dma.c ****   * the "License"; You may not use this file except in compliance with the
  83:Drivers/STM32G4xx_HAL_Driver/Src/stm32g4xx_hal_dma.c ****   * License. You may obtain a copy of the License at:
  84:Drivers/STM32G4xx_HAL_Driver/Src/stm32g4xx_hal_dma.c ****   *                        opensource.org/licenses/BSD-3-Clause
  85:Drivers/STM32G4xx_HAL_Driver/Src/stm32g4xx_hal_dma.c ****   *
ARM GAS  /tmp/ccQfBzxp.s 			page 3


  86:Drivers/STM32G4xx_HAL_Driver/Src/stm32g4xx_hal_dma.c ****   ******************************************************************************
  87:Drivers/STM32G4xx_HAL_Driver/Src/stm32g4xx_hal_dma.c ****   */
  88:Drivers/STM32G4xx_HAL_Driver/Src/stm32g4xx_hal_dma.c **** 
  89:Drivers/STM32G4xx_HAL_Driver/Src/stm32g4xx_hal_dma.c **** /* Includes ------------------------------------------------------------------*/
  90:Drivers/STM32G4xx_HAL_Driver/Src/stm32g4xx_hal_dma.c **** #include "stm32g4xx_hal.h"
  91:Drivers/STM32G4xx_HAL_Driver/Src/stm32g4xx_hal_dma.c **** 
  92:Drivers/STM32G4xx_HAL_Driver/Src/stm32g4xx_hal_dma.c **** /** @addtogroup STM32G4xx_HAL_Driver
  93:Drivers/STM32G4xx_HAL_Driver/Src/stm32g4xx_hal_dma.c ****   * @{
  94:Drivers/STM32G4xx_HAL_Driver/Src/stm32g4xx_hal_dma.c ****   */
  95:Drivers/STM32G4xx_HAL_Driver/Src/stm32g4xx_hal_dma.c **** 
  96:Drivers/STM32G4xx_HAL_Driver/Src/stm32g4xx_hal_dma.c **** /** @defgroup DMA DMA
  97:Drivers/STM32G4xx_HAL_Driver/Src/stm32g4xx_hal_dma.c ****   * @brief DMA HAL module driver
  98:Drivers/STM32G4xx_HAL_Driver/Src/stm32g4xx_hal_dma.c ****   * @{
  99:Drivers/STM32G4xx_HAL_Driver/Src/stm32g4xx_hal_dma.c ****   */
 100:Drivers/STM32G4xx_HAL_Driver/Src/stm32g4xx_hal_dma.c **** 
 101:Drivers/STM32G4xx_HAL_Driver/Src/stm32g4xx_hal_dma.c **** #ifdef HAL_DMA_MODULE_ENABLED
 102:Drivers/STM32G4xx_HAL_Driver/Src/stm32g4xx_hal_dma.c **** 
 103:Drivers/STM32G4xx_HAL_Driver/Src/stm32g4xx_hal_dma.c **** /* Private typedef -----------------------------------------------------------*/
 104:Drivers/STM32G4xx_HAL_Driver/Src/stm32g4xx_hal_dma.c **** /* Private define ------------------------------------------------------------*/
 105:Drivers/STM32G4xx_HAL_Driver/Src/stm32g4xx_hal_dma.c **** /* Private macro -------------------------------------------------------------*/
 106:Drivers/STM32G4xx_HAL_Driver/Src/stm32g4xx_hal_dma.c **** /* Private variables ---------------------------------------------------------*/
 107:Drivers/STM32G4xx_HAL_Driver/Src/stm32g4xx_hal_dma.c **** /* Private function prototypes -----------------------------------------------*/
 108:Drivers/STM32G4xx_HAL_Driver/Src/stm32g4xx_hal_dma.c **** /** @defgroup DMA_Private_Functions DMA Private Functions
 109:Drivers/STM32G4xx_HAL_Driver/Src/stm32g4xx_hal_dma.c ****   * @{
 110:Drivers/STM32G4xx_HAL_Driver/Src/stm32g4xx_hal_dma.c ****   */
 111:Drivers/STM32G4xx_HAL_Driver/Src/stm32g4xx_hal_dma.c **** static void DMA_SetConfig(DMA_HandleTypeDef *hdma, uint32_t SrcAddress, uint32_t DstAddress, uint32
 112:Drivers/STM32G4xx_HAL_Driver/Src/stm32g4xx_hal_dma.c **** 
 113:Drivers/STM32G4xx_HAL_Driver/Src/stm32g4xx_hal_dma.c **** static void DMA_CalcDMAMUXChannelBaseAndMask(DMA_HandleTypeDef *hdma);
 114:Drivers/STM32G4xx_HAL_Driver/Src/stm32g4xx_hal_dma.c **** static void DMA_CalcDMAMUXRequestGenBaseAndMask(DMA_HandleTypeDef *hdma);
 115:Drivers/STM32G4xx_HAL_Driver/Src/stm32g4xx_hal_dma.c **** 
 116:Drivers/STM32G4xx_HAL_Driver/Src/stm32g4xx_hal_dma.c **** /**
 117:Drivers/STM32G4xx_HAL_Driver/Src/stm32g4xx_hal_dma.c ****   * @}
 118:Drivers/STM32G4xx_HAL_Driver/Src/stm32g4xx_hal_dma.c ****   */
 119:Drivers/STM32G4xx_HAL_Driver/Src/stm32g4xx_hal_dma.c **** 
 120:Drivers/STM32G4xx_HAL_Driver/Src/stm32g4xx_hal_dma.c **** /* Exported functions ---------------------------------------------------------*/
 121:Drivers/STM32G4xx_HAL_Driver/Src/stm32g4xx_hal_dma.c **** 
 122:Drivers/STM32G4xx_HAL_Driver/Src/stm32g4xx_hal_dma.c **** /** @defgroup DMA_Exported_Functions DMA Exported Functions
 123:Drivers/STM32G4xx_HAL_Driver/Src/stm32g4xx_hal_dma.c ****   * @{
 124:Drivers/STM32G4xx_HAL_Driver/Src/stm32g4xx_hal_dma.c ****   */
 125:Drivers/STM32G4xx_HAL_Driver/Src/stm32g4xx_hal_dma.c **** 
 126:Drivers/STM32G4xx_HAL_Driver/Src/stm32g4xx_hal_dma.c **** /** @defgroup DMA_Exported_Functions_Group1 Initialization and de-initialization functions
 127:Drivers/STM32G4xx_HAL_Driver/Src/stm32g4xx_hal_dma.c ****   *  @brief   Initialization and de-initialization functions
 128:Drivers/STM32G4xx_HAL_Driver/Src/stm32g4xx_hal_dma.c ****   *
 129:Drivers/STM32G4xx_HAL_Driver/Src/stm32g4xx_hal_dma.c **** @verbatim
 130:Drivers/STM32G4xx_HAL_Driver/Src/stm32g4xx_hal_dma.c ****  ===============================================================================
 131:Drivers/STM32G4xx_HAL_Driver/Src/stm32g4xx_hal_dma.c ****              ##### Initialization and de-initialization functions  #####
 132:Drivers/STM32G4xx_HAL_Driver/Src/stm32g4xx_hal_dma.c ****  ===============================================================================
 133:Drivers/STM32G4xx_HAL_Driver/Src/stm32g4xx_hal_dma.c ****     [..]
 134:Drivers/STM32G4xx_HAL_Driver/Src/stm32g4xx_hal_dma.c ****     This section provides functions allowing to initialize the DMA Channel source
 135:Drivers/STM32G4xx_HAL_Driver/Src/stm32g4xx_hal_dma.c ****     and destination addresses, incrementation and data sizes, transfer direction,
 136:Drivers/STM32G4xx_HAL_Driver/Src/stm32g4xx_hal_dma.c ****     circular/normal mode selection, memory-to-memory mode selection and Channel priority value.
 137:Drivers/STM32G4xx_HAL_Driver/Src/stm32g4xx_hal_dma.c ****     [..]
 138:Drivers/STM32G4xx_HAL_Driver/Src/stm32g4xx_hal_dma.c ****     The HAL_DMA_Init() function follows the DMA configuration procedures as described in
 139:Drivers/STM32G4xx_HAL_Driver/Src/stm32g4xx_hal_dma.c ****     reference manual.
 140:Drivers/STM32G4xx_HAL_Driver/Src/stm32g4xx_hal_dma.c **** 
 141:Drivers/STM32G4xx_HAL_Driver/Src/stm32g4xx_hal_dma.c **** @endverbatim
 142:Drivers/STM32G4xx_HAL_Driver/Src/stm32g4xx_hal_dma.c ****   * @{
ARM GAS  /tmp/ccQfBzxp.s 			page 4


 143:Drivers/STM32G4xx_HAL_Driver/Src/stm32g4xx_hal_dma.c ****   */
 144:Drivers/STM32G4xx_HAL_Driver/Src/stm32g4xx_hal_dma.c **** 
 145:Drivers/STM32G4xx_HAL_Driver/Src/stm32g4xx_hal_dma.c **** /**
 146:Drivers/STM32G4xx_HAL_Driver/Src/stm32g4xx_hal_dma.c ****   * @brief  Initialize the DMA according to the specified
 147:Drivers/STM32G4xx_HAL_Driver/Src/stm32g4xx_hal_dma.c ****   *         parameters in the DMA_InitTypeDef and initialize the associated handle.
 148:Drivers/STM32G4xx_HAL_Driver/Src/stm32g4xx_hal_dma.c ****   * @param  hdma Pointer to a DMA_HandleTypeDef structure that contains
 149:Drivers/STM32G4xx_HAL_Driver/Src/stm32g4xx_hal_dma.c ****   *               the configuration information for the specified DMA Channel.
 150:Drivers/STM32G4xx_HAL_Driver/Src/stm32g4xx_hal_dma.c ****   * @retval HAL status
 151:Drivers/STM32G4xx_HAL_Driver/Src/stm32g4xx_hal_dma.c ****   */
 152:Drivers/STM32G4xx_HAL_Driver/Src/stm32g4xx_hal_dma.c **** HAL_StatusTypeDef HAL_DMA_Init(DMA_HandleTypeDef *hdma)
 153:Drivers/STM32G4xx_HAL_Driver/Src/stm32g4xx_hal_dma.c **** {
  31              		.loc 1 153 1 view -0
  32              		.cfi_startproc
  33              		@ args = 0, pretend = 0, frame = 0
  34              		@ frame_needed = 0, uses_anonymous_args = 0
 154:Drivers/STM32G4xx_HAL_Driver/Src/stm32g4xx_hal_dma.c ****   uint32_t tmp;
  35              		.loc 1 154 3 view .LVU1
 155:Drivers/STM32G4xx_HAL_Driver/Src/stm32g4xx_hal_dma.c **** 
 156:Drivers/STM32G4xx_HAL_Driver/Src/stm32g4xx_hal_dma.c ****   /* Check the DMA handle allocation */
 157:Drivers/STM32G4xx_HAL_Driver/Src/stm32g4xx_hal_dma.c ****   if (hdma == NULL)
  36              		.loc 1 157 3 view .LVU2
  37              		.loc 1 157 6 is_stmt 0 view .LVU3
  38 0000 0028     		cmp	r0, #0
  39 0002 72D0     		beq	.L9
 158:Drivers/STM32G4xx_HAL_Driver/Src/stm32g4xx_hal_dma.c ****   {
 159:Drivers/STM32G4xx_HAL_Driver/Src/stm32g4xx_hal_dma.c ****     return HAL_ERROR;
 160:Drivers/STM32G4xx_HAL_Driver/Src/stm32g4xx_hal_dma.c ****   }
 161:Drivers/STM32G4xx_HAL_Driver/Src/stm32g4xx_hal_dma.c **** 
 162:Drivers/STM32G4xx_HAL_Driver/Src/stm32g4xx_hal_dma.c ****   /* Check the parameters */
 163:Drivers/STM32G4xx_HAL_Driver/Src/stm32g4xx_hal_dma.c ****   assert_param(IS_DMA_ALL_INSTANCE(hdma->Instance));
 164:Drivers/STM32G4xx_HAL_Driver/Src/stm32g4xx_hal_dma.c ****   assert_param(IS_DMA_DIRECTION(hdma->Init.Direction));
 165:Drivers/STM32G4xx_HAL_Driver/Src/stm32g4xx_hal_dma.c ****   assert_param(IS_DMA_PERIPHERAL_INC_STATE(hdma->Init.PeriphInc));
 166:Drivers/STM32G4xx_HAL_Driver/Src/stm32g4xx_hal_dma.c ****   assert_param(IS_DMA_MEMORY_INC_STATE(hdma->Init.MemInc));
 167:Drivers/STM32G4xx_HAL_Driver/Src/stm32g4xx_hal_dma.c ****   assert_param(IS_DMA_PERIPHERAL_DATA_SIZE(hdma->Init.PeriphDataAlignment));
 168:Drivers/STM32G4xx_HAL_Driver/Src/stm32g4xx_hal_dma.c ****   assert_param(IS_DMA_MEMORY_DATA_SIZE(hdma->Init.MemDataAlignment));
 169:Drivers/STM32G4xx_HAL_Driver/Src/stm32g4xx_hal_dma.c ****   assert_param(IS_DMA_MODE(hdma->Init.Mode));
 170:Drivers/STM32G4xx_HAL_Driver/Src/stm32g4xx_hal_dma.c ****   assert_param(IS_DMA_PRIORITY(hdma->Init.Priority));
 171:Drivers/STM32G4xx_HAL_Driver/Src/stm32g4xx_hal_dma.c **** 
 172:Drivers/STM32G4xx_HAL_Driver/Src/stm32g4xx_hal_dma.c ****   assert_param(IS_DMA_ALL_REQUEST(hdma->Init.Request));
 173:Drivers/STM32G4xx_HAL_Driver/Src/stm32g4xx_hal_dma.c **** 
 174:Drivers/STM32G4xx_HAL_Driver/Src/stm32g4xx_hal_dma.c ****   /* Compute the channel index */
 175:Drivers/STM32G4xx_HAL_Driver/Src/stm32g4xx_hal_dma.c ****   if ((uint32_t)(hdma->Instance) < (uint32_t)(DMA2_Channel1))
  40              		.loc 1 175 6 view .LVU4
  41 0004 3A4A     		ldr	r2, .L19
  42 0006 0346     		mov	r3, r0
 163:Drivers/STM32G4xx_HAL_Driver/Src/stm32g4xx_hal_dma.c ****   assert_param(IS_DMA_DIRECTION(hdma->Init.Direction));
  43              		.loc 1 163 3 is_stmt 1 view .LVU5
 164:Drivers/STM32G4xx_HAL_Driver/Src/stm32g4xx_hal_dma.c ****   assert_param(IS_DMA_PERIPHERAL_INC_STATE(hdma->Init.PeriphInc));
  44              		.loc 1 164 3 view .LVU6
 165:Drivers/STM32G4xx_HAL_Driver/Src/stm32g4xx_hal_dma.c ****   assert_param(IS_DMA_MEMORY_INC_STATE(hdma->Init.MemInc));
  45              		.loc 1 165 3 view .LVU7
 166:Drivers/STM32G4xx_HAL_Driver/Src/stm32g4xx_hal_dma.c ****   assert_param(IS_DMA_PERIPHERAL_DATA_SIZE(hdma->Init.PeriphDataAlignment));
  46              		.loc 1 166 3 view .LVU8
 167:Drivers/STM32G4xx_HAL_Driver/Src/stm32g4xx_hal_dma.c ****   assert_param(IS_DMA_MEMORY_DATA_SIZE(hdma->Init.MemDataAlignment));
  47              		.loc 1 167 3 view .LVU9
 168:Drivers/STM32G4xx_HAL_Driver/Src/stm32g4xx_hal_dma.c ****   assert_param(IS_DMA_MODE(hdma->Init.Mode));
  48              		.loc 1 168 3 view .LVU10
ARM GAS  /tmp/ccQfBzxp.s 			page 5


 169:Drivers/STM32G4xx_HAL_Driver/Src/stm32g4xx_hal_dma.c ****   assert_param(IS_DMA_PRIORITY(hdma->Init.Priority));
  49              		.loc 1 169 3 view .LVU11
 170:Drivers/STM32G4xx_HAL_Driver/Src/stm32g4xx_hal_dma.c **** 
  50              		.loc 1 170 3 view .LVU12
 172:Drivers/STM32G4xx_HAL_Driver/Src/stm32g4xx_hal_dma.c **** 
  51              		.loc 1 172 3 view .LVU13
  52              		.loc 1 175 3 view .LVU14
  53              		.loc 1 175 22 is_stmt 0 view .LVU15
  54 0008 0068     		ldr	r0, [r0]
  55              	.LVL1:
  56              		.loc 1 175 6 view .LVU16
  57 000a 9042     		cmp	r0, r2
 153:Drivers/STM32G4xx_HAL_Driver/Src/stm32g4xx_hal_dma.c ****   uint32_t tmp;
  58              		.loc 1 153 1 view .LVU17
  59 000c 2DE9F041 		push	{r4, r5, r6, r7, r8, lr}
  60              	.LCFI0:
  61              		.cfi_def_cfa_offset 24
  62              		.cfi_offset 4, -24
  63              		.cfi_offset 5, -20
  64              		.cfi_offset 6, -16
  65              		.cfi_offset 7, -12
  66              		.cfi_offset 8, -8
  67              		.cfi_offset 14, -4
  68              		.loc 1 175 6 view .LVU18
  69 0010 5DD9     		bls	.L17
 176:Drivers/STM32G4xx_HAL_Driver/Src/stm32g4xx_hal_dma.c ****   {
 177:Drivers/STM32G4xx_HAL_Driver/Src/stm32g4xx_hal_dma.c ****     /* DMA1 */
 178:Drivers/STM32G4xx_HAL_Driver/Src/stm32g4xx_hal_dma.c ****     hdma->ChannelIndex = (((uint32_t)hdma->Instance - (uint32_t)DMA1_Channel1) / ((uint32_t)DMA1_Ch
 179:Drivers/STM32G4xx_HAL_Driver/Src/stm32g4xx_hal_dma.c ****     hdma->DmaBaseAddress = DMA1;
 180:Drivers/STM32G4xx_HAL_Driver/Src/stm32g4xx_hal_dma.c ****   }
 181:Drivers/STM32G4xx_HAL_Driver/Src/stm32g4xx_hal_dma.c ****   else
 182:Drivers/STM32G4xx_HAL_Driver/Src/stm32g4xx_hal_dma.c ****   {
 183:Drivers/STM32G4xx_HAL_Driver/Src/stm32g4xx_hal_dma.c ****     /* DMA2 */
 184:Drivers/STM32G4xx_HAL_Driver/Src/stm32g4xx_hal_dma.c ****     hdma->ChannelIndex = (((uint32_t)hdma->Instance - (uint32_t)DMA2_Channel1) / ((uint32_t)DMA2_Ch
  70              		.loc 1 184 5 is_stmt 1 view .LVU19
  71              		.loc 1 184 53 is_stmt 0 view .LVU20
  72 0012 3849     		ldr	r1, .L19+4
  73              		.loc 1 184 80 view .LVU21
  74 0014 384A     		ldr	r2, .L19+8
 185:Drivers/STM32G4xx_HAL_Driver/Src/stm32g4xx_hal_dma.c ****     hdma->DmaBaseAddress = DMA2;
  75              		.loc 1 185 26 view .LVU22
  76 0016 394C     		ldr	r4, .L19+12
  77              	.L15:
 186:Drivers/STM32G4xx_HAL_Driver/Src/stm32g4xx_hal_dma.c ****   }
 187:Drivers/STM32G4xx_HAL_Driver/Src/stm32g4xx_hal_dma.c **** 
 188:Drivers/STM32G4xx_HAL_Driver/Src/stm32g4xx_hal_dma.c ****   /* Change DMA peripheral state */
 189:Drivers/STM32G4xx_HAL_Driver/Src/stm32g4xx_hal_dma.c ****   hdma->State = HAL_DMA_STATE_BUSY;
 190:Drivers/STM32G4xx_HAL_Driver/Src/stm32g4xx_hal_dma.c **** 
 191:Drivers/STM32G4xx_HAL_Driver/Src/stm32g4xx_hal_dma.c ****   /* Get the CR register value */
 192:Drivers/STM32G4xx_HAL_Driver/Src/stm32g4xx_hal_dma.c ****   tmp = hdma->Instance->CCR;
 193:Drivers/STM32G4xx_HAL_Driver/Src/stm32g4xx_hal_dma.c **** 
 194:Drivers/STM32G4xx_HAL_Driver/Src/stm32g4xx_hal_dma.c ****   /* Clear PL, MSIZE, PSIZE, MINC, PINC, CIRC, DIR and MEM2MEM bits */
 195:Drivers/STM32G4xx_HAL_Driver/Src/stm32g4xx_hal_dma.c ****   tmp &= ((uint32_t)~(DMA_CCR_PL    | DMA_CCR_MSIZE  | DMA_CCR_PSIZE  |
 196:Drivers/STM32G4xx_HAL_Driver/Src/stm32g4xx_hal_dma.c ****                       DMA_CCR_MINC  | DMA_CCR_PINC   | DMA_CCR_CIRC   |
 197:Drivers/STM32G4xx_HAL_Driver/Src/stm32g4xx_hal_dma.c ****                       DMA_CCR_DIR   | DMA_CCR_MEM2MEM));
 198:Drivers/STM32G4xx_HAL_Driver/Src/stm32g4xx_hal_dma.c **** 
 199:Drivers/STM32G4xx_HAL_Driver/Src/stm32g4xx_hal_dma.c ****   /* Prepare the DMA Channel configuration */
ARM GAS  /tmp/ccQfBzxp.s 			page 6


 200:Drivers/STM32G4xx_HAL_Driver/Src/stm32g4xx_hal_dma.c ****   tmp |=  hdma->Init.Direction        |
 201:Drivers/STM32G4xx_HAL_Driver/Src/stm32g4xx_hal_dma.c ****           hdma->Init.PeriphInc           | hdma->Init.MemInc           |
  78              		.loc 1 201 42 view .LVU23
  79 0018 1F69     		ldr	r7, [r3, #16]
 185:Drivers/STM32G4xx_HAL_Driver/Src/stm32g4xx_hal_dma.c ****     hdma->DmaBaseAddress = DMA2;
  80              		.loc 1 185 26 view .LVU24
  81 001a 1C64     		str	r4, [r3, #64]
 184:Drivers/STM32G4xx_HAL_Driver/Src/stm32g4xx_hal_dma.c ****     hdma->DmaBaseAddress = DMA2;
  82              		.loc 1 184 53 view .LVU25
  83 001c 0144     		add	r1, r1, r0
 184:Drivers/STM32G4xx_HAL_Driver/Src/stm32g4xx_hal_dma.c ****     hdma->DmaBaseAddress = DMA2;
  84              		.loc 1 184 80 view .LVU26
  85 001e A2FB0121 		umull	r2, r1, r2, r1
 200:Drivers/STM32G4xx_HAL_Driver/Src/stm32g4xx_hal_dma.c ****           hdma->Init.PeriphInc           | hdma->Init.MemInc           |
  86              		.loc 1 200 39 view .LVU27
  87 0022 D3E902C2 		ldrd	ip, r2, [r3, #8]
  88 0026 4CEA0202 		orr	r2, ip, r2
  89              		.loc 1 201 42 view .LVU28
  90 002a 3A43     		orrs	r2, r2, r7
 189:Drivers/STM32G4xx_HAL_Driver/Src/stm32g4xx_hal_dma.c **** 
  91              		.loc 1 189 15 view .LVU29
  92 002c 0227     		movs	r7, #2
 202:Drivers/STM32G4xx_HAL_Driver/Src/stm32g4xx_hal_dma.c ****           hdma->Init.PeriphDataAlignment | hdma->Init.MemDataAlignment |
  93              		.loc 1 202 72 view .LVU30
  94 002e D3E90665 		ldrd	r6, r5, [r3, #24]
 189:Drivers/STM32G4xx_HAL_Driver/Src/stm32g4xx_hal_dma.c **** 
  95              		.loc 1 189 15 view .LVU31
  96 0032 83F82570 		strb	r7, [r3, #37]
 201:Drivers/STM32G4xx_HAL_Driver/Src/stm32g4xx_hal_dma.c ****           hdma->Init.PeriphDataAlignment | hdma->Init.MemDataAlignment |
  97              		.loc 1 201 72 view .LVU32
  98 0036 5F69     		ldr	r7, [r3, #20]
  99              	.LBB14:
 100              	.LBB15:
 203:Drivers/STM32G4xx_HAL_Driver/Src/stm32g4xx_hal_dma.c ****           hdma->Init.Mode                | hdma->Init.Priority;
 204:Drivers/STM32G4xx_HAL_Driver/Src/stm32g4xx_hal_dma.c **** 
 205:Drivers/STM32G4xx_HAL_Driver/Src/stm32g4xx_hal_dma.c ****   /* Write to DMA Channel CR register */
 206:Drivers/STM32G4xx_HAL_Driver/Src/stm32g4xx_hal_dma.c ****   hdma->Instance->CCR = tmp;
 207:Drivers/STM32G4xx_HAL_Driver/Src/stm32g4xx_hal_dma.c **** 
 208:Drivers/STM32G4xx_HAL_Driver/Src/stm32g4xx_hal_dma.c ****   /* Initialize parameters for DMAMUX channel :
 209:Drivers/STM32G4xx_HAL_Driver/Src/stm32g4xx_hal_dma.c ****      DMAmuxChannel, DMAmuxChannelStatus and DMAmuxChannelStatusMask
 210:Drivers/STM32G4xx_HAL_Driver/Src/stm32g4xx_hal_dma.c ****   */
 211:Drivers/STM32G4xx_HAL_Driver/Src/stm32g4xx_hal_dma.c ****   DMA_CalcDMAMUXChannelBaseAndMask(hdma);
 212:Drivers/STM32G4xx_HAL_Driver/Src/stm32g4xx_hal_dma.c **** 
 213:Drivers/STM32G4xx_HAL_Driver/Src/stm32g4xx_hal_dma.c ****   if (hdma->Init.Direction == DMA_MEMORY_TO_MEMORY)
 214:Drivers/STM32G4xx_HAL_Driver/Src/stm32g4xx_hal_dma.c ****   {
 215:Drivers/STM32G4xx_HAL_Driver/Src/stm32g4xx_hal_dma.c ****     /* if memory to memory force the request to 0*/
 216:Drivers/STM32G4xx_HAL_Driver/Src/stm32g4xx_hal_dma.c ****     hdma->Init.Request = DMA_REQUEST_MEM2MEM;
 217:Drivers/STM32G4xx_HAL_Driver/Src/stm32g4xx_hal_dma.c ****   }
 218:Drivers/STM32G4xx_HAL_Driver/Src/stm32g4xx_hal_dma.c **** 
 219:Drivers/STM32G4xx_HAL_Driver/Src/stm32g4xx_hal_dma.c ****   /* Set peripheral request  to DMAMUX channel */
 220:Drivers/STM32G4xx_HAL_Driver/Src/stm32g4xx_hal_dma.c ****   hdma->DMAmuxChannel->CCR = (hdma->Init.Request & DMAMUX_CxCR_DMAREQ_ID);
 221:Drivers/STM32G4xx_HAL_Driver/Src/stm32g4xx_hal_dma.c **** 
 222:Drivers/STM32G4xx_HAL_Driver/Src/stm32g4xx_hal_dma.c ****   /* Clear the DMAMUX synchro overrun flag */
 223:Drivers/STM32G4xx_HAL_Driver/Src/stm32g4xx_hal_dma.c ****   hdma->DMAmuxChannelStatus->CFR = hdma->DMAmuxChannelStatusMask;
 224:Drivers/STM32G4xx_HAL_Driver/Src/stm32g4xx_hal_dma.c **** 
 225:Drivers/STM32G4xx_HAL_Driver/Src/stm32g4xx_hal_dma.c ****   if (((hdma->Init.Request >  0U) && (hdma->Init.Request <= DMA_REQUEST_GENERATOR3)))
 226:Drivers/STM32G4xx_HAL_Driver/Src/stm32g4xx_hal_dma.c ****   {
ARM GAS  /tmp/ccQfBzxp.s 			page 7


 227:Drivers/STM32G4xx_HAL_Driver/Src/stm32g4xx_hal_dma.c ****     /* Initialize parameters for DMAMUX request generator :
 228:Drivers/STM32G4xx_HAL_Driver/Src/stm32g4xx_hal_dma.c ****        DMAmuxRequestGen, DMAmuxRequestGenStatus and DMAmuxRequestGenStatusMask
 229:Drivers/STM32G4xx_HAL_Driver/Src/stm32g4xx_hal_dma.c ****     */
 230:Drivers/STM32G4xx_HAL_Driver/Src/stm32g4xx_hal_dma.c ****     DMA_CalcDMAMUXRequestGenBaseAndMask(hdma);
 231:Drivers/STM32G4xx_HAL_Driver/Src/stm32g4xx_hal_dma.c **** 
 232:Drivers/STM32G4xx_HAL_Driver/Src/stm32g4xx_hal_dma.c ****     /* Reset the DMAMUX request generator register*/
 233:Drivers/STM32G4xx_HAL_Driver/Src/stm32g4xx_hal_dma.c ****     hdma->DMAmuxRequestGen->RGCR = 0U;
 234:Drivers/STM32G4xx_HAL_Driver/Src/stm32g4xx_hal_dma.c **** 
 235:Drivers/STM32G4xx_HAL_Driver/Src/stm32g4xx_hal_dma.c ****     /* Clear the DMAMUX request generator overrun flag */
 236:Drivers/STM32G4xx_HAL_Driver/Src/stm32g4xx_hal_dma.c ****     hdma->DMAmuxRequestGenStatus->RGCFR = hdma->DMAmuxRequestGenStatusMask;
 237:Drivers/STM32G4xx_HAL_Driver/Src/stm32g4xx_hal_dma.c ****   }
 238:Drivers/STM32G4xx_HAL_Driver/Src/stm32g4xx_hal_dma.c ****   else
 239:Drivers/STM32G4xx_HAL_Driver/Src/stm32g4xx_hal_dma.c ****   {
 240:Drivers/STM32G4xx_HAL_Driver/Src/stm32g4xx_hal_dma.c ****     hdma->DMAmuxRequestGen = 0U;
 241:Drivers/STM32G4xx_HAL_Driver/Src/stm32g4xx_hal_dma.c ****     hdma->DMAmuxRequestGenStatus = 0U;
 242:Drivers/STM32G4xx_HAL_Driver/Src/stm32g4xx_hal_dma.c ****     hdma->DMAmuxRequestGenStatusMask = 0U;
 243:Drivers/STM32G4xx_HAL_Driver/Src/stm32g4xx_hal_dma.c ****   }
 244:Drivers/STM32G4xx_HAL_Driver/Src/stm32g4xx_hal_dma.c **** 
 245:Drivers/STM32G4xx_HAL_Driver/Src/stm32g4xx_hal_dma.c ****   /* Initialize the error code */
 246:Drivers/STM32G4xx_HAL_Driver/Src/stm32g4xx_hal_dma.c ****   hdma->ErrorCode = HAL_DMA_ERROR_NONE;
 247:Drivers/STM32G4xx_HAL_Driver/Src/stm32g4xx_hal_dma.c **** 
 248:Drivers/STM32G4xx_HAL_Driver/Src/stm32g4xx_hal_dma.c ****   /* Initialize the DMA state*/
 249:Drivers/STM32G4xx_HAL_Driver/Src/stm32g4xx_hal_dma.c ****   hdma->State  = HAL_DMA_STATE_READY;
 250:Drivers/STM32G4xx_HAL_Driver/Src/stm32g4xx_hal_dma.c **** 
 251:Drivers/STM32G4xx_HAL_Driver/Src/stm32g4xx_hal_dma.c ****   /* Allocate lock resource and initialize it */
 252:Drivers/STM32G4xx_HAL_Driver/Src/stm32g4xx_hal_dma.c ****   hdma->Lock = HAL_UNLOCKED;
 253:Drivers/STM32G4xx_HAL_Driver/Src/stm32g4xx_hal_dma.c **** 
 254:Drivers/STM32G4xx_HAL_Driver/Src/stm32g4xx_hal_dma.c ****   return HAL_OK;
 255:Drivers/STM32G4xx_HAL_Driver/Src/stm32g4xx_hal_dma.c **** }
 256:Drivers/STM32G4xx_HAL_Driver/Src/stm32g4xx_hal_dma.c **** 
 257:Drivers/STM32G4xx_HAL_Driver/Src/stm32g4xx_hal_dma.c **** /**
 258:Drivers/STM32G4xx_HAL_Driver/Src/stm32g4xx_hal_dma.c ****   * @brief  DeInitialize the DMA peripheral.
 259:Drivers/STM32G4xx_HAL_Driver/Src/stm32g4xx_hal_dma.c ****   * @param  hdma pointer to a DMA_HandleTypeDef structure that contains
 260:Drivers/STM32G4xx_HAL_Driver/Src/stm32g4xx_hal_dma.c ****   *               the configuration information for the specified DMA Channel.
 261:Drivers/STM32G4xx_HAL_Driver/Src/stm32g4xx_hal_dma.c ****   * @retval HAL status
 262:Drivers/STM32G4xx_HAL_Driver/Src/stm32g4xx_hal_dma.c ****   */
 263:Drivers/STM32G4xx_HAL_Driver/Src/stm32g4xx_hal_dma.c **** HAL_StatusTypeDef HAL_DMA_DeInit(DMA_HandleTypeDef *hdma)
 264:Drivers/STM32G4xx_HAL_Driver/Src/stm32g4xx_hal_dma.c **** {
 265:Drivers/STM32G4xx_HAL_Driver/Src/stm32g4xx_hal_dma.c **** 
 266:Drivers/STM32G4xx_HAL_Driver/Src/stm32g4xx_hal_dma.c ****   /* Check the DMA handle allocation */
 267:Drivers/STM32G4xx_HAL_Driver/Src/stm32g4xx_hal_dma.c ****   if (NULL == hdma)
 268:Drivers/STM32G4xx_HAL_Driver/Src/stm32g4xx_hal_dma.c ****   {
 269:Drivers/STM32G4xx_HAL_Driver/Src/stm32g4xx_hal_dma.c ****     return HAL_ERROR;
 270:Drivers/STM32G4xx_HAL_Driver/Src/stm32g4xx_hal_dma.c ****   }
 271:Drivers/STM32G4xx_HAL_Driver/Src/stm32g4xx_hal_dma.c **** 
 272:Drivers/STM32G4xx_HAL_Driver/Src/stm32g4xx_hal_dma.c ****   /* Check the parameters */
 273:Drivers/STM32G4xx_HAL_Driver/Src/stm32g4xx_hal_dma.c ****   assert_param(IS_DMA_ALL_INSTANCE(hdma->Instance));
 274:Drivers/STM32G4xx_HAL_Driver/Src/stm32g4xx_hal_dma.c **** 
 275:Drivers/STM32G4xx_HAL_Driver/Src/stm32g4xx_hal_dma.c ****   /* Disable the selected DMA Channelx */
 276:Drivers/STM32G4xx_HAL_Driver/Src/stm32g4xx_hal_dma.c ****   __HAL_DMA_DISABLE(hdma);
 277:Drivers/STM32G4xx_HAL_Driver/Src/stm32g4xx_hal_dma.c **** 
 278:Drivers/STM32G4xx_HAL_Driver/Src/stm32g4xx_hal_dma.c ****   /* Compute the channel index */
 279:Drivers/STM32G4xx_HAL_Driver/Src/stm32g4xx_hal_dma.c ****   if ((uint32_t)(hdma->Instance) < (uint32_t)(DMA2_Channel1))
 280:Drivers/STM32G4xx_HAL_Driver/Src/stm32g4xx_hal_dma.c ****   {
 281:Drivers/STM32G4xx_HAL_Driver/Src/stm32g4xx_hal_dma.c ****     /* DMA1 */
 282:Drivers/STM32G4xx_HAL_Driver/Src/stm32g4xx_hal_dma.c ****     hdma->ChannelIndex = (((uint32_t)hdma->Instance - (uint32_t)DMA1_Channel1) / ((uint32_t)DMA1_Ch
 283:Drivers/STM32G4xx_HAL_Driver/Src/stm32g4xx_hal_dma.c ****     hdma->DmaBaseAddress = DMA1;
ARM GAS  /tmp/ccQfBzxp.s 			page 8


 284:Drivers/STM32G4xx_HAL_Driver/Src/stm32g4xx_hal_dma.c ****   }
 285:Drivers/STM32G4xx_HAL_Driver/Src/stm32g4xx_hal_dma.c ****   else
 286:Drivers/STM32G4xx_HAL_Driver/Src/stm32g4xx_hal_dma.c ****   {
 287:Drivers/STM32G4xx_HAL_Driver/Src/stm32g4xx_hal_dma.c ****     /* DMA2 */
 288:Drivers/STM32G4xx_HAL_Driver/Src/stm32g4xx_hal_dma.c ****     hdma->ChannelIndex = (((uint32_t)hdma->Instance - (uint32_t)DMA2_Channel1) / ((uint32_t)DMA2_Ch
 289:Drivers/STM32G4xx_HAL_Driver/Src/stm32g4xx_hal_dma.c ****     hdma->DmaBaseAddress = DMA2;
 290:Drivers/STM32G4xx_HAL_Driver/Src/stm32g4xx_hal_dma.c ****   }
 291:Drivers/STM32G4xx_HAL_Driver/Src/stm32g4xx_hal_dma.c **** 
 292:Drivers/STM32G4xx_HAL_Driver/Src/stm32g4xx_hal_dma.c ****   /* Reset DMA Channel control register */
 293:Drivers/STM32G4xx_HAL_Driver/Src/stm32g4xx_hal_dma.c ****   hdma->Instance->CCR  = 0;
 294:Drivers/STM32G4xx_HAL_Driver/Src/stm32g4xx_hal_dma.c **** 
 295:Drivers/STM32G4xx_HAL_Driver/Src/stm32g4xx_hal_dma.c ****   /* Clear all flags */
 296:Drivers/STM32G4xx_HAL_Driver/Src/stm32g4xx_hal_dma.c ****   hdma->DmaBaseAddress->IFCR = (DMA_ISR_GIF1 << (hdma->ChannelIndex & 0x1FU));
 297:Drivers/STM32G4xx_HAL_Driver/Src/stm32g4xx_hal_dma.c **** 
 298:Drivers/STM32G4xx_HAL_Driver/Src/stm32g4xx_hal_dma.c ****   /* Initialize parameters for DMAMUX channel :
 299:Drivers/STM32G4xx_HAL_Driver/Src/stm32g4xx_hal_dma.c ****      DMAmuxChannel, DMAmuxChannelStatus and DMAmuxChannelStatusMask */
 300:Drivers/STM32G4xx_HAL_Driver/Src/stm32g4xx_hal_dma.c **** 
 301:Drivers/STM32G4xx_HAL_Driver/Src/stm32g4xx_hal_dma.c ****   DMA_CalcDMAMUXChannelBaseAndMask(hdma);
 302:Drivers/STM32G4xx_HAL_Driver/Src/stm32g4xx_hal_dma.c **** 
 303:Drivers/STM32G4xx_HAL_Driver/Src/stm32g4xx_hal_dma.c ****   /* Reset the DMAMUX channel that corresponds to the DMA channel */
 304:Drivers/STM32G4xx_HAL_Driver/Src/stm32g4xx_hal_dma.c ****   hdma->DMAmuxChannel->CCR = 0;
 305:Drivers/STM32G4xx_HAL_Driver/Src/stm32g4xx_hal_dma.c **** 
 306:Drivers/STM32G4xx_HAL_Driver/Src/stm32g4xx_hal_dma.c ****   /* Clear the DMAMUX synchro overrun flag */
 307:Drivers/STM32G4xx_HAL_Driver/Src/stm32g4xx_hal_dma.c ****   hdma->DMAmuxChannelStatus->CFR = hdma->DMAmuxChannelStatusMask;
 308:Drivers/STM32G4xx_HAL_Driver/Src/stm32g4xx_hal_dma.c **** 
 309:Drivers/STM32G4xx_HAL_Driver/Src/stm32g4xx_hal_dma.c ****   /* Reset Request generator parameters if any */
 310:Drivers/STM32G4xx_HAL_Driver/Src/stm32g4xx_hal_dma.c ****   if (((hdma->Init.Request >  0U) && (hdma->Init.Request <= DMA_REQUEST_GENERATOR3)))
 311:Drivers/STM32G4xx_HAL_Driver/Src/stm32g4xx_hal_dma.c ****   {
 312:Drivers/STM32G4xx_HAL_Driver/Src/stm32g4xx_hal_dma.c ****     /* Initialize parameters for DMAMUX request generator :
 313:Drivers/STM32G4xx_HAL_Driver/Src/stm32g4xx_hal_dma.c ****        DMAmuxRequestGen, DMAmuxRequestGenStatus and DMAmuxRequestGenStatusMask
 314:Drivers/STM32G4xx_HAL_Driver/Src/stm32g4xx_hal_dma.c ****     */
 315:Drivers/STM32G4xx_HAL_Driver/Src/stm32g4xx_hal_dma.c ****     DMA_CalcDMAMUXRequestGenBaseAndMask(hdma);
 316:Drivers/STM32G4xx_HAL_Driver/Src/stm32g4xx_hal_dma.c **** 
 317:Drivers/STM32G4xx_HAL_Driver/Src/stm32g4xx_hal_dma.c ****     /* Reset the DMAMUX request generator register*/
 318:Drivers/STM32G4xx_HAL_Driver/Src/stm32g4xx_hal_dma.c ****     hdma->DMAmuxRequestGen->RGCR = 0U;
 319:Drivers/STM32G4xx_HAL_Driver/Src/stm32g4xx_hal_dma.c **** 
 320:Drivers/STM32G4xx_HAL_Driver/Src/stm32g4xx_hal_dma.c ****     /* Clear the DMAMUX request generator overrun flag */
 321:Drivers/STM32G4xx_HAL_Driver/Src/stm32g4xx_hal_dma.c ****     hdma->DMAmuxRequestGenStatus->RGCFR = hdma->DMAmuxRequestGenStatusMask;
 322:Drivers/STM32G4xx_HAL_Driver/Src/stm32g4xx_hal_dma.c ****   }
 323:Drivers/STM32G4xx_HAL_Driver/Src/stm32g4xx_hal_dma.c **** 
 324:Drivers/STM32G4xx_HAL_Driver/Src/stm32g4xx_hal_dma.c ****   hdma->DMAmuxRequestGen = 0U;
 325:Drivers/STM32G4xx_HAL_Driver/Src/stm32g4xx_hal_dma.c ****   hdma->DMAmuxRequestGenStatus = 0U;
 326:Drivers/STM32G4xx_HAL_Driver/Src/stm32g4xx_hal_dma.c ****   hdma->DMAmuxRequestGenStatusMask = 0U;
 327:Drivers/STM32G4xx_HAL_Driver/Src/stm32g4xx_hal_dma.c **** 
 328:Drivers/STM32G4xx_HAL_Driver/Src/stm32g4xx_hal_dma.c ****   /* Clean callbacks */
 329:Drivers/STM32G4xx_HAL_Driver/Src/stm32g4xx_hal_dma.c ****   hdma->XferCpltCallback = NULL;
 330:Drivers/STM32G4xx_HAL_Driver/Src/stm32g4xx_hal_dma.c ****   hdma->XferHalfCpltCallback = NULL;
 331:Drivers/STM32G4xx_HAL_Driver/Src/stm32g4xx_hal_dma.c ****   hdma->XferErrorCallback = NULL;
 332:Drivers/STM32G4xx_HAL_Driver/Src/stm32g4xx_hal_dma.c ****   hdma->XferAbortCallback = NULL;
 333:Drivers/STM32G4xx_HAL_Driver/Src/stm32g4xx_hal_dma.c **** 
 334:Drivers/STM32G4xx_HAL_Driver/Src/stm32g4xx_hal_dma.c ****   /* Initialize the error code */
 335:Drivers/STM32G4xx_HAL_Driver/Src/stm32g4xx_hal_dma.c ****   hdma->ErrorCode = HAL_DMA_ERROR_NONE;
 336:Drivers/STM32G4xx_HAL_Driver/Src/stm32g4xx_hal_dma.c **** 
 337:Drivers/STM32G4xx_HAL_Driver/Src/stm32g4xx_hal_dma.c ****   /* Initialize the DMA state */
 338:Drivers/STM32G4xx_HAL_Driver/Src/stm32g4xx_hal_dma.c ****   hdma->State = HAL_DMA_STATE_RESET;
 339:Drivers/STM32G4xx_HAL_Driver/Src/stm32g4xx_hal_dma.c **** 
 340:Drivers/STM32G4xx_HAL_Driver/Src/stm32g4xx_hal_dma.c ****   /* Release Lock */
ARM GAS  /tmp/ccQfBzxp.s 			page 9


 341:Drivers/STM32G4xx_HAL_Driver/Src/stm32g4xx_hal_dma.c ****   __HAL_UNLOCK(hdma);
 342:Drivers/STM32G4xx_HAL_Driver/Src/stm32g4xx_hal_dma.c **** 
 343:Drivers/STM32G4xx_HAL_Driver/Src/stm32g4xx_hal_dma.c ****   return HAL_OK;
 344:Drivers/STM32G4xx_HAL_Driver/Src/stm32g4xx_hal_dma.c **** }
 345:Drivers/STM32G4xx_HAL_Driver/Src/stm32g4xx_hal_dma.c **** 
 346:Drivers/STM32G4xx_HAL_Driver/Src/stm32g4xx_hal_dma.c **** /**
 347:Drivers/STM32G4xx_HAL_Driver/Src/stm32g4xx_hal_dma.c ****   * @}
 348:Drivers/STM32G4xx_HAL_Driver/Src/stm32g4xx_hal_dma.c ****   */
 349:Drivers/STM32G4xx_HAL_Driver/Src/stm32g4xx_hal_dma.c **** 
 350:Drivers/STM32G4xx_HAL_Driver/Src/stm32g4xx_hal_dma.c **** /** @defgroup DMA_Exported_Functions_Group2 Input and Output operation functions
 351:Drivers/STM32G4xx_HAL_Driver/Src/stm32g4xx_hal_dma.c ****   *  @brief   Input and Output operation functions
 352:Drivers/STM32G4xx_HAL_Driver/Src/stm32g4xx_hal_dma.c ****   *
 353:Drivers/STM32G4xx_HAL_Driver/Src/stm32g4xx_hal_dma.c **** @verbatim
 354:Drivers/STM32G4xx_HAL_Driver/Src/stm32g4xx_hal_dma.c ****  ===============================================================================
 355:Drivers/STM32G4xx_HAL_Driver/Src/stm32g4xx_hal_dma.c ****                       #####  IO operation functions  #####
 356:Drivers/STM32G4xx_HAL_Driver/Src/stm32g4xx_hal_dma.c ****  ===============================================================================
 357:Drivers/STM32G4xx_HAL_Driver/Src/stm32g4xx_hal_dma.c ****     [..]  This section provides functions allowing to:
 358:Drivers/STM32G4xx_HAL_Driver/Src/stm32g4xx_hal_dma.c ****       (+) Configure the source, destination address and data length and Start DMA transfer
 359:Drivers/STM32G4xx_HAL_Driver/Src/stm32g4xx_hal_dma.c ****       (+) Configure the source, destination address and data length and
 360:Drivers/STM32G4xx_HAL_Driver/Src/stm32g4xx_hal_dma.c ****           Start DMA transfer with interrupt
 361:Drivers/STM32G4xx_HAL_Driver/Src/stm32g4xx_hal_dma.c ****       (+) Abort DMA transfer
 362:Drivers/STM32G4xx_HAL_Driver/Src/stm32g4xx_hal_dma.c ****       (+) Poll for transfer complete
 363:Drivers/STM32G4xx_HAL_Driver/Src/stm32g4xx_hal_dma.c ****       (+) Handle DMA interrupt request
 364:Drivers/STM32G4xx_HAL_Driver/Src/stm32g4xx_hal_dma.c **** 
 365:Drivers/STM32G4xx_HAL_Driver/Src/stm32g4xx_hal_dma.c **** @endverbatim
 366:Drivers/STM32G4xx_HAL_Driver/Src/stm32g4xx_hal_dma.c ****   * @{
 367:Drivers/STM32G4xx_HAL_Driver/Src/stm32g4xx_hal_dma.c ****   */
 368:Drivers/STM32G4xx_HAL_Driver/Src/stm32g4xx_hal_dma.c **** 
 369:Drivers/STM32G4xx_HAL_Driver/Src/stm32g4xx_hal_dma.c **** /**
 370:Drivers/STM32G4xx_HAL_Driver/Src/stm32g4xx_hal_dma.c ****   * @brief  Start the DMA Transfer.
 371:Drivers/STM32G4xx_HAL_Driver/Src/stm32g4xx_hal_dma.c ****   * @param  hdma pointer to a DMA_HandleTypeDef structure that contains
 372:Drivers/STM32G4xx_HAL_Driver/Src/stm32g4xx_hal_dma.c ****   *               the configuration information for the specified DMA Channel.
 373:Drivers/STM32G4xx_HAL_Driver/Src/stm32g4xx_hal_dma.c ****   * @param  SrcAddress The source memory Buffer address
 374:Drivers/STM32G4xx_HAL_Driver/Src/stm32g4xx_hal_dma.c ****   * @param  DstAddress The destination memory Buffer address
 375:Drivers/STM32G4xx_HAL_Driver/Src/stm32g4xx_hal_dma.c ****   * @param  DataLength The length of data to be transferred from source to destination (up to 256Kb
 376:Drivers/STM32G4xx_HAL_Driver/Src/stm32g4xx_hal_dma.c ****   * @retval HAL status
 377:Drivers/STM32G4xx_HAL_Driver/Src/stm32g4xx_hal_dma.c ****   */
 378:Drivers/STM32G4xx_HAL_Driver/Src/stm32g4xx_hal_dma.c **** HAL_StatusTypeDef HAL_DMA_Start(DMA_HandleTypeDef *hdma, uint32_t SrcAddress, uint32_t DstAddress, 
 379:Drivers/STM32G4xx_HAL_Driver/Src/stm32g4xx_hal_dma.c **** {
 380:Drivers/STM32G4xx_HAL_Driver/Src/stm32g4xx_hal_dma.c ****   HAL_StatusTypeDef status = HAL_OK;
 381:Drivers/STM32G4xx_HAL_Driver/Src/stm32g4xx_hal_dma.c **** 
 382:Drivers/STM32G4xx_HAL_Driver/Src/stm32g4xx_hal_dma.c ****   /* Check the parameters */
 383:Drivers/STM32G4xx_HAL_Driver/Src/stm32g4xx_hal_dma.c ****   assert_param(IS_DMA_BUFFER_SIZE(DataLength));
 384:Drivers/STM32G4xx_HAL_Driver/Src/stm32g4xx_hal_dma.c **** 
 385:Drivers/STM32G4xx_HAL_Driver/Src/stm32g4xx_hal_dma.c ****   /* Process locked */
 386:Drivers/STM32G4xx_HAL_Driver/Src/stm32g4xx_hal_dma.c ****   __HAL_LOCK(hdma);
 387:Drivers/STM32G4xx_HAL_Driver/Src/stm32g4xx_hal_dma.c **** 
 388:Drivers/STM32G4xx_HAL_Driver/Src/stm32g4xx_hal_dma.c ****   if (HAL_DMA_STATE_READY == hdma->State)
 389:Drivers/STM32G4xx_HAL_Driver/Src/stm32g4xx_hal_dma.c ****   {
 390:Drivers/STM32G4xx_HAL_Driver/Src/stm32g4xx_hal_dma.c ****     /* Change DMA peripheral state */
 391:Drivers/STM32G4xx_HAL_Driver/Src/stm32g4xx_hal_dma.c ****     hdma->State = HAL_DMA_STATE_BUSY;
 392:Drivers/STM32G4xx_HAL_Driver/Src/stm32g4xx_hal_dma.c ****     hdma->ErrorCode = HAL_DMA_ERROR_NONE;
 393:Drivers/STM32G4xx_HAL_Driver/Src/stm32g4xx_hal_dma.c **** 
 394:Drivers/STM32G4xx_HAL_Driver/Src/stm32g4xx_hal_dma.c ****     /* Disable the peripheral */
 395:Drivers/STM32G4xx_HAL_Driver/Src/stm32g4xx_hal_dma.c ****     __HAL_DMA_DISABLE(hdma);
 396:Drivers/STM32G4xx_HAL_Driver/Src/stm32g4xx_hal_dma.c **** 
 397:Drivers/STM32G4xx_HAL_Driver/Src/stm32g4xx_hal_dma.c ****     /* Configure the source, destination address and the data length & clear flags*/
ARM GAS  /tmp/ccQfBzxp.s 			page 10


 398:Drivers/STM32G4xx_HAL_Driver/Src/stm32g4xx_hal_dma.c ****     DMA_SetConfig(hdma, SrcAddress, DstAddress, DataLength);
 399:Drivers/STM32G4xx_HAL_Driver/Src/stm32g4xx_hal_dma.c **** 
 400:Drivers/STM32G4xx_HAL_Driver/Src/stm32g4xx_hal_dma.c ****     /* Enable the Peripheral */
 401:Drivers/STM32G4xx_HAL_Driver/Src/stm32g4xx_hal_dma.c ****     __HAL_DMA_ENABLE(hdma);
 402:Drivers/STM32G4xx_HAL_Driver/Src/stm32g4xx_hal_dma.c ****   }
 403:Drivers/STM32G4xx_HAL_Driver/Src/stm32g4xx_hal_dma.c ****   else
 404:Drivers/STM32G4xx_HAL_Driver/Src/stm32g4xx_hal_dma.c ****   {
 405:Drivers/STM32G4xx_HAL_Driver/Src/stm32g4xx_hal_dma.c ****     /* Process Unlocked */
 406:Drivers/STM32G4xx_HAL_Driver/Src/stm32g4xx_hal_dma.c ****     __HAL_UNLOCK(hdma);
 407:Drivers/STM32G4xx_HAL_Driver/Src/stm32g4xx_hal_dma.c ****     status = HAL_BUSY;
 408:Drivers/STM32G4xx_HAL_Driver/Src/stm32g4xx_hal_dma.c ****   }
 409:Drivers/STM32G4xx_HAL_Driver/Src/stm32g4xx_hal_dma.c ****   return status;
 410:Drivers/STM32G4xx_HAL_Driver/Src/stm32g4xx_hal_dma.c **** }
 411:Drivers/STM32G4xx_HAL_Driver/Src/stm32g4xx_hal_dma.c **** 
 412:Drivers/STM32G4xx_HAL_Driver/Src/stm32g4xx_hal_dma.c **** /**
 413:Drivers/STM32G4xx_HAL_Driver/Src/stm32g4xx_hal_dma.c ****   * @brief  Start the DMA Transfer with interrupt enabled.
 414:Drivers/STM32G4xx_HAL_Driver/Src/stm32g4xx_hal_dma.c ****   * @param  hdma pointer to a DMA_HandleTypeDef structure that contains
 415:Drivers/STM32G4xx_HAL_Driver/Src/stm32g4xx_hal_dma.c ****   *               the configuration information for the specified DMA Channel.
 416:Drivers/STM32G4xx_HAL_Driver/Src/stm32g4xx_hal_dma.c ****   * @param  SrcAddress The source memory Buffer address
 417:Drivers/STM32G4xx_HAL_Driver/Src/stm32g4xx_hal_dma.c ****   * @param  DstAddress The destination memory Buffer address
 418:Drivers/STM32G4xx_HAL_Driver/Src/stm32g4xx_hal_dma.c ****   * @param  DataLength The length of data to be transferred from source to destination (up to 256Kb
 419:Drivers/STM32G4xx_HAL_Driver/Src/stm32g4xx_hal_dma.c ****   * @retval HAL status
 420:Drivers/STM32G4xx_HAL_Driver/Src/stm32g4xx_hal_dma.c ****   */
 421:Drivers/STM32G4xx_HAL_Driver/Src/stm32g4xx_hal_dma.c **** HAL_StatusTypeDef HAL_DMA_Start_IT(DMA_HandleTypeDef *hdma, uint32_t SrcAddress, uint32_t DstAddres
 422:Drivers/STM32G4xx_HAL_Driver/Src/stm32g4xx_hal_dma.c ****                                    uint32_t DataLength)
 423:Drivers/STM32G4xx_HAL_Driver/Src/stm32g4xx_hal_dma.c **** {
 424:Drivers/STM32G4xx_HAL_Driver/Src/stm32g4xx_hal_dma.c ****   HAL_StatusTypeDef status = HAL_OK;
 425:Drivers/STM32G4xx_HAL_Driver/Src/stm32g4xx_hal_dma.c **** 
 426:Drivers/STM32G4xx_HAL_Driver/Src/stm32g4xx_hal_dma.c ****   /* Check the parameters */
 427:Drivers/STM32G4xx_HAL_Driver/Src/stm32g4xx_hal_dma.c ****   assert_param(IS_DMA_BUFFER_SIZE(DataLength));
 428:Drivers/STM32G4xx_HAL_Driver/Src/stm32g4xx_hal_dma.c **** 
 429:Drivers/STM32G4xx_HAL_Driver/Src/stm32g4xx_hal_dma.c ****   /* Process locked */
 430:Drivers/STM32G4xx_HAL_Driver/Src/stm32g4xx_hal_dma.c ****   __HAL_LOCK(hdma);
 431:Drivers/STM32G4xx_HAL_Driver/Src/stm32g4xx_hal_dma.c **** 
 432:Drivers/STM32G4xx_HAL_Driver/Src/stm32g4xx_hal_dma.c ****   if (HAL_DMA_STATE_READY == hdma->State)
 433:Drivers/STM32G4xx_HAL_Driver/Src/stm32g4xx_hal_dma.c ****   {
 434:Drivers/STM32G4xx_HAL_Driver/Src/stm32g4xx_hal_dma.c ****     /* Change DMA peripheral state */
 435:Drivers/STM32G4xx_HAL_Driver/Src/stm32g4xx_hal_dma.c ****     hdma->State = HAL_DMA_STATE_BUSY;
 436:Drivers/STM32G4xx_HAL_Driver/Src/stm32g4xx_hal_dma.c ****     hdma->ErrorCode = HAL_DMA_ERROR_NONE;
 437:Drivers/STM32G4xx_HAL_Driver/Src/stm32g4xx_hal_dma.c **** 
 438:Drivers/STM32G4xx_HAL_Driver/Src/stm32g4xx_hal_dma.c ****     /* Disable the peripheral */
 439:Drivers/STM32G4xx_HAL_Driver/Src/stm32g4xx_hal_dma.c ****     __HAL_DMA_DISABLE(hdma);
 440:Drivers/STM32G4xx_HAL_Driver/Src/stm32g4xx_hal_dma.c **** 
 441:Drivers/STM32G4xx_HAL_Driver/Src/stm32g4xx_hal_dma.c ****     /* Configure the source, destination address and the data length & clear flags*/
 442:Drivers/STM32G4xx_HAL_Driver/Src/stm32g4xx_hal_dma.c ****     DMA_SetConfig(hdma, SrcAddress, DstAddress, DataLength);
 443:Drivers/STM32G4xx_HAL_Driver/Src/stm32g4xx_hal_dma.c **** 
 444:Drivers/STM32G4xx_HAL_Driver/Src/stm32g4xx_hal_dma.c ****     /* Enable the transfer complete interrupt */
 445:Drivers/STM32G4xx_HAL_Driver/Src/stm32g4xx_hal_dma.c ****     /* Enable the transfer Error interrupt */
 446:Drivers/STM32G4xx_HAL_Driver/Src/stm32g4xx_hal_dma.c ****     if (NULL != hdma->XferHalfCpltCallback)
 447:Drivers/STM32G4xx_HAL_Driver/Src/stm32g4xx_hal_dma.c ****     {
 448:Drivers/STM32G4xx_HAL_Driver/Src/stm32g4xx_hal_dma.c ****       /* Enable the Half transfer complete interrupt as well */
 449:Drivers/STM32G4xx_HAL_Driver/Src/stm32g4xx_hal_dma.c ****       __HAL_DMA_ENABLE_IT(hdma, (DMA_IT_TC | DMA_IT_HT | DMA_IT_TE));
 450:Drivers/STM32G4xx_HAL_Driver/Src/stm32g4xx_hal_dma.c ****     }
 451:Drivers/STM32G4xx_HAL_Driver/Src/stm32g4xx_hal_dma.c ****     else
 452:Drivers/STM32G4xx_HAL_Driver/Src/stm32g4xx_hal_dma.c ****     {
 453:Drivers/STM32G4xx_HAL_Driver/Src/stm32g4xx_hal_dma.c ****       __HAL_DMA_DISABLE_IT(hdma, DMA_IT_HT);
 454:Drivers/STM32G4xx_HAL_Driver/Src/stm32g4xx_hal_dma.c ****       __HAL_DMA_ENABLE_IT(hdma, (DMA_IT_TC | DMA_IT_TE));
ARM GAS  /tmp/ccQfBzxp.s 			page 11


 455:Drivers/STM32G4xx_HAL_Driver/Src/stm32g4xx_hal_dma.c ****     }
 456:Drivers/STM32G4xx_HAL_Driver/Src/stm32g4xx_hal_dma.c **** 
 457:Drivers/STM32G4xx_HAL_Driver/Src/stm32g4xx_hal_dma.c ****     /* Check if DMAMUX Synchronization is enabled*/
 458:Drivers/STM32G4xx_HAL_Driver/Src/stm32g4xx_hal_dma.c ****     if ((hdma->DMAmuxChannel->CCR & DMAMUX_CxCR_SE) != 0U)
 459:Drivers/STM32G4xx_HAL_Driver/Src/stm32g4xx_hal_dma.c ****     {
 460:Drivers/STM32G4xx_HAL_Driver/Src/stm32g4xx_hal_dma.c ****       /* Enable DMAMUX sync overrun IT*/
 461:Drivers/STM32G4xx_HAL_Driver/Src/stm32g4xx_hal_dma.c ****       hdma->DMAmuxChannel->CCR |= DMAMUX_CxCR_SOIE;
 462:Drivers/STM32G4xx_HAL_Driver/Src/stm32g4xx_hal_dma.c ****     }
 463:Drivers/STM32G4xx_HAL_Driver/Src/stm32g4xx_hal_dma.c **** 
 464:Drivers/STM32G4xx_HAL_Driver/Src/stm32g4xx_hal_dma.c ****     if (hdma->DMAmuxRequestGen != 0U)
 465:Drivers/STM32G4xx_HAL_Driver/Src/stm32g4xx_hal_dma.c ****     {
 466:Drivers/STM32G4xx_HAL_Driver/Src/stm32g4xx_hal_dma.c ****       /* if using DMAMUX request generator, enable the DMAMUX request generator overrun IT*/
 467:Drivers/STM32G4xx_HAL_Driver/Src/stm32g4xx_hal_dma.c ****       /* enable the request gen overrun IT*/
 468:Drivers/STM32G4xx_HAL_Driver/Src/stm32g4xx_hal_dma.c ****       hdma->DMAmuxRequestGen->RGCR |= DMAMUX_RGxCR_OIE;
 469:Drivers/STM32G4xx_HAL_Driver/Src/stm32g4xx_hal_dma.c ****     }
 470:Drivers/STM32G4xx_HAL_Driver/Src/stm32g4xx_hal_dma.c **** 
 471:Drivers/STM32G4xx_HAL_Driver/Src/stm32g4xx_hal_dma.c ****     /* Enable the Peripheral */
 472:Drivers/STM32G4xx_HAL_Driver/Src/stm32g4xx_hal_dma.c ****     __HAL_DMA_ENABLE(hdma);
 473:Drivers/STM32G4xx_HAL_Driver/Src/stm32g4xx_hal_dma.c ****   }
 474:Drivers/STM32G4xx_HAL_Driver/Src/stm32g4xx_hal_dma.c ****   else
 475:Drivers/STM32G4xx_HAL_Driver/Src/stm32g4xx_hal_dma.c ****   {
 476:Drivers/STM32G4xx_HAL_Driver/Src/stm32g4xx_hal_dma.c ****     /* Process Unlocked */
 477:Drivers/STM32G4xx_HAL_Driver/Src/stm32g4xx_hal_dma.c ****     __HAL_UNLOCK(hdma);
 478:Drivers/STM32G4xx_HAL_Driver/Src/stm32g4xx_hal_dma.c **** 
 479:Drivers/STM32G4xx_HAL_Driver/Src/stm32g4xx_hal_dma.c ****     /* Remain BUSY */
 480:Drivers/STM32G4xx_HAL_Driver/Src/stm32g4xx_hal_dma.c ****     status = HAL_BUSY;
 481:Drivers/STM32G4xx_HAL_Driver/Src/stm32g4xx_hal_dma.c ****   }
 482:Drivers/STM32G4xx_HAL_Driver/Src/stm32g4xx_hal_dma.c ****   return status;
 483:Drivers/STM32G4xx_HAL_Driver/Src/stm32g4xx_hal_dma.c **** }
 484:Drivers/STM32G4xx_HAL_Driver/Src/stm32g4xx_hal_dma.c **** 
 485:Drivers/STM32G4xx_HAL_Driver/Src/stm32g4xx_hal_dma.c **** /**
 486:Drivers/STM32G4xx_HAL_Driver/Src/stm32g4xx_hal_dma.c ****   * @brief  Abort the DMA Transfer.
 487:Drivers/STM32G4xx_HAL_Driver/Src/stm32g4xx_hal_dma.c ****   * @param  hdma pointer to a DMA_HandleTypeDef structure that contains
 488:Drivers/STM32G4xx_HAL_Driver/Src/stm32g4xx_hal_dma.c ****   *               the configuration information for the specified DMA Channel.
 489:Drivers/STM32G4xx_HAL_Driver/Src/stm32g4xx_hal_dma.c ****     * @retval HAL status
 490:Drivers/STM32G4xx_HAL_Driver/Src/stm32g4xx_hal_dma.c ****   */
 491:Drivers/STM32G4xx_HAL_Driver/Src/stm32g4xx_hal_dma.c **** HAL_StatusTypeDef HAL_DMA_Abort(DMA_HandleTypeDef *hdma)
 492:Drivers/STM32G4xx_HAL_Driver/Src/stm32g4xx_hal_dma.c **** {
 493:Drivers/STM32G4xx_HAL_Driver/Src/stm32g4xx_hal_dma.c ****   HAL_StatusTypeDef status = HAL_OK;
 494:Drivers/STM32G4xx_HAL_Driver/Src/stm32g4xx_hal_dma.c **** 
 495:Drivers/STM32G4xx_HAL_Driver/Src/stm32g4xx_hal_dma.c ****   if(hdma->State != HAL_DMA_STATE_BUSY)
 496:Drivers/STM32G4xx_HAL_Driver/Src/stm32g4xx_hal_dma.c ****   {
 497:Drivers/STM32G4xx_HAL_Driver/Src/stm32g4xx_hal_dma.c ****     /* no transfer ongoing */
 498:Drivers/STM32G4xx_HAL_Driver/Src/stm32g4xx_hal_dma.c ****     hdma->ErrorCode = HAL_DMA_ERROR_NO_XFER;
 499:Drivers/STM32G4xx_HAL_Driver/Src/stm32g4xx_hal_dma.c **** 
 500:Drivers/STM32G4xx_HAL_Driver/Src/stm32g4xx_hal_dma.c ****     status = HAL_ERROR;
 501:Drivers/STM32G4xx_HAL_Driver/Src/stm32g4xx_hal_dma.c ****   }
 502:Drivers/STM32G4xx_HAL_Driver/Src/stm32g4xx_hal_dma.c ****   else
 503:Drivers/STM32G4xx_HAL_Driver/Src/stm32g4xx_hal_dma.c ****   {
 504:Drivers/STM32G4xx_HAL_Driver/Src/stm32g4xx_hal_dma.c ****      /* Disable DMA IT */
 505:Drivers/STM32G4xx_HAL_Driver/Src/stm32g4xx_hal_dma.c ****      __HAL_DMA_DISABLE_IT(hdma, (DMA_IT_TC | DMA_IT_HT | DMA_IT_TE));
 506:Drivers/STM32G4xx_HAL_Driver/Src/stm32g4xx_hal_dma.c ****      
 507:Drivers/STM32G4xx_HAL_Driver/Src/stm32g4xx_hal_dma.c ****      /* disable the DMAMUX sync overrun IT*/
 508:Drivers/STM32G4xx_HAL_Driver/Src/stm32g4xx_hal_dma.c ****      hdma->DMAmuxChannel->CCR &= ~DMAMUX_CxCR_SOIE;
 509:Drivers/STM32G4xx_HAL_Driver/Src/stm32g4xx_hal_dma.c ****      
 510:Drivers/STM32G4xx_HAL_Driver/Src/stm32g4xx_hal_dma.c ****      /* Disable the channel */
 511:Drivers/STM32G4xx_HAL_Driver/Src/stm32g4xx_hal_dma.c ****      __HAL_DMA_DISABLE(hdma);
ARM GAS  /tmp/ccQfBzxp.s 			page 12


 512:Drivers/STM32G4xx_HAL_Driver/Src/stm32g4xx_hal_dma.c ****      
 513:Drivers/STM32G4xx_HAL_Driver/Src/stm32g4xx_hal_dma.c ****      /* Clear all flags */
 514:Drivers/STM32G4xx_HAL_Driver/Src/stm32g4xx_hal_dma.c ****      hdma->DmaBaseAddress->IFCR = (DMA_ISR_GIF1 << (hdma->ChannelIndex & 0x1FU));
 515:Drivers/STM32G4xx_HAL_Driver/Src/stm32g4xx_hal_dma.c ****      
 516:Drivers/STM32G4xx_HAL_Driver/Src/stm32g4xx_hal_dma.c ****      /* Clear the DMAMUX synchro overrun flag */
 517:Drivers/STM32G4xx_HAL_Driver/Src/stm32g4xx_hal_dma.c ****      hdma->DMAmuxChannelStatus->CFR = hdma->DMAmuxChannelStatusMask;
 518:Drivers/STM32G4xx_HAL_Driver/Src/stm32g4xx_hal_dma.c ****      
 519:Drivers/STM32G4xx_HAL_Driver/Src/stm32g4xx_hal_dma.c ****      if (hdma->DMAmuxRequestGen != 0U)
 520:Drivers/STM32G4xx_HAL_Driver/Src/stm32g4xx_hal_dma.c ****      {
 521:Drivers/STM32G4xx_HAL_Driver/Src/stm32g4xx_hal_dma.c ****        /* if using DMAMUX request generator, disable the DMAMUX request generator overrun IT*/
 522:Drivers/STM32G4xx_HAL_Driver/Src/stm32g4xx_hal_dma.c ****        /* disable the request gen overrun IT*/
 523:Drivers/STM32G4xx_HAL_Driver/Src/stm32g4xx_hal_dma.c ****        hdma->DMAmuxRequestGen->RGCR &= ~DMAMUX_RGxCR_OIE;
 524:Drivers/STM32G4xx_HAL_Driver/Src/stm32g4xx_hal_dma.c ****      
 525:Drivers/STM32G4xx_HAL_Driver/Src/stm32g4xx_hal_dma.c ****        /* Clear the DMAMUX request generator overrun flag */
 526:Drivers/STM32G4xx_HAL_Driver/Src/stm32g4xx_hal_dma.c ****        hdma->DMAmuxRequestGenStatus->RGCFR = hdma->DMAmuxRequestGenStatusMask;
 527:Drivers/STM32G4xx_HAL_Driver/Src/stm32g4xx_hal_dma.c ****      }
 528:Drivers/STM32G4xx_HAL_Driver/Src/stm32g4xx_hal_dma.c ****   }  
 529:Drivers/STM32G4xx_HAL_Driver/Src/stm32g4xx_hal_dma.c ****   /* Change the DMA state */
 530:Drivers/STM32G4xx_HAL_Driver/Src/stm32g4xx_hal_dma.c ****   hdma->State = HAL_DMA_STATE_READY;
 531:Drivers/STM32G4xx_HAL_Driver/Src/stm32g4xx_hal_dma.c **** 
 532:Drivers/STM32G4xx_HAL_Driver/Src/stm32g4xx_hal_dma.c ****   /* Process Unlocked */
 533:Drivers/STM32G4xx_HAL_Driver/Src/stm32g4xx_hal_dma.c ****   __HAL_UNLOCK(hdma);
 534:Drivers/STM32G4xx_HAL_Driver/Src/stm32g4xx_hal_dma.c **** 
 535:Drivers/STM32G4xx_HAL_Driver/Src/stm32g4xx_hal_dma.c ****   return status;
 536:Drivers/STM32G4xx_HAL_Driver/Src/stm32g4xx_hal_dma.c **** }
 537:Drivers/STM32G4xx_HAL_Driver/Src/stm32g4xx_hal_dma.c **** 
 538:Drivers/STM32G4xx_HAL_Driver/Src/stm32g4xx_hal_dma.c **** /**
 539:Drivers/STM32G4xx_HAL_Driver/Src/stm32g4xx_hal_dma.c ****   * @brief  Aborts the DMA Transfer in Interrupt mode.
 540:Drivers/STM32G4xx_HAL_Driver/Src/stm32g4xx_hal_dma.c ****   * @param  hdma pointer to a DMA_HandleTypeDef structure that contains
 541:Drivers/STM32G4xx_HAL_Driver/Src/stm32g4xx_hal_dma.c ****   *              the configuration information for the specified DMA Channel.
 542:Drivers/STM32G4xx_HAL_Driver/Src/stm32g4xx_hal_dma.c ****   * @retval HAL status
 543:Drivers/STM32G4xx_HAL_Driver/Src/stm32g4xx_hal_dma.c ****   */
 544:Drivers/STM32G4xx_HAL_Driver/Src/stm32g4xx_hal_dma.c **** HAL_StatusTypeDef HAL_DMA_Abort_IT(DMA_HandleTypeDef *hdma)
 545:Drivers/STM32G4xx_HAL_Driver/Src/stm32g4xx_hal_dma.c **** {
 546:Drivers/STM32G4xx_HAL_Driver/Src/stm32g4xx_hal_dma.c ****   HAL_StatusTypeDef status = HAL_OK;
 547:Drivers/STM32G4xx_HAL_Driver/Src/stm32g4xx_hal_dma.c **** 
 548:Drivers/STM32G4xx_HAL_Driver/Src/stm32g4xx_hal_dma.c ****   if (HAL_DMA_STATE_BUSY != hdma->State)
 549:Drivers/STM32G4xx_HAL_Driver/Src/stm32g4xx_hal_dma.c ****   {
 550:Drivers/STM32G4xx_HAL_Driver/Src/stm32g4xx_hal_dma.c ****     /* no transfer ongoing */
 551:Drivers/STM32G4xx_HAL_Driver/Src/stm32g4xx_hal_dma.c ****     hdma->ErrorCode = HAL_DMA_ERROR_NO_XFER;
 552:Drivers/STM32G4xx_HAL_Driver/Src/stm32g4xx_hal_dma.c **** 
 553:Drivers/STM32G4xx_HAL_Driver/Src/stm32g4xx_hal_dma.c ****     /* Change the DMA state */
 554:Drivers/STM32G4xx_HAL_Driver/Src/stm32g4xx_hal_dma.c ****     hdma->State = HAL_DMA_STATE_READY;
 555:Drivers/STM32G4xx_HAL_Driver/Src/stm32g4xx_hal_dma.c **** 
 556:Drivers/STM32G4xx_HAL_Driver/Src/stm32g4xx_hal_dma.c ****     /* Process Unlocked */
 557:Drivers/STM32G4xx_HAL_Driver/Src/stm32g4xx_hal_dma.c ****     __HAL_UNLOCK(hdma);
 558:Drivers/STM32G4xx_HAL_Driver/Src/stm32g4xx_hal_dma.c **** 
 559:Drivers/STM32G4xx_HAL_Driver/Src/stm32g4xx_hal_dma.c ****     status = HAL_ERROR;
 560:Drivers/STM32G4xx_HAL_Driver/Src/stm32g4xx_hal_dma.c ****   }
 561:Drivers/STM32G4xx_HAL_Driver/Src/stm32g4xx_hal_dma.c ****   else
 562:Drivers/STM32G4xx_HAL_Driver/Src/stm32g4xx_hal_dma.c ****   {
 563:Drivers/STM32G4xx_HAL_Driver/Src/stm32g4xx_hal_dma.c ****     /* Disable DMA IT */
 564:Drivers/STM32G4xx_HAL_Driver/Src/stm32g4xx_hal_dma.c ****     __HAL_DMA_DISABLE_IT(hdma, (DMA_IT_TC | DMA_IT_HT | DMA_IT_TE));
 565:Drivers/STM32G4xx_HAL_Driver/Src/stm32g4xx_hal_dma.c **** 
 566:Drivers/STM32G4xx_HAL_Driver/Src/stm32g4xx_hal_dma.c ****     /* Disable the channel */
 567:Drivers/STM32G4xx_HAL_Driver/Src/stm32g4xx_hal_dma.c ****     __HAL_DMA_DISABLE(hdma);
 568:Drivers/STM32G4xx_HAL_Driver/Src/stm32g4xx_hal_dma.c **** 
ARM GAS  /tmp/ccQfBzxp.s 			page 13


 569:Drivers/STM32G4xx_HAL_Driver/Src/stm32g4xx_hal_dma.c ****     /* disable the DMAMUX sync overrun IT*/
 570:Drivers/STM32G4xx_HAL_Driver/Src/stm32g4xx_hal_dma.c ****     hdma->DMAmuxChannel->CCR &= ~DMAMUX_CxCR_SOIE;
 571:Drivers/STM32G4xx_HAL_Driver/Src/stm32g4xx_hal_dma.c **** 
 572:Drivers/STM32G4xx_HAL_Driver/Src/stm32g4xx_hal_dma.c ****     /* Clear all flags */
 573:Drivers/STM32G4xx_HAL_Driver/Src/stm32g4xx_hal_dma.c ****     hdma->DmaBaseAddress->IFCR = (DMA_ISR_GIF1 << (hdma->ChannelIndex & 0x1FU));
 574:Drivers/STM32G4xx_HAL_Driver/Src/stm32g4xx_hal_dma.c **** 
 575:Drivers/STM32G4xx_HAL_Driver/Src/stm32g4xx_hal_dma.c ****     /* Clear the DMAMUX synchro overrun flag */
 576:Drivers/STM32G4xx_HAL_Driver/Src/stm32g4xx_hal_dma.c ****     hdma->DMAmuxChannelStatus->CFR = hdma->DMAmuxChannelStatusMask;
 577:Drivers/STM32G4xx_HAL_Driver/Src/stm32g4xx_hal_dma.c **** 
 578:Drivers/STM32G4xx_HAL_Driver/Src/stm32g4xx_hal_dma.c ****     if (hdma->DMAmuxRequestGen != 0U)
 579:Drivers/STM32G4xx_HAL_Driver/Src/stm32g4xx_hal_dma.c ****     {
 580:Drivers/STM32G4xx_HAL_Driver/Src/stm32g4xx_hal_dma.c ****       /* if using DMAMUX request generator, disable the DMAMUX request generator overrun IT*/
 581:Drivers/STM32G4xx_HAL_Driver/Src/stm32g4xx_hal_dma.c ****       /* disable the request gen overrun IT*/
 582:Drivers/STM32G4xx_HAL_Driver/Src/stm32g4xx_hal_dma.c ****       hdma->DMAmuxRequestGen->RGCR &= ~DMAMUX_RGxCR_OIE;
 583:Drivers/STM32G4xx_HAL_Driver/Src/stm32g4xx_hal_dma.c **** 
 584:Drivers/STM32G4xx_HAL_Driver/Src/stm32g4xx_hal_dma.c ****       /* Clear the DMAMUX request generator overrun flag */
 585:Drivers/STM32G4xx_HAL_Driver/Src/stm32g4xx_hal_dma.c ****       hdma->DMAmuxRequestGenStatus->RGCFR = hdma->DMAmuxRequestGenStatusMask;
 586:Drivers/STM32G4xx_HAL_Driver/Src/stm32g4xx_hal_dma.c ****     }
 587:Drivers/STM32G4xx_HAL_Driver/Src/stm32g4xx_hal_dma.c **** 
 588:Drivers/STM32G4xx_HAL_Driver/Src/stm32g4xx_hal_dma.c ****     /* Change the DMA state */
 589:Drivers/STM32G4xx_HAL_Driver/Src/stm32g4xx_hal_dma.c ****     hdma->State = HAL_DMA_STATE_READY;
 590:Drivers/STM32G4xx_HAL_Driver/Src/stm32g4xx_hal_dma.c **** 
 591:Drivers/STM32G4xx_HAL_Driver/Src/stm32g4xx_hal_dma.c ****     /* Process Unlocked */
 592:Drivers/STM32G4xx_HAL_Driver/Src/stm32g4xx_hal_dma.c ****     __HAL_UNLOCK(hdma);
 593:Drivers/STM32G4xx_HAL_Driver/Src/stm32g4xx_hal_dma.c **** 
 594:Drivers/STM32G4xx_HAL_Driver/Src/stm32g4xx_hal_dma.c ****     /* Call User Abort callback */
 595:Drivers/STM32G4xx_HAL_Driver/Src/stm32g4xx_hal_dma.c ****     if (hdma->XferAbortCallback != NULL)
 596:Drivers/STM32G4xx_HAL_Driver/Src/stm32g4xx_hal_dma.c ****     {
 597:Drivers/STM32G4xx_HAL_Driver/Src/stm32g4xx_hal_dma.c ****       hdma->XferAbortCallback(hdma);
 598:Drivers/STM32G4xx_HAL_Driver/Src/stm32g4xx_hal_dma.c ****     }
 599:Drivers/STM32G4xx_HAL_Driver/Src/stm32g4xx_hal_dma.c ****   }
 600:Drivers/STM32G4xx_HAL_Driver/Src/stm32g4xx_hal_dma.c ****   return status;
 601:Drivers/STM32G4xx_HAL_Driver/Src/stm32g4xx_hal_dma.c **** }
 602:Drivers/STM32G4xx_HAL_Driver/Src/stm32g4xx_hal_dma.c **** 
 603:Drivers/STM32G4xx_HAL_Driver/Src/stm32g4xx_hal_dma.c **** /**
 604:Drivers/STM32G4xx_HAL_Driver/Src/stm32g4xx_hal_dma.c ****   * @brief  Polling for transfer complete.
 605:Drivers/STM32G4xx_HAL_Driver/Src/stm32g4xx_hal_dma.c ****   * @param  hdma pointer to a DMA_HandleTypeDef structure that contains
 606:Drivers/STM32G4xx_HAL_Driver/Src/stm32g4xx_hal_dma.c ****   *              the configuration information for the specified DMA Channel.
 607:Drivers/STM32G4xx_HAL_Driver/Src/stm32g4xx_hal_dma.c ****   * @param  CompleteLevel Specifies the DMA level complete.
 608:Drivers/STM32G4xx_HAL_Driver/Src/stm32g4xx_hal_dma.c ****   * @param  Timeout       Timeout duration.
 609:Drivers/STM32G4xx_HAL_Driver/Src/stm32g4xx_hal_dma.c ****   * @retval HAL status
 610:Drivers/STM32G4xx_HAL_Driver/Src/stm32g4xx_hal_dma.c ****   */
 611:Drivers/STM32G4xx_HAL_Driver/Src/stm32g4xx_hal_dma.c **** HAL_StatusTypeDef HAL_DMA_PollForTransfer(DMA_HandleTypeDef *hdma, HAL_DMA_LevelCompleteTypeDef Com
 612:Drivers/STM32G4xx_HAL_Driver/Src/stm32g4xx_hal_dma.c ****                                           uint32_t Timeout)
 613:Drivers/STM32G4xx_HAL_Driver/Src/stm32g4xx_hal_dma.c **** {
 614:Drivers/STM32G4xx_HAL_Driver/Src/stm32g4xx_hal_dma.c ****   uint32_t temp;
 615:Drivers/STM32G4xx_HAL_Driver/Src/stm32g4xx_hal_dma.c ****   uint32_t tickstart;
 616:Drivers/STM32G4xx_HAL_Driver/Src/stm32g4xx_hal_dma.c **** 
 617:Drivers/STM32G4xx_HAL_Driver/Src/stm32g4xx_hal_dma.c ****   if (HAL_DMA_STATE_BUSY != hdma->State)
 618:Drivers/STM32G4xx_HAL_Driver/Src/stm32g4xx_hal_dma.c ****   {
 619:Drivers/STM32G4xx_HAL_Driver/Src/stm32g4xx_hal_dma.c ****     /* no transfer ongoing */
 620:Drivers/STM32G4xx_HAL_Driver/Src/stm32g4xx_hal_dma.c ****     hdma->ErrorCode = HAL_DMA_ERROR_NO_XFER;
 621:Drivers/STM32G4xx_HAL_Driver/Src/stm32g4xx_hal_dma.c ****     __HAL_UNLOCK(hdma);
 622:Drivers/STM32G4xx_HAL_Driver/Src/stm32g4xx_hal_dma.c ****     return HAL_ERROR;
 623:Drivers/STM32G4xx_HAL_Driver/Src/stm32g4xx_hal_dma.c ****   }
 624:Drivers/STM32G4xx_HAL_Driver/Src/stm32g4xx_hal_dma.c **** 
 625:Drivers/STM32G4xx_HAL_Driver/Src/stm32g4xx_hal_dma.c ****   /* Polling mode not supported in circular mode */
ARM GAS  /tmp/ccQfBzxp.s 			page 14


 626:Drivers/STM32G4xx_HAL_Driver/Src/stm32g4xx_hal_dma.c ****   if (0U != (hdma->Instance->CCR & DMA_CCR_CIRC))
 627:Drivers/STM32G4xx_HAL_Driver/Src/stm32g4xx_hal_dma.c ****   {
 628:Drivers/STM32G4xx_HAL_Driver/Src/stm32g4xx_hal_dma.c ****     hdma->ErrorCode = HAL_DMA_ERROR_NOT_SUPPORTED;
 629:Drivers/STM32G4xx_HAL_Driver/Src/stm32g4xx_hal_dma.c ****     return HAL_ERROR;
 630:Drivers/STM32G4xx_HAL_Driver/Src/stm32g4xx_hal_dma.c ****   }
 631:Drivers/STM32G4xx_HAL_Driver/Src/stm32g4xx_hal_dma.c **** 
 632:Drivers/STM32G4xx_HAL_Driver/Src/stm32g4xx_hal_dma.c ****   /* Get the level transfer complete flag */
 633:Drivers/STM32G4xx_HAL_Driver/Src/stm32g4xx_hal_dma.c ****   if (HAL_DMA_FULL_TRANSFER == CompleteLevel)
 634:Drivers/STM32G4xx_HAL_Driver/Src/stm32g4xx_hal_dma.c ****   {
 635:Drivers/STM32G4xx_HAL_Driver/Src/stm32g4xx_hal_dma.c ****     /* Transfer Complete flag */
 636:Drivers/STM32G4xx_HAL_Driver/Src/stm32g4xx_hal_dma.c **** 
 637:Drivers/STM32G4xx_HAL_Driver/Src/stm32g4xx_hal_dma.c ****     temp = (uint32_t)DMA_FLAG_TC1 << (hdma->ChannelIndex & 0x1FU);
 638:Drivers/STM32G4xx_HAL_Driver/Src/stm32g4xx_hal_dma.c ****   }
 639:Drivers/STM32G4xx_HAL_Driver/Src/stm32g4xx_hal_dma.c ****   else
 640:Drivers/STM32G4xx_HAL_Driver/Src/stm32g4xx_hal_dma.c ****   {
 641:Drivers/STM32G4xx_HAL_Driver/Src/stm32g4xx_hal_dma.c ****     /* Half Transfer Complete flag */
 642:Drivers/STM32G4xx_HAL_Driver/Src/stm32g4xx_hal_dma.c ****     temp = (uint32_t)DMA_FLAG_HT1 << (hdma->ChannelIndex & 0x1FU);
 643:Drivers/STM32G4xx_HAL_Driver/Src/stm32g4xx_hal_dma.c ****   }
 644:Drivers/STM32G4xx_HAL_Driver/Src/stm32g4xx_hal_dma.c **** 
 645:Drivers/STM32G4xx_HAL_Driver/Src/stm32g4xx_hal_dma.c ****   /* Get tick */
 646:Drivers/STM32G4xx_HAL_Driver/Src/stm32g4xx_hal_dma.c ****   tickstart = HAL_GetTick();
 647:Drivers/STM32G4xx_HAL_Driver/Src/stm32g4xx_hal_dma.c **** 
 648:Drivers/STM32G4xx_HAL_Driver/Src/stm32g4xx_hal_dma.c ****   while (0U == (hdma->DmaBaseAddress->ISR & temp))
 649:Drivers/STM32G4xx_HAL_Driver/Src/stm32g4xx_hal_dma.c ****   {
 650:Drivers/STM32G4xx_HAL_Driver/Src/stm32g4xx_hal_dma.c ****     if ((0U != (hdma->DmaBaseAddress->ISR & ((uint32_t)DMA_FLAG_TE1 << (hdma->ChannelIndex & 0x1FU)
 651:Drivers/STM32G4xx_HAL_Driver/Src/stm32g4xx_hal_dma.c ****     {
 652:Drivers/STM32G4xx_HAL_Driver/Src/stm32g4xx_hal_dma.c ****       /* When a DMA transfer error occurs */
 653:Drivers/STM32G4xx_HAL_Driver/Src/stm32g4xx_hal_dma.c ****       /* A hardware clear of its EN bits is performed */
 654:Drivers/STM32G4xx_HAL_Driver/Src/stm32g4xx_hal_dma.c ****       /* Clear all flags */
 655:Drivers/STM32G4xx_HAL_Driver/Src/stm32g4xx_hal_dma.c ****       hdma->DmaBaseAddress->IFCR = ((uint32_t)DMA_ISR_GIF1 << (hdma->ChannelIndex & 0x1FU));
 656:Drivers/STM32G4xx_HAL_Driver/Src/stm32g4xx_hal_dma.c **** 
 657:Drivers/STM32G4xx_HAL_Driver/Src/stm32g4xx_hal_dma.c ****       /* Update error code */
 658:Drivers/STM32G4xx_HAL_Driver/Src/stm32g4xx_hal_dma.c ****       hdma->ErrorCode = HAL_DMA_ERROR_TE;
 659:Drivers/STM32G4xx_HAL_Driver/Src/stm32g4xx_hal_dma.c **** 
 660:Drivers/STM32G4xx_HAL_Driver/Src/stm32g4xx_hal_dma.c ****       /* Change the DMA state */
 661:Drivers/STM32G4xx_HAL_Driver/Src/stm32g4xx_hal_dma.c ****       hdma->State = HAL_DMA_STATE_READY;
 662:Drivers/STM32G4xx_HAL_Driver/Src/stm32g4xx_hal_dma.c **** 
 663:Drivers/STM32G4xx_HAL_Driver/Src/stm32g4xx_hal_dma.c ****       /* Process Unlocked */
 664:Drivers/STM32G4xx_HAL_Driver/Src/stm32g4xx_hal_dma.c ****       __HAL_UNLOCK(hdma);
 665:Drivers/STM32G4xx_HAL_Driver/Src/stm32g4xx_hal_dma.c **** 
 666:Drivers/STM32G4xx_HAL_Driver/Src/stm32g4xx_hal_dma.c ****       return HAL_ERROR;
 667:Drivers/STM32G4xx_HAL_Driver/Src/stm32g4xx_hal_dma.c ****     }
 668:Drivers/STM32G4xx_HAL_Driver/Src/stm32g4xx_hal_dma.c ****     /* Check for the Timeout */
 669:Drivers/STM32G4xx_HAL_Driver/Src/stm32g4xx_hal_dma.c ****     if (Timeout != HAL_MAX_DELAY)
 670:Drivers/STM32G4xx_HAL_Driver/Src/stm32g4xx_hal_dma.c ****     {
 671:Drivers/STM32G4xx_HAL_Driver/Src/stm32g4xx_hal_dma.c ****       if (((HAL_GetTick() - tickstart) > Timeout) || (Timeout == 0U))
 672:Drivers/STM32G4xx_HAL_Driver/Src/stm32g4xx_hal_dma.c ****       {
 673:Drivers/STM32G4xx_HAL_Driver/Src/stm32g4xx_hal_dma.c ****         /* Update error code */
 674:Drivers/STM32G4xx_HAL_Driver/Src/stm32g4xx_hal_dma.c ****         hdma->ErrorCode = HAL_DMA_ERROR_TIMEOUT;
 675:Drivers/STM32G4xx_HAL_Driver/Src/stm32g4xx_hal_dma.c **** 
 676:Drivers/STM32G4xx_HAL_Driver/Src/stm32g4xx_hal_dma.c ****         /* Change the DMA state */
 677:Drivers/STM32G4xx_HAL_Driver/Src/stm32g4xx_hal_dma.c ****         hdma->State = HAL_DMA_STATE_READY;
 678:Drivers/STM32G4xx_HAL_Driver/Src/stm32g4xx_hal_dma.c **** 
 679:Drivers/STM32G4xx_HAL_Driver/Src/stm32g4xx_hal_dma.c ****         /* Process Unlocked */
 680:Drivers/STM32G4xx_HAL_Driver/Src/stm32g4xx_hal_dma.c ****         __HAL_UNLOCK(hdma);
 681:Drivers/STM32G4xx_HAL_Driver/Src/stm32g4xx_hal_dma.c **** 
 682:Drivers/STM32G4xx_HAL_Driver/Src/stm32g4xx_hal_dma.c ****         return HAL_ERROR;
ARM GAS  /tmp/ccQfBzxp.s 			page 15


 683:Drivers/STM32G4xx_HAL_Driver/Src/stm32g4xx_hal_dma.c ****       }
 684:Drivers/STM32G4xx_HAL_Driver/Src/stm32g4xx_hal_dma.c ****     }
 685:Drivers/STM32G4xx_HAL_Driver/Src/stm32g4xx_hal_dma.c ****   }
 686:Drivers/STM32G4xx_HAL_Driver/Src/stm32g4xx_hal_dma.c **** 
 687:Drivers/STM32G4xx_HAL_Driver/Src/stm32g4xx_hal_dma.c ****   /*Check for DMAMUX Request generator (if used) overrun status */
 688:Drivers/STM32G4xx_HAL_Driver/Src/stm32g4xx_hal_dma.c ****   if (hdma->DMAmuxRequestGen != 0U)
 689:Drivers/STM32G4xx_HAL_Driver/Src/stm32g4xx_hal_dma.c ****   {
 690:Drivers/STM32G4xx_HAL_Driver/Src/stm32g4xx_hal_dma.c ****     /* if using DMAMUX request generator Check for DMAMUX request generator overrun */
 691:Drivers/STM32G4xx_HAL_Driver/Src/stm32g4xx_hal_dma.c ****     if ((hdma->DMAmuxRequestGenStatus->RGSR & hdma->DMAmuxRequestGenStatusMask) != 0U)
 692:Drivers/STM32G4xx_HAL_Driver/Src/stm32g4xx_hal_dma.c ****     {
 693:Drivers/STM32G4xx_HAL_Driver/Src/stm32g4xx_hal_dma.c ****       /* Disable the request gen overrun interrupt */
 694:Drivers/STM32G4xx_HAL_Driver/Src/stm32g4xx_hal_dma.c ****       hdma->DMAmuxRequestGen->RGCR |= DMAMUX_RGxCR_OIE;
 695:Drivers/STM32G4xx_HAL_Driver/Src/stm32g4xx_hal_dma.c **** 
 696:Drivers/STM32G4xx_HAL_Driver/Src/stm32g4xx_hal_dma.c ****       /* Clear the DMAMUX request generator overrun flag */
 697:Drivers/STM32G4xx_HAL_Driver/Src/stm32g4xx_hal_dma.c ****       hdma->DMAmuxRequestGenStatus->RGCFR = hdma->DMAmuxRequestGenStatusMask;
 698:Drivers/STM32G4xx_HAL_Driver/Src/stm32g4xx_hal_dma.c **** 
 699:Drivers/STM32G4xx_HAL_Driver/Src/stm32g4xx_hal_dma.c ****       /* Update error code */
 700:Drivers/STM32G4xx_HAL_Driver/Src/stm32g4xx_hal_dma.c ****       hdma->ErrorCode |= HAL_DMA_ERROR_REQGEN;
 701:Drivers/STM32G4xx_HAL_Driver/Src/stm32g4xx_hal_dma.c ****     }
 702:Drivers/STM32G4xx_HAL_Driver/Src/stm32g4xx_hal_dma.c ****   }
 703:Drivers/STM32G4xx_HAL_Driver/Src/stm32g4xx_hal_dma.c **** 
 704:Drivers/STM32G4xx_HAL_Driver/Src/stm32g4xx_hal_dma.c ****   /* Check for DMAMUX Synchronization overrun */
 705:Drivers/STM32G4xx_HAL_Driver/Src/stm32g4xx_hal_dma.c ****   if ((hdma->DMAmuxChannelStatus->CSR & hdma->DMAmuxChannelStatusMask) != 0U)
 706:Drivers/STM32G4xx_HAL_Driver/Src/stm32g4xx_hal_dma.c ****   {
 707:Drivers/STM32G4xx_HAL_Driver/Src/stm32g4xx_hal_dma.c ****     /* Clear the DMAMUX synchro overrun flag */
 708:Drivers/STM32G4xx_HAL_Driver/Src/stm32g4xx_hal_dma.c ****     hdma->DMAmuxChannelStatus->CFR = hdma->DMAmuxChannelStatusMask;
 709:Drivers/STM32G4xx_HAL_Driver/Src/stm32g4xx_hal_dma.c **** 
 710:Drivers/STM32G4xx_HAL_Driver/Src/stm32g4xx_hal_dma.c ****     /* Update error code */
 711:Drivers/STM32G4xx_HAL_Driver/Src/stm32g4xx_hal_dma.c ****     hdma->ErrorCode |= HAL_DMA_ERROR_SYNC;
 712:Drivers/STM32G4xx_HAL_Driver/Src/stm32g4xx_hal_dma.c ****   }
 713:Drivers/STM32G4xx_HAL_Driver/Src/stm32g4xx_hal_dma.c **** 
 714:Drivers/STM32G4xx_HAL_Driver/Src/stm32g4xx_hal_dma.c ****   if (HAL_DMA_FULL_TRANSFER == CompleteLevel)
 715:Drivers/STM32G4xx_HAL_Driver/Src/stm32g4xx_hal_dma.c ****   {
 716:Drivers/STM32G4xx_HAL_Driver/Src/stm32g4xx_hal_dma.c ****     /* Clear the transfer complete flag */
 717:Drivers/STM32G4xx_HAL_Driver/Src/stm32g4xx_hal_dma.c ****     hdma->DmaBaseAddress->IFCR = ((uint32_t)DMA_FLAG_TC1 << (hdma->ChannelIndex & 0x1FU));
 718:Drivers/STM32G4xx_HAL_Driver/Src/stm32g4xx_hal_dma.c **** 
 719:Drivers/STM32G4xx_HAL_Driver/Src/stm32g4xx_hal_dma.c ****     /* The selected Channelx EN bit is cleared (DMA is disabled and
 720:Drivers/STM32G4xx_HAL_Driver/Src/stm32g4xx_hal_dma.c ****     all transfers are complete) */
 721:Drivers/STM32G4xx_HAL_Driver/Src/stm32g4xx_hal_dma.c ****     hdma->State = HAL_DMA_STATE_READY;
 722:Drivers/STM32G4xx_HAL_Driver/Src/stm32g4xx_hal_dma.c ****   }
 723:Drivers/STM32G4xx_HAL_Driver/Src/stm32g4xx_hal_dma.c ****   else
 724:Drivers/STM32G4xx_HAL_Driver/Src/stm32g4xx_hal_dma.c ****   {
 725:Drivers/STM32G4xx_HAL_Driver/Src/stm32g4xx_hal_dma.c ****     /* Clear the half transfer complete flag */
 726:Drivers/STM32G4xx_HAL_Driver/Src/stm32g4xx_hal_dma.c ****     hdma->DmaBaseAddress->IFCR = ((uint32_t)DMA_FLAG_HT1 << (hdma->ChannelIndex & 0x1FU));
 727:Drivers/STM32G4xx_HAL_Driver/Src/stm32g4xx_hal_dma.c ****   }
 728:Drivers/STM32G4xx_HAL_Driver/Src/stm32g4xx_hal_dma.c **** 
 729:Drivers/STM32G4xx_HAL_Driver/Src/stm32g4xx_hal_dma.c ****   /* Process unlocked */
 730:Drivers/STM32G4xx_HAL_Driver/Src/stm32g4xx_hal_dma.c ****   __HAL_UNLOCK(hdma);
 731:Drivers/STM32G4xx_HAL_Driver/Src/stm32g4xx_hal_dma.c **** 
 732:Drivers/STM32G4xx_HAL_Driver/Src/stm32g4xx_hal_dma.c ****   return HAL_OK;
 733:Drivers/STM32G4xx_HAL_Driver/Src/stm32g4xx_hal_dma.c **** }
 734:Drivers/STM32G4xx_HAL_Driver/Src/stm32g4xx_hal_dma.c **** 
 735:Drivers/STM32G4xx_HAL_Driver/Src/stm32g4xx_hal_dma.c **** /**
 736:Drivers/STM32G4xx_HAL_Driver/Src/stm32g4xx_hal_dma.c ****   * @brief  Handle DMA interrupt request.
 737:Drivers/STM32G4xx_HAL_Driver/Src/stm32g4xx_hal_dma.c ****   * @param  hdma pointer to a DMA_HandleTypeDef structure that contains
 738:Drivers/STM32G4xx_HAL_Driver/Src/stm32g4xx_hal_dma.c ****   *               the configuration information for the specified DMA Channel.
 739:Drivers/STM32G4xx_HAL_Driver/Src/stm32g4xx_hal_dma.c ****   * @retval None
ARM GAS  /tmp/ccQfBzxp.s 			page 16


 740:Drivers/STM32G4xx_HAL_Driver/Src/stm32g4xx_hal_dma.c ****   */
 741:Drivers/STM32G4xx_HAL_Driver/Src/stm32g4xx_hal_dma.c **** void HAL_DMA_IRQHandler(DMA_HandleTypeDef *hdma)
 742:Drivers/STM32G4xx_HAL_Driver/Src/stm32g4xx_hal_dma.c **** {
 743:Drivers/STM32G4xx_HAL_Driver/Src/stm32g4xx_hal_dma.c ****   uint32_t flag_it = hdma->DmaBaseAddress->ISR;
 744:Drivers/STM32G4xx_HAL_Driver/Src/stm32g4xx_hal_dma.c ****   uint32_t source_it = hdma->Instance->CCR;
 745:Drivers/STM32G4xx_HAL_Driver/Src/stm32g4xx_hal_dma.c **** 
 746:Drivers/STM32G4xx_HAL_Driver/Src/stm32g4xx_hal_dma.c ****   /* Half Transfer Complete Interrupt management ******************************/
 747:Drivers/STM32G4xx_HAL_Driver/Src/stm32g4xx_hal_dma.c ****   if ((0U != (flag_it & ((uint32_t)DMA_FLAG_HT1 << (hdma->ChannelIndex & 0x1FU)))) && (0U != (sourc
 748:Drivers/STM32G4xx_HAL_Driver/Src/stm32g4xx_hal_dma.c ****   {
 749:Drivers/STM32G4xx_HAL_Driver/Src/stm32g4xx_hal_dma.c ****     /* Disable the half transfer interrupt if the DMA mode is not CIRCULAR */
 750:Drivers/STM32G4xx_HAL_Driver/Src/stm32g4xx_hal_dma.c ****     if ((hdma->Instance->CCR & DMA_CCR_CIRC) == 0U)
 751:Drivers/STM32G4xx_HAL_Driver/Src/stm32g4xx_hal_dma.c ****     {
 752:Drivers/STM32G4xx_HAL_Driver/Src/stm32g4xx_hal_dma.c ****       /* Disable the half transfer interrupt */
 753:Drivers/STM32G4xx_HAL_Driver/Src/stm32g4xx_hal_dma.c ****       __HAL_DMA_DISABLE_IT(hdma, DMA_IT_HT);
 754:Drivers/STM32G4xx_HAL_Driver/Src/stm32g4xx_hal_dma.c ****     }
 755:Drivers/STM32G4xx_HAL_Driver/Src/stm32g4xx_hal_dma.c ****     /* Clear the half transfer complete flag */
 756:Drivers/STM32G4xx_HAL_Driver/Src/stm32g4xx_hal_dma.c ****     hdma->DmaBaseAddress->IFCR = ((uint32_t)DMA_ISR_HTIF1 << (hdma->ChannelIndex & 0x1FU));
 757:Drivers/STM32G4xx_HAL_Driver/Src/stm32g4xx_hal_dma.c **** 
 758:Drivers/STM32G4xx_HAL_Driver/Src/stm32g4xx_hal_dma.c ****     /* DMA peripheral state is not updated in Half Transfer */
 759:Drivers/STM32G4xx_HAL_Driver/Src/stm32g4xx_hal_dma.c ****     /* but in Transfer Complete case */
 760:Drivers/STM32G4xx_HAL_Driver/Src/stm32g4xx_hal_dma.c **** 
 761:Drivers/STM32G4xx_HAL_Driver/Src/stm32g4xx_hal_dma.c ****     if (hdma->XferHalfCpltCallback != NULL)
 762:Drivers/STM32G4xx_HAL_Driver/Src/stm32g4xx_hal_dma.c ****     {
 763:Drivers/STM32G4xx_HAL_Driver/Src/stm32g4xx_hal_dma.c ****       /* Half transfer callback */
 764:Drivers/STM32G4xx_HAL_Driver/Src/stm32g4xx_hal_dma.c ****       hdma->XferHalfCpltCallback(hdma);
 765:Drivers/STM32G4xx_HAL_Driver/Src/stm32g4xx_hal_dma.c ****     }
 766:Drivers/STM32G4xx_HAL_Driver/Src/stm32g4xx_hal_dma.c ****   }
 767:Drivers/STM32G4xx_HAL_Driver/Src/stm32g4xx_hal_dma.c ****   /* Transfer Complete Interrupt management ***********************************/
 768:Drivers/STM32G4xx_HAL_Driver/Src/stm32g4xx_hal_dma.c ****   else if ((0U != (flag_it & ((uint32_t)DMA_FLAG_TC1 << (hdma->ChannelIndex & 0x1FU))))
 769:Drivers/STM32G4xx_HAL_Driver/Src/stm32g4xx_hal_dma.c ****            && (0U != (source_it & DMA_IT_TC)))
 770:Drivers/STM32G4xx_HAL_Driver/Src/stm32g4xx_hal_dma.c ****   {
 771:Drivers/STM32G4xx_HAL_Driver/Src/stm32g4xx_hal_dma.c ****     if ((hdma->Instance->CCR & DMA_CCR_CIRC) == 0U)
 772:Drivers/STM32G4xx_HAL_Driver/Src/stm32g4xx_hal_dma.c ****     {
 773:Drivers/STM32G4xx_HAL_Driver/Src/stm32g4xx_hal_dma.c ****       /* Disable the transfer complete and error interrupt */
 774:Drivers/STM32G4xx_HAL_Driver/Src/stm32g4xx_hal_dma.c ****       __HAL_DMA_DISABLE_IT(hdma, DMA_IT_TE | DMA_IT_TC);
 775:Drivers/STM32G4xx_HAL_Driver/Src/stm32g4xx_hal_dma.c **** 
 776:Drivers/STM32G4xx_HAL_Driver/Src/stm32g4xx_hal_dma.c ****       /* Change the DMA state */
 777:Drivers/STM32G4xx_HAL_Driver/Src/stm32g4xx_hal_dma.c ****       hdma->State = HAL_DMA_STATE_READY;
 778:Drivers/STM32G4xx_HAL_Driver/Src/stm32g4xx_hal_dma.c ****     }
 779:Drivers/STM32G4xx_HAL_Driver/Src/stm32g4xx_hal_dma.c ****     /* Clear the transfer complete flag */
 780:Drivers/STM32G4xx_HAL_Driver/Src/stm32g4xx_hal_dma.c ****     hdma->DmaBaseAddress->IFCR = ((uint32_t)DMA_ISR_TCIF1 << (hdma->ChannelIndex & 0x1FU));
 781:Drivers/STM32G4xx_HAL_Driver/Src/stm32g4xx_hal_dma.c **** 
 782:Drivers/STM32G4xx_HAL_Driver/Src/stm32g4xx_hal_dma.c ****     /* Process Unlocked */
 783:Drivers/STM32G4xx_HAL_Driver/Src/stm32g4xx_hal_dma.c ****     __HAL_UNLOCK(hdma);
 784:Drivers/STM32G4xx_HAL_Driver/Src/stm32g4xx_hal_dma.c **** 
 785:Drivers/STM32G4xx_HAL_Driver/Src/stm32g4xx_hal_dma.c ****     if (hdma->XferCpltCallback != NULL)
 786:Drivers/STM32G4xx_HAL_Driver/Src/stm32g4xx_hal_dma.c ****     {
 787:Drivers/STM32G4xx_HAL_Driver/Src/stm32g4xx_hal_dma.c ****       /* Transfer complete callback */
 788:Drivers/STM32G4xx_HAL_Driver/Src/stm32g4xx_hal_dma.c ****       hdma->XferCpltCallback(hdma);
 789:Drivers/STM32G4xx_HAL_Driver/Src/stm32g4xx_hal_dma.c ****     }
 790:Drivers/STM32G4xx_HAL_Driver/Src/stm32g4xx_hal_dma.c ****   }
 791:Drivers/STM32G4xx_HAL_Driver/Src/stm32g4xx_hal_dma.c ****   /* Transfer Error Interrupt management **************************************/
 792:Drivers/STM32G4xx_HAL_Driver/Src/stm32g4xx_hal_dma.c ****   else if ((0U != (flag_it & ((uint32_t)DMA_FLAG_TE1 << (hdma->ChannelIndex & 0x1FU))))
 793:Drivers/STM32G4xx_HAL_Driver/Src/stm32g4xx_hal_dma.c ****            && (0U != (source_it & DMA_IT_TE)))
 794:Drivers/STM32G4xx_HAL_Driver/Src/stm32g4xx_hal_dma.c ****   {
 795:Drivers/STM32G4xx_HAL_Driver/Src/stm32g4xx_hal_dma.c ****     /* When a DMA transfer error occurs */
 796:Drivers/STM32G4xx_HAL_Driver/Src/stm32g4xx_hal_dma.c ****     /* A hardware clear of its EN bits is performed */
ARM GAS  /tmp/ccQfBzxp.s 			page 17


 797:Drivers/STM32G4xx_HAL_Driver/Src/stm32g4xx_hal_dma.c ****     /* Disable ALL DMA IT */
 798:Drivers/STM32G4xx_HAL_Driver/Src/stm32g4xx_hal_dma.c ****     __HAL_DMA_DISABLE_IT(hdma, (DMA_IT_TC | DMA_IT_HT | DMA_IT_TE));
 799:Drivers/STM32G4xx_HAL_Driver/Src/stm32g4xx_hal_dma.c **** 
 800:Drivers/STM32G4xx_HAL_Driver/Src/stm32g4xx_hal_dma.c ****     /* Clear all flags */
 801:Drivers/STM32G4xx_HAL_Driver/Src/stm32g4xx_hal_dma.c ****     hdma->DmaBaseAddress->IFCR = ((uint32_t)DMA_ISR_GIF1 << (hdma->ChannelIndex & 0x1FU));
 802:Drivers/STM32G4xx_HAL_Driver/Src/stm32g4xx_hal_dma.c **** 
 803:Drivers/STM32G4xx_HAL_Driver/Src/stm32g4xx_hal_dma.c ****     /* Update error code */
 804:Drivers/STM32G4xx_HAL_Driver/Src/stm32g4xx_hal_dma.c ****     hdma->ErrorCode = HAL_DMA_ERROR_TE;
 805:Drivers/STM32G4xx_HAL_Driver/Src/stm32g4xx_hal_dma.c **** 
 806:Drivers/STM32G4xx_HAL_Driver/Src/stm32g4xx_hal_dma.c ****     /* Change the DMA state */
 807:Drivers/STM32G4xx_HAL_Driver/Src/stm32g4xx_hal_dma.c ****     hdma->State = HAL_DMA_STATE_READY;
 808:Drivers/STM32G4xx_HAL_Driver/Src/stm32g4xx_hal_dma.c **** 
 809:Drivers/STM32G4xx_HAL_Driver/Src/stm32g4xx_hal_dma.c ****     /* Process Unlocked */
 810:Drivers/STM32G4xx_HAL_Driver/Src/stm32g4xx_hal_dma.c ****     __HAL_UNLOCK(hdma);
 811:Drivers/STM32G4xx_HAL_Driver/Src/stm32g4xx_hal_dma.c **** 
 812:Drivers/STM32G4xx_HAL_Driver/Src/stm32g4xx_hal_dma.c ****     if (hdma->XferErrorCallback != NULL)
 813:Drivers/STM32G4xx_HAL_Driver/Src/stm32g4xx_hal_dma.c ****     {
 814:Drivers/STM32G4xx_HAL_Driver/Src/stm32g4xx_hal_dma.c ****       /* Transfer error callback */
 815:Drivers/STM32G4xx_HAL_Driver/Src/stm32g4xx_hal_dma.c ****       hdma->XferErrorCallback(hdma);
 816:Drivers/STM32G4xx_HAL_Driver/Src/stm32g4xx_hal_dma.c ****     }
 817:Drivers/STM32G4xx_HAL_Driver/Src/stm32g4xx_hal_dma.c ****   }
 818:Drivers/STM32G4xx_HAL_Driver/Src/stm32g4xx_hal_dma.c ****   else
 819:Drivers/STM32G4xx_HAL_Driver/Src/stm32g4xx_hal_dma.c ****   {
 820:Drivers/STM32G4xx_HAL_Driver/Src/stm32g4xx_hal_dma.c ****     /* Nothing To Do */
 821:Drivers/STM32G4xx_HAL_Driver/Src/stm32g4xx_hal_dma.c ****   }
 822:Drivers/STM32G4xx_HAL_Driver/Src/stm32g4xx_hal_dma.c ****   return;
 823:Drivers/STM32G4xx_HAL_Driver/Src/stm32g4xx_hal_dma.c **** }
 824:Drivers/STM32G4xx_HAL_Driver/Src/stm32g4xx_hal_dma.c **** 
 825:Drivers/STM32G4xx_HAL_Driver/Src/stm32g4xx_hal_dma.c **** /**
 826:Drivers/STM32G4xx_HAL_Driver/Src/stm32g4xx_hal_dma.c ****   * @brief  Register callbacks
 827:Drivers/STM32G4xx_HAL_Driver/Src/stm32g4xx_hal_dma.c ****   * @param  hdma                 pointer to a DMA_HandleTypeDef structure that contains
 828:Drivers/STM32G4xx_HAL_Driver/Src/stm32g4xx_hal_dma.c ****   *                               the configuration information for the specified DMA Channel.
 829:Drivers/STM32G4xx_HAL_Driver/Src/stm32g4xx_hal_dma.c ****   * @param  CallbackID           User Callback identifier
 830:Drivers/STM32G4xx_HAL_Driver/Src/stm32g4xx_hal_dma.c ****   *                               a HAL_DMA_CallbackIDTypeDef ENUM as parameter.
 831:Drivers/STM32G4xx_HAL_Driver/Src/stm32g4xx_hal_dma.c ****   * @param  pCallback            pointer to private callbacsk function which has pointer to
 832:Drivers/STM32G4xx_HAL_Driver/Src/stm32g4xx_hal_dma.c ****   *                               a DMA_HandleTypeDef structure as parameter.
 833:Drivers/STM32G4xx_HAL_Driver/Src/stm32g4xx_hal_dma.c ****   * @retval HAL status
 834:Drivers/STM32G4xx_HAL_Driver/Src/stm32g4xx_hal_dma.c ****   */
 835:Drivers/STM32G4xx_HAL_Driver/Src/stm32g4xx_hal_dma.c **** HAL_StatusTypeDef HAL_DMA_RegisterCallback(DMA_HandleTypeDef *hdma, HAL_DMA_CallbackIDTypeDef Callb
 836:Drivers/STM32G4xx_HAL_Driver/Src/stm32g4xx_hal_dma.c **** {
 837:Drivers/STM32G4xx_HAL_Driver/Src/stm32g4xx_hal_dma.c ****   HAL_StatusTypeDef status = HAL_OK;
 838:Drivers/STM32G4xx_HAL_Driver/Src/stm32g4xx_hal_dma.c **** 
 839:Drivers/STM32G4xx_HAL_Driver/Src/stm32g4xx_hal_dma.c ****   /* Process locked */
 840:Drivers/STM32G4xx_HAL_Driver/Src/stm32g4xx_hal_dma.c ****   __HAL_LOCK(hdma);
 841:Drivers/STM32G4xx_HAL_Driver/Src/stm32g4xx_hal_dma.c **** 
 842:Drivers/STM32G4xx_HAL_Driver/Src/stm32g4xx_hal_dma.c ****   if (HAL_DMA_STATE_READY == hdma->State)
 843:Drivers/STM32G4xx_HAL_Driver/Src/stm32g4xx_hal_dma.c ****   {
 844:Drivers/STM32G4xx_HAL_Driver/Src/stm32g4xx_hal_dma.c ****     switch (CallbackID)
 845:Drivers/STM32G4xx_HAL_Driver/Src/stm32g4xx_hal_dma.c ****     {
 846:Drivers/STM32G4xx_HAL_Driver/Src/stm32g4xx_hal_dma.c ****       case  HAL_DMA_XFER_CPLT_CB_ID:
 847:Drivers/STM32G4xx_HAL_Driver/Src/stm32g4xx_hal_dma.c ****         hdma->XferCpltCallback = pCallback;
 848:Drivers/STM32G4xx_HAL_Driver/Src/stm32g4xx_hal_dma.c ****         break;
 849:Drivers/STM32G4xx_HAL_Driver/Src/stm32g4xx_hal_dma.c **** 
 850:Drivers/STM32G4xx_HAL_Driver/Src/stm32g4xx_hal_dma.c ****       case  HAL_DMA_XFER_HALFCPLT_CB_ID:
 851:Drivers/STM32G4xx_HAL_Driver/Src/stm32g4xx_hal_dma.c ****         hdma->XferHalfCpltCallback = pCallback;
 852:Drivers/STM32G4xx_HAL_Driver/Src/stm32g4xx_hal_dma.c ****         break;
 853:Drivers/STM32G4xx_HAL_Driver/Src/stm32g4xx_hal_dma.c **** 
ARM GAS  /tmp/ccQfBzxp.s 			page 18


 854:Drivers/STM32G4xx_HAL_Driver/Src/stm32g4xx_hal_dma.c ****       case  HAL_DMA_XFER_ERROR_CB_ID:
 855:Drivers/STM32G4xx_HAL_Driver/Src/stm32g4xx_hal_dma.c ****         hdma->XferErrorCallback = pCallback;
 856:Drivers/STM32G4xx_HAL_Driver/Src/stm32g4xx_hal_dma.c ****         break;
 857:Drivers/STM32G4xx_HAL_Driver/Src/stm32g4xx_hal_dma.c **** 
 858:Drivers/STM32G4xx_HAL_Driver/Src/stm32g4xx_hal_dma.c ****       case  HAL_DMA_XFER_ABORT_CB_ID:
 859:Drivers/STM32G4xx_HAL_Driver/Src/stm32g4xx_hal_dma.c ****         hdma->XferAbortCallback = pCallback;
 860:Drivers/STM32G4xx_HAL_Driver/Src/stm32g4xx_hal_dma.c ****         break;
 861:Drivers/STM32G4xx_HAL_Driver/Src/stm32g4xx_hal_dma.c **** 
 862:Drivers/STM32G4xx_HAL_Driver/Src/stm32g4xx_hal_dma.c ****       default:
 863:Drivers/STM32G4xx_HAL_Driver/Src/stm32g4xx_hal_dma.c ****         status = HAL_ERROR;
 864:Drivers/STM32G4xx_HAL_Driver/Src/stm32g4xx_hal_dma.c ****         break;
 865:Drivers/STM32G4xx_HAL_Driver/Src/stm32g4xx_hal_dma.c ****     }
 866:Drivers/STM32G4xx_HAL_Driver/Src/stm32g4xx_hal_dma.c ****   }
 867:Drivers/STM32G4xx_HAL_Driver/Src/stm32g4xx_hal_dma.c ****   else
 868:Drivers/STM32G4xx_HAL_Driver/Src/stm32g4xx_hal_dma.c ****   {
 869:Drivers/STM32G4xx_HAL_Driver/Src/stm32g4xx_hal_dma.c ****     status = HAL_ERROR;
 870:Drivers/STM32G4xx_HAL_Driver/Src/stm32g4xx_hal_dma.c ****   }
 871:Drivers/STM32G4xx_HAL_Driver/Src/stm32g4xx_hal_dma.c **** 
 872:Drivers/STM32G4xx_HAL_Driver/Src/stm32g4xx_hal_dma.c ****   /* Release Lock */
 873:Drivers/STM32G4xx_HAL_Driver/Src/stm32g4xx_hal_dma.c ****   __HAL_UNLOCK(hdma);
 874:Drivers/STM32G4xx_HAL_Driver/Src/stm32g4xx_hal_dma.c **** 
 875:Drivers/STM32G4xx_HAL_Driver/Src/stm32g4xx_hal_dma.c ****   return status;
 876:Drivers/STM32G4xx_HAL_Driver/Src/stm32g4xx_hal_dma.c **** }
 877:Drivers/STM32G4xx_HAL_Driver/Src/stm32g4xx_hal_dma.c **** 
 878:Drivers/STM32G4xx_HAL_Driver/Src/stm32g4xx_hal_dma.c **** /**
 879:Drivers/STM32G4xx_HAL_Driver/Src/stm32g4xx_hal_dma.c ****   * @brief  UnRegister callbacks
 880:Drivers/STM32G4xx_HAL_Driver/Src/stm32g4xx_hal_dma.c ****   * @param  hdma                 pointer to a DMA_HandleTypeDef structure that contains
 881:Drivers/STM32G4xx_HAL_Driver/Src/stm32g4xx_hal_dma.c ****   *                               the configuration information for the specified DMA Channel.
 882:Drivers/STM32G4xx_HAL_Driver/Src/stm32g4xx_hal_dma.c ****   * @param  CallbackID           User Callback identifier
 883:Drivers/STM32G4xx_HAL_Driver/Src/stm32g4xx_hal_dma.c ****   *                               a HAL_DMA_CallbackIDTypeDef ENUM as parameter.
 884:Drivers/STM32G4xx_HAL_Driver/Src/stm32g4xx_hal_dma.c ****   * @retval HAL status
 885:Drivers/STM32G4xx_HAL_Driver/Src/stm32g4xx_hal_dma.c ****   */
 886:Drivers/STM32G4xx_HAL_Driver/Src/stm32g4xx_hal_dma.c **** HAL_StatusTypeDef HAL_DMA_UnRegisterCallback(DMA_HandleTypeDef *hdma, HAL_DMA_CallbackIDTypeDef Cal
 887:Drivers/STM32G4xx_HAL_Driver/Src/stm32g4xx_hal_dma.c **** {
 888:Drivers/STM32G4xx_HAL_Driver/Src/stm32g4xx_hal_dma.c ****   HAL_StatusTypeDef status = HAL_OK;
 889:Drivers/STM32G4xx_HAL_Driver/Src/stm32g4xx_hal_dma.c **** 
 890:Drivers/STM32G4xx_HAL_Driver/Src/stm32g4xx_hal_dma.c ****   /* Process locked */
 891:Drivers/STM32G4xx_HAL_Driver/Src/stm32g4xx_hal_dma.c ****   __HAL_LOCK(hdma);
 892:Drivers/STM32G4xx_HAL_Driver/Src/stm32g4xx_hal_dma.c **** 
 893:Drivers/STM32G4xx_HAL_Driver/Src/stm32g4xx_hal_dma.c ****   if (HAL_DMA_STATE_READY == hdma->State)
 894:Drivers/STM32G4xx_HAL_Driver/Src/stm32g4xx_hal_dma.c ****   {
 895:Drivers/STM32G4xx_HAL_Driver/Src/stm32g4xx_hal_dma.c ****     switch (CallbackID)
 896:Drivers/STM32G4xx_HAL_Driver/Src/stm32g4xx_hal_dma.c ****     {
 897:Drivers/STM32G4xx_HAL_Driver/Src/stm32g4xx_hal_dma.c ****       case  HAL_DMA_XFER_CPLT_CB_ID:
 898:Drivers/STM32G4xx_HAL_Driver/Src/stm32g4xx_hal_dma.c ****         hdma->XferCpltCallback = NULL;
 899:Drivers/STM32G4xx_HAL_Driver/Src/stm32g4xx_hal_dma.c ****         break;
 900:Drivers/STM32G4xx_HAL_Driver/Src/stm32g4xx_hal_dma.c **** 
 901:Drivers/STM32G4xx_HAL_Driver/Src/stm32g4xx_hal_dma.c ****       case  HAL_DMA_XFER_HALFCPLT_CB_ID:
 902:Drivers/STM32G4xx_HAL_Driver/Src/stm32g4xx_hal_dma.c ****         hdma->XferHalfCpltCallback = NULL;
 903:Drivers/STM32G4xx_HAL_Driver/Src/stm32g4xx_hal_dma.c ****         break;
 904:Drivers/STM32G4xx_HAL_Driver/Src/stm32g4xx_hal_dma.c **** 
 905:Drivers/STM32G4xx_HAL_Driver/Src/stm32g4xx_hal_dma.c ****       case  HAL_DMA_XFER_ERROR_CB_ID:
 906:Drivers/STM32G4xx_HAL_Driver/Src/stm32g4xx_hal_dma.c ****         hdma->XferErrorCallback = NULL;
 907:Drivers/STM32G4xx_HAL_Driver/Src/stm32g4xx_hal_dma.c ****         break;
 908:Drivers/STM32G4xx_HAL_Driver/Src/stm32g4xx_hal_dma.c **** 
 909:Drivers/STM32G4xx_HAL_Driver/Src/stm32g4xx_hal_dma.c ****       case  HAL_DMA_XFER_ABORT_CB_ID:
 910:Drivers/STM32G4xx_HAL_Driver/Src/stm32g4xx_hal_dma.c ****         hdma->XferAbortCallback = NULL;
ARM GAS  /tmp/ccQfBzxp.s 			page 19


 911:Drivers/STM32G4xx_HAL_Driver/Src/stm32g4xx_hal_dma.c ****         break;
 912:Drivers/STM32G4xx_HAL_Driver/Src/stm32g4xx_hal_dma.c **** 
 913:Drivers/STM32G4xx_HAL_Driver/Src/stm32g4xx_hal_dma.c ****       case   HAL_DMA_XFER_ALL_CB_ID:
 914:Drivers/STM32G4xx_HAL_Driver/Src/stm32g4xx_hal_dma.c ****         hdma->XferCpltCallback = NULL;
 915:Drivers/STM32G4xx_HAL_Driver/Src/stm32g4xx_hal_dma.c ****         hdma->XferHalfCpltCallback = NULL;
 916:Drivers/STM32G4xx_HAL_Driver/Src/stm32g4xx_hal_dma.c ****         hdma->XferErrorCallback = NULL;
 917:Drivers/STM32G4xx_HAL_Driver/Src/stm32g4xx_hal_dma.c ****         hdma->XferAbortCallback = NULL;
 918:Drivers/STM32G4xx_HAL_Driver/Src/stm32g4xx_hal_dma.c ****         break;
 919:Drivers/STM32G4xx_HAL_Driver/Src/stm32g4xx_hal_dma.c **** 
 920:Drivers/STM32G4xx_HAL_Driver/Src/stm32g4xx_hal_dma.c ****       default:
 921:Drivers/STM32G4xx_HAL_Driver/Src/stm32g4xx_hal_dma.c ****         status = HAL_ERROR;
 922:Drivers/STM32G4xx_HAL_Driver/Src/stm32g4xx_hal_dma.c ****         break;
 923:Drivers/STM32G4xx_HAL_Driver/Src/stm32g4xx_hal_dma.c ****     }
 924:Drivers/STM32G4xx_HAL_Driver/Src/stm32g4xx_hal_dma.c ****   }
 925:Drivers/STM32G4xx_HAL_Driver/Src/stm32g4xx_hal_dma.c ****   else
 926:Drivers/STM32G4xx_HAL_Driver/Src/stm32g4xx_hal_dma.c ****   {
 927:Drivers/STM32G4xx_HAL_Driver/Src/stm32g4xx_hal_dma.c ****     status = HAL_ERROR;
 928:Drivers/STM32G4xx_HAL_Driver/Src/stm32g4xx_hal_dma.c ****   }
 929:Drivers/STM32G4xx_HAL_Driver/Src/stm32g4xx_hal_dma.c **** 
 930:Drivers/STM32G4xx_HAL_Driver/Src/stm32g4xx_hal_dma.c ****   /* Release Lock */
 931:Drivers/STM32G4xx_HAL_Driver/Src/stm32g4xx_hal_dma.c ****   __HAL_UNLOCK(hdma);
 932:Drivers/STM32G4xx_HAL_Driver/Src/stm32g4xx_hal_dma.c **** 
 933:Drivers/STM32G4xx_HAL_Driver/Src/stm32g4xx_hal_dma.c ****   return status;
 934:Drivers/STM32G4xx_HAL_Driver/Src/stm32g4xx_hal_dma.c **** }
 935:Drivers/STM32G4xx_HAL_Driver/Src/stm32g4xx_hal_dma.c **** 
 936:Drivers/STM32G4xx_HAL_Driver/Src/stm32g4xx_hal_dma.c **** /**
 937:Drivers/STM32G4xx_HAL_Driver/Src/stm32g4xx_hal_dma.c ****   * @}
 938:Drivers/STM32G4xx_HAL_Driver/Src/stm32g4xx_hal_dma.c ****   */
 939:Drivers/STM32G4xx_HAL_Driver/Src/stm32g4xx_hal_dma.c **** 
 940:Drivers/STM32G4xx_HAL_Driver/Src/stm32g4xx_hal_dma.c **** 
 941:Drivers/STM32G4xx_HAL_Driver/Src/stm32g4xx_hal_dma.c **** 
 942:Drivers/STM32G4xx_HAL_Driver/Src/stm32g4xx_hal_dma.c **** /** @defgroup DMA_Exported_Functions_Group3 Peripheral State and Errors functions
 943:Drivers/STM32G4xx_HAL_Driver/Src/stm32g4xx_hal_dma.c ****   *  @brief    Peripheral State and Errors functions
 944:Drivers/STM32G4xx_HAL_Driver/Src/stm32g4xx_hal_dma.c ****   *
 945:Drivers/STM32G4xx_HAL_Driver/Src/stm32g4xx_hal_dma.c **** @verbatim
 946:Drivers/STM32G4xx_HAL_Driver/Src/stm32g4xx_hal_dma.c ****  ===============================================================================
 947:Drivers/STM32G4xx_HAL_Driver/Src/stm32g4xx_hal_dma.c ****             ##### Peripheral State and Errors functions #####
 948:Drivers/STM32G4xx_HAL_Driver/Src/stm32g4xx_hal_dma.c ****  ===============================================================================
 949:Drivers/STM32G4xx_HAL_Driver/Src/stm32g4xx_hal_dma.c ****     [..]
 950:Drivers/STM32G4xx_HAL_Driver/Src/stm32g4xx_hal_dma.c ****     This subsection provides functions allowing to
 951:Drivers/STM32G4xx_HAL_Driver/Src/stm32g4xx_hal_dma.c ****       (+) Check the DMA state
 952:Drivers/STM32G4xx_HAL_Driver/Src/stm32g4xx_hal_dma.c ****       (+) Get error code
 953:Drivers/STM32G4xx_HAL_Driver/Src/stm32g4xx_hal_dma.c **** 
 954:Drivers/STM32G4xx_HAL_Driver/Src/stm32g4xx_hal_dma.c **** @endverbatim
 955:Drivers/STM32G4xx_HAL_Driver/Src/stm32g4xx_hal_dma.c ****   * @{
 956:Drivers/STM32G4xx_HAL_Driver/Src/stm32g4xx_hal_dma.c ****   */
 957:Drivers/STM32G4xx_HAL_Driver/Src/stm32g4xx_hal_dma.c **** 
 958:Drivers/STM32G4xx_HAL_Driver/Src/stm32g4xx_hal_dma.c **** /**
 959:Drivers/STM32G4xx_HAL_Driver/Src/stm32g4xx_hal_dma.c ****   * @brief  Return the DMA hande state.
 960:Drivers/STM32G4xx_HAL_Driver/Src/stm32g4xx_hal_dma.c ****   * @param  hdma pointer to a DMA_HandleTypeDef structure that contains
 961:Drivers/STM32G4xx_HAL_Driver/Src/stm32g4xx_hal_dma.c ****   *               the configuration information for the specified DMA Channel.
 962:Drivers/STM32G4xx_HAL_Driver/Src/stm32g4xx_hal_dma.c ****   * @retval HAL state
 963:Drivers/STM32G4xx_HAL_Driver/Src/stm32g4xx_hal_dma.c ****   */
 964:Drivers/STM32G4xx_HAL_Driver/Src/stm32g4xx_hal_dma.c **** HAL_DMA_StateTypeDef HAL_DMA_GetState(DMA_HandleTypeDef *hdma)
 965:Drivers/STM32G4xx_HAL_Driver/Src/stm32g4xx_hal_dma.c **** {
 966:Drivers/STM32G4xx_HAL_Driver/Src/stm32g4xx_hal_dma.c ****   /* Return DMA handle state */
 967:Drivers/STM32G4xx_HAL_Driver/Src/stm32g4xx_hal_dma.c ****   return hdma->State;
ARM GAS  /tmp/ccQfBzxp.s 			page 20


 968:Drivers/STM32G4xx_HAL_Driver/Src/stm32g4xx_hal_dma.c **** }
 969:Drivers/STM32G4xx_HAL_Driver/Src/stm32g4xx_hal_dma.c **** 
 970:Drivers/STM32G4xx_HAL_Driver/Src/stm32g4xx_hal_dma.c **** /**
 971:Drivers/STM32G4xx_HAL_Driver/Src/stm32g4xx_hal_dma.c ****   * @brief  Return the DMA error code.
 972:Drivers/STM32G4xx_HAL_Driver/Src/stm32g4xx_hal_dma.c ****   * @param  hdma : pointer to a DMA_HandleTypeDef structure that contains
 973:Drivers/STM32G4xx_HAL_Driver/Src/stm32g4xx_hal_dma.c ****   *              the configuration information for the specified DMA Channel.
 974:Drivers/STM32G4xx_HAL_Driver/Src/stm32g4xx_hal_dma.c ****   * @retval DMA Error Code
 975:Drivers/STM32G4xx_HAL_Driver/Src/stm32g4xx_hal_dma.c ****   */
 976:Drivers/STM32G4xx_HAL_Driver/Src/stm32g4xx_hal_dma.c **** uint32_t HAL_DMA_GetError(DMA_HandleTypeDef *hdma)
 977:Drivers/STM32G4xx_HAL_Driver/Src/stm32g4xx_hal_dma.c **** {
 978:Drivers/STM32G4xx_HAL_Driver/Src/stm32g4xx_hal_dma.c ****   return hdma->ErrorCode;
 979:Drivers/STM32G4xx_HAL_Driver/Src/stm32g4xx_hal_dma.c **** }
 980:Drivers/STM32G4xx_HAL_Driver/Src/stm32g4xx_hal_dma.c **** 
 981:Drivers/STM32G4xx_HAL_Driver/Src/stm32g4xx_hal_dma.c **** /**
 982:Drivers/STM32G4xx_HAL_Driver/Src/stm32g4xx_hal_dma.c ****   * @}
 983:Drivers/STM32G4xx_HAL_Driver/Src/stm32g4xx_hal_dma.c ****   */
 984:Drivers/STM32G4xx_HAL_Driver/Src/stm32g4xx_hal_dma.c **** 
 985:Drivers/STM32G4xx_HAL_Driver/Src/stm32g4xx_hal_dma.c **** /**
 986:Drivers/STM32G4xx_HAL_Driver/Src/stm32g4xx_hal_dma.c ****   * @}
 987:Drivers/STM32G4xx_HAL_Driver/Src/stm32g4xx_hal_dma.c ****   */
 988:Drivers/STM32G4xx_HAL_Driver/Src/stm32g4xx_hal_dma.c **** 
 989:Drivers/STM32G4xx_HAL_Driver/Src/stm32g4xx_hal_dma.c **** /** @addtogroup DMA_Private_Functions
 990:Drivers/STM32G4xx_HAL_Driver/Src/stm32g4xx_hal_dma.c ****   * @{
 991:Drivers/STM32G4xx_HAL_Driver/Src/stm32g4xx_hal_dma.c ****   */
 992:Drivers/STM32G4xx_HAL_Driver/Src/stm32g4xx_hal_dma.c **** 
 993:Drivers/STM32G4xx_HAL_Driver/Src/stm32g4xx_hal_dma.c **** /**
 994:Drivers/STM32G4xx_HAL_Driver/Src/stm32g4xx_hal_dma.c ****   * @brief  Sets the DMA Transfer parameter.
 995:Drivers/STM32G4xx_HAL_Driver/Src/stm32g4xx_hal_dma.c ****   * @param  hdma       pointer to a DMA_HandleTypeDef structure that contains
 996:Drivers/STM32G4xx_HAL_Driver/Src/stm32g4xx_hal_dma.c ****   *                     the configuration information for the specified DMA Channel.
 997:Drivers/STM32G4xx_HAL_Driver/Src/stm32g4xx_hal_dma.c ****   * @param  SrcAddress The source memory Buffer address
 998:Drivers/STM32G4xx_HAL_Driver/Src/stm32g4xx_hal_dma.c ****   * @param  DstAddress The destination memory Buffer address
 999:Drivers/STM32G4xx_HAL_Driver/Src/stm32g4xx_hal_dma.c ****   * @param  DataLength The length of data to be transferred from source to destination
1000:Drivers/STM32G4xx_HAL_Driver/Src/stm32g4xx_hal_dma.c ****   * @retval HAL status
1001:Drivers/STM32G4xx_HAL_Driver/Src/stm32g4xx_hal_dma.c ****   */
1002:Drivers/STM32G4xx_HAL_Driver/Src/stm32g4xx_hal_dma.c **** static void DMA_SetConfig(DMA_HandleTypeDef *hdma, uint32_t SrcAddress, uint32_t DstAddress, uint32
1003:Drivers/STM32G4xx_HAL_Driver/Src/stm32g4xx_hal_dma.c **** {
1004:Drivers/STM32G4xx_HAL_Driver/Src/stm32g4xx_hal_dma.c ****   /* Clear the DMAMUX synchro overrun flag */
1005:Drivers/STM32G4xx_HAL_Driver/Src/stm32g4xx_hal_dma.c ****   hdma->DMAmuxChannelStatus->CFR = hdma->DMAmuxChannelStatusMask;
1006:Drivers/STM32G4xx_HAL_Driver/Src/stm32g4xx_hal_dma.c **** 
1007:Drivers/STM32G4xx_HAL_Driver/Src/stm32g4xx_hal_dma.c ****   if (hdma->DMAmuxRequestGen != 0U)
1008:Drivers/STM32G4xx_HAL_Driver/Src/stm32g4xx_hal_dma.c ****   {
1009:Drivers/STM32G4xx_HAL_Driver/Src/stm32g4xx_hal_dma.c ****     /* Clear the DMAMUX request generator overrun flag */
1010:Drivers/STM32G4xx_HAL_Driver/Src/stm32g4xx_hal_dma.c ****     hdma->DMAmuxRequestGenStatus->RGCFR = hdma->DMAmuxRequestGenStatusMask;
1011:Drivers/STM32G4xx_HAL_Driver/Src/stm32g4xx_hal_dma.c ****   }
1012:Drivers/STM32G4xx_HAL_Driver/Src/stm32g4xx_hal_dma.c **** 
1013:Drivers/STM32G4xx_HAL_Driver/Src/stm32g4xx_hal_dma.c ****   /* Clear all flags */
1014:Drivers/STM32G4xx_HAL_Driver/Src/stm32g4xx_hal_dma.c ****   hdma->DmaBaseAddress->IFCR = (DMA_ISR_GIF1 << (hdma->ChannelIndex & 0x1FU));
1015:Drivers/STM32G4xx_HAL_Driver/Src/stm32g4xx_hal_dma.c **** 
1016:Drivers/STM32G4xx_HAL_Driver/Src/stm32g4xx_hal_dma.c ****   /* Configure DMA Channel data length */
1017:Drivers/STM32G4xx_HAL_Driver/Src/stm32g4xx_hal_dma.c ****   hdma->Instance->CNDTR = DataLength;
1018:Drivers/STM32G4xx_HAL_Driver/Src/stm32g4xx_hal_dma.c **** 
1019:Drivers/STM32G4xx_HAL_Driver/Src/stm32g4xx_hal_dma.c ****   /* Memory to Peripheral */
1020:Drivers/STM32G4xx_HAL_Driver/Src/stm32g4xx_hal_dma.c ****   if ((hdma->Init.Direction) == DMA_MEMORY_TO_PERIPH)
1021:Drivers/STM32G4xx_HAL_Driver/Src/stm32g4xx_hal_dma.c ****   {
1022:Drivers/STM32G4xx_HAL_Driver/Src/stm32g4xx_hal_dma.c ****     /* Configure DMA Channel destination address */
1023:Drivers/STM32G4xx_HAL_Driver/Src/stm32g4xx_hal_dma.c ****     hdma->Instance->CPAR = DstAddress;
1024:Drivers/STM32G4xx_HAL_Driver/Src/stm32g4xx_hal_dma.c **** 
ARM GAS  /tmp/ccQfBzxp.s 			page 21


1025:Drivers/STM32G4xx_HAL_Driver/Src/stm32g4xx_hal_dma.c ****     /* Configure DMA Channel source address */
1026:Drivers/STM32G4xx_HAL_Driver/Src/stm32g4xx_hal_dma.c ****     hdma->Instance->CMAR = SrcAddress;
1027:Drivers/STM32G4xx_HAL_Driver/Src/stm32g4xx_hal_dma.c ****   }
1028:Drivers/STM32G4xx_HAL_Driver/Src/stm32g4xx_hal_dma.c ****   /* Peripheral to Memory */
1029:Drivers/STM32G4xx_HAL_Driver/Src/stm32g4xx_hal_dma.c ****   else
1030:Drivers/STM32G4xx_HAL_Driver/Src/stm32g4xx_hal_dma.c ****   {
1031:Drivers/STM32G4xx_HAL_Driver/Src/stm32g4xx_hal_dma.c ****     /* Configure DMA Channel source address */
1032:Drivers/STM32G4xx_HAL_Driver/Src/stm32g4xx_hal_dma.c ****     hdma->Instance->CPAR = SrcAddress;
1033:Drivers/STM32G4xx_HAL_Driver/Src/stm32g4xx_hal_dma.c **** 
1034:Drivers/STM32G4xx_HAL_Driver/Src/stm32g4xx_hal_dma.c ****     /* Configure DMA Channel destination address */
1035:Drivers/STM32G4xx_HAL_Driver/Src/stm32g4xx_hal_dma.c ****     hdma->Instance->CMAR = DstAddress;
1036:Drivers/STM32G4xx_HAL_Driver/Src/stm32g4xx_hal_dma.c ****   }
1037:Drivers/STM32G4xx_HAL_Driver/Src/stm32g4xx_hal_dma.c **** }
1038:Drivers/STM32G4xx_HAL_Driver/Src/stm32g4xx_hal_dma.c **** 
1039:Drivers/STM32G4xx_HAL_Driver/Src/stm32g4xx_hal_dma.c **** /**
1040:Drivers/STM32G4xx_HAL_Driver/Src/stm32g4xx_hal_dma.c ****   * @brief  Updates the DMA handle with the DMAMUX  channel and status mask depending on stream num
1041:Drivers/STM32G4xx_HAL_Driver/Src/stm32g4xx_hal_dma.c ****   * @param  hdma        pointer to a DMA_HandleTypeDef structure that contains
1042:Drivers/STM32G4xx_HAL_Driver/Src/stm32g4xx_hal_dma.c ****   *                     the configuration information for the specified DMA Stream.
1043:Drivers/STM32G4xx_HAL_Driver/Src/stm32g4xx_hal_dma.c ****   * @retval None
1044:Drivers/STM32G4xx_HAL_Driver/Src/stm32g4xx_hal_dma.c ****   */
1045:Drivers/STM32G4xx_HAL_Driver/Src/stm32g4xx_hal_dma.c **** static void DMA_CalcDMAMUXChannelBaseAndMask(DMA_HandleTypeDef *hdma)
1046:Drivers/STM32G4xx_HAL_Driver/Src/stm32g4xx_hal_dma.c **** {
1047:Drivers/STM32G4xx_HAL_Driver/Src/stm32g4xx_hal_dma.c ****   uint32_t dmamux_base_addr;
1048:Drivers/STM32G4xx_HAL_Driver/Src/stm32g4xx_hal_dma.c ****   uint32_t channel_number;
1049:Drivers/STM32G4xx_HAL_Driver/Src/stm32g4xx_hal_dma.c ****   DMAMUX_Channel_TypeDef *DMAMUX1_ChannelBase;
1050:Drivers/STM32G4xx_HAL_Driver/Src/stm32g4xx_hal_dma.c **** 
1051:Drivers/STM32G4xx_HAL_Driver/Src/stm32g4xx_hal_dma.c ****   /* check if instance is not outside the DMA channel range */
1052:Drivers/STM32G4xx_HAL_Driver/Src/stm32g4xx_hal_dma.c ****   if ((uint32_t)hdma->Instance < (uint32_t)DMA2_Channel1)
1053:Drivers/STM32G4xx_HAL_Driver/Src/stm32g4xx_hal_dma.c ****   {
1054:Drivers/STM32G4xx_HAL_Driver/Src/stm32g4xx_hal_dma.c ****     /* DMA1 */
1055:Drivers/STM32G4xx_HAL_Driver/Src/stm32g4xx_hal_dma.c ****     DMAMUX1_ChannelBase = DMAMUX1_Channel0;
1056:Drivers/STM32G4xx_HAL_Driver/Src/stm32g4xx_hal_dma.c ****   }
1057:Drivers/STM32G4xx_HAL_Driver/Src/stm32g4xx_hal_dma.c ****   else
1058:Drivers/STM32G4xx_HAL_Driver/Src/stm32g4xx_hal_dma.c ****   {
1059:Drivers/STM32G4xx_HAL_Driver/Src/stm32g4xx_hal_dma.c ****     /* DMA2 */
1060:Drivers/STM32G4xx_HAL_Driver/Src/stm32g4xx_hal_dma.c **** #if defined (STM32G471xx) || defined (STM32G473xx) || defined (STM32G474xx) || defined (STM32G483xx
1061:Drivers/STM32G4xx_HAL_Driver/Src/stm32g4xx_hal_dma.c ****     DMAMUX1_ChannelBase = DMAMUX1_Channel8;
1062:Drivers/STM32G4xx_HAL_Driver/Src/stm32g4xx_hal_dma.c **** #elif defined (STM32G431xx) || defined (STM32G441xx) || defined (STM32GBK1CB)
1063:Drivers/STM32G4xx_HAL_Driver/Src/stm32g4xx_hal_dma.c ****     DMAMUX1_ChannelBase = DMAMUX1_Channel6;
1064:Drivers/STM32G4xx_HAL_Driver/Src/stm32g4xx_hal_dma.c **** #else
1065:Drivers/STM32G4xx_HAL_Driver/Src/stm32g4xx_hal_dma.c ****     DMAMUX1_ChannelBase = DMAMUX1_Channel7;
1066:Drivers/STM32G4xx_HAL_Driver/Src/stm32g4xx_hal_dma.c **** #endif /* STM32G4x1xx) */
1067:Drivers/STM32G4xx_HAL_Driver/Src/stm32g4xx_hal_dma.c ****   }
1068:Drivers/STM32G4xx_HAL_Driver/Src/stm32g4xx_hal_dma.c ****   dmamux_base_addr = (uint32_t)DMAMUX1_ChannelBase;
1069:Drivers/STM32G4xx_HAL_Driver/Src/stm32g4xx_hal_dma.c ****   channel_number = (((uint32_t)hdma->Instance & 0xFFU) - 8U) / 20U;
 101              		.loc 1 1069 18 view .LVU33
 102 0038 2F4C     		ldr	r4, .L19+8
1052:Drivers/STM32G4xx_HAL_Driver/Src/stm32g4xx_hal_dma.c ****   {
 103              		.loc 1 1052 6 view .LVU34
 104 003a DFF8B480 		ldr	r8, .L19
 105              	.LBE15:
 106              	.LBE14:
 201:Drivers/STM32G4xx_HAL_Driver/Src/stm32g4xx_hal_dma.c ****           hdma->Init.PeriphDataAlignment | hdma->Init.MemDataAlignment |
 107              		.loc 1 201 72 view .LVU35
 108 003e 3A43     		orrs	r2, r2, r7
 202:Drivers/STM32G4xx_HAL_Driver/Src/stm32g4xx_hal_dma.c ****           hdma->Init.Mode                | hdma->Init.Priority;
 109              		.loc 1 202 42 view .LVU36
ARM GAS  /tmp/ccQfBzxp.s 			page 22


 110 0040 3243     		orrs	r2, r2, r6
 111              	.LBB25:
 112              	.LBB16:
 113              		.loc 1 1069 47 view .LVU37
 114 0042 C6B2     		uxtb	r6, r0
 115              	.LBE16:
 116              	.LBE25:
 192:Drivers/STM32G4xx_HAL_Driver/Src/stm32g4xx_hal_dma.c **** 
 117              		.loc 1 192 7 view .LVU38
 118 0044 0768     		ldr	r7, [r0]
 119              	.LBB26:
 120              	.LBB17:
 121              		.loc 1 1069 56 view .LVU39
 122 0046 083E     		subs	r6, r6, #8
 123              		.loc 1 1069 18 view .LVU40
 124 0048 A4FB064E 		umull	r4, lr, r4, r6
 125              	.LBE17:
 126              	.LBE26:
 203:Drivers/STM32G4xx_HAL_Driver/Src/stm32g4xx_hal_dma.c **** 
 127              		.loc 1 203 42 view .LVU41
 128 004c 1C6A     		ldr	r4, [r3, #32]
 129              	.LBB27:
 130              	.LBB18:
1052:Drivers/STM32G4xx_HAL_Driver/Src/stm32g4xx_hal_dma.c ****   {
 131              		.loc 1 1052 6 view .LVU42
 132 004e 2C4E     		ldr	r6, .L19+16
 133              	.LBE18:
 134              	.LBE27:
 202:Drivers/STM32G4xx_HAL_Driver/Src/stm32g4xx_hal_dma.c ****           hdma->Init.Mode                | hdma->Init.Priority;
 135              		.loc 1 202 72 view .LVU43
 136 0050 2A43     		orrs	r2, r2, r5
 195:Drivers/STM32G4xx_HAL_Driver/Src/stm32g4xx_hal_dma.c ****                       DMA_CCR_MINC  | DMA_CCR_PINC   | DMA_CCR_CIRC   |
 137              		.loc 1 195 7 view .LVU44
 138 0052 27F4FF47 		bic	r7, r7, #32640
 139              	.LBB28:
 140              	.LBB19:
1052:Drivers/STM32G4xx_HAL_Driver/Src/stm32g4xx_hal_dma.c ****   {
 141              		.loc 1 1052 6 view .LVU45
 142 0056 2B4D     		ldr	r5, .L19+20
 143              	.LBE19:
 144              	.LBE28:
 203:Drivers/STM32G4xx_HAL_Driver/Src/stm32g4xx_hal_dma.c **** 
 145              		.loc 1 203 42 view .LVU46
 146 0058 2243     		orrs	r2, r2, r4
 195:Drivers/STM32G4xx_HAL_Driver/Src/stm32g4xx_hal_dma.c ****                       DMA_CCR_MINC  | DMA_CCR_PINC   | DMA_CCR_CIRC   |
 147              		.loc 1 195 7 view .LVU47
 148 005a 27F07007 		bic	r7, r7, #112
 184:Drivers/STM32G4xx_HAL_Driver/Src/stm32g4xx_hal_dma.c ****     hdma->DmaBaseAddress = DMA2;
 149              		.loc 1 184 80 view .LVU48
 150 005e 0909     		lsrs	r1, r1, #4
 184:Drivers/STM32G4xx_HAL_Driver/Src/stm32g4xx_hal_dma.c ****     hdma->DmaBaseAddress = DMA2;
 151              		.loc 1 184 135 view .LVU49
 152 0060 8900     		lsls	r1, r1, #2
 153              	.LBB29:
 154              	.LBB20:
1052:Drivers/STM32G4xx_HAL_Driver/Src/stm32g4xx_hal_dma.c ****   {
 155              		.loc 1 1052 6 view .LVU50
ARM GAS  /tmp/ccQfBzxp.s 			page 23


 156 0062 4045     		cmp	r0, r8
 157 0064 88BF     		it	hi
 158 0066 3546     		movhi	r5, r6
1070:Drivers/STM32G4xx_HAL_Driver/Src/stm32g4xx_hal_dma.c ****   hdma->DMAmuxChannel = (DMAMUX_Channel_TypeDef *)(uint32_t)(dmamux_base_addr + ((hdma->ChannelInde
1071:Drivers/STM32G4xx_HAL_Driver/Src/stm32g4xx_hal_dma.c ****   hdma->DMAmuxChannelStatus = DMAMUX1_ChannelStatus;
1072:Drivers/STM32G4xx_HAL_Driver/Src/stm32g4xx_hal_dma.c ****   hdma->DMAmuxChannelStatusMask = 1UL << (channel_number & 0x1FU);
 159              		.loc 1 1072 58 view .LVU51
 160 0068 CEF30414 		ubfx	r4, lr, #4, #5
 161              	.LBE20:
 162              	.LBE29:
 200:Drivers/STM32G4xx_HAL_Driver/Src/stm32g4xx_hal_dma.c ****           hdma->Init.PeriphInc           | hdma->Init.MemInc           |
 163              		.loc 1 200 7 view .LVU52
 164 006c 3A43     		orrs	r2, r2, r7
 165              	.LBB30:
 166              	.LBB21:
 167              		.loc 1 1072 39 view .LVU53
 168 006e 0126     		movs	r6, #1
1071:Drivers/STM32G4xx_HAL_Driver/Src/stm32g4xx_hal_dma.c ****   hdma->DMAmuxChannelStatusMask = 1UL << (channel_number & 0x1FU);
 169              		.loc 1 1071 29 view .LVU54
 170 0070 254F     		ldr	r7, .L19+24
 171              	.LBE21:
 172              	.LBE30:
 184:Drivers/STM32G4xx_HAL_Driver/Src/stm32g4xx_hal_dma.c ****     hdma->DmaBaseAddress = DMA2;
 173              		.loc 1 184 24 view .LVU55
 174 0072 5964     		str	r1, [r3, #68]
 185:Drivers/STM32G4xx_HAL_Driver/Src/stm32g4xx_hal_dma.c ****   }
 175              		.loc 1 185 5 is_stmt 1 view .LVU56
 189:Drivers/STM32G4xx_HAL_Driver/Src/stm32g4xx_hal_dma.c **** 
 176              		.loc 1 189 3 view .LVU57
 192:Drivers/STM32G4xx_HAL_Driver/Src/stm32g4xx_hal_dma.c **** 
 177              		.loc 1 192 3 view .LVU58
 195:Drivers/STM32G4xx_HAL_Driver/Src/stm32g4xx_hal_dma.c ****                       DMA_CCR_MINC  | DMA_CCR_PINC   | DMA_CCR_CIRC   |
 178              		.loc 1 195 3 view .LVU59
 200:Drivers/STM32G4xx_HAL_Driver/Src/stm32g4xx_hal_dma.c ****           hdma->Init.PeriphInc           | hdma->Init.MemInc           |
 179              		.loc 1 200 3 view .LVU60
 180              	.LVL2:
 206:Drivers/STM32G4xx_HAL_Driver/Src/stm32g4xx_hal_dma.c **** 
 181              		.loc 1 206 3 view .LVU61
 182              	.LBB31:
 183              	.LBB22:
1070:Drivers/STM32G4xx_HAL_Driver/Src/stm32g4xx_hal_dma.c ****   hdma->DMAmuxChannelStatus = DMAMUX1_ChannelStatus;
 184              		.loc 1 1070 51 is_stmt 0 view .LVU62
 185 0074 01EB050E 		add	lr, r1, r5
 186              		.loc 1 1072 39 view .LVU63
 187 0078 06FA04F4 		lsl	r4, r6, r4
 188              	.LBE22:
 189              	.LBE31:
 213:Drivers/STM32G4xx_HAL_Driver/Src/stm32g4xx_hal_dma.c ****   {
 190              		.loc 1 213 6 view .LVU64
 191 007c BCF5804F 		cmp	ip, #16384
 206:Drivers/STM32G4xx_HAL_Driver/Src/stm32g4xx_hal_dma.c **** 
 192              		.loc 1 206 23 view .LVU65
 193 0080 0260     		str	r2, [r0]
 211:Drivers/STM32G4xx_HAL_Driver/Src/stm32g4xx_hal_dma.c **** 
 194              		.loc 1 211 3 is_stmt 1 view .LVU66
 195              	.LVL3:
 196              	.LBB32:
ARM GAS  /tmp/ccQfBzxp.s 			page 24


 197              	.LBI14:
1045:Drivers/STM32G4xx_HAL_Driver/Src/stm32g4xx_hal_dma.c **** {
 198              		.loc 1 1045 13 view .LVU67
 199              	.LBB23:
1047:Drivers/STM32G4xx_HAL_Driver/Src/stm32g4xx_hal_dma.c ****   uint32_t channel_number;
 200              		.loc 1 1047 3 view .LVU68
1048:Drivers/STM32G4xx_HAL_Driver/Src/stm32g4xx_hal_dma.c ****   DMAMUX_Channel_TypeDef *DMAMUX1_ChannelBase;
 201              		.loc 1 1048 3 view .LVU69
1049:Drivers/STM32G4xx_HAL_Driver/Src/stm32g4xx_hal_dma.c **** 
 202              		.loc 1 1049 3 view .LVU70
1052:Drivers/STM32G4xx_HAL_Driver/Src/stm32g4xx_hal_dma.c ****   {
 203              		.loc 1 1052 3 view .LVU71
1068:Drivers/STM32G4xx_HAL_Driver/Src/stm32g4xx_hal_dma.c ****   channel_number = (((uint32_t)hdma->Instance & 0xFFU) - 8U) / 20U;
 204              		.loc 1 1068 3 view .LVU72
1069:Drivers/STM32G4xx_HAL_Driver/Src/stm32g4xx_hal_dma.c ****   hdma->DMAmuxChannel = (DMAMUX_Channel_TypeDef *)(uint32_t)(dmamux_base_addr + ((hdma->ChannelInde
 205              		.loc 1 1069 3 view .LVU73
1070:Drivers/STM32G4xx_HAL_Driver/Src/stm32g4xx_hal_dma.c ****   hdma->DMAmuxChannelStatus = DMAMUX1_ChannelStatus;
 206              		.loc 1 1070 3 view .LVU74
1070:Drivers/STM32G4xx_HAL_Driver/Src/stm32g4xx_hal_dma.c ****   hdma->DMAmuxChannelStatus = DMAMUX1_ChannelStatus;
 207              		.loc 1 1070 102 is_stmt 0 view .LVU75
 208 0082 4FEA9101 		lsr	r1, r1, #2
1071:Drivers/STM32G4xx_HAL_Driver/Src/stm32g4xx_hal_dma.c ****   hdma->DMAmuxChannelStatusMask = 1UL << (channel_number & 0x1FU);
 209              		.loc 1 1071 29 view .LVU76
 210 0086 C3E912E7 		strd	lr, r7, [r3, #72]
 211              		.loc 1 1072 3 is_stmt 1 view .LVU77
 212              	.LVL4:
 213              		.loc 1 1072 3 is_stmt 0 view .LVU78
 214              	.LBE23:
 215              	.LBE32:
 213:Drivers/STM32G4xx_HAL_Driver/Src/stm32g4xx_hal_dma.c ****   {
 216              		.loc 1 213 3 is_stmt 1 view .LVU79
 217              	.LBB33:
 218              	.LBB24:
 219              		.loc 1 1072 33 is_stmt 0 view .LVU80
 220 008a 1C65     		str	r4, [r3, #80]
 221              	.LBE24:
 222              	.LBE33:
 213:Drivers/STM32G4xx_HAL_Driver/Src/stm32g4xx_hal_dma.c ****   {
 223              		.loc 1 213 6 view .LVU81
 224 008c 23D0     		beq	.L18
 220:Drivers/STM32G4xx_HAL_Driver/Src/stm32g4xx_hal_dma.c **** 
 225              		.loc 1 220 3 is_stmt 1 view .LVU82
 220:Drivers/STM32G4xx_HAL_Driver/Src/stm32g4xx_hal_dma.c **** 
 226              		.loc 1 220 41 is_stmt 0 view .LVU83
 227 008e 5868     		ldr	r0, [r3, #4]
 220:Drivers/STM32G4xx_HAL_Driver/Src/stm32g4xx_hal_dma.c **** 
 228              		.loc 1 220 50 view .LVU84
 229 0090 C2B2     		uxtb	r2, r0
 230              	.LVL5:
 225:Drivers/STM32G4xx_HAL_Driver/Src/stm32g4xx_hal_dma.c ****   {
 231              		.loc 1 225 35 view .LVU85
 232 0092 0138     		subs	r0, r0, #1
 225:Drivers/STM32G4xx_HAL_Driver/Src/stm32g4xx_hal_dma.c ****   {
 233              		.loc 1 225 6 view .LVU86
 234 0094 0328     		cmp	r0, #3
 220:Drivers/STM32G4xx_HAL_Driver/Src/stm32g4xx_hal_dma.c **** 
 235              		.loc 1 220 28 view .LVU87
ARM GAS  /tmp/ccQfBzxp.s 			page 25


 236 0096 45F82120 		str	r2, [r5, r1, lsl #2]
 237              	.LVL6:
 223:Drivers/STM32G4xx_HAL_Driver/Src/stm32g4xx_hal_dma.c **** 
 238              		.loc 1 223 3 is_stmt 1 view .LVU88
 223:Drivers/STM32G4xx_HAL_Driver/Src/stm32g4xx_hal_dma.c **** 
 239              		.loc 1 223 34 is_stmt 0 view .LVU89
 240 009a 7C60     		str	r4, [r7, #4]
 225:Drivers/STM32G4xx_HAL_Driver/Src/stm32g4xx_hal_dma.c ****   {
 241              		.loc 1 225 3 is_stmt 1 view .LVU90
 225:Drivers/STM32G4xx_HAL_Driver/Src/stm32g4xx_hal_dma.c ****   {
 242              		.loc 1 225 6 is_stmt 0 view .LVU91
 243 009c 20D8     		bhi	.L7
 230:Drivers/STM32G4xx_HAL_Driver/Src/stm32g4xx_hal_dma.c **** 
 244              		.loc 1 230 5 is_stmt 1 view .LVU92
 245              	.LVL7:
 246              	.LBB34:
 247              	.LBI34:
1073:Drivers/STM32G4xx_HAL_Driver/Src/stm32g4xx_hal_dma.c **** }
1074:Drivers/STM32G4xx_HAL_Driver/Src/stm32g4xx_hal_dma.c **** 
1075:Drivers/STM32G4xx_HAL_Driver/Src/stm32g4xx_hal_dma.c **** /**
1076:Drivers/STM32G4xx_HAL_Driver/Src/stm32g4xx_hal_dma.c ****   * @brief  Updates the DMA handle with the DMAMUX  request generator params
1077:Drivers/STM32G4xx_HAL_Driver/Src/stm32g4xx_hal_dma.c ****   * @param  hdma        pointer to a DMA_HandleTypeDef structure that contains
1078:Drivers/STM32G4xx_HAL_Driver/Src/stm32g4xx_hal_dma.c ****   *                     the configuration information for the specified DMA Channel.
1079:Drivers/STM32G4xx_HAL_Driver/Src/stm32g4xx_hal_dma.c ****   * @retval None
1080:Drivers/STM32G4xx_HAL_Driver/Src/stm32g4xx_hal_dma.c ****   */
1081:Drivers/STM32G4xx_HAL_Driver/Src/stm32g4xx_hal_dma.c **** 
1082:Drivers/STM32G4xx_HAL_Driver/Src/stm32g4xx_hal_dma.c **** static void DMA_CalcDMAMUXRequestGenBaseAndMask(DMA_HandleTypeDef *hdma)
 248              		.loc 1 1082 13 view .LVU93
 249              	.LBB35:
1083:Drivers/STM32G4xx_HAL_Driver/Src/stm32g4xx_hal_dma.c **** {
1084:Drivers/STM32G4xx_HAL_Driver/Src/stm32g4xx_hal_dma.c ****   uint32_t request =  hdma->Init.Request & DMAMUX_CxCR_DMAREQ_ID;
 250              		.loc 1 1084 3 view .LVU94
1085:Drivers/STM32G4xx_HAL_Driver/Src/stm32g4xx_hal_dma.c **** 
1086:Drivers/STM32G4xx_HAL_Driver/Src/stm32g4xx_hal_dma.c ****   /* DMA Channels are connected to DMAMUX1 request generator blocks*/
1087:Drivers/STM32G4xx_HAL_Driver/Src/stm32g4xx_hal_dma.c ****   hdma->DMAmuxRequestGen = (DMAMUX_RequestGen_TypeDef *)((uint32_t)(((uint32_t)DMAMUX1_RequestGener
 251              		.loc 1 1087 3 view .LVU95
 252              		.loc 1 1087 58 is_stmt 0 view .LVU96
 253 009e 1B49     		ldr	r1, .L19+28
1088:Drivers/STM32G4xx_HAL_Driver/Src/stm32g4xx_hal_dma.c **** 
1089:Drivers/STM32G4xx_HAL_Driver/Src/stm32g4xx_hal_dma.c ****   hdma->DMAmuxRequestGenStatus = DMAMUX1_RequestGenStatus;
 254              		.loc 1 1089 32 view .LVU97
 255 00a0 1B48     		ldr	r0, .L19+32
 256 00a2 9865     		str	r0, [r3, #88]
1087:Drivers/STM32G4xx_HAL_Driver/Src/stm32g4xx_hal_dma.c **** 
 257              		.loc 1 1087 58 view .LVU98
 258 00a4 1144     		add	r1, r1, r2
1090:Drivers/STM32G4xx_HAL_Driver/Src/stm32g4xx_hal_dma.c **** 
1091:Drivers/STM32G4xx_HAL_Driver/Src/stm32g4xx_hal_dma.c ****   hdma->DMAmuxRequestGenStatusMask = 1UL << ((request - 1U) & 0x1FU);
 259              		.loc 1 1091 55 view .LVU99
 260 00a6 013A     		subs	r2, r2, #1
 261              	.LVL8:
1087:Drivers/STM32G4xx_HAL_Driver/Src/stm32g4xx_hal_dma.c **** 
 262              		.loc 1 1087 58 view .LVU100
 263 00a8 8900     		lsls	r1, r1, #2
 264              		.loc 1 1091 61 view .LVU101
 265 00aa 02F01F02 		and	r2, r2, #31
 266              	.LVL9:
ARM GAS  /tmp/ccQfBzxp.s 			page 26


 267              		.loc 1 1091 42 view .LVU102
 268 00ae 06FA02F2 		lsl	r2, r6, r2
 269              	.LBE35:
 270              	.LBE34:
 233:Drivers/STM32G4xx_HAL_Driver/Src/stm32g4xx_hal_dma.c **** 
 271              		.loc 1 233 34 view .LVU103
 272 00b2 0024     		movs	r4, #0
 273              	.LBB37:
 274              	.LBB36:
1087:Drivers/STM32G4xx_HAL_Driver/Src/stm32g4xx_hal_dma.c **** 
 275              		.loc 1 1087 26 view .LVU104
 276 00b4 5965     		str	r1, [r3, #84]
1089:Drivers/STM32G4xx_HAL_Driver/Src/stm32g4xx_hal_dma.c **** 
 277              		.loc 1 1089 3 is_stmt 1 view .LVU105
 278              		.loc 1 1091 3 view .LVU106
 279              		.loc 1 1091 36 is_stmt 0 view .LVU107
 280 00b6 DA65     		str	r2, [r3, #92]
 281              	.LVL10:
 282              		.loc 1 1091 36 view .LVU108
 283              	.LBE36:
 284              	.LBE37:
 233:Drivers/STM32G4xx_HAL_Driver/Src/stm32g4xx_hal_dma.c **** 
 285              		.loc 1 233 5 is_stmt 1 view .LVU109
 233:Drivers/STM32G4xx_HAL_Driver/Src/stm32g4xx_hal_dma.c **** 
 286              		.loc 1 233 34 is_stmt 0 view .LVU110
 287 00b8 0C60     		str	r4, [r1]
 236:Drivers/STM32G4xx_HAL_Driver/Src/stm32g4xx_hal_dma.c ****   }
 288              		.loc 1 236 5 is_stmt 1 view .LVU111
 236:Drivers/STM32G4xx_HAL_Driver/Src/stm32g4xx_hal_dma.c ****   }
 289              		.loc 1 236 41 is_stmt 0 view .LVU112
 290 00ba 4260     		str	r2, [r0, #4]
 291              	.L8:
 246:Drivers/STM32G4xx_HAL_Driver/Src/stm32g4xx_hal_dma.c **** 
 292              		.loc 1 246 3 is_stmt 1 view .LVU113
 246:Drivers/STM32G4xx_HAL_Driver/Src/stm32g4xx_hal_dma.c **** 
 293              		.loc 1 246 19 is_stmt 0 view .LVU114
 294 00bc 0020     		movs	r0, #0
 249:Drivers/STM32G4xx_HAL_Driver/Src/stm32g4xx_hal_dma.c **** 
 295              		.loc 1 249 16 view .LVU115
 296 00be 0122     		movs	r2, #1
 246:Drivers/STM32G4xx_HAL_Driver/Src/stm32g4xx_hal_dma.c **** 
 297              		.loc 1 246 19 view .LVU116
 298 00c0 D863     		str	r0, [r3, #60]
 249:Drivers/STM32G4xx_HAL_Driver/Src/stm32g4xx_hal_dma.c **** 
 299              		.loc 1 249 3 is_stmt 1 view .LVU117
 252:Drivers/STM32G4xx_HAL_Driver/Src/stm32g4xx_hal_dma.c **** 
 300              		.loc 1 252 14 is_stmt 0 view .LVU118
 301 00c2 83F82400 		strb	r0, [r3, #36]
 249:Drivers/STM32G4xx_HAL_Driver/Src/stm32g4xx_hal_dma.c **** 
 302              		.loc 1 249 16 view .LVU119
 303 00c6 83F82520 		strb	r2, [r3, #37]
 252:Drivers/STM32G4xx_HAL_Driver/Src/stm32g4xx_hal_dma.c **** 
 304              		.loc 1 252 3 is_stmt 1 view .LVU120
 254:Drivers/STM32G4xx_HAL_Driver/Src/stm32g4xx_hal_dma.c **** }
 305              		.loc 1 254 3 view .LVU121
 255:Drivers/STM32G4xx_HAL_Driver/Src/stm32g4xx_hal_dma.c **** 
 306              		.loc 1 255 1 is_stmt 0 view .LVU122
ARM GAS  /tmp/ccQfBzxp.s 			page 27


 307 00ca BDE8F081 		pop	{r4, r5, r6, r7, r8, pc}
 308              	.L17:
 178:Drivers/STM32G4xx_HAL_Driver/Src/stm32g4xx_hal_dma.c ****     hdma->DmaBaseAddress = DMA1;
 309              		.loc 1 178 5 is_stmt 1 view .LVU123
 178:Drivers/STM32G4xx_HAL_Driver/Src/stm32g4xx_hal_dma.c ****     hdma->DmaBaseAddress = DMA1;
 310              		.loc 1 178 53 is_stmt 0 view .LVU124
 311 00ce 1149     		ldr	r1, .L19+36
 178:Drivers/STM32G4xx_HAL_Driver/Src/stm32g4xx_hal_dma.c ****     hdma->DmaBaseAddress = DMA1;
 312              		.loc 1 178 80 view .LVU125
 313 00d0 094A     		ldr	r2, .L19+8
 179:Drivers/STM32G4xx_HAL_Driver/Src/stm32g4xx_hal_dma.c ****   }
 314              		.loc 1 179 26 view .LVU126
 315 00d2 114C     		ldr	r4, .L19+40
 316 00d4 A0E7     		b	.L15
 317              	.LVL11:
 318              	.L18:
 216:Drivers/STM32G4xx_HAL_Driver/Src/stm32g4xx_hal_dma.c ****   }
 319              		.loc 1 216 5 is_stmt 1 view .LVU127
 216:Drivers/STM32G4xx_HAL_Driver/Src/stm32g4xx_hal_dma.c ****   }
 320              		.loc 1 216 24 is_stmt 0 view .LVU128
 321 00d6 0022     		movs	r2, #0
 322              	.LVL12:
 216:Drivers/STM32G4xx_HAL_Driver/Src/stm32g4xx_hal_dma.c ****   }
 323              		.loc 1 216 24 view .LVU129
 324 00d8 5A60     		str	r2, [r3, #4]
 220:Drivers/STM32G4xx_HAL_Driver/Src/stm32g4xx_hal_dma.c **** 
 325              		.loc 1 220 3 is_stmt 1 view .LVU130
 220:Drivers/STM32G4xx_HAL_Driver/Src/stm32g4xx_hal_dma.c **** 
 326              		.loc 1 220 28 is_stmt 0 view .LVU131
 327 00da 45F82120 		str	r2, [r5, r1, lsl #2]
 328              	.LVL13:
 223:Drivers/STM32G4xx_HAL_Driver/Src/stm32g4xx_hal_dma.c **** 
 329              		.loc 1 223 3 is_stmt 1 view .LVU132
 223:Drivers/STM32G4xx_HAL_Driver/Src/stm32g4xx_hal_dma.c **** 
 330              		.loc 1 223 34 is_stmt 0 view .LVU133
 331 00de 7C60     		str	r4, [r7, #4]
 225:Drivers/STM32G4xx_HAL_Driver/Src/stm32g4xx_hal_dma.c ****   {
 332              		.loc 1 225 3 is_stmt 1 view .LVU134
 333              	.L7:
 240:Drivers/STM32G4xx_HAL_Driver/Src/stm32g4xx_hal_dma.c ****     hdma->DMAmuxRequestGenStatus = 0U;
 334              		.loc 1 240 5 view .LVU135
 240:Drivers/STM32G4xx_HAL_Driver/Src/stm32g4xx_hal_dma.c ****     hdma->DMAmuxRequestGenStatus = 0U;
 335              		.loc 1 240 28 is_stmt 0 view .LVU136
 336 00e0 0022     		movs	r2, #0
 241:Drivers/STM32G4xx_HAL_Driver/Src/stm32g4xx_hal_dma.c ****     hdma->DMAmuxRequestGenStatusMask = 0U;
 337              		.loc 1 241 34 view .LVU137
 338 00e2 C3E91522 		strd	r2, r2, [r3, #84]
 242:Drivers/STM32G4xx_HAL_Driver/Src/stm32g4xx_hal_dma.c ****   }
 339              		.loc 1 242 5 is_stmt 1 view .LVU138
 242:Drivers/STM32G4xx_HAL_Driver/Src/stm32g4xx_hal_dma.c ****   }
 340              		.loc 1 242 38 is_stmt 0 view .LVU139
 341 00e6 DA65     		str	r2, [r3, #92]
 342 00e8 E8E7     		b	.L8
 343              	.LVL14:
 344              	.L9:
 345              	.LCFI1:
 346              		.cfi_def_cfa_offset 0
ARM GAS  /tmp/ccQfBzxp.s 			page 28


 347              		.cfi_restore 4
 348              		.cfi_restore 5
 349              		.cfi_restore 6
 350              		.cfi_restore 7
 351              		.cfi_restore 8
 352              		.cfi_restore 14
 159:Drivers/STM32G4xx_HAL_Driver/Src/stm32g4xx_hal_dma.c ****   }
 353              		.loc 1 159 12 view .LVU140
 354 00ea 0120     		movs	r0, #1
 355              	.LVL15:
 255:Drivers/STM32G4xx_HAL_Driver/Src/stm32g4xx_hal_dma.c **** 
 356              		.loc 1 255 1 view .LVU141
 357 00ec 7047     		bx	lr
 358              	.L20:
 359 00ee 00BF     		.align	2
 360              	.L19:
 361 00f0 07040240 		.word	1073873927
 362 00f4 F8FBFDBF 		.word	-1073873928
 363 00f8 CDCCCCCC 		.word	-858993459
 364 00fc 00040240 		.word	1073873920
 365 0100 20080240 		.word	1073874976
 366 0104 00080240 		.word	1073874944
 367 0108 80080240 		.word	1073875072
 368 010c 3F820010 		.word	268468799
 369 0110 40090240 		.word	1073875264
 370 0114 F8FFFDBF 		.word	-1073872904
 371 0118 00000240 		.word	1073872896
 372              		.cfi_endproc
 373              	.LFE329:
 375              		.section	.text.HAL_DMA_DeInit,"ax",%progbits
 376              		.align	1
 377              		.p2align 2,,3
 378              		.global	HAL_DMA_DeInit
 379              		.syntax unified
 380              		.thumb
 381              		.thumb_func
 382              		.fpu fpv4-sp-d16
 384              	HAL_DMA_DeInit:
 385              	.LVL16:
 386              	.LFB330:
 264:Drivers/STM32G4xx_HAL_Driver/Src/stm32g4xx_hal_dma.c **** 
 387              		.loc 1 264 1 is_stmt 1 view -0
 388              		.cfi_startproc
 389              		@ args = 0, pretend = 0, frame = 0
 390              		@ frame_needed = 0, uses_anonymous_args = 0
 391              		@ link register save eliminated.
 267:Drivers/STM32G4xx_HAL_Driver/Src/stm32g4xx_hal_dma.c ****   {
 392              		.loc 1 267 3 view .LVU143
 267:Drivers/STM32G4xx_HAL_Driver/Src/stm32g4xx_hal_dma.c ****   {
 393              		.loc 1 267 6 is_stmt 0 view .LVU144
 394 0000 0028     		cmp	r0, #0
 395 0002 5FD0     		beq	.L26
 273:Drivers/STM32G4xx_HAL_Driver/Src/stm32g4xx_hal_dma.c **** 
 396              		.loc 1 273 3 is_stmt 1 view .LVU145
 276:Drivers/STM32G4xx_HAL_Driver/Src/stm32g4xx_hal_dma.c **** 
 397              		.loc 1 276 3 view .LVU146
 398 0004 0368     		ldr	r3, [r0]
ARM GAS  /tmp/ccQfBzxp.s 			page 29


 279:Drivers/STM32G4xx_HAL_Driver/Src/stm32g4xx_hal_dma.c ****   {
 399              		.loc 1 279 6 is_stmt 0 view .LVU147
 400 0006 3049     		ldr	r1, .L32
 276:Drivers/STM32G4xx_HAL_Driver/Src/stm32g4xx_hal_dma.c **** 
 401              		.loc 1 276 3 view .LVU148
 402 0008 1A68     		ldr	r2, [r3]
 279:Drivers/STM32G4xx_HAL_Driver/Src/stm32g4xx_hal_dma.c ****   {
 403              		.loc 1 279 6 view .LVU149
 404 000a 8B42     		cmp	r3, r1
 276:Drivers/STM32G4xx_HAL_Driver/Src/stm32g4xx_hal_dma.c **** 
 405              		.loc 1 276 3 view .LVU150
 406 000c 22F00102 		bic	r2, r2, #1
 264:Drivers/STM32G4xx_HAL_Driver/Src/stm32g4xx_hal_dma.c **** 
 407              		.loc 1 264 1 view .LVU151
 408 0010 F0B4     		push	{r4, r5, r6, r7}
 409              	.LCFI2:
 410              		.cfi_def_cfa_offset 16
 411              		.cfi_offset 4, -16
 412              		.cfi_offset 5, -12
 413              		.cfi_offset 6, -8
 414              		.cfi_offset 7, -4
 276:Drivers/STM32G4xx_HAL_Driver/Src/stm32g4xx_hal_dma.c **** 
 415              		.loc 1 276 3 view .LVU152
 416 0012 1A60     		str	r2, [r3]
 279:Drivers/STM32G4xx_HAL_Driver/Src/stm32g4xx_hal_dma.c ****   {
 417              		.loc 1 279 3 is_stmt 1 view .LVU153
 279:Drivers/STM32G4xx_HAL_Driver/Src/stm32g4xx_hal_dma.c ****   {
 418              		.loc 1 279 6 is_stmt 0 view .LVU154
 419 0014 40D9     		bls	.L31
 288:Drivers/STM32G4xx_HAL_Driver/Src/stm32g4xx_hal_dma.c ****     hdma->DmaBaseAddress = DMA2;
 420              		.loc 1 288 5 is_stmt 1 view .LVU155
 288:Drivers/STM32G4xx_HAL_Driver/Src/stm32g4xx_hal_dma.c ****     hdma->DmaBaseAddress = DMA2;
 421              		.loc 1 288 53 is_stmt 0 view .LVU156
 422 0016 2D4A     		ldr	r2, .L32+4
 288:Drivers/STM32G4xx_HAL_Driver/Src/stm32g4xx_hal_dma.c ****     hdma->DmaBaseAddress = DMA2;
 423              		.loc 1 288 80 view .LVU157
 424 0018 2D49     		ldr	r1, .L32+8
 289:Drivers/STM32G4xx_HAL_Driver/Src/stm32g4xx_hal_dma.c ****   }
 425              		.loc 1 289 26 view .LVU158
 426 001a 2E4C     		ldr	r4, .L32+12
 427 001c 0464     		str	r4, [r0, #64]
 288:Drivers/STM32G4xx_HAL_Driver/Src/stm32g4xx_hal_dma.c ****     hdma->DmaBaseAddress = DMA2;
 428              		.loc 1 288 53 view .LVU159
 429 001e 1A44     		add	r2, r2, r3
 288:Drivers/STM32G4xx_HAL_Driver/Src/stm32g4xx_hal_dma.c ****     hdma->DmaBaseAddress = DMA2;
 430              		.loc 1 288 80 view .LVU160
 431 0020 A1FB0212 		umull	r1, r2, r1, r2
 432 0024 1209     		lsrs	r2, r2, #4
 288:Drivers/STM32G4xx_HAL_Driver/Src/stm32g4xx_hal_dma.c ****     hdma->DmaBaseAddress = DMA2;
 433              		.loc 1 288 135 view .LVU161
 434 0026 9200     		lsls	r2, r2, #2
 296:Drivers/STM32G4xx_HAL_Driver/Src/stm32g4xx_hal_dma.c **** 
 435              		.loc 1 296 69 view .LVU162
 436 0028 02F01F05 		and	r5, r2, #31
 296:Drivers/STM32G4xx_HAL_Driver/Src/stm32g4xx_hal_dma.c **** 
 437              		.loc 1 296 46 view .LVU163
 438 002c 0121     		movs	r1, #1
ARM GAS  /tmp/ccQfBzxp.s 			page 30


 439 002e A940     		lsls	r1, r1, r5
 293:Drivers/STM32G4xx_HAL_Driver/Src/stm32g4xx_hal_dma.c **** 
 440              		.loc 1 293 24 view .LVU164
 441 0030 0026     		movs	r6, #0
 296:Drivers/STM32G4xx_HAL_Driver/Src/stm32g4xx_hal_dma.c **** 
 442              		.loc 1 296 30 view .LVU165
 443 0032 294D     		ldr	r5, .L32+16
 288:Drivers/STM32G4xx_HAL_Driver/Src/stm32g4xx_hal_dma.c ****     hdma->DmaBaseAddress = DMA2;
 444              		.loc 1 288 24 view .LVU166
 445 0034 4264     		str	r2, [r0, #68]
 289:Drivers/STM32G4xx_HAL_Driver/Src/stm32g4xx_hal_dma.c ****   }
 446              		.loc 1 289 5 is_stmt 1 view .LVU167
 293:Drivers/STM32G4xx_HAL_Driver/Src/stm32g4xx_hal_dma.c **** 
 447              		.loc 1 293 3 view .LVU168
 293:Drivers/STM32G4xx_HAL_Driver/Src/stm32g4xx_hal_dma.c **** 
 448              		.loc 1 293 24 is_stmt 0 view .LVU169
 449 0036 1E60     		str	r6, [r3]
 296:Drivers/STM32G4xx_HAL_Driver/Src/stm32g4xx_hal_dma.c **** 
 450              		.loc 1 296 3 is_stmt 1 view .LVU170
 296:Drivers/STM32G4xx_HAL_Driver/Src/stm32g4xx_hal_dma.c **** 
 451              		.loc 1 296 30 is_stmt 0 view .LVU171
 452 0038 6160     		str	r1, [r4, #4]
 301:Drivers/STM32G4xx_HAL_Driver/Src/stm32g4xx_hal_dma.c **** 
 453              		.loc 1 301 3 is_stmt 1 view .LVU172
 454              	.LVL17:
 455              	.LBB38:
 456              	.LBI38:
1045:Drivers/STM32G4xx_HAL_Driver/Src/stm32g4xx_hal_dma.c **** {
 457              		.loc 1 1045 13 view .LVU173
 458              	.LBB39:
1047:Drivers/STM32G4xx_HAL_Driver/Src/stm32g4xx_hal_dma.c ****   uint32_t channel_number;
 459              		.loc 1 1047 3 view .LVU174
1048:Drivers/STM32G4xx_HAL_Driver/Src/stm32g4xx_hal_dma.c ****   DMAMUX_Channel_TypeDef *DMAMUX1_ChannelBase;
 460              		.loc 1 1048 3 view .LVU175
1049:Drivers/STM32G4xx_HAL_Driver/Src/stm32g4xx_hal_dma.c **** 
 461              		.loc 1 1049 3 view .LVU176
1052:Drivers/STM32G4xx_HAL_Driver/Src/stm32g4xx_hal_dma.c ****   {
 462              		.loc 1 1052 3 view .LVU177
 463              	.L24:
1068:Drivers/STM32G4xx_HAL_Driver/Src/stm32g4xx_hal_dma.c ****   channel_number = (((uint32_t)hdma->Instance & 0xFFU) - 8U) / 20U;
 464              		.loc 1 1068 3 view .LVU178
1069:Drivers/STM32G4xx_HAL_Driver/Src/stm32g4xx_hal_dma.c ****   hdma->DMAmuxChannel = (DMAMUX_Channel_TypeDef *)(uint32_t)(dmamux_base_addr + ((hdma->ChannelInde
 465              		.loc 1 1069 3 view .LVU179
1070:Drivers/STM32G4xx_HAL_Driver/Src/stm32g4xx_hal_dma.c ****   hdma->DMAmuxChannelStatus = DMAMUX1_ChannelStatus;
 466              		.loc 1 1070 3 view .LVU180
1069:Drivers/STM32G4xx_HAL_Driver/Src/stm32g4xx_hal_dma.c ****   hdma->DMAmuxChannel = (DMAMUX_Channel_TypeDef *)(uint32_t)(dmamux_base_addr + ((hdma->ChannelInde
 467              		.loc 1 1069 18 is_stmt 0 view .LVU181
 468 003a 2549     		ldr	r1, .L32+8
1071:Drivers/STM32G4xx_HAL_Driver/Src/stm32g4xx_hal_dma.c ****   hdma->DMAmuxChannelStatusMask = 1UL << (channel_number & 0x1FU);
 469              		.loc 1 1071 29 view .LVU182
 470 003c 274C     		ldr	r4, .L32+20
 471 003e C464     		str	r4, [r0, #76]
1069:Drivers/STM32G4xx_HAL_Driver/Src/stm32g4xx_hal_dma.c ****   hdma->DMAmuxChannel = (DMAMUX_Channel_TypeDef *)(uint32_t)(dmamux_base_addr + ((hdma->ChannelInde
 472              		.loc 1 1069 47 view .LVU183
 473 0040 DBB2     		uxtb	r3, r3
 474              	.LVL18:
1069:Drivers/STM32G4xx_HAL_Driver/Src/stm32g4xx_hal_dma.c ****   hdma->DMAmuxChannel = (DMAMUX_Channel_TypeDef *)(uint32_t)(dmamux_base_addr + ((hdma->ChannelInde
ARM GAS  /tmp/ccQfBzxp.s 			page 31


 475              		.loc 1 1069 56 view .LVU184
 476 0042 083B     		subs	r3, r3, #8
1069:Drivers/STM32G4xx_HAL_Driver/Src/stm32g4xx_hal_dma.c ****   hdma->DMAmuxChannel = (DMAMUX_Channel_TypeDef *)(uint32_t)(dmamux_base_addr + ((hdma->ChannelInde
 477              		.loc 1 1069 18 view .LVU185
 478 0044 A1FB0313 		umull	r1, r3, r1, r3
1070:Drivers/STM32G4xx_HAL_Driver/Src/stm32g4xx_hal_dma.c ****   hdma->DMAmuxChannelStatus = DMAMUX1_ChannelStatus;
 479              		.loc 1 1070 102 view .LVU186
 480 0048 9708     		lsrs	r7, r2, #2
1072:Drivers/STM32G4xx_HAL_Driver/Src/stm32g4xx_hal_dma.c **** }
 481              		.loc 1 1072 58 view .LVU187
 482 004a C3F30413 		ubfx	r3, r3, #4, #5
1072:Drivers/STM32G4xx_HAL_Driver/Src/stm32g4xx_hal_dma.c **** }
 483              		.loc 1 1072 39 view .LVU188
 484 004e 0121     		movs	r1, #1
 485 0050 01FA03F3 		lsl	r3, r1, r3
1070:Drivers/STM32G4xx_HAL_Driver/Src/stm32g4xx_hal_dma.c ****   hdma->DMAmuxChannelStatus = DMAMUX1_ChannelStatus;
 486              		.loc 1 1070 51 view .LVU189
 487 0054 2A44     		add	r2, r2, r5
 488              	.LBE39:
 489              	.LBE38:
 304:Drivers/STM32G4xx_HAL_Driver/Src/stm32g4xx_hal_dma.c **** 
 490              		.loc 1 304 28 view .LVU190
 491 0056 0026     		movs	r6, #0
 492              	.LBB43:
 493              	.LBB40:
1070:Drivers/STM32G4xx_HAL_Driver/Src/stm32g4xx_hal_dma.c ****   hdma->DMAmuxChannelStatus = DMAMUX1_ChannelStatus;
 494              		.loc 1 1070 23 view .LVU191
 495 0058 8264     		str	r2, [r0, #72]
1071:Drivers/STM32G4xx_HAL_Driver/Src/stm32g4xx_hal_dma.c ****   hdma->DMAmuxChannelStatusMask = 1UL << (channel_number & 0x1FU);
 496              		.loc 1 1071 3 is_stmt 1 view .LVU192
1072:Drivers/STM32G4xx_HAL_Driver/Src/stm32g4xx_hal_dma.c **** }
 497              		.loc 1 1072 3 view .LVU193
 498              	.LVL19:
1072:Drivers/STM32G4xx_HAL_Driver/Src/stm32g4xx_hal_dma.c **** }
 499              		.loc 1 1072 3 is_stmt 0 view .LVU194
 500              	.LBE40:
 501              	.LBE43:
 304:Drivers/STM32G4xx_HAL_Driver/Src/stm32g4xx_hal_dma.c **** 
 502              		.loc 1 304 3 is_stmt 1 view .LVU195
 503              	.LBB44:
 504              	.LBB41:
1072:Drivers/STM32G4xx_HAL_Driver/Src/stm32g4xx_hal_dma.c **** }
 505              		.loc 1 1072 33 is_stmt 0 view .LVU196
 506 005a 0365     		str	r3, [r0, #80]
 507              	.LBE41:
 508              	.LBE44:
 304:Drivers/STM32G4xx_HAL_Driver/Src/stm32g4xx_hal_dma.c **** 
 509              		.loc 1 304 28 view .LVU197
 510 005c 45F82760 		str	r6, [r5, r7, lsl #2]
 307:Drivers/STM32G4xx_HAL_Driver/Src/stm32g4xx_hal_dma.c **** 
 511              		.loc 1 307 3 is_stmt 1 view .LVU198
 307:Drivers/STM32G4xx_HAL_Driver/Src/stm32g4xx_hal_dma.c **** 
 512              		.loc 1 307 34 is_stmt 0 view .LVU199
 513 0060 6360     		str	r3, [r4, #4]
 310:Drivers/STM32G4xx_HAL_Driver/Src/stm32g4xx_hal_dma.c ****   {
 514              		.loc 1 310 3 is_stmt 1 view .LVU200
 310:Drivers/STM32G4xx_HAL_Driver/Src/stm32g4xx_hal_dma.c ****   {
ARM GAS  /tmp/ccQfBzxp.s 			page 32


 515              		.loc 1 310 19 is_stmt 0 view .LVU201
 516 0062 4468     		ldr	r4, [r0, #4]
 310:Drivers/STM32G4xx_HAL_Driver/Src/stm32g4xx_hal_dma.c ****   {
 517              		.loc 1 310 35 view .LVU202
 518 0064 621E     		subs	r2, r4, #1
 310:Drivers/STM32G4xx_HAL_Driver/Src/stm32g4xx_hal_dma.c ****   {
 519              		.loc 1 310 6 view .LVU203
 520 0066 032A     		cmp	r2, #3
 521 0068 06D8     		bhi	.L25
 315:Drivers/STM32G4xx_HAL_Driver/Src/stm32g4xx_hal_dma.c **** 
 522              		.loc 1 315 5 is_stmt 1 view .LVU204
 523              	.LVL20:
 524              	.LBB45:
 525              	.LBI45:
1082:Drivers/STM32G4xx_HAL_Driver/Src/stm32g4xx_hal_dma.c **** {
 526              		.loc 1 1082 13 view .LVU205
 527              	.LBB46:
1084:Drivers/STM32G4xx_HAL_Driver/Src/stm32g4xx_hal_dma.c **** 
 528              		.loc 1 1084 3 view .LVU206
1087:Drivers/STM32G4xx_HAL_Driver/Src/stm32g4xx_hal_dma.c **** 
 529              		.loc 1 1087 3 view .LVU207
1087:Drivers/STM32G4xx_HAL_Driver/Src/stm32g4xx_hal_dma.c **** 
 530              		.loc 1 1087 58 is_stmt 0 view .LVU208
 531 006a 1D4B     		ldr	r3, .L32+24
 532 006c 2344     		add	r3, r3, r4
 533 006e 9B00     		lsls	r3, r3, #2
1089:Drivers/STM32G4xx_HAL_Driver/Src/stm32g4xx_hal_dma.c **** 
 534              		.loc 1 1089 3 is_stmt 1 view .LVU209
 535              		.loc 1 1091 3 view .LVU210
 536              	.LBE46:
 537              	.LBE45:
 321:Drivers/STM32G4xx_HAL_Driver/Src/stm32g4xx_hal_dma.c ****   }
 538              		.loc 1 321 41 is_stmt 0 view .LVU211
 539 0070 1C4C     		ldr	r4, .L32+28
 540              	.LVL21:
 318:Drivers/STM32G4xx_HAL_Driver/Src/stm32g4xx_hal_dma.c **** 
 541              		.loc 1 318 34 view .LVU212
 542 0072 1E60     		str	r6, [r3]
 543              	.LBB48:
 544              	.LBB47:
 545              		.loc 1 1091 42 view .LVU213
 546 0074 9140     		lsls	r1, r1, r2
 547              	.LVL22:
 548              		.loc 1 1091 42 view .LVU214
 549              	.LBE47:
 550              	.LBE48:
 318:Drivers/STM32G4xx_HAL_Driver/Src/stm32g4xx_hal_dma.c **** 
 551              		.loc 1 318 5 is_stmt 1 view .LVU215
 321:Drivers/STM32G4xx_HAL_Driver/Src/stm32g4xx_hal_dma.c ****   }
 552              		.loc 1 321 5 view .LVU216
 321:Drivers/STM32G4xx_HAL_Driver/Src/stm32g4xx_hal_dma.c ****   }
 553              		.loc 1 321 41 is_stmt 0 view .LVU217
 554 0076 6160     		str	r1, [r4, #4]
 555              	.L25:
 324:Drivers/STM32G4xx_HAL_Driver/Src/stm32g4xx_hal_dma.c ****   hdma->DMAmuxRequestGenStatus = 0U;
 556              		.loc 1 324 3 is_stmt 1 view .LVU218
 324:Drivers/STM32G4xx_HAL_Driver/Src/stm32g4xx_hal_dma.c ****   hdma->DMAmuxRequestGenStatus = 0U;
ARM GAS  /tmp/ccQfBzxp.s 			page 33


 557              		.loc 1 324 26 is_stmt 0 view .LVU219
 558 0078 0023     		movs	r3, #0
 335:Drivers/STM32G4xx_HAL_Driver/Src/stm32g4xx_hal_dma.c **** 
 559              		.loc 1 335 19 view .LVU220
 560 007a C363     		str	r3, [r0, #60]
 341:Drivers/STM32G4xx_HAL_Driver/Src/stm32g4xx_hal_dma.c **** 
 561              		.loc 1 341 3 view .LVU221
 562 007c 80F82430 		strb	r3, [r0, #36]
 338:Drivers/STM32G4xx_HAL_Driver/Src/stm32g4xx_hal_dma.c **** 
 563              		.loc 1 338 15 view .LVU222
 564 0080 80F82530 		strb	r3, [r0, #37]
 325:Drivers/STM32G4xx_HAL_Driver/Src/stm32g4xx_hal_dma.c ****   hdma->DMAmuxRequestGenStatusMask = 0U;
 565              		.loc 1 325 32 view .LVU223
 566 0084 C0E91533 		strd	r3, r3, [r0, #84]
 326:Drivers/STM32G4xx_HAL_Driver/Src/stm32g4xx_hal_dma.c **** 
 567              		.loc 1 326 3 is_stmt 1 view .LVU224
 330:Drivers/STM32G4xx_HAL_Driver/Src/stm32g4xx_hal_dma.c ****   hdma->XferErrorCallback = NULL;
 568              		.loc 1 330 30 is_stmt 0 view .LVU225
 569 0088 C0E90B33 		strd	r3, r3, [r0, #44]
 332:Drivers/STM32G4xx_HAL_Driver/Src/stm32g4xx_hal_dma.c **** 
 570              		.loc 1 332 27 view .LVU226
 571 008c C0E90D33 		strd	r3, r3, [r0, #52]
 326:Drivers/STM32G4xx_HAL_Driver/Src/stm32g4xx_hal_dma.c **** 
 572              		.loc 1 326 36 view .LVU227
 573 0090 C365     		str	r3, [r0, #92]
 329:Drivers/STM32G4xx_HAL_Driver/Src/stm32g4xx_hal_dma.c ****   hdma->XferHalfCpltCallback = NULL;
 574              		.loc 1 329 3 is_stmt 1 view .LVU228
 331:Drivers/STM32G4xx_HAL_Driver/Src/stm32g4xx_hal_dma.c ****   hdma->XferAbortCallback = NULL;
 575              		.loc 1 331 3 view .LVU229
 335:Drivers/STM32G4xx_HAL_Driver/Src/stm32g4xx_hal_dma.c **** 
 576              		.loc 1 335 3 view .LVU230
 338:Drivers/STM32G4xx_HAL_Driver/Src/stm32g4xx_hal_dma.c **** 
 577              		.loc 1 338 3 view .LVU231
 341:Drivers/STM32G4xx_HAL_Driver/Src/stm32g4xx_hal_dma.c **** 
 578              		.loc 1 341 3 view .LVU232
 341:Drivers/STM32G4xx_HAL_Driver/Src/stm32g4xx_hal_dma.c **** 
 579              		.loc 1 341 3 view .LVU233
 341:Drivers/STM32G4xx_HAL_Driver/Src/stm32g4xx_hal_dma.c **** 
 580              		.loc 1 341 3 view .LVU234
 343:Drivers/STM32G4xx_HAL_Driver/Src/stm32g4xx_hal_dma.c **** }
 581              		.loc 1 343 3 view .LVU235
 344:Drivers/STM32G4xx_HAL_Driver/Src/stm32g4xx_hal_dma.c **** 
 582              		.loc 1 344 1 is_stmt 0 view .LVU236
 583 0092 F0BC     		pop	{r4, r5, r6, r7}
 584              	.LCFI3:
 585              		.cfi_remember_state
 586              		.cfi_restore 7
 587              		.cfi_restore 6
 588              		.cfi_restore 5
 589              		.cfi_restore 4
 590              		.cfi_def_cfa_offset 0
 343:Drivers/STM32G4xx_HAL_Driver/Src/stm32g4xx_hal_dma.c **** }
 591              		.loc 1 343 10 view .LVU237
 592 0094 1846     		mov	r0, r3
 593              	.LVL23:
 344:Drivers/STM32G4xx_HAL_Driver/Src/stm32g4xx_hal_dma.c **** 
 594              		.loc 1 344 1 view .LVU238
ARM GAS  /tmp/ccQfBzxp.s 			page 34


 595 0096 7047     		bx	lr
 596              	.LVL24:
 597              	.L31:
 598              	.LCFI4:
 599              		.cfi_restore_state
 282:Drivers/STM32G4xx_HAL_Driver/Src/stm32g4xx_hal_dma.c ****     hdma->DmaBaseAddress = DMA1;
 600              		.loc 1 282 5 is_stmt 1 view .LVU239
 282:Drivers/STM32G4xx_HAL_Driver/Src/stm32g4xx_hal_dma.c ****     hdma->DmaBaseAddress = DMA1;
 601              		.loc 1 282 53 is_stmt 0 view .LVU240
 602 0098 134A     		ldr	r2, .L32+32
 282:Drivers/STM32G4xx_HAL_Driver/Src/stm32g4xx_hal_dma.c ****     hdma->DmaBaseAddress = DMA1;
 603              		.loc 1 282 80 view .LVU241
 604 009a 0D49     		ldr	r1, .L32+8
 283:Drivers/STM32G4xx_HAL_Driver/Src/stm32g4xx_hal_dma.c ****   }
 605              		.loc 1 283 26 view .LVU242
 606 009c 134C     		ldr	r4, .L32+36
 607 009e 0464     		str	r4, [r0, #64]
 282:Drivers/STM32G4xx_HAL_Driver/Src/stm32g4xx_hal_dma.c ****     hdma->DmaBaseAddress = DMA1;
 608              		.loc 1 282 53 view .LVU243
 609 00a0 1A44     		add	r2, r2, r3
 282:Drivers/STM32G4xx_HAL_Driver/Src/stm32g4xx_hal_dma.c ****     hdma->DmaBaseAddress = DMA1;
 610              		.loc 1 282 80 view .LVU244
 611 00a2 A1FB0212 		umull	r1, r2, r1, r2
 612 00a6 1209     		lsrs	r2, r2, #4
 282:Drivers/STM32G4xx_HAL_Driver/Src/stm32g4xx_hal_dma.c ****     hdma->DmaBaseAddress = DMA1;
 613              		.loc 1 282 135 view .LVU245
 614 00a8 9200     		lsls	r2, r2, #2
 296:Drivers/STM32G4xx_HAL_Driver/Src/stm32g4xx_hal_dma.c **** 
 615              		.loc 1 296 69 view .LVU246
 616 00aa 02F01F05 		and	r5, r2, #31
 296:Drivers/STM32G4xx_HAL_Driver/Src/stm32g4xx_hal_dma.c **** 
 617              		.loc 1 296 46 view .LVU247
 618 00ae 0121     		movs	r1, #1
 619 00b0 A940     		lsls	r1, r1, r5
 293:Drivers/STM32G4xx_HAL_Driver/Src/stm32g4xx_hal_dma.c **** 
 620              		.loc 1 293 24 view .LVU248
 621 00b2 0025     		movs	r5, #0
 282:Drivers/STM32G4xx_HAL_Driver/Src/stm32g4xx_hal_dma.c ****     hdma->DmaBaseAddress = DMA1;
 622              		.loc 1 282 24 view .LVU249
 623 00b4 4264     		str	r2, [r0, #68]
 283:Drivers/STM32G4xx_HAL_Driver/Src/stm32g4xx_hal_dma.c ****   }
 624              		.loc 1 283 5 is_stmt 1 view .LVU250
 293:Drivers/STM32G4xx_HAL_Driver/Src/stm32g4xx_hal_dma.c **** 
 625              		.loc 1 293 3 view .LVU251
 293:Drivers/STM32G4xx_HAL_Driver/Src/stm32g4xx_hal_dma.c **** 
 626              		.loc 1 293 24 is_stmt 0 view .LVU252
 627 00b6 1D60     		str	r5, [r3]
 296:Drivers/STM32G4xx_HAL_Driver/Src/stm32g4xx_hal_dma.c **** 
 628              		.loc 1 296 3 is_stmt 1 view .LVU253
 296:Drivers/STM32G4xx_HAL_Driver/Src/stm32g4xx_hal_dma.c **** 
 629              		.loc 1 296 30 is_stmt 0 view .LVU254
 630 00b8 05F18045 		add	r5, r5, #1073741824
 631 00bc 05F50235 		add	r5, r5, #133120
 632 00c0 6160     		str	r1, [r4, #4]
 301:Drivers/STM32G4xx_HAL_Driver/Src/stm32g4xx_hal_dma.c **** 
 633              		.loc 1 301 3 is_stmt 1 view .LVU255
 634              	.LVL25:
ARM GAS  /tmp/ccQfBzxp.s 			page 35


 635              	.LBB49:
1045:Drivers/STM32G4xx_HAL_Driver/Src/stm32g4xx_hal_dma.c **** {
 636              		.loc 1 1045 13 view .LVU256
 637              	.LBB42:
1047:Drivers/STM32G4xx_HAL_Driver/Src/stm32g4xx_hal_dma.c ****   uint32_t channel_number;
 638              		.loc 1 1047 3 view .LVU257
1048:Drivers/STM32G4xx_HAL_Driver/Src/stm32g4xx_hal_dma.c ****   DMAMUX_Channel_TypeDef *DMAMUX1_ChannelBase;
 639              		.loc 1 1048 3 view .LVU258
1049:Drivers/STM32G4xx_HAL_Driver/Src/stm32g4xx_hal_dma.c **** 
 640              		.loc 1 1049 3 view .LVU259
1052:Drivers/STM32G4xx_HAL_Driver/Src/stm32g4xx_hal_dma.c ****   {
 641              		.loc 1 1052 3 view .LVU260
 642 00c2 BAE7     		b	.L24
 643              	.LVL26:
 644              	.L26:
 645              	.LCFI5:
 646              		.cfi_def_cfa_offset 0
 647              		.cfi_restore 4
 648              		.cfi_restore 5
 649              		.cfi_restore 6
 650              		.cfi_restore 7
1052:Drivers/STM32G4xx_HAL_Driver/Src/stm32g4xx_hal_dma.c ****   {
 651              		.loc 1 1052 3 is_stmt 0 view .LVU261
 652              	.LBE42:
 653              	.LBE49:
 269:Drivers/STM32G4xx_HAL_Driver/Src/stm32g4xx_hal_dma.c ****   }
 654              		.loc 1 269 12 view .LVU262
 655 00c4 0120     		movs	r0, #1
 656              	.LVL27:
 344:Drivers/STM32G4xx_HAL_Driver/Src/stm32g4xx_hal_dma.c **** 
 657              		.loc 1 344 1 view .LVU263
 658 00c6 7047     		bx	lr
 659              	.L33:
 660              		.align	2
 661              	.L32:
 662 00c8 07040240 		.word	1073873927
 663 00cc F8FBFDBF 		.word	-1073873928
 664 00d0 CDCCCCCC 		.word	-858993459
 665 00d4 00040240 		.word	1073873920
 666 00d8 20080240 		.word	1073874976
 667 00dc 80080240 		.word	1073875072
 668 00e0 3F820010 		.word	268468799
 669 00e4 40090240 		.word	1073875264
 670 00e8 F8FFFDBF 		.word	-1073872904
 671 00ec 00000240 		.word	1073872896
 672              		.cfi_endproc
 673              	.LFE330:
 675              		.section	.text.HAL_DMA_Start,"ax",%progbits
 676              		.align	1
 677              		.p2align 2,,3
 678              		.global	HAL_DMA_Start
 679              		.syntax unified
 680              		.thumb
 681              		.thumb_func
 682              		.fpu fpv4-sp-d16
 684              	HAL_DMA_Start:
 685              	.LVL28:
ARM GAS  /tmp/ccQfBzxp.s 			page 36


 686              	.LFB331:
 379:Drivers/STM32G4xx_HAL_Driver/Src/stm32g4xx_hal_dma.c ****   HAL_StatusTypeDef status = HAL_OK;
 687              		.loc 1 379 1 is_stmt 1 view -0
 688              		.cfi_startproc
 689              		@ args = 0, pretend = 0, frame = 0
 690              		@ frame_needed = 0, uses_anonymous_args = 0
 691              		@ link register save eliminated.
 380:Drivers/STM32G4xx_HAL_Driver/Src/stm32g4xx_hal_dma.c **** 
 692              		.loc 1 380 3 view .LVU265
 383:Drivers/STM32G4xx_HAL_Driver/Src/stm32g4xx_hal_dma.c **** 
 693              		.loc 1 383 3 view .LVU266
 386:Drivers/STM32G4xx_HAL_Driver/Src/stm32g4xx_hal_dma.c **** 
 694              		.loc 1 386 3 view .LVU267
 386:Drivers/STM32G4xx_HAL_Driver/Src/stm32g4xx_hal_dma.c **** 
 695              		.loc 1 386 3 view .LVU268
 379:Drivers/STM32G4xx_HAL_Driver/Src/stm32g4xx_hal_dma.c ****   HAL_StatusTypeDef status = HAL_OK;
 696              		.loc 1 379 1 is_stmt 0 view .LVU269
 697 0000 F0B4     		push	{r4, r5, r6, r7}
 698              	.LCFI6:
 699              		.cfi_def_cfa_offset 16
 700              		.cfi_offset 4, -16
 701              		.cfi_offset 5, -12
 702              		.cfi_offset 6, -8
 703              		.cfi_offset 7, -4
 386:Drivers/STM32G4xx_HAL_Driver/Src/stm32g4xx_hal_dma.c **** 
 704              		.loc 1 386 3 view .LVU270
 705 0002 90F82440 		ldrb	r4, [r0, #36]	@ zero_extendqisi2
 706 0006 012C     		cmp	r4, #1
 707 0008 36D0     		beq	.L40
 386:Drivers/STM32G4xx_HAL_Driver/Src/stm32g4xx_hal_dma.c **** 
 708              		.loc 1 386 3 is_stmt 1 discriminator 2 view .LVU271
 388:Drivers/STM32G4xx_HAL_Driver/Src/stm32g4xx_hal_dma.c ****   {
 709              		.loc 1 388 34 is_stmt 0 discriminator 2 view .LVU272
 710 000a 90F82540 		ldrb	r4, [r0, #37]	@ zero_extendqisi2
 386:Drivers/STM32G4xx_HAL_Driver/Src/stm32g4xx_hal_dma.c **** 
 711              		.loc 1 386 3 discriminator 2 view .LVU273
 712 000e 0125     		movs	r5, #1
 388:Drivers/STM32G4xx_HAL_Driver/Src/stm32g4xx_hal_dma.c ****   {
 713              		.loc 1 388 6 discriminator 2 view .LVU274
 714 0010 AC42     		cmp	r4, r5
 386:Drivers/STM32G4xx_HAL_Driver/Src/stm32g4xx_hal_dma.c **** 
 715              		.loc 1 386 3 discriminator 2 view .LVU275
 716 0012 80F82450 		strb	r5, [r0, #36]
 386:Drivers/STM32G4xx_HAL_Driver/Src/stm32g4xx_hal_dma.c **** 
 717              		.loc 1 386 3 is_stmt 1 discriminator 2 view .LVU276
 388:Drivers/STM32G4xx_HAL_Driver/Src/stm32g4xx_hal_dma.c ****   {
 718              		.loc 1 388 3 discriminator 2 view .LVU277
 388:Drivers/STM32G4xx_HAL_Driver/Src/stm32g4xx_hal_dma.c ****   {
 719              		.loc 1 388 6 is_stmt 0 discriminator 2 view .LVU278
 720 0016 05D0     		beq	.L45
 406:Drivers/STM32G4xx_HAL_Driver/Src/stm32g4xx_hal_dma.c ****     status = HAL_BUSY;
 721              		.loc 1 406 5 is_stmt 1 view .LVU279
 406:Drivers/STM32G4xx_HAL_Driver/Src/stm32g4xx_hal_dma.c ****     status = HAL_BUSY;
 722              		.loc 1 406 5 view .LVU280
 723 0018 0023     		movs	r3, #0
 724              	.LVL29:
 406:Drivers/STM32G4xx_HAL_Driver/Src/stm32g4xx_hal_dma.c ****     status = HAL_BUSY;
ARM GAS  /tmp/ccQfBzxp.s 			page 37


 725              		.loc 1 406 5 is_stmt 0 view .LVU281
 726 001a 80F82430 		strb	r3, [r0, #36]
 406:Drivers/STM32G4xx_HAL_Driver/Src/stm32g4xx_hal_dma.c ****     status = HAL_BUSY;
 727              		.loc 1 406 5 is_stmt 1 view .LVU282
 407:Drivers/STM32G4xx_HAL_Driver/Src/stm32g4xx_hal_dma.c ****   }
 728              		.loc 1 407 5 view .LVU283
 729              	.LVL30:
 410:Drivers/STM32G4xx_HAL_Driver/Src/stm32g4xx_hal_dma.c **** 
 730              		.loc 1 410 1 is_stmt 0 view .LVU284
 731 001e F0BC     		pop	{r4, r5, r6, r7}
 732              	.LCFI7:
 733              		.cfi_remember_state
 734              		.cfi_restore 7
 735              		.cfi_restore 6
 736              		.cfi_restore 5
 737              		.cfi_restore 4
 738              		.cfi_def_cfa_offset 0
 407:Drivers/STM32G4xx_HAL_Driver/Src/stm32g4xx_hal_dma.c ****   }
 739              		.loc 1 407 12 view .LVU285
 740 0020 0220     		movs	r0, #2
 741              	.LVL31:
 410:Drivers/STM32G4xx_HAL_Driver/Src/stm32g4xx_hal_dma.c **** 
 742              		.loc 1 410 1 view .LVU286
 743 0022 7047     		bx	lr
 744              	.LVL32:
 745              	.L45:
 746              	.LCFI8:
 747              		.cfi_restore_state
 391:Drivers/STM32G4xx_HAL_Driver/Src/stm32g4xx_hal_dma.c ****     hdma->ErrorCode = HAL_DMA_ERROR_NONE;
 748              		.loc 1 391 5 is_stmt 1 view .LVU287
 395:Drivers/STM32G4xx_HAL_Driver/Src/stm32g4xx_hal_dma.c **** 
 749              		.loc 1 395 5 is_stmt 0 view .LVU288
 750 0024 0468     		ldr	r4, [r0]
 751              	.LBB50:
 752              	.LBB51:
1005:Drivers/STM32G4xx_HAL_Driver/Src/stm32g4xx_hal_dma.c **** 
 753              		.loc 1 1005 7 view .LVU289
 754 0026 C76C     		ldr	r7, [r0, #76]
 755              	.LBE51:
 756              	.LBE50:
 391:Drivers/STM32G4xx_HAL_Driver/Src/stm32g4xx_hal_dma.c ****     hdma->ErrorCode = HAL_DMA_ERROR_NONE;
 757              		.loc 1 391 17 view .LVU290
 758 0028 0226     		movs	r6, #2
 392:Drivers/STM32G4xx_HAL_Driver/Src/stm32g4xx_hal_dma.c **** 
 759              		.loc 1 392 21 view .LVU291
 760 002a 0025     		movs	r5, #0
 391:Drivers/STM32G4xx_HAL_Driver/Src/stm32g4xx_hal_dma.c ****     hdma->ErrorCode = HAL_DMA_ERROR_NONE;
 761              		.loc 1 391 17 view .LVU292
 762 002c 80F82560 		strb	r6, [r0, #37]
 392:Drivers/STM32G4xx_HAL_Driver/Src/stm32g4xx_hal_dma.c **** 
 763              		.loc 1 392 5 is_stmt 1 view .LVU293
 392:Drivers/STM32G4xx_HAL_Driver/Src/stm32g4xx_hal_dma.c **** 
 764              		.loc 1 392 21 is_stmt 0 view .LVU294
 765 0030 C563     		str	r5, [r0, #60]
 395:Drivers/STM32G4xx_HAL_Driver/Src/stm32g4xx_hal_dma.c **** 
 766              		.loc 1 395 5 is_stmt 1 view .LVU295
 767 0032 2568     		ldr	r5, [r4]
ARM GAS  /tmp/ccQfBzxp.s 			page 38


 768              	.LBB54:
 769              	.LBB52:
1005:Drivers/STM32G4xx_HAL_Driver/Src/stm32g4xx_hal_dma.c **** 
 770              		.loc 1 1005 40 is_stmt 0 view .LVU296
 771 0034 D0E914C6 		ldrd	ip, r6, [r0, #80]
 772              	.LBE52:
 773              	.LBE54:
 395:Drivers/STM32G4xx_HAL_Driver/Src/stm32g4xx_hal_dma.c **** 
 774              		.loc 1 395 5 view .LVU297
 775 0038 25F00105 		bic	r5, r5, #1
 776 003c 2560     		str	r5, [r4]
 398:Drivers/STM32G4xx_HAL_Driver/Src/stm32g4xx_hal_dma.c **** 
 777              		.loc 1 398 5 is_stmt 1 view .LVU298
 778              	.LVL33:
 779              	.LBB55:
 780              	.LBI50:
1002:Drivers/STM32G4xx_HAL_Driver/Src/stm32g4xx_hal_dma.c **** {
 781              		.loc 1 1002 13 view .LVU299
 782              	.LBB53:
1005:Drivers/STM32G4xx_HAL_Driver/Src/stm32g4xx_hal_dma.c **** 
 783              		.loc 1 1005 3 view .LVU300
1005:Drivers/STM32G4xx_HAL_Driver/Src/stm32g4xx_hal_dma.c **** 
 784              		.loc 1 1005 34 is_stmt 0 view .LVU301
 785 003e C7F804C0 		str	ip, [r7, #4]
1007:Drivers/STM32G4xx_HAL_Driver/Src/stm32g4xx_hal_dma.c ****   {
 786              		.loc 1 1007 3 is_stmt 1 view .LVU302
1007:Drivers/STM32G4xx_HAL_Driver/Src/stm32g4xx_hal_dma.c ****   {
 787              		.loc 1 1007 6 is_stmt 0 view .LVU303
 788 0042 16B1     		cbz	r6, .L37
1010:Drivers/STM32G4xx_HAL_Driver/Src/stm32g4xx_hal_dma.c ****   }
 789              		.loc 1 1010 5 is_stmt 1 view .LVU304
1010:Drivers/STM32G4xx_HAL_Driver/Src/stm32g4xx_hal_dma.c ****   }
 790              		.loc 1 1010 47 is_stmt 0 view .LVU305
 791 0044 D0E91656 		ldrd	r5, r6, [r0, #88]
1010:Drivers/STM32G4xx_HAL_Driver/Src/stm32g4xx_hal_dma.c ****   }
 792              		.loc 1 1010 41 view .LVU306
 793 0048 6E60     		str	r6, [r5, #4]
 794              	.L37:
1014:Drivers/STM32G4xx_HAL_Driver/Src/stm32g4xx_hal_dma.c **** 
 795              		.loc 1 1014 3 is_stmt 1 view .LVU307
1014:Drivers/STM32G4xx_HAL_Driver/Src/stm32g4xx_hal_dma.c **** 
 796              		.loc 1 1014 7 is_stmt 0 view .LVU308
 797 004a D0E91075 		ldrd	r7, r5, [r0, #64]
1020:Drivers/STM32G4xx_HAL_Driver/Src/stm32g4xx_hal_dma.c ****   {
 798              		.loc 1 1020 6 view .LVU309
 799 004e 8668     		ldr	r6, [r0, #8]
1014:Drivers/STM32G4xx_HAL_Driver/Src/stm32g4xx_hal_dma.c **** 
 800              		.loc 1 1014 69 view .LVU310
 801 0050 05F01F05 		and	r5, r5, #31
1014:Drivers/STM32G4xx_HAL_Driver/Src/stm32g4xx_hal_dma.c **** 
 802              		.loc 1 1014 46 view .LVU311
 803 0054 0120     		movs	r0, #1
 804              	.LVL34:
1020:Drivers/STM32G4xx_HAL_Driver/Src/stm32g4xx_hal_dma.c ****   {
 805              		.loc 1 1020 6 view .LVU312
 806 0056 102E     		cmp	r6, #16
1014:Drivers/STM32G4xx_HAL_Driver/Src/stm32g4xx_hal_dma.c **** 
ARM GAS  /tmp/ccQfBzxp.s 			page 39


 807              		.loc 1 1014 46 view .LVU313
 808 0058 00FA05F0 		lsl	r0, r0, r5
1014:Drivers/STM32G4xx_HAL_Driver/Src/stm32g4xx_hal_dma.c **** 
 809              		.loc 1 1014 30 view .LVU314
 810 005c 7860     		str	r0, [r7, #4]
1017:Drivers/STM32G4xx_HAL_Driver/Src/stm32g4xx_hal_dma.c **** 
 811              		.loc 1 1017 3 is_stmt 1 view .LVU315
1017:Drivers/STM32G4xx_HAL_Driver/Src/stm32g4xx_hal_dma.c **** 
 812              		.loc 1 1017 25 is_stmt 0 view .LVU316
 813 005e 6360     		str	r3, [r4, #4]
1020:Drivers/STM32G4xx_HAL_Driver/Src/stm32g4xx_hal_dma.c ****   {
 814              		.loc 1 1020 3 is_stmt 1 view .LVU317
1023:Drivers/STM32G4xx_HAL_Driver/Src/stm32g4xx_hal_dma.c **** 
 815              		.loc 1 1023 5 view .LVU318
1023:Drivers/STM32G4xx_HAL_Driver/Src/stm32g4xx_hal_dma.c **** 
 816              		.loc 1 1023 26 is_stmt 0 view .LVU319
 817 0060 0BBF     		itete	eq
 818 0062 A260     		streq	r2, [r4, #8]
1026:Drivers/STM32G4xx_HAL_Driver/Src/stm32g4xx_hal_dma.c ****   }
 819              		.loc 1 1026 5 is_stmt 1 view .LVU320
1032:Drivers/STM32G4xx_HAL_Driver/Src/stm32g4xx_hal_dma.c **** 
 820              		.loc 1 1032 26 is_stmt 0 view .LVU321
 821 0064 A160     		strne	r1, [r4, #8]
1026:Drivers/STM32G4xx_HAL_Driver/Src/stm32g4xx_hal_dma.c ****   }
 822              		.loc 1 1026 26 view .LVU322
 823 0066 E160     		streq	r1, [r4, #12]
1032:Drivers/STM32G4xx_HAL_Driver/Src/stm32g4xx_hal_dma.c **** 
 824              		.loc 1 1032 5 is_stmt 1 view .LVU323
1035:Drivers/STM32G4xx_HAL_Driver/Src/stm32g4xx_hal_dma.c ****   }
 825              		.loc 1 1035 5 view .LVU324
1035:Drivers/STM32G4xx_HAL_Driver/Src/stm32g4xx_hal_dma.c ****   }
 826              		.loc 1 1035 26 is_stmt 0 view .LVU325
 827 0068 E260     		strne	r2, [r4, #12]
 828              	.LVL35:
1035:Drivers/STM32G4xx_HAL_Driver/Src/stm32g4xx_hal_dma.c ****   }
 829              		.loc 1 1035 26 view .LVU326
 830              	.LBE53:
 831              	.LBE55:
 401:Drivers/STM32G4xx_HAL_Driver/Src/stm32g4xx_hal_dma.c ****   }
 832              		.loc 1 401 5 is_stmt 1 view .LVU327
 833 006a 2368     		ldr	r3, [r4]
 834              	.LVL36:
 401:Drivers/STM32G4xx_HAL_Driver/Src/stm32g4xx_hal_dma.c ****   }
 835              		.loc 1 401 5 is_stmt 0 view .LVU328
 836 006c 43F00103 		orr	r3, r3, #1
 837 0070 2360     		str	r3, [r4]
 838              	.LVL37:
 380:Drivers/STM32G4xx_HAL_Driver/Src/stm32g4xx_hal_dma.c **** 
 839              		.loc 1 380 21 view .LVU329
 840 0072 0020     		movs	r0, #0
 841              	.LVL38:
 410:Drivers/STM32G4xx_HAL_Driver/Src/stm32g4xx_hal_dma.c **** 
 842              		.loc 1 410 1 view .LVU330
 843 0074 F0BC     		pop	{r4, r5, r6, r7}
 844              	.LCFI9:
 845              		.cfi_remember_state
 846              		.cfi_restore 7
ARM GAS  /tmp/ccQfBzxp.s 			page 40


 847              		.cfi_restore 6
 848              		.cfi_restore 5
 849              		.cfi_restore 4
 850              		.cfi_def_cfa_offset 0
 851 0076 7047     		bx	lr
 852              	.LVL39:
 853              	.L40:
 854              	.LCFI10:
 855              		.cfi_restore_state
 386:Drivers/STM32G4xx_HAL_Driver/Src/stm32g4xx_hal_dma.c **** 
 856              		.loc 1 386 3 view .LVU331
 857 0078 0220     		movs	r0, #2
 858              	.LVL40:
 410:Drivers/STM32G4xx_HAL_Driver/Src/stm32g4xx_hal_dma.c **** 
 859              		.loc 1 410 1 view .LVU332
 860 007a F0BC     		pop	{r4, r5, r6, r7}
 861              	.LCFI11:
 862              		.cfi_restore 7
 863              		.cfi_restore 6
 864              		.cfi_restore 5
 865              		.cfi_restore 4
 866              		.cfi_def_cfa_offset 0
 867 007c 7047     		bx	lr
 868              		.cfi_endproc
 869              	.LFE331:
 871 007e 00BF     		.section	.text.HAL_DMA_Start_IT,"ax",%progbits
 872              		.align	1
 873              		.p2align 2,,3
 874              		.global	HAL_DMA_Start_IT
 875              		.syntax unified
 876              		.thumb
 877              		.thumb_func
 878              		.fpu fpv4-sp-d16
 880              	HAL_DMA_Start_IT:
 881              	.LVL41:
 882              	.LFB332:
 423:Drivers/STM32G4xx_HAL_Driver/Src/stm32g4xx_hal_dma.c ****   HAL_StatusTypeDef status = HAL_OK;
 883              		.loc 1 423 1 is_stmt 1 view -0
 884              		.cfi_startproc
 885              		@ args = 0, pretend = 0, frame = 0
 886              		@ frame_needed = 0, uses_anonymous_args = 0
 887              		@ link register save eliminated.
 424:Drivers/STM32G4xx_HAL_Driver/Src/stm32g4xx_hal_dma.c **** 
 888              		.loc 1 424 3 view .LVU334
 427:Drivers/STM32G4xx_HAL_Driver/Src/stm32g4xx_hal_dma.c **** 
 889              		.loc 1 427 3 view .LVU335
 430:Drivers/STM32G4xx_HAL_Driver/Src/stm32g4xx_hal_dma.c **** 
 890              		.loc 1 430 3 view .LVU336
 430:Drivers/STM32G4xx_HAL_Driver/Src/stm32g4xx_hal_dma.c **** 
 891              		.loc 1 430 3 view .LVU337
 423:Drivers/STM32G4xx_HAL_Driver/Src/stm32g4xx_hal_dma.c ****   HAL_StatusTypeDef status = HAL_OK;
 892              		.loc 1 423 1 is_stmt 0 view .LVU338
 893 0000 F0B4     		push	{r4, r5, r6, r7}
 894              	.LCFI12:
 895              		.cfi_def_cfa_offset 16
 896              		.cfi_offset 4, -16
 897              		.cfi_offset 5, -12
ARM GAS  /tmp/ccQfBzxp.s 			page 41


 898              		.cfi_offset 6, -8
 899              		.cfi_offset 7, -4
 430:Drivers/STM32G4xx_HAL_Driver/Src/stm32g4xx_hal_dma.c **** 
 900              		.loc 1 430 3 view .LVU339
 901 0002 90F82440 		ldrb	r4, [r0, #36]	@ zero_extendqisi2
 902 0006 012C     		cmp	r4, #1
 903 0008 53D0     		beq	.L56
 430:Drivers/STM32G4xx_HAL_Driver/Src/stm32g4xx_hal_dma.c **** 
 904              		.loc 1 430 3 is_stmt 1 discriminator 2 view .LVU340
 432:Drivers/STM32G4xx_HAL_Driver/Src/stm32g4xx_hal_dma.c ****   {
 905              		.loc 1 432 34 is_stmt 0 discriminator 2 view .LVU341
 906 000a 90F82540 		ldrb	r4, [r0, #37]	@ zero_extendqisi2
 430:Drivers/STM32G4xx_HAL_Driver/Src/stm32g4xx_hal_dma.c **** 
 907              		.loc 1 430 3 discriminator 2 view .LVU342
 908 000e 0125     		movs	r5, #1
 432:Drivers/STM32G4xx_HAL_Driver/Src/stm32g4xx_hal_dma.c ****   {
 909              		.loc 1 432 6 discriminator 2 view .LVU343
 910 0010 AC42     		cmp	r4, r5
 430:Drivers/STM32G4xx_HAL_Driver/Src/stm32g4xx_hal_dma.c **** 
 911              		.loc 1 430 3 discriminator 2 view .LVU344
 912 0012 80F82450 		strb	r5, [r0, #36]
 430:Drivers/STM32G4xx_HAL_Driver/Src/stm32g4xx_hal_dma.c **** 
 913              		.loc 1 430 3 is_stmt 1 discriminator 2 view .LVU345
 432:Drivers/STM32G4xx_HAL_Driver/Src/stm32g4xx_hal_dma.c ****   {
 914              		.loc 1 432 3 discriminator 2 view .LVU346
 432:Drivers/STM32G4xx_HAL_Driver/Src/stm32g4xx_hal_dma.c ****   {
 915              		.loc 1 432 6 is_stmt 0 discriminator 2 view .LVU347
 916 0016 05D0     		beq	.L67
 477:Drivers/STM32G4xx_HAL_Driver/Src/stm32g4xx_hal_dma.c **** 
 917              		.loc 1 477 5 is_stmt 1 view .LVU348
 477:Drivers/STM32G4xx_HAL_Driver/Src/stm32g4xx_hal_dma.c **** 
 918              		.loc 1 477 5 view .LVU349
 919 0018 0023     		movs	r3, #0
 920              	.LVL42:
 477:Drivers/STM32G4xx_HAL_Driver/Src/stm32g4xx_hal_dma.c **** 
 921              		.loc 1 477 5 is_stmt 0 view .LVU350
 922 001a 80F82430 		strb	r3, [r0, #36]
 477:Drivers/STM32G4xx_HAL_Driver/Src/stm32g4xx_hal_dma.c **** 
 923              		.loc 1 477 5 is_stmt 1 view .LVU351
 480:Drivers/STM32G4xx_HAL_Driver/Src/stm32g4xx_hal_dma.c ****   }
 924              		.loc 1 480 5 view .LVU352
 925              	.LVL43:
 483:Drivers/STM32G4xx_HAL_Driver/Src/stm32g4xx_hal_dma.c **** 
 926              		.loc 1 483 1 is_stmt 0 view .LVU353
 927 001e F0BC     		pop	{r4, r5, r6, r7}
 928              	.LCFI13:
 929              		.cfi_remember_state
 930              		.cfi_restore 7
 931              		.cfi_restore 6
 932              		.cfi_restore 5
 933              		.cfi_restore 4
 934              		.cfi_def_cfa_offset 0
 480:Drivers/STM32G4xx_HAL_Driver/Src/stm32g4xx_hal_dma.c ****   }
 935              		.loc 1 480 12 view .LVU354
 936 0020 0220     		movs	r0, #2
 937              	.LVL44:
 483:Drivers/STM32G4xx_HAL_Driver/Src/stm32g4xx_hal_dma.c **** 
ARM GAS  /tmp/ccQfBzxp.s 			page 42


 938              		.loc 1 483 1 view .LVU355
 939 0022 7047     		bx	lr
 940              	.LVL45:
 941              	.L67:
 942              	.LCFI14:
 943              		.cfi_restore_state
 435:Drivers/STM32G4xx_HAL_Driver/Src/stm32g4xx_hal_dma.c ****     hdma->ErrorCode = HAL_DMA_ERROR_NONE;
 944              		.loc 1 435 5 is_stmt 1 view .LVU356
 439:Drivers/STM32G4xx_HAL_Driver/Src/stm32g4xx_hal_dma.c **** 
 945              		.loc 1 439 5 is_stmt 0 view .LVU357
 946 0024 0468     		ldr	r4, [r0]
 947              	.LBB56:
 948              	.LBB57:
1005:Drivers/STM32G4xx_HAL_Driver/Src/stm32g4xx_hal_dma.c **** 
 949              		.loc 1 1005 7 view .LVU358
 950 0026 C76C     		ldr	r7, [r0, #76]
 951              	.LBE57:
 952              	.LBE56:
 435:Drivers/STM32G4xx_HAL_Driver/Src/stm32g4xx_hal_dma.c ****     hdma->ErrorCode = HAL_DMA_ERROR_NONE;
 953              		.loc 1 435 17 view .LVU359
 954 0028 0226     		movs	r6, #2
 436:Drivers/STM32G4xx_HAL_Driver/Src/stm32g4xx_hal_dma.c **** 
 955              		.loc 1 436 21 view .LVU360
 956 002a 0025     		movs	r5, #0
 435:Drivers/STM32G4xx_HAL_Driver/Src/stm32g4xx_hal_dma.c ****     hdma->ErrorCode = HAL_DMA_ERROR_NONE;
 957              		.loc 1 435 17 view .LVU361
 958 002c 80F82560 		strb	r6, [r0, #37]
 436:Drivers/STM32G4xx_HAL_Driver/Src/stm32g4xx_hal_dma.c **** 
 959              		.loc 1 436 5 is_stmt 1 view .LVU362
 436:Drivers/STM32G4xx_HAL_Driver/Src/stm32g4xx_hal_dma.c **** 
 960              		.loc 1 436 21 is_stmt 0 view .LVU363
 961 0030 C563     		str	r5, [r0, #60]
 439:Drivers/STM32G4xx_HAL_Driver/Src/stm32g4xx_hal_dma.c **** 
 962              		.loc 1 439 5 is_stmt 1 view .LVU364
 963 0032 2668     		ldr	r6, [r4]
 964              	.LBB62:
 965              	.LBB58:
1005:Drivers/STM32G4xx_HAL_Driver/Src/stm32g4xx_hal_dma.c **** 
 966              		.loc 1 1005 40 is_stmt 0 view .LVU365
 967 0034 D0E914C5 		ldrd	ip, r5, [r0, #80]
 968              	.LBE58:
 969              	.LBE62:
 439:Drivers/STM32G4xx_HAL_Driver/Src/stm32g4xx_hal_dma.c **** 
 970              		.loc 1 439 5 view .LVU366
 971 0038 26F00106 		bic	r6, r6, #1
 972 003c 2660     		str	r6, [r4]
 442:Drivers/STM32G4xx_HAL_Driver/Src/stm32g4xx_hal_dma.c **** 
 973              		.loc 1 442 5 is_stmt 1 view .LVU367
 974              	.LVL46:
 975              	.LBB63:
 976              	.LBI56:
1002:Drivers/STM32G4xx_HAL_Driver/Src/stm32g4xx_hal_dma.c **** {
 977              		.loc 1 1002 13 view .LVU368
 978              	.LBB59:
1005:Drivers/STM32G4xx_HAL_Driver/Src/stm32g4xx_hal_dma.c **** 
 979              		.loc 1 1005 3 view .LVU369
1005:Drivers/STM32G4xx_HAL_Driver/Src/stm32g4xx_hal_dma.c **** 
ARM GAS  /tmp/ccQfBzxp.s 			page 43


 980              		.loc 1 1005 34 is_stmt 0 view .LVU370
 981 003e C7F804C0 		str	ip, [r7, #4]
1007:Drivers/STM32G4xx_HAL_Driver/Src/stm32g4xx_hal_dma.c ****   {
 982              		.loc 1 1007 3 is_stmt 1 view .LVU371
1007:Drivers/STM32G4xx_HAL_Driver/Src/stm32g4xx_hal_dma.c ****   {
 983              		.loc 1 1007 6 is_stmt 0 view .LVU372
 984 0042 15B1     		cbz	r5, .L49
1010:Drivers/STM32G4xx_HAL_Driver/Src/stm32g4xx_hal_dma.c ****   }
 985              		.loc 1 1010 5 is_stmt 1 view .LVU373
1010:Drivers/STM32G4xx_HAL_Driver/Src/stm32g4xx_hal_dma.c ****   }
 986              		.loc 1 1010 47 is_stmt 0 view .LVU374
 987 0044 D0E91667 		ldrd	r6, r7, [r0, #88]
1010:Drivers/STM32G4xx_HAL_Driver/Src/stm32g4xx_hal_dma.c ****   }
 988              		.loc 1 1010 41 view .LVU375
 989 0048 7760     		str	r7, [r6, #4]
 990              	.L49:
1014:Drivers/STM32G4xx_HAL_Driver/Src/stm32g4xx_hal_dma.c **** 
 991              		.loc 1 1014 3 is_stmt 1 view .LVU376
1014:Drivers/STM32G4xx_HAL_Driver/Src/stm32g4xx_hal_dma.c **** 
 992              		.loc 1 1014 69 is_stmt 0 view .LVU377
 993 004a 466C     		ldr	r6, [r0, #68]
1020:Drivers/STM32G4xx_HAL_Driver/Src/stm32g4xx_hal_dma.c ****   {
 994              		.loc 1 1020 6 view .LVU378
 995 004c 8768     		ldr	r7, [r0, #8]
1014:Drivers/STM32G4xx_HAL_Driver/Src/stm32g4xx_hal_dma.c **** 
 996              		.loc 1 1014 69 view .LVU379
 997 004e 06F01F0C 		and	ip, r6, #31
1014:Drivers/STM32G4xx_HAL_Driver/Src/stm32g4xx_hal_dma.c **** 
 998              		.loc 1 1014 46 view .LVU380
 999 0052 0126     		movs	r6, #1
 1000 0054 06FA0CFC 		lsl	ip, r6, ip
1014:Drivers/STM32G4xx_HAL_Driver/Src/stm32g4xx_hal_dma.c **** 
 1001              		.loc 1 1014 30 view .LVU381
 1002 0058 066C     		ldr	r6, [r0, #64]
 1003 005a C6F804C0 		str	ip, [r6, #4]
1017:Drivers/STM32G4xx_HAL_Driver/Src/stm32g4xx_hal_dma.c **** 
 1004              		.loc 1 1017 3 is_stmt 1 view .LVU382
1017:Drivers/STM32G4xx_HAL_Driver/Src/stm32g4xx_hal_dma.c **** 
 1005              		.loc 1 1017 25 is_stmt 0 view .LVU383
 1006 005e 6360     		str	r3, [r4, #4]
1020:Drivers/STM32G4xx_HAL_Driver/Src/stm32g4xx_hal_dma.c ****   {
 1007              		.loc 1 1020 3 is_stmt 1 view .LVU384
 1008              	.LBE59:
 1009              	.LBE63:
 446:Drivers/STM32G4xx_HAL_Driver/Src/stm32g4xx_hal_dma.c ****     {
 1010              		.loc 1 446 8 is_stmt 0 view .LVU385
 1011 0060 036B     		ldr	r3, [r0, #48]
 1012              	.LVL47:
 1013              	.LBB64:
 1014              	.LBB60:
1020:Drivers/STM32G4xx_HAL_Driver/Src/stm32g4xx_hal_dma.c ****   {
 1015              		.loc 1 1020 6 view .LVU386
 1016 0062 102F     		cmp	r7, #16
1023:Drivers/STM32G4xx_HAL_Driver/Src/stm32g4xx_hal_dma.c **** 
 1017              		.loc 1 1023 5 is_stmt 1 view .LVU387
1023:Drivers/STM32G4xx_HAL_Driver/Src/stm32g4xx_hal_dma.c **** 
 1018              		.loc 1 1023 26 is_stmt 0 view .LVU388
ARM GAS  /tmp/ccQfBzxp.s 			page 44


 1019 0064 0BBF     		itete	eq
 1020 0066 A260     		streq	r2, [r4, #8]
1026:Drivers/STM32G4xx_HAL_Driver/Src/stm32g4xx_hal_dma.c ****   }
 1021              		.loc 1 1026 5 is_stmt 1 view .LVU389
1032:Drivers/STM32G4xx_HAL_Driver/Src/stm32g4xx_hal_dma.c **** 
 1022              		.loc 1 1032 26 is_stmt 0 view .LVU390
 1023 0068 A160     		strne	r1, [r4, #8]
1026:Drivers/STM32G4xx_HAL_Driver/Src/stm32g4xx_hal_dma.c ****   }
 1024              		.loc 1 1026 26 view .LVU391
 1025 006a E160     		streq	r1, [r4, #12]
1032:Drivers/STM32G4xx_HAL_Driver/Src/stm32g4xx_hal_dma.c **** 
 1026              		.loc 1 1032 5 is_stmt 1 view .LVU392
1035:Drivers/STM32G4xx_HAL_Driver/Src/stm32g4xx_hal_dma.c ****   }
 1027              		.loc 1 1035 5 view .LVU393
 1028              	.LVL48:
1035:Drivers/STM32G4xx_HAL_Driver/Src/stm32g4xx_hal_dma.c ****   }
 1029              		.loc 1 1035 5 is_stmt 0 view .LVU394
 1030              	.LBE60:
 1031              	.LBE64:
 446:Drivers/STM32G4xx_HAL_Driver/Src/stm32g4xx_hal_dma.c ****     {
 1032              		.loc 1 446 5 is_stmt 1 view .LVU395
 1033              	.LBB65:
 1034              	.LBB61:
1035:Drivers/STM32G4xx_HAL_Driver/Src/stm32g4xx_hal_dma.c ****   }
 1035              		.loc 1 1035 26 is_stmt 0 view .LVU396
 1036 006c E260     		strne	r2, [r4, #12]
 1037              	.LBE61:
 1038              	.LBE65:
 446:Drivers/STM32G4xx_HAL_Driver/Src/stm32g4xx_hal_dma.c ****     {
 1039              		.loc 1 446 8 view .LVU397
 1040 006e BBB1     		cbz	r3, .L52
 449:Drivers/STM32G4xx_HAL_Driver/Src/stm32g4xx_hal_dma.c ****     }
 1041              		.loc 1 449 7 is_stmt 1 view .LVU398
 1042 0070 2368     		ldr	r3, [r4]
 1043 0072 43F00E03 		orr	r3, r3, #14
 1044 0076 2360     		str	r3, [r4]
 1045              	.LVL49:
 1046              	.L53:
 458:Drivers/STM32G4xx_HAL_Driver/Src/stm32g4xx_hal_dma.c ****     {
 1047              		.loc 1 458 5 view .LVU399
 458:Drivers/STM32G4xx_HAL_Driver/Src/stm32g4xx_hal_dma.c ****     {
 1048              		.loc 1 458 14 is_stmt 0 view .LVU400
 1049 0078 836C     		ldr	r3, [r0, #72]
 458:Drivers/STM32G4xx_HAL_Driver/Src/stm32g4xx_hal_dma.c ****     {
 1050              		.loc 1 458 29 view .LVU401
 1051 007a 1A68     		ldr	r2, [r3]
 1052              	.LVL50:
 458:Drivers/STM32G4xx_HAL_Driver/Src/stm32g4xx_hal_dma.c ****     {
 1053              		.loc 1 458 8 view .LVU402
 1054 007c D203     		lsls	r2, r2, #15
 1055 007e 03D5     		bpl	.L54
 461:Drivers/STM32G4xx_HAL_Driver/Src/stm32g4xx_hal_dma.c ****     }
 1056              		.loc 1 461 7 is_stmt 1 view .LVU403
 461:Drivers/STM32G4xx_HAL_Driver/Src/stm32g4xx_hal_dma.c ****     }
 1057              		.loc 1 461 32 is_stmt 0 view .LVU404
 1058 0080 1A68     		ldr	r2, [r3]
 1059 0082 42F48072 		orr	r2, r2, #256
ARM GAS  /tmp/ccQfBzxp.s 			page 45


 1060 0086 1A60     		str	r2, [r3]
 1061              	.L54:
 464:Drivers/STM32G4xx_HAL_Driver/Src/stm32g4xx_hal_dma.c ****     {
 1062              		.loc 1 464 5 is_stmt 1 view .LVU405
 464:Drivers/STM32G4xx_HAL_Driver/Src/stm32g4xx_hal_dma.c ****     {
 1063              		.loc 1 464 8 is_stmt 0 view .LVU406
 1064 0088 1DB1     		cbz	r5, .L55
 468:Drivers/STM32G4xx_HAL_Driver/Src/stm32g4xx_hal_dma.c ****     }
 1065              		.loc 1 468 7 is_stmt 1 view .LVU407
 468:Drivers/STM32G4xx_HAL_Driver/Src/stm32g4xx_hal_dma.c ****     }
 1066              		.loc 1 468 36 is_stmt 0 view .LVU408
 1067 008a 2B68     		ldr	r3, [r5]
 1068 008c 43F48073 		orr	r3, r3, #256
 1069 0090 2B60     		str	r3, [r5]
 1070              	.L55:
 472:Drivers/STM32G4xx_HAL_Driver/Src/stm32g4xx_hal_dma.c ****   }
 1071              		.loc 1 472 5 is_stmt 1 view .LVU409
 1072 0092 2368     		ldr	r3, [r4]
 1073 0094 43F00103 		orr	r3, r3, #1
 1074 0098 2360     		str	r3, [r4]
 424:Drivers/STM32G4xx_HAL_Driver/Src/stm32g4xx_hal_dma.c **** 
 1075              		.loc 1 424 21 is_stmt 0 view .LVU410
 1076 009a 0020     		movs	r0, #0
 1077              	.LVL51:
 483:Drivers/STM32G4xx_HAL_Driver/Src/stm32g4xx_hal_dma.c **** 
 1078              		.loc 1 483 1 view .LVU411
 1079 009c F0BC     		pop	{r4, r5, r6, r7}
 1080              	.LCFI15:
 1081              		.cfi_remember_state
 1082              		.cfi_restore 7
 1083              		.cfi_restore 6
 1084              		.cfi_restore 5
 1085              		.cfi_restore 4
 1086              		.cfi_def_cfa_offset 0
 1087 009e 7047     		bx	lr
 1088              	.LVL52:
 1089              	.L52:
 1090              	.LCFI16:
 1091              		.cfi_restore_state
 453:Drivers/STM32G4xx_HAL_Driver/Src/stm32g4xx_hal_dma.c ****       __HAL_DMA_ENABLE_IT(hdma, (DMA_IT_TC | DMA_IT_TE));
 1092              		.loc 1 453 7 is_stmt 1 view .LVU412
 1093 00a0 2368     		ldr	r3, [r4]
 1094 00a2 23F00403 		bic	r3, r3, #4
 1095 00a6 2360     		str	r3, [r4]
 1096              	.LVL53:
 454:Drivers/STM32G4xx_HAL_Driver/Src/stm32g4xx_hal_dma.c ****     }
 1097              		.loc 1 454 7 view .LVU413
 1098 00a8 2368     		ldr	r3, [r4]
 1099 00aa 43F00A03 		orr	r3, r3, #10
 1100 00ae 2360     		str	r3, [r4]
 1101 00b0 E2E7     		b	.L53
 1102              	.LVL54:
 1103              	.L56:
 430:Drivers/STM32G4xx_HAL_Driver/Src/stm32g4xx_hal_dma.c **** 
 1104              		.loc 1 430 3 is_stmt 0 view .LVU414
 1105 00b2 0220     		movs	r0, #2
 1106              	.LVL55:
ARM GAS  /tmp/ccQfBzxp.s 			page 46


 483:Drivers/STM32G4xx_HAL_Driver/Src/stm32g4xx_hal_dma.c **** 
 1107              		.loc 1 483 1 view .LVU415
 1108 00b4 F0BC     		pop	{r4, r5, r6, r7}
 1109              	.LCFI17:
 1110              		.cfi_restore 7
 1111              		.cfi_restore 6
 1112              		.cfi_restore 5
 1113              		.cfi_restore 4
 1114              		.cfi_def_cfa_offset 0
 1115 00b6 7047     		bx	lr
 1116              		.cfi_endproc
 1117              	.LFE332:
 1119              		.section	.text.HAL_DMA_Abort,"ax",%progbits
 1120              		.align	1
 1121              		.p2align 2,,3
 1122              		.global	HAL_DMA_Abort
 1123              		.syntax unified
 1124              		.thumb
 1125              		.thumb_func
 1126              		.fpu fpv4-sp-d16
 1128              	HAL_DMA_Abort:
 1129              	.LVL56:
 1130              	.LFB333:
 492:Drivers/STM32G4xx_HAL_Driver/Src/stm32g4xx_hal_dma.c ****   HAL_StatusTypeDef status = HAL_OK;
 1131              		.loc 1 492 1 is_stmt 1 view -0
 1132              		.cfi_startproc
 1133              		@ args = 0, pretend = 0, frame = 0
 1134              		@ frame_needed = 0, uses_anonymous_args = 0
 1135              		@ link register save eliminated.
 493:Drivers/STM32G4xx_HAL_Driver/Src/stm32g4xx_hal_dma.c **** 
 1136              		.loc 1 493 3 view .LVU417
 495:Drivers/STM32G4xx_HAL_Driver/Src/stm32g4xx_hal_dma.c ****   {
 1137              		.loc 1 495 3 view .LVU418
 495:Drivers/STM32G4xx_HAL_Driver/Src/stm32g4xx_hal_dma.c ****   {
 1138              		.loc 1 495 10 is_stmt 0 view .LVU419
 1139 0000 90F82520 		ldrb	r2, [r0, #37]	@ zero_extendqisi2
 495:Drivers/STM32G4xx_HAL_Driver/Src/stm32g4xx_hal_dma.c ****   {
 1140              		.loc 1 495 5 view .LVU420
 1141 0004 022A     		cmp	r2, #2
 492:Drivers/STM32G4xx_HAL_Driver/Src/stm32g4xx_hal_dma.c ****   HAL_StatusTypeDef status = HAL_OK;
 1142              		.loc 1 492 1 view .LVU421
 1143 0006 0346     		mov	r3, r0
 495:Drivers/STM32G4xx_HAL_Driver/Src/stm32g4xx_hal_dma.c ****   {
 1144              		.loc 1 495 5 view .LVU422
 1145 0008 09D0     		beq	.L69
 498:Drivers/STM32G4xx_HAL_Driver/Src/stm32g4xx_hal_dma.c **** 
 1146              		.loc 1 498 5 is_stmt 1 view .LVU423
 498:Drivers/STM32G4xx_HAL_Driver/Src/stm32g4xx_hal_dma.c **** 
 1147              		.loc 1 498 21 is_stmt 0 view .LVU424
 1148 000a 0422     		movs	r2, #4
 1149 000c C263     		str	r2, [r0, #60]
 500:Drivers/STM32G4xx_HAL_Driver/Src/stm32g4xx_hal_dma.c ****   }
 1150              		.loc 1 500 5 is_stmt 1 view .LVU425
 1151              	.LVL57:
 530:Drivers/STM32G4xx_HAL_Driver/Src/stm32g4xx_hal_dma.c **** 
 1152              		.loc 1 530 15 is_stmt 0 view .LVU426
 1153 000e 0121     		movs	r1, #1
ARM GAS  /tmp/ccQfBzxp.s 			page 47


 533:Drivers/STM32G4xx_HAL_Driver/Src/stm32g4xx_hal_dma.c **** 
 1154              		.loc 1 533 3 view .LVU427
 1155 0010 0022     		movs	r2, #0
 500:Drivers/STM32G4xx_HAL_Driver/Src/stm32g4xx_hal_dma.c ****   }
 1156              		.loc 1 500 12 view .LVU428
 1157 0012 0120     		movs	r0, #1
 1158              	.LVL58:
 530:Drivers/STM32G4xx_HAL_Driver/Src/stm32g4xx_hal_dma.c **** 
 1159              		.loc 1 530 3 is_stmt 1 view .LVU429
 530:Drivers/STM32G4xx_HAL_Driver/Src/stm32g4xx_hal_dma.c **** 
 1160              		.loc 1 530 15 is_stmt 0 view .LVU430
 1161 0014 83F82510 		strb	r1, [r3, #37]
 533:Drivers/STM32G4xx_HAL_Driver/Src/stm32g4xx_hal_dma.c **** 
 1162              		.loc 1 533 3 is_stmt 1 view .LVU431
 533:Drivers/STM32G4xx_HAL_Driver/Src/stm32g4xx_hal_dma.c **** 
 1163              		.loc 1 533 3 view .LVU432
 1164 0018 83F82420 		strb	r2, [r3, #36]
 533:Drivers/STM32G4xx_HAL_Driver/Src/stm32g4xx_hal_dma.c **** 
 1165              		.loc 1 533 3 view .LVU433
 535:Drivers/STM32G4xx_HAL_Driver/Src/stm32g4xx_hal_dma.c **** }
 1166              		.loc 1 535 3 view .LVU434
 536:Drivers/STM32G4xx_HAL_Driver/Src/stm32g4xx_hal_dma.c **** 
 1167              		.loc 1 536 1 is_stmt 0 view .LVU435
 1168 001c 7047     		bx	lr
 1169              	.LVL59:
 1170              	.L69:
 505:Drivers/STM32G4xx_HAL_Driver/Src/stm32g4xx_hal_dma.c ****      
 1171              		.loc 1 505 6 is_stmt 1 view .LVU436
 1172 001e 0268     		ldr	r2, [r0]
 492:Drivers/STM32G4xx_HAL_Driver/Src/stm32g4xx_hal_dma.c ****   HAL_StatusTypeDef status = HAL_OK;
 1173              		.loc 1 492 1 is_stmt 0 view .LVU437
 1174 0020 70B4     		push	{r4, r5, r6}
 1175              	.LCFI18:
 1176              		.cfi_def_cfa_offset 12
 1177              		.cfi_offset 4, -12
 1178              		.cfi_offset 5, -8
 1179              		.cfi_offset 6, -4
 508:Drivers/STM32G4xx_HAL_Driver/Src/stm32g4xx_hal_dma.c ****      
 1180              		.loc 1 508 10 view .LVU438
 1181 0022 846C     		ldr	r4, [r0, #72]
 505:Drivers/STM32G4xx_HAL_Driver/Src/stm32g4xx_hal_dma.c ****      
 1182              		.loc 1 505 6 view .LVU439
 1183 0024 1068     		ldr	r0, [r2]
 1184              	.LVL60:
 517:Drivers/STM32G4xx_HAL_Driver/Src/stm32g4xx_hal_dma.c ****      
 1185              		.loc 1 517 10 view .LVU440
 1186 0026 DE6C     		ldr	r6, [r3, #76]
 505:Drivers/STM32G4xx_HAL_Driver/Src/stm32g4xx_hal_dma.c ****      
 1187              		.loc 1 505 6 view .LVU441
 1188 0028 20F00E00 		bic	r0, r0, #14
 514:Drivers/STM32G4xx_HAL_Driver/Src/stm32g4xx_hal_dma.c ****      
 1189              		.loc 1 514 10 view .LVU442
 1190 002c D3E91051 		ldrd	r5, r1, [r3, #64]
 505:Drivers/STM32G4xx_HAL_Driver/Src/stm32g4xx_hal_dma.c ****      
 1191              		.loc 1 505 6 view .LVU443
 1192 0030 1060     		str	r0, [r2]
 508:Drivers/STM32G4xx_HAL_Driver/Src/stm32g4xx_hal_dma.c ****      
ARM GAS  /tmp/ccQfBzxp.s 			page 48


 1193              		.loc 1 508 6 is_stmt 1 view .LVU444
 508:Drivers/STM32G4xx_HAL_Driver/Src/stm32g4xx_hal_dma.c ****      
 1194              		.loc 1 508 31 is_stmt 0 view .LVU445
 1195 0032 2068     		ldr	r0, [r4]
 1196 0034 20F48070 		bic	r0, r0, #256
 1197 0038 2060     		str	r0, [r4]
 511:Drivers/STM32G4xx_HAL_Driver/Src/stm32g4xx_hal_dma.c ****      
 1198              		.loc 1 511 6 is_stmt 1 view .LVU446
 1199 003a 1468     		ldr	r4, [r2]
 519:Drivers/STM32G4xx_HAL_Driver/Src/stm32g4xx_hal_dma.c ****      {
 1200              		.loc 1 519 14 is_stmt 0 view .LVU447
 1201 003c 586D     		ldr	r0, [r3, #84]
 511:Drivers/STM32G4xx_HAL_Driver/Src/stm32g4xx_hal_dma.c ****      
 1202              		.loc 1 511 6 view .LVU448
 1203 003e 24F00104 		bic	r4, r4, #1
 1204 0042 1460     		str	r4, [r2]
 514:Drivers/STM32G4xx_HAL_Driver/Src/stm32g4xx_hal_dma.c ****      
 1205              		.loc 1 514 6 is_stmt 1 view .LVU449
 514:Drivers/STM32G4xx_HAL_Driver/Src/stm32g4xx_hal_dma.c ****      
 1206              		.loc 1 514 72 is_stmt 0 view .LVU450
 1207 0044 01F01F01 		and	r1, r1, #31
 514:Drivers/STM32G4xx_HAL_Driver/Src/stm32g4xx_hal_dma.c ****      
 1208              		.loc 1 514 49 view .LVU451
 1209 0048 0122     		movs	r2, #1
 1210 004a 8A40     		lsls	r2, r2, r1
 517:Drivers/STM32G4xx_HAL_Driver/Src/stm32g4xx_hal_dma.c ****      
 1211              		.loc 1 517 43 view .LVU452
 1212 004c 196D     		ldr	r1, [r3, #80]
 514:Drivers/STM32G4xx_HAL_Driver/Src/stm32g4xx_hal_dma.c ****      
 1213              		.loc 1 514 33 view .LVU453
 1214 004e 6A60     		str	r2, [r5, #4]
 517:Drivers/STM32G4xx_HAL_Driver/Src/stm32g4xx_hal_dma.c ****      
 1215              		.loc 1 517 6 is_stmt 1 view .LVU454
 517:Drivers/STM32G4xx_HAL_Driver/Src/stm32g4xx_hal_dma.c ****      
 1216              		.loc 1 517 37 is_stmt 0 view .LVU455
 1217 0050 7160     		str	r1, [r6, #4]
 519:Drivers/STM32G4xx_HAL_Driver/Src/stm32g4xx_hal_dma.c ****      {
 1218              		.loc 1 519 6 is_stmt 1 view .LVU456
 519:Drivers/STM32G4xx_HAL_Driver/Src/stm32g4xx_hal_dma.c ****      {
 1219              		.loc 1 519 9 is_stmt 0 view .LVU457
 1220 0052 38B1     		cbz	r0, .L70
 523:Drivers/STM32G4xx_HAL_Driver/Src/stm32g4xx_hal_dma.c ****      
 1221              		.loc 1 523 8 is_stmt 1 view .LVU458
 523:Drivers/STM32G4xx_HAL_Driver/Src/stm32g4xx_hal_dma.c ****      
 1222              		.loc 1 523 37 is_stmt 0 view .LVU459
 1223 0054 0268     		ldr	r2, [r0]
 526:Drivers/STM32G4xx_HAL_Driver/Src/stm32g4xx_hal_dma.c ****      }
 1224              		.loc 1 526 50 view .LVU460
 1225 0056 D3E91614 		ldrd	r1, r4, [r3, #88]
 523:Drivers/STM32G4xx_HAL_Driver/Src/stm32g4xx_hal_dma.c ****      
 1226              		.loc 1 523 37 view .LVU461
 1227 005a 22F48072 		bic	r2, r2, #256
 1228 005e 0260     		str	r2, [r0]
 526:Drivers/STM32G4xx_HAL_Driver/Src/stm32g4xx_hal_dma.c ****      }
 1229              		.loc 1 526 8 is_stmt 1 view .LVU462
 493:Drivers/STM32G4xx_HAL_Driver/Src/stm32g4xx_hal_dma.c **** 
 1230              		.loc 1 493 21 is_stmt 0 view .LVU463
ARM GAS  /tmp/ccQfBzxp.s 			page 49


 1231 0060 0020     		movs	r0, #0
 526:Drivers/STM32G4xx_HAL_Driver/Src/stm32g4xx_hal_dma.c ****      }
 1232              		.loc 1 526 44 view .LVU464
 1233 0062 4C60     		str	r4, [r1, #4]
 1234              	.L70:
 1235              	.LVL61:
 530:Drivers/STM32G4xx_HAL_Driver/Src/stm32g4xx_hal_dma.c **** 
 1236              		.loc 1 530 3 is_stmt 1 view .LVU465
 530:Drivers/STM32G4xx_HAL_Driver/Src/stm32g4xx_hal_dma.c **** 
 1237              		.loc 1 530 15 is_stmt 0 view .LVU466
 1238 0064 0121     		movs	r1, #1
 533:Drivers/STM32G4xx_HAL_Driver/Src/stm32g4xx_hal_dma.c **** 
 1239              		.loc 1 533 3 view .LVU467
 1240 0066 0022     		movs	r2, #0
 530:Drivers/STM32G4xx_HAL_Driver/Src/stm32g4xx_hal_dma.c **** 
 1241              		.loc 1 530 15 view .LVU468
 1242 0068 83F82510 		strb	r1, [r3, #37]
 533:Drivers/STM32G4xx_HAL_Driver/Src/stm32g4xx_hal_dma.c **** 
 1243              		.loc 1 533 3 is_stmt 1 view .LVU469
 533:Drivers/STM32G4xx_HAL_Driver/Src/stm32g4xx_hal_dma.c **** 
 1244              		.loc 1 533 3 view .LVU470
 1245 006c 83F82420 		strb	r2, [r3, #36]
 533:Drivers/STM32G4xx_HAL_Driver/Src/stm32g4xx_hal_dma.c **** 
 1246              		.loc 1 533 3 view .LVU471
 535:Drivers/STM32G4xx_HAL_Driver/Src/stm32g4xx_hal_dma.c **** }
 1247              		.loc 1 535 3 view .LVU472
 536:Drivers/STM32G4xx_HAL_Driver/Src/stm32g4xx_hal_dma.c **** 
 1248              		.loc 1 536 1 is_stmt 0 view .LVU473
 1249 0070 70BC     		pop	{r4, r5, r6}
 1250              	.LCFI19:
 1251              		.cfi_restore 6
 1252              		.cfi_restore 5
 1253              		.cfi_restore 4
 1254              		.cfi_def_cfa_offset 0
 1255 0072 7047     		bx	lr
 1256              		.cfi_endproc
 1257              	.LFE333:
 1259              		.section	.text.HAL_DMA_Abort_IT,"ax",%progbits
 1260              		.align	1
 1261              		.p2align 2,,3
 1262              		.global	HAL_DMA_Abort_IT
 1263              		.syntax unified
 1264              		.thumb
 1265              		.thumb_func
 1266              		.fpu fpv4-sp-d16
 1268              	HAL_DMA_Abort_IT:
 1269              	.LVL62:
 1270              	.LFB334:
 545:Drivers/STM32G4xx_HAL_Driver/Src/stm32g4xx_hal_dma.c ****   HAL_StatusTypeDef status = HAL_OK;
 1271              		.loc 1 545 1 is_stmt 1 view -0
 1272              		.cfi_startproc
 1273              		@ args = 0, pretend = 0, frame = 0
 1274              		@ frame_needed = 0, uses_anonymous_args = 0
 546:Drivers/STM32G4xx_HAL_Driver/Src/stm32g4xx_hal_dma.c **** 
 1275              		.loc 1 546 3 view .LVU475
 548:Drivers/STM32G4xx_HAL_Driver/Src/stm32g4xx_hal_dma.c ****   {
 1276              		.loc 1 548 3 view .LVU476
ARM GAS  /tmp/ccQfBzxp.s 			page 50


 548:Drivers/STM32G4xx_HAL_Driver/Src/stm32g4xx_hal_dma.c ****   {
 1277              		.loc 1 548 33 is_stmt 0 view .LVU477
 1278 0000 90F82520 		ldrb	r2, [r0, #37]	@ zero_extendqisi2
 548:Drivers/STM32G4xx_HAL_Driver/Src/stm32g4xx_hal_dma.c ****   {
 1279              		.loc 1 548 6 view .LVU478
 1280 0004 022A     		cmp	r2, #2
 545:Drivers/STM32G4xx_HAL_Driver/Src/stm32g4xx_hal_dma.c ****   HAL_StatusTypeDef status = HAL_OK;
 1281              		.loc 1 545 1 view .LVU479
 1282 0006 0346     		mov	r3, r0
 548:Drivers/STM32G4xx_HAL_Driver/Src/stm32g4xx_hal_dma.c ****   {
 1283              		.loc 1 548 6 view .LVU480
 1284 0008 09D0     		beq	.L76
 551:Drivers/STM32G4xx_HAL_Driver/Src/stm32g4xx_hal_dma.c **** 
 1285              		.loc 1 551 5 is_stmt 1 view .LVU481
 554:Drivers/STM32G4xx_HAL_Driver/Src/stm32g4xx_hal_dma.c **** 
 1286              		.loc 1 554 17 is_stmt 0 view .LVU482
 1287 000a 0122     		movs	r2, #1
 551:Drivers/STM32G4xx_HAL_Driver/Src/stm32g4xx_hal_dma.c **** 
 1288              		.loc 1 551 21 view .LVU483
 1289 000c 0420     		movs	r0, #4
 1290              	.LVL63:
 557:Drivers/STM32G4xx_HAL_Driver/Src/stm32g4xx_hal_dma.c **** 
 1291              		.loc 1 557 5 view .LVU484
 1292 000e 0021     		movs	r1, #0
 551:Drivers/STM32G4xx_HAL_Driver/Src/stm32g4xx_hal_dma.c **** 
 1293              		.loc 1 551 21 view .LVU485
 1294 0010 D863     		str	r0, [r3, #60]
 554:Drivers/STM32G4xx_HAL_Driver/Src/stm32g4xx_hal_dma.c **** 
 1295              		.loc 1 554 5 is_stmt 1 view .LVU486
 557:Drivers/STM32G4xx_HAL_Driver/Src/stm32g4xx_hal_dma.c **** 
 1296              		.loc 1 557 5 is_stmt 0 view .LVU487
 1297 0012 83F82410 		strb	r1, [r3, #36]
 559:Drivers/STM32G4xx_HAL_Driver/Src/stm32g4xx_hal_dma.c ****   }
 1298              		.loc 1 559 12 view .LVU488
 1299 0016 1046     		mov	r0, r2
 554:Drivers/STM32G4xx_HAL_Driver/Src/stm32g4xx_hal_dma.c **** 
 1300              		.loc 1 554 17 view .LVU489
 1301 0018 83F82520 		strb	r2, [r3, #37]
 557:Drivers/STM32G4xx_HAL_Driver/Src/stm32g4xx_hal_dma.c **** 
 1302              		.loc 1 557 5 is_stmt 1 view .LVU490
 557:Drivers/STM32G4xx_HAL_Driver/Src/stm32g4xx_hal_dma.c **** 
 1303              		.loc 1 557 5 view .LVU491
 557:Drivers/STM32G4xx_HAL_Driver/Src/stm32g4xx_hal_dma.c **** 
 1304              		.loc 1 557 5 view .LVU492
 559:Drivers/STM32G4xx_HAL_Driver/Src/stm32g4xx_hal_dma.c ****   }
 1305              		.loc 1 559 5 view .LVU493
 1306              	.LVL64:
 600:Drivers/STM32G4xx_HAL_Driver/Src/stm32g4xx_hal_dma.c **** }
 1307              		.loc 1 600 3 view .LVU494
 601:Drivers/STM32G4xx_HAL_Driver/Src/stm32g4xx_hal_dma.c **** 
 1308              		.loc 1 601 1 is_stmt 0 view .LVU495
 1309 001c 7047     		bx	lr
 1310              	.LVL65:
 1311              	.L76:
 564:Drivers/STM32G4xx_HAL_Driver/Src/stm32g4xx_hal_dma.c **** 
 1312              		.loc 1 564 5 is_stmt 1 view .LVU496
 1313 001e 0268     		ldr	r2, [r0]
ARM GAS  /tmp/ccQfBzxp.s 			page 51


 545:Drivers/STM32G4xx_HAL_Driver/Src/stm32g4xx_hal_dma.c ****   HAL_StatusTypeDef status = HAL_OK;
 1314              		.loc 1 545 1 is_stmt 0 view .LVU497
 1315 0020 70B5     		push	{r4, r5, r6, lr}
 1316              	.LCFI20:
 1317              		.cfi_def_cfa_offset 16
 1318              		.cfi_offset 4, -16
 1319              		.cfi_offset 5, -12
 1320              		.cfi_offset 6, -8
 1321              		.cfi_offset 14, -4
 570:Drivers/STM32G4xx_HAL_Driver/Src/stm32g4xx_hal_dma.c **** 
 1322              		.loc 1 570 9 view .LVU498
 1323 0022 856C     		ldr	r5, [r0, #72]
 564:Drivers/STM32G4xx_HAL_Driver/Src/stm32g4xx_hal_dma.c **** 
 1324              		.loc 1 564 5 view .LVU499
 1325 0024 1068     		ldr	r0, [r2]
 1326              	.LVL66:
 576:Drivers/STM32G4xx_HAL_Driver/Src/stm32g4xx_hal_dma.c **** 
 1327              		.loc 1 576 9 view .LVU500
 1328 0026 DE6C     		ldr	r6, [r3, #76]
 564:Drivers/STM32G4xx_HAL_Driver/Src/stm32g4xx_hal_dma.c **** 
 1329              		.loc 1 564 5 view .LVU501
 1330 0028 20F00E00 		bic	r0, r0, #14
 573:Drivers/STM32G4xx_HAL_Driver/Src/stm32g4xx_hal_dma.c **** 
 1331              		.loc 1 573 9 view .LVU502
 1332 002c D3E91041 		ldrd	r4, r1, [r3, #64]
 564:Drivers/STM32G4xx_HAL_Driver/Src/stm32g4xx_hal_dma.c **** 
 1333              		.loc 1 564 5 view .LVU503
 1334 0030 1060     		str	r0, [r2]
 567:Drivers/STM32G4xx_HAL_Driver/Src/stm32g4xx_hal_dma.c **** 
 1335              		.loc 1 567 5 is_stmt 1 view .LVU504
 1336 0032 1068     		ldr	r0, [r2]
 1337 0034 20F00100 		bic	r0, r0, #1
 1338 0038 1060     		str	r0, [r2]
 570:Drivers/STM32G4xx_HAL_Driver/Src/stm32g4xx_hal_dma.c **** 
 1339              		.loc 1 570 5 view .LVU505
 570:Drivers/STM32G4xx_HAL_Driver/Src/stm32g4xx_hal_dma.c **** 
 1340              		.loc 1 570 30 is_stmt 0 view .LVU506
 1341 003a 2A68     		ldr	r2, [r5]
 578:Drivers/STM32G4xx_HAL_Driver/Src/stm32g4xx_hal_dma.c ****     {
 1342              		.loc 1 578 13 view .LVU507
 1343 003c 586D     		ldr	r0, [r3, #84]
 570:Drivers/STM32G4xx_HAL_Driver/Src/stm32g4xx_hal_dma.c **** 
 1344              		.loc 1 570 30 view .LVU508
 1345 003e 22F48072 		bic	r2, r2, #256
 1346 0042 2A60     		str	r2, [r5]
 573:Drivers/STM32G4xx_HAL_Driver/Src/stm32g4xx_hal_dma.c **** 
 1347              		.loc 1 573 5 is_stmt 1 view .LVU509
 573:Drivers/STM32G4xx_HAL_Driver/Src/stm32g4xx_hal_dma.c **** 
 1348              		.loc 1 573 71 is_stmt 0 view .LVU510
 1349 0044 01F01F01 		and	r1, r1, #31
 573:Drivers/STM32G4xx_HAL_Driver/Src/stm32g4xx_hal_dma.c **** 
 1350              		.loc 1 573 48 view .LVU511
 1351 0048 0122     		movs	r2, #1
 1352 004a 8A40     		lsls	r2, r2, r1
 576:Drivers/STM32G4xx_HAL_Driver/Src/stm32g4xx_hal_dma.c **** 
 1353              		.loc 1 576 42 view .LVU512
 1354 004c 196D     		ldr	r1, [r3, #80]
ARM GAS  /tmp/ccQfBzxp.s 			page 52


 573:Drivers/STM32G4xx_HAL_Driver/Src/stm32g4xx_hal_dma.c **** 
 1355              		.loc 1 573 32 view .LVU513
 1356 004e 6260     		str	r2, [r4, #4]
 576:Drivers/STM32G4xx_HAL_Driver/Src/stm32g4xx_hal_dma.c **** 
 1357              		.loc 1 576 5 is_stmt 1 view .LVU514
 576:Drivers/STM32G4xx_HAL_Driver/Src/stm32g4xx_hal_dma.c **** 
 1358              		.loc 1 576 36 is_stmt 0 view .LVU515
 1359 0050 7160     		str	r1, [r6, #4]
 578:Drivers/STM32G4xx_HAL_Driver/Src/stm32g4xx_hal_dma.c ****     {
 1360              		.loc 1 578 5 is_stmt 1 view .LVU516
 578:Drivers/STM32G4xx_HAL_Driver/Src/stm32g4xx_hal_dma.c ****     {
 1361              		.loc 1 578 8 is_stmt 0 view .LVU517
 1362 0052 30B1     		cbz	r0, .L78
 582:Drivers/STM32G4xx_HAL_Driver/Src/stm32g4xx_hal_dma.c **** 
 1363              		.loc 1 582 7 is_stmt 1 view .LVU518
 582:Drivers/STM32G4xx_HAL_Driver/Src/stm32g4xx_hal_dma.c **** 
 1364              		.loc 1 582 36 is_stmt 0 view .LVU519
 1365 0054 0268     		ldr	r2, [r0]
 585:Drivers/STM32G4xx_HAL_Driver/Src/stm32g4xx_hal_dma.c ****     }
 1366              		.loc 1 585 49 view .LVU520
 1367 0056 D3E91614 		ldrd	r1, r4, [r3, #88]
 582:Drivers/STM32G4xx_HAL_Driver/Src/stm32g4xx_hal_dma.c **** 
 1368              		.loc 1 582 36 view .LVU521
 1369 005a 22F48072 		bic	r2, r2, #256
 1370 005e 0260     		str	r2, [r0]
 585:Drivers/STM32G4xx_HAL_Driver/Src/stm32g4xx_hal_dma.c ****     }
 1371              		.loc 1 585 7 is_stmt 1 view .LVU522
 585:Drivers/STM32G4xx_HAL_Driver/Src/stm32g4xx_hal_dma.c ****     }
 1372              		.loc 1 585 43 is_stmt 0 view .LVU523
 1373 0060 4C60     		str	r4, [r1, #4]
 1374              	.L78:
 589:Drivers/STM32G4xx_HAL_Driver/Src/stm32g4xx_hal_dma.c **** 
 1375              		.loc 1 589 5 is_stmt 1 view .LVU524
 595:Drivers/STM32G4xx_HAL_Driver/Src/stm32g4xx_hal_dma.c ****     {
 1376              		.loc 1 595 13 is_stmt 0 view .LVU525
 1377 0062 9A6B     		ldr	r2, [r3, #56]
 589:Drivers/STM32G4xx_HAL_Driver/Src/stm32g4xx_hal_dma.c **** 
 1378              		.loc 1 589 17 view .LVU526
 1379 0064 0121     		movs	r1, #1
 592:Drivers/STM32G4xx_HAL_Driver/Src/stm32g4xx_hal_dma.c **** 
 1380              		.loc 1 592 5 view .LVU527
 1381 0066 0024     		movs	r4, #0
 589:Drivers/STM32G4xx_HAL_Driver/Src/stm32g4xx_hal_dma.c **** 
 1382              		.loc 1 589 17 view .LVU528
 1383 0068 83F82510 		strb	r1, [r3, #37]
 592:Drivers/STM32G4xx_HAL_Driver/Src/stm32g4xx_hal_dma.c **** 
 1384              		.loc 1 592 5 is_stmt 1 view .LVU529
 592:Drivers/STM32G4xx_HAL_Driver/Src/stm32g4xx_hal_dma.c **** 
 1385              		.loc 1 592 5 view .LVU530
 1386 006c 83F82440 		strb	r4, [r3, #36]
 592:Drivers/STM32G4xx_HAL_Driver/Src/stm32g4xx_hal_dma.c **** 
 1387              		.loc 1 592 5 view .LVU531
 595:Drivers/STM32G4xx_HAL_Driver/Src/stm32g4xx_hal_dma.c ****     {
 1388              		.loc 1 595 5 view .LVU532
 595:Drivers/STM32G4xx_HAL_Driver/Src/stm32g4xx_hal_dma.c ****     {
 1389              		.loc 1 595 8 is_stmt 0 view .LVU533
 1390 0070 1AB1     		cbz	r2, .L79
ARM GAS  /tmp/ccQfBzxp.s 			page 53


 597:Drivers/STM32G4xx_HAL_Driver/Src/stm32g4xx_hal_dma.c ****     }
 1391              		.loc 1 597 7 is_stmt 1 view .LVU534
 1392 0072 1846     		mov	r0, r3
 1393 0074 9047     		blx	r2
 1394              	.LVL67:
 546:Drivers/STM32G4xx_HAL_Driver/Src/stm32g4xx_hal_dma.c **** 
 1395              		.loc 1 546 21 is_stmt 0 view .LVU535
 1396 0076 2046     		mov	r0, r4
 1397              	.LVL68:
 600:Drivers/STM32G4xx_HAL_Driver/Src/stm32g4xx_hal_dma.c **** }
 1398              		.loc 1 600 3 is_stmt 1 view .LVU536
 601:Drivers/STM32G4xx_HAL_Driver/Src/stm32g4xx_hal_dma.c **** 
 1399              		.loc 1 601 1 is_stmt 0 view .LVU537
 1400 0078 70BD     		pop	{r4, r5, r6, pc}
 1401              	.LVL69:
 1402              	.L79:
 546:Drivers/STM32G4xx_HAL_Driver/Src/stm32g4xx_hal_dma.c **** 
 1403              		.loc 1 546 21 view .LVU538
 1404 007a 1046     		mov	r0, r2
 1405              	.LVL70:
 600:Drivers/STM32G4xx_HAL_Driver/Src/stm32g4xx_hal_dma.c **** }
 1406              		.loc 1 600 3 is_stmt 1 view .LVU539
 601:Drivers/STM32G4xx_HAL_Driver/Src/stm32g4xx_hal_dma.c **** 
 1407              		.loc 1 601 1 is_stmt 0 view .LVU540
 1408 007c 70BD     		pop	{r4, r5, r6, pc}
 1409              		.cfi_endproc
 1410              	.LFE334:
 1412 007e 00BF     		.section	.text.HAL_DMA_PollForTransfer,"ax",%progbits
 1413              		.align	1
 1414              		.p2align 2,,3
 1415              		.global	HAL_DMA_PollForTransfer
 1416              		.syntax unified
 1417              		.thumb
 1418              		.thumb_func
 1419              		.fpu fpv4-sp-d16
 1421              	HAL_DMA_PollForTransfer:
 1422              	.LVL71:
 1423              	.LFB335:
 613:Drivers/STM32G4xx_HAL_Driver/Src/stm32g4xx_hal_dma.c ****   uint32_t temp;
 1424              		.loc 1 613 1 is_stmt 1 view -0
 1425              		.cfi_startproc
 1426              		@ args = 0, pretend = 0, frame = 0
 1427              		@ frame_needed = 0, uses_anonymous_args = 0
 614:Drivers/STM32G4xx_HAL_Driver/Src/stm32g4xx_hal_dma.c ****   uint32_t tickstart;
 1428              		.loc 1 614 3 view .LVU542
 615:Drivers/STM32G4xx_HAL_Driver/Src/stm32g4xx_hal_dma.c **** 
 1429              		.loc 1 615 3 view .LVU543
 617:Drivers/STM32G4xx_HAL_Driver/Src/stm32g4xx_hal_dma.c ****   {
 1430              		.loc 1 617 3 view .LVU544
 613:Drivers/STM32G4xx_HAL_Driver/Src/stm32g4xx_hal_dma.c ****   uint32_t temp;
 1431              		.loc 1 613 1 is_stmt 0 view .LVU545
 1432 0000 2DE9F84F 		push	{r3, r4, r5, r6, r7, r8, r9, r10, fp, lr}
 1433              	.LCFI21:
 1434              		.cfi_def_cfa_offset 40
 1435              		.cfi_offset 3, -40
 1436              		.cfi_offset 4, -36
 1437              		.cfi_offset 5, -32
ARM GAS  /tmp/ccQfBzxp.s 			page 54


 1438              		.cfi_offset 6, -28
 1439              		.cfi_offset 7, -24
 1440              		.cfi_offset 8, -20
 1441              		.cfi_offset 9, -16
 1442              		.cfi_offset 10, -12
 1443              		.cfi_offset 11, -8
 1444              		.cfi_offset 14, -4
 617:Drivers/STM32G4xx_HAL_Driver/Src/stm32g4xx_hal_dma.c ****   {
 1445              		.loc 1 617 33 view .LVU546
 1446 0004 90F82530 		ldrb	r3, [r0, #37]	@ zero_extendqisi2
 617:Drivers/STM32G4xx_HAL_Driver/Src/stm32g4xx_hal_dma.c ****   {
 1447              		.loc 1 617 6 view .LVU547
 1448 0008 022B     		cmp	r3, #2
 613:Drivers/STM32G4xx_HAL_Driver/Src/stm32g4xx_hal_dma.c ****   uint32_t temp;
 1449              		.loc 1 613 1 view .LVU548
 1450 000a 0746     		mov	r7, r0
 617:Drivers/STM32G4xx_HAL_Driver/Src/stm32g4xx_hal_dma.c ****   {
 1451              		.loc 1 617 6 view .LVU549
 1452 000c 07D0     		beq	.L87
 620:Drivers/STM32G4xx_HAL_Driver/Src/stm32g4xx_hal_dma.c ****     __HAL_UNLOCK(hdma);
 1453              		.loc 1 620 5 is_stmt 1 view .LVU550
 620:Drivers/STM32G4xx_HAL_Driver/Src/stm32g4xx_hal_dma.c ****     __HAL_UNLOCK(hdma);
 1454              		.loc 1 620 21 is_stmt 0 view .LVU551
 1455 000e 0422     		movs	r2, #4
 1456              	.LVL72:
 621:Drivers/STM32G4xx_HAL_Driver/Src/stm32g4xx_hal_dma.c ****     return HAL_ERROR;
 1457              		.loc 1 621 5 view .LVU552
 1458 0010 0023     		movs	r3, #0
 620:Drivers/STM32G4xx_HAL_Driver/Src/stm32g4xx_hal_dma.c ****     __HAL_UNLOCK(hdma);
 1459              		.loc 1 620 21 view .LVU553
 1460 0012 C263     		str	r2, [r0, #60]
 621:Drivers/STM32G4xx_HAL_Driver/Src/stm32g4xx_hal_dma.c ****     return HAL_ERROR;
 1461              		.loc 1 621 5 is_stmt 1 view .LVU554
 621:Drivers/STM32G4xx_HAL_Driver/Src/stm32g4xx_hal_dma.c ****     return HAL_ERROR;
 1462              		.loc 1 621 5 view .LVU555
 1463 0014 80F82430 		strb	r3, [r0, #36]
 621:Drivers/STM32G4xx_HAL_Driver/Src/stm32g4xx_hal_dma.c ****     return HAL_ERROR;
 1464              		.loc 1 621 5 view .LVU556
 622:Drivers/STM32G4xx_HAL_Driver/Src/stm32g4xx_hal_dma.c ****   }
 1465              		.loc 1 622 5 view .LVU557
 622:Drivers/STM32G4xx_HAL_Driver/Src/stm32g4xx_hal_dma.c ****   }
 1466              		.loc 1 622 12 is_stmt 0 view .LVU558
 1467 0018 0120     		movs	r0, #1
 1468              	.LVL73:
 1469              	.L88:
 733:Drivers/STM32G4xx_HAL_Driver/Src/stm32g4xx_hal_dma.c **** 
 1470              		.loc 1 733 1 view .LVU559
 1471 001a BDE8F88F 		pop	{r3, r4, r5, r6, r7, r8, r9, r10, fp, pc}
 1472              	.LVL74:
 1473              	.L87:
 626:Drivers/STM32G4xx_HAL_Driver/Src/stm32g4xx_hal_dma.c ****   {
 1474              		.loc 1 626 3 is_stmt 1 view .LVU560
 1475 001e DCB2     		uxtb	r4, r3
 626:Drivers/STM32G4xx_HAL_Driver/Src/stm32g4xx_hal_dma.c ****   {
 1476              		.loc 1 626 18 is_stmt 0 view .LVU561
 1477 0020 0368     		ldr	r3, [r0]
 626:Drivers/STM32G4xx_HAL_Driver/Src/stm32g4xx_hal_dma.c ****   {
ARM GAS  /tmp/ccQfBzxp.s 			page 55


 1478              		.loc 1 626 28 view .LVU562
 1479 0022 1B68     		ldr	r3, [r3]
 626:Drivers/STM32G4xx_HAL_Driver/Src/stm32g4xx_hal_dma.c ****   {
 1480              		.loc 1 626 6 view .LVU563
 1481 0024 9B06     		lsls	r3, r3, #26
 1482 0026 45D4     		bmi	.L115
 633:Drivers/STM32G4xx_HAL_Driver/Src/stm32g4xx_hal_dma.c ****   {
 1483              		.loc 1 633 3 is_stmt 1 view .LVU564
 637:Drivers/STM32G4xx_HAL_Driver/Src/stm32g4xx_hal_dma.c ****   }
 1484              		.loc 1 637 58 is_stmt 0 view .LVU565
 1485 0028 436C     		ldr	r3, [r0, #68]
 1486 002a 8946     		mov	r9, r1
 1487 002c 9046     		mov	r8, r2
 633:Drivers/STM32G4xx_HAL_Driver/Src/stm32g4xx_hal_dma.c ****   {
 1488              		.loc 1 633 6 view .LVU566
 1489 002e 0029     		cmp	r1, #0
 1490 0030 46D1     		bne	.L90
 1491              	.L114:
 642:Drivers/STM32G4xx_HAL_Driver/Src/stm32g4xx_hal_dma.c ****   }
 1492              		.loc 1 642 58 view .LVU567
 1493 0032 03F01F03 		and	r3, r3, #31
 642:Drivers/STM32G4xx_HAL_Driver/Src/stm32g4xx_hal_dma.c ****   }
 1494              		.loc 1 642 10 view .LVU568
 1495 0036 9C40     		lsls	r4, r4, r3
 1496              	.LVL75:
 646:Drivers/STM32G4xx_HAL_Driver/Src/stm32g4xx_hal_dma.c **** 
 1497              		.loc 1 646 3 is_stmt 1 view .LVU569
 646:Drivers/STM32G4xx_HAL_Driver/Src/stm32g4xx_hal_dma.c **** 
 1498              		.loc 1 646 15 is_stmt 0 view .LVU570
 1499 0038 FFF7FEFF 		bl	HAL_GetTick
 1500              	.LVL76:
 650:Drivers/STM32G4xx_HAL_Driver/Src/stm32g4xx_hal_dma.c ****     {
 1501              		.loc 1 650 69 view .LVU571
 1502 003c 4FF0080B 		mov	fp, #8
 646:Drivers/STM32G4xx_HAL_Driver/Src/stm32g4xx_hal_dma.c **** 
 1503              		.loc 1 646 15 view .LVU572
 1504 0040 8246     		mov	r10, r0
 1505              	.LVL77:
 648:Drivers/STM32G4xx_HAL_Driver/Src/stm32g4xx_hal_dma.c ****   {
 1506              		.loc 1 648 3 is_stmt 1 view .LVU573
 1507              	.L92:
 648:Drivers/STM32G4xx_HAL_Driver/Src/stm32g4xx_hal_dma.c ****   {
 1508              		.loc 1 648 21 is_stmt 0 view .LVU574
 1509 0042 D7E91051 		ldrd	r5, r1, [r7, #64]
 1510 0046 01F01F01 		and	r1, r1, #31
 650:Drivers/STM32G4xx_HAL_Driver/Src/stm32g4xx_hal_dma.c ****     {
 1511              		.loc 1 650 69 view .LVU575
 1512 004a 0BFA01F2 		lsl	r2, fp, r1
 1513 004e 05E0     		b	.L94
 1514              	.L96:
 650:Drivers/STM32G4xx_HAL_Driver/Src/stm32g4xx_hal_dma.c ****     {
 1515              		.loc 1 650 37 view .LVU576
 1516 0050 2E68     		ldr	r6, [r5]
 650:Drivers/STM32G4xx_HAL_Driver/Src/stm32g4xx_hal_dma.c ****     {
 1517              		.loc 1 650 8 view .LVU577
 1518 0052 1642     		tst	r6, r2
 1519 0054 36D1     		bne	.L116
ARM GAS  /tmp/ccQfBzxp.s 			page 56


 669:Drivers/STM32G4xx_HAL_Driver/Src/stm32g4xx_hal_dma.c ****     {
 1520              		.loc 1 669 8 view .LVU578
 1521 0056 B8F1FF3F 		cmp	r8, #-1
 1522 005a 3FD1     		bne	.L117
 1523              	.L94:
 650:Drivers/STM32G4xx_HAL_Driver/Src/stm32g4xx_hal_dma.c ****     {
 1524              		.loc 1 650 5 is_stmt 1 view .LVU579
 669:Drivers/STM32G4xx_HAL_Driver/Src/stm32g4xx_hal_dma.c ****     {
 1525              		.loc 1 669 5 view .LVU580
 648:Drivers/STM32G4xx_HAL_Driver/Src/stm32g4xx_hal_dma.c ****   {
 1526              		.loc 1 648 9 view .LVU581
 648:Drivers/STM32G4xx_HAL_Driver/Src/stm32g4xx_hal_dma.c ****   {
 1527              		.loc 1 648 37 is_stmt 0 view .LVU582
 1528 005c 2B68     		ldr	r3, [r5]
 648:Drivers/STM32G4xx_HAL_Driver/Src/stm32g4xx_hal_dma.c ****   {
 1529              		.loc 1 648 9 view .LVU583
 1530 005e 2340     		ands	r3, r3, r4
 1531 0060 F6D0     		beq	.L96
 688:Drivers/STM32G4xx_HAL_Driver/Src/stm32g4xx_hal_dma.c ****   {
 1532              		.loc 1 688 3 is_stmt 1 view .LVU584
 688:Drivers/STM32G4xx_HAL_Driver/Src/stm32g4xx_hal_dma.c ****   {
 1533              		.loc 1 688 11 is_stmt 0 view .LVU585
 1534 0062 7B6D     		ldr	r3, [r7, #84]
 688:Drivers/STM32G4xx_HAL_Driver/Src/stm32g4xx_hal_dma.c ****   {
 1535              		.loc 1 688 6 view .LVU586
 1536 0064 6BB1     		cbz	r3, .L97
 691:Drivers/STM32G4xx_HAL_Driver/Src/stm32g4xx_hal_dma.c ****     {
 1537              		.loc 1 691 5 is_stmt 1 view .LVU587
 691:Drivers/STM32G4xx_HAL_Driver/Src/stm32g4xx_hal_dma.c ****     {
 1538              		.loc 1 691 51 is_stmt 0 view .LVU588
 1539 0066 D7E91620 		ldrd	r2, r0, [r7, #88]
 691:Drivers/STM32G4xx_HAL_Driver/Src/stm32g4xx_hal_dma.c ****     {
 1540              		.loc 1 691 38 view .LVU589
 1541 006a 1468     		ldr	r4, [r2]
 1542              	.LVL78:
 691:Drivers/STM32G4xx_HAL_Driver/Src/stm32g4xx_hal_dma.c ****     {
 1543              		.loc 1 691 8 view .LVU590
 1544 006c 0442     		tst	r4, r0
 1545 006e 08D0     		beq	.L97
 694:Drivers/STM32G4xx_HAL_Driver/Src/stm32g4xx_hal_dma.c **** 
 1546              		.loc 1 694 7 is_stmt 1 view .LVU591
 694:Drivers/STM32G4xx_HAL_Driver/Src/stm32g4xx_hal_dma.c **** 
 1547              		.loc 1 694 36 is_stmt 0 view .LVU592
 1548 0070 1C68     		ldr	r4, [r3]
 1549 0072 44F48074 		orr	r4, r4, #256
 1550 0076 1C60     		str	r4, [r3]
 697:Drivers/STM32G4xx_HAL_Driver/Src/stm32g4xx_hal_dma.c **** 
 1551              		.loc 1 697 7 is_stmt 1 view .LVU593
 697:Drivers/STM32G4xx_HAL_Driver/Src/stm32g4xx_hal_dma.c **** 
 1552              		.loc 1 697 43 is_stmt 0 view .LVU594
 1553 0078 5060     		str	r0, [r2, #4]
 700:Drivers/STM32G4xx_HAL_Driver/Src/stm32g4xx_hal_dma.c ****     }
 1554              		.loc 1 700 7 is_stmt 1 view .LVU595
 700:Drivers/STM32G4xx_HAL_Driver/Src/stm32g4xx_hal_dma.c ****     }
 1555              		.loc 1 700 23 is_stmt 0 view .LVU596
 1556 007a FB6B     		ldr	r3, [r7, #60]
 1557 007c 43F48063 		orr	r3, r3, #1024
ARM GAS  /tmp/ccQfBzxp.s 			page 57


 1558 0080 FB63     		str	r3, [r7, #60]
 1559              	.L97:
 705:Drivers/STM32G4xx_HAL_Driver/Src/stm32g4xx_hal_dma.c ****   {
 1560              		.loc 1 705 3 is_stmt 1 view .LVU597
 705:Drivers/STM32G4xx_HAL_Driver/Src/stm32g4xx_hal_dma.c ****   {
 1561              		.loc 1 705 45 is_stmt 0 view .LVU598
 1562 0082 D7E91332 		ldrd	r3, r2, [r7, #76]
 705:Drivers/STM32G4xx_HAL_Driver/Src/stm32g4xx_hal_dma.c ****   {
 1563              		.loc 1 705 33 view .LVU599
 1564 0086 1868     		ldr	r0, [r3]
 705:Drivers/STM32G4xx_HAL_Driver/Src/stm32g4xx_hal_dma.c ****   {
 1565              		.loc 1 705 6 view .LVU600
 1566 0088 1042     		tst	r0, r2
 1567 008a 04D0     		beq	.L98
 708:Drivers/STM32G4xx_HAL_Driver/Src/stm32g4xx_hal_dma.c **** 
 1568              		.loc 1 708 5 is_stmt 1 view .LVU601
 708:Drivers/STM32G4xx_HAL_Driver/Src/stm32g4xx_hal_dma.c **** 
 1569              		.loc 1 708 36 is_stmt 0 view .LVU602
 1570 008c 5A60     		str	r2, [r3, #4]
 711:Drivers/STM32G4xx_HAL_Driver/Src/stm32g4xx_hal_dma.c ****   }
 1571              		.loc 1 711 5 is_stmt 1 view .LVU603
 711:Drivers/STM32G4xx_HAL_Driver/Src/stm32g4xx_hal_dma.c ****   }
 1572              		.loc 1 711 21 is_stmt 0 view .LVU604
 1573 008e FB6B     		ldr	r3, [r7, #60]
 1574 0090 43F40073 		orr	r3, r3, #512
 1575 0094 FB63     		str	r3, [r7, #60]
 1576              	.L98:
 714:Drivers/STM32G4xx_HAL_Driver/Src/stm32g4xx_hal_dma.c ****   {
 1577              		.loc 1 714 3 is_stmt 1 view .LVU605
 714:Drivers/STM32G4xx_HAL_Driver/Src/stm32g4xx_hal_dma.c ****   {
 1578              		.loc 1 714 6 is_stmt 0 view .LVU606
 1579 0096 B9F1000F 		cmp	r9, #0
 1580 009a 32D1     		bne	.L99
 717:Drivers/STM32G4xx_HAL_Driver/Src/stm32g4xx_hal_dma.c **** 
 1581              		.loc 1 717 5 is_stmt 1 view .LVU607
 717:Drivers/STM32G4xx_HAL_Driver/Src/stm32g4xx_hal_dma.c **** 
 1582              		.loc 1 717 58 is_stmt 0 view .LVU608
 1583 009c 0223     		movs	r3, #2
 1584 009e 03FA01F1 		lsl	r1, r3, r1
 721:Drivers/STM32G4xx_HAL_Driver/Src/stm32g4xx_hal_dma.c ****   }
 1585              		.loc 1 721 17 view .LVU609
 1586 00a2 0123     		movs	r3, #1
 717:Drivers/STM32G4xx_HAL_Driver/Src/stm32g4xx_hal_dma.c **** 
 1587              		.loc 1 717 32 view .LVU610
 1588 00a4 6960     		str	r1, [r5, #4]
 721:Drivers/STM32G4xx_HAL_Driver/Src/stm32g4xx_hal_dma.c ****   }
 1589              		.loc 1 721 5 is_stmt 1 view .LVU611
 721:Drivers/STM32G4xx_HAL_Driver/Src/stm32g4xx_hal_dma.c ****   }
 1590              		.loc 1 721 17 is_stmt 0 view .LVU612
 1591 00a6 87F82530 		strb	r3, [r7, #37]
 1592              	.L100:
 730:Drivers/STM32G4xx_HAL_Driver/Src/stm32g4xx_hal_dma.c **** 
 1593              		.loc 1 730 3 is_stmt 1 view .LVU613
 730:Drivers/STM32G4xx_HAL_Driver/Src/stm32g4xx_hal_dma.c **** 
 1594              		.loc 1 730 3 view .LVU614
 1595 00aa 0020     		movs	r0, #0
 1596 00ac 87F82400 		strb	r0, [r7, #36]
ARM GAS  /tmp/ccQfBzxp.s 			page 58


 730:Drivers/STM32G4xx_HAL_Driver/Src/stm32g4xx_hal_dma.c **** 
 1597              		.loc 1 730 3 view .LVU615
 732:Drivers/STM32G4xx_HAL_Driver/Src/stm32g4xx_hal_dma.c **** }
 1598              		.loc 1 732 3 view .LVU616
 733:Drivers/STM32G4xx_HAL_Driver/Src/stm32g4xx_hal_dma.c **** 
 1599              		.loc 1 733 1 is_stmt 0 view .LVU617
 1600 00b0 BDE8F88F 		pop	{r3, r4, r5, r6, r7, r8, r9, r10, fp, pc}
 1601              	.LVL79:
 1602              	.L115:
 628:Drivers/STM32G4xx_HAL_Driver/Src/stm32g4xx_hal_dma.c ****     return HAL_ERROR;
 1603              		.loc 1 628 5 is_stmt 1 view .LVU618
 628:Drivers/STM32G4xx_HAL_Driver/Src/stm32g4xx_hal_dma.c ****     return HAL_ERROR;
 1604              		.loc 1 628 21 is_stmt 0 view .LVU619
 1605 00b4 4FF48073 		mov	r3, #256
 1606 00b8 C363     		str	r3, [r0, #60]
 629:Drivers/STM32G4xx_HAL_Driver/Src/stm32g4xx_hal_dma.c ****   }
 1607              		.loc 1 629 5 is_stmt 1 view .LVU620
 629:Drivers/STM32G4xx_HAL_Driver/Src/stm32g4xx_hal_dma.c ****   }
 1608              		.loc 1 629 12 is_stmt 0 view .LVU621
 1609 00ba 0120     		movs	r0, #1
 1610              	.LVL80:
 733:Drivers/STM32G4xx_HAL_Driver/Src/stm32g4xx_hal_dma.c **** 
 1611              		.loc 1 733 1 view .LVU622
 1612 00bc BDE8F88F 		pop	{r3, r4, r5, r6, r7, r8, r9, r10, fp, pc}
 1613              	.LVL81:
 1614              	.L90:
 642:Drivers/STM32G4xx_HAL_Driver/Src/stm32g4xx_hal_dma.c ****   }
 1615              		.loc 1 642 5 is_stmt 1 view .LVU623
 642:Drivers/STM32G4xx_HAL_Driver/Src/stm32g4xx_hal_dma.c ****   }
 1616              		.loc 1 642 10 is_stmt 0 view .LVU624
 1617 00c0 0424     		movs	r4, #4
 1618 00c2 B6E7     		b	.L114
 1619              	.LVL82:
 1620              	.L116:
 655:Drivers/STM32G4xx_HAL_Driver/Src/stm32g4xx_hal_dma.c **** 
 1621              		.loc 1 655 7 is_stmt 1 view .LVU625
 655:Drivers/STM32G4xx_HAL_Driver/Src/stm32g4xx_hal_dma.c **** 
 1622              		.loc 1 655 60 is_stmt 0 view .LVU626
 1623 00c4 0122     		movs	r2, #1
 1624 00c6 02FA01F1 		lsl	r1, r2, r1
 655:Drivers/STM32G4xx_HAL_Driver/Src/stm32g4xx_hal_dma.c **** 
 1625              		.loc 1 655 34 view .LVU627
 1626 00ca 6960     		str	r1, [r5, #4]
 658:Drivers/STM32G4xx_HAL_Driver/Src/stm32g4xx_hal_dma.c **** 
 1627              		.loc 1 658 7 is_stmt 1 view .LVU628
 658:Drivers/STM32G4xx_HAL_Driver/Src/stm32g4xx_hal_dma.c **** 
 1628              		.loc 1 658 23 is_stmt 0 view .LVU629
 1629 00cc FA63     		str	r2, [r7, #60]
 661:Drivers/STM32G4xx_HAL_Driver/Src/stm32g4xx_hal_dma.c **** 
 1630              		.loc 1 661 7 is_stmt 1 view .LVU630
 664:Drivers/STM32G4xx_HAL_Driver/Src/stm32g4xx_hal_dma.c **** 
 1631              		.loc 1 664 7 is_stmt 0 view .LVU631
 1632 00ce 87F82430 		strb	r3, [r7, #36]
 661:Drivers/STM32G4xx_HAL_Driver/Src/stm32g4xx_hal_dma.c **** 
 1633              		.loc 1 661 19 view .LVU632
 1634 00d2 87F82520 		strb	r2, [r7, #37]
 664:Drivers/STM32G4xx_HAL_Driver/Src/stm32g4xx_hal_dma.c **** 
ARM GAS  /tmp/ccQfBzxp.s 			page 59


 1635              		.loc 1 664 7 is_stmt 1 view .LVU633
 664:Drivers/STM32G4xx_HAL_Driver/Src/stm32g4xx_hal_dma.c **** 
 1636              		.loc 1 664 7 view .LVU634
 664:Drivers/STM32G4xx_HAL_Driver/Src/stm32g4xx_hal_dma.c **** 
 1637              		.loc 1 664 7 view .LVU635
 666:Drivers/STM32G4xx_HAL_Driver/Src/stm32g4xx_hal_dma.c ****     }
 1638              		.loc 1 666 7 view .LVU636
 666:Drivers/STM32G4xx_HAL_Driver/Src/stm32g4xx_hal_dma.c ****     }
 1639              		.loc 1 666 14 is_stmt 0 view .LVU637
 1640 00d6 1046     		mov	r0, r2
 733:Drivers/STM32G4xx_HAL_Driver/Src/stm32g4xx_hal_dma.c **** 
 1641              		.loc 1 733 1 view .LVU638
 1642 00d8 BDE8F88F 		pop	{r3, r4, r5, r6, r7, r8, r9, r10, fp, pc}
 1643              	.LVL83:
 1644              	.L117:
 671:Drivers/STM32G4xx_HAL_Driver/Src/stm32g4xx_hal_dma.c ****       {
 1645              		.loc 1 671 7 is_stmt 1 view .LVU639
 671:Drivers/STM32G4xx_HAL_Driver/Src/stm32g4xx_hal_dma.c ****       {
 1646              		.loc 1 671 13 is_stmt 0 view .LVU640
 1647 00dc FFF7FEFF 		bl	HAL_GetTick
 1648              	.LVL84:
 671:Drivers/STM32G4xx_HAL_Driver/Src/stm32g4xx_hal_dma.c ****       {
 1649              		.loc 1 671 27 view .LVU641
 1650 00e0 A0EB0A00 		sub	r0, r0, r10
 671:Drivers/STM32G4xx_HAL_Driver/Src/stm32g4xx_hal_dma.c ****       {
 1651              		.loc 1 671 10 view .LVU642
 1652 00e4 4045     		cmp	r0, r8
 1653 00e6 02D8     		bhi	.L95
 671:Drivers/STM32G4xx_HAL_Driver/Src/stm32g4xx_hal_dma.c ****       {
 1654              		.loc 1 671 51 discriminator 1 view .LVU643
 1655 00e8 B8F1000F 		cmp	r8, #0
 1656 00ec A9D1     		bne	.L92
 1657              	.L95:
 674:Drivers/STM32G4xx_HAL_Driver/Src/stm32g4xx_hal_dma.c **** 
 1658              		.loc 1 674 9 is_stmt 1 view .LVU644
 677:Drivers/STM32G4xx_HAL_Driver/Src/stm32g4xx_hal_dma.c **** 
 1659              		.loc 1 677 21 is_stmt 0 view .LVU645
 1660 00ee 0123     		movs	r3, #1
 674:Drivers/STM32G4xx_HAL_Driver/Src/stm32g4xx_hal_dma.c **** 
 1661              		.loc 1 674 25 view .LVU646
 1662 00f0 2021     		movs	r1, #32
 680:Drivers/STM32G4xx_HAL_Driver/Src/stm32g4xx_hal_dma.c **** 
 1663              		.loc 1 680 9 view .LVU647
 1664 00f2 0022     		movs	r2, #0
 674:Drivers/STM32G4xx_HAL_Driver/Src/stm32g4xx_hal_dma.c **** 
 1665              		.loc 1 674 25 view .LVU648
 1666 00f4 F963     		str	r1, [r7, #60]
 677:Drivers/STM32G4xx_HAL_Driver/Src/stm32g4xx_hal_dma.c **** 
 1667              		.loc 1 677 9 is_stmt 1 view .LVU649
 682:Drivers/STM32G4xx_HAL_Driver/Src/stm32g4xx_hal_dma.c ****       }
 1668              		.loc 1 682 16 is_stmt 0 view .LVU650
 1669 00f6 1846     		mov	r0, r3
 677:Drivers/STM32G4xx_HAL_Driver/Src/stm32g4xx_hal_dma.c **** 
 1670              		.loc 1 677 21 view .LVU651
 1671 00f8 87F82530 		strb	r3, [r7, #37]
 680:Drivers/STM32G4xx_HAL_Driver/Src/stm32g4xx_hal_dma.c **** 
 1672              		.loc 1 680 9 is_stmt 1 view .LVU652
ARM GAS  /tmp/ccQfBzxp.s 			page 60


 680:Drivers/STM32G4xx_HAL_Driver/Src/stm32g4xx_hal_dma.c **** 
 1673              		.loc 1 680 9 view .LVU653
 1674 00fc 87F82420 		strb	r2, [r7, #36]
 680:Drivers/STM32G4xx_HAL_Driver/Src/stm32g4xx_hal_dma.c **** 
 1675              		.loc 1 680 9 view .LVU654
 682:Drivers/STM32G4xx_HAL_Driver/Src/stm32g4xx_hal_dma.c ****       }
 1676              		.loc 1 682 9 view .LVU655
 682:Drivers/STM32G4xx_HAL_Driver/Src/stm32g4xx_hal_dma.c ****       }
 1677              		.loc 1 682 16 is_stmt 0 view .LVU656
 1678 0100 8BE7     		b	.L88
 1679              	.LVL85:
 1680              	.L99:
 726:Drivers/STM32G4xx_HAL_Driver/Src/stm32g4xx_hal_dma.c ****   }
 1681              		.loc 1 726 5 is_stmt 1 view .LVU657
 726:Drivers/STM32G4xx_HAL_Driver/Src/stm32g4xx_hal_dma.c ****   }
 1682              		.loc 1 726 58 is_stmt 0 view .LVU658
 1683 0102 0423     		movs	r3, #4
 1684 0104 03FA01F1 		lsl	r1, r3, r1
 726:Drivers/STM32G4xx_HAL_Driver/Src/stm32g4xx_hal_dma.c ****   }
 1685              		.loc 1 726 32 view .LVU659
 1686 0108 6960     		str	r1, [r5, #4]
 1687 010a CEE7     		b	.L100
 1688              		.cfi_endproc
 1689              	.LFE335:
 1691              		.section	.text.HAL_DMA_IRQHandler,"ax",%progbits
 1692              		.align	1
 1693              		.p2align 2,,3
 1694              		.global	HAL_DMA_IRQHandler
 1695              		.syntax unified
 1696              		.thumb
 1697              		.thumb_func
 1698              		.fpu fpv4-sp-d16
 1700              	HAL_DMA_IRQHandler:
 1701              	.LVL86:
 1702              	.LFB336:
 742:Drivers/STM32G4xx_HAL_Driver/Src/stm32g4xx_hal_dma.c ****   uint32_t flag_it = hdma->DmaBaseAddress->ISR;
 1703              		.loc 1 742 1 is_stmt 1 view -0
 1704              		.cfi_startproc
 1705              		@ args = 0, pretend = 0, frame = 0
 1706              		@ frame_needed = 0, uses_anonymous_args = 0
 1707              		@ link register save eliminated.
 743:Drivers/STM32G4xx_HAL_Driver/Src/stm32g4xx_hal_dma.c ****   uint32_t source_it = hdma->Instance->CCR;
 1708              		.loc 1 743 3 view .LVU661
 742:Drivers/STM32G4xx_HAL_Driver/Src/stm32g4xx_hal_dma.c ****   uint32_t flag_it = hdma->DmaBaseAddress->ISR;
 1709              		.loc 1 742 1 is_stmt 0 view .LVU662
 1710 0000 70B4     		push	{r4, r5, r6}
 1711              	.LCFI22:
 1712              		.cfi_def_cfa_offset 12
 1713              		.cfi_offset 4, -12
 1714              		.cfi_offset 5, -8
 1715              		.cfi_offset 6, -4
 747:Drivers/STM32G4xx_HAL_Driver/Src/stm32g4xx_hal_dma.c ****   {
 1716              		.loc 1 747 72 view .LVU663
 1717 0002 D0E91063 		ldrd	r6, r3, [r0, #64]
 747:Drivers/STM32G4xx_HAL_Driver/Src/stm32g4xx_hal_dma.c ****   {
 1718              		.loc 1 747 49 view .LVU664
 1719 0006 0422     		movs	r2, #4
ARM GAS  /tmp/ccQfBzxp.s 			page 61


 743:Drivers/STM32G4xx_HAL_Driver/Src/stm32g4xx_hal_dma.c ****   uint32_t source_it = hdma->Instance->CCR;
 1720              		.loc 1 743 12 view .LVU665
 1721 0008 3168     		ldr	r1, [r6]
 1722              	.LVL87:
 744:Drivers/STM32G4xx_HAL_Driver/Src/stm32g4xx_hal_dma.c **** 
 1723              		.loc 1 744 3 is_stmt 1 view .LVU666
 744:Drivers/STM32G4xx_HAL_Driver/Src/stm32g4xx_hal_dma.c **** 
 1724              		.loc 1 744 28 is_stmt 0 view .LVU667
 1725 000a 0568     		ldr	r5, [r0]
 747:Drivers/STM32G4xx_HAL_Driver/Src/stm32g4xx_hal_dma.c ****   {
 1726              		.loc 1 747 72 view .LVU668
 1727 000c 03F01F03 		and	r3, r3, #31
 747:Drivers/STM32G4xx_HAL_Driver/Src/stm32g4xx_hal_dma.c ****   {
 1728              		.loc 1 747 49 view .LVU669
 1729 0010 9A40     		lsls	r2, r2, r3
 747:Drivers/STM32G4xx_HAL_Driver/Src/stm32g4xx_hal_dma.c ****   {
 1730              		.loc 1 747 6 view .LVU670
 1731 0012 0A42     		tst	r2, r1
 744:Drivers/STM32G4xx_HAL_Driver/Src/stm32g4xx_hal_dma.c **** 
 1732              		.loc 1 744 12 view .LVU671
 1733 0014 2C68     		ldr	r4, [r5]
 1734              	.LVL88:
 747:Drivers/STM32G4xx_HAL_Driver/Src/stm32g4xx_hal_dma.c ****   {
 1735              		.loc 1 747 3 is_stmt 1 view .LVU672
 747:Drivers/STM32G4xx_HAL_Driver/Src/stm32g4xx_hal_dma.c ****   {
 1736              		.loc 1 747 6 is_stmt 0 view .LVU673
 1737 0016 0ED0     		beq	.L119
 747:Drivers/STM32G4xx_HAL_Driver/Src/stm32g4xx_hal_dma.c ****   {
 1738              		.loc 1 747 84 discriminator 1 view .LVU674
 1739 0018 14F0040F 		tst	r4, #4
 1740 001c 0BD0     		beq	.L119
 750:Drivers/STM32G4xx_HAL_Driver/Src/stm32g4xx_hal_dma.c ****     {
 1741              		.loc 1 750 5 is_stmt 1 view .LVU675
 750:Drivers/STM32G4xx_HAL_Driver/Src/stm32g4xx_hal_dma.c ****     {
 1742              		.loc 1 750 24 is_stmt 0 view .LVU676
 1743 001e 2B68     		ldr	r3, [r5]
 750:Drivers/STM32G4xx_HAL_Driver/Src/stm32g4xx_hal_dma.c ****     {
 1744              		.loc 1 750 8 view .LVU677
 1745 0020 9B06     		lsls	r3, r3, #26
 1746 0022 03D4     		bmi	.L120
 753:Drivers/STM32G4xx_HAL_Driver/Src/stm32g4xx_hal_dma.c ****     }
 1747              		.loc 1 753 7 is_stmt 1 view .LVU678
 1748 0024 2B68     		ldr	r3, [r5]
 1749 0026 23F00403 		bic	r3, r3, #4
 1750 002a 2B60     		str	r3, [r5]
 1751              	.L120:
 756:Drivers/STM32G4xx_HAL_Driver/Src/stm32g4xx_hal_dma.c **** 
 1752              		.loc 1 756 5 view .LVU679
 761:Drivers/STM32G4xx_HAL_Driver/Src/stm32g4xx_hal_dma.c ****     {
 1753              		.loc 1 761 13 is_stmt 0 view .LVU680
 1754 002c 036B     		ldr	r3, [r0, #48]
 756:Drivers/STM32G4xx_HAL_Driver/Src/stm32g4xx_hal_dma.c **** 
 1755              		.loc 1 756 32 view .LVU681
 1756 002e 7260     		str	r2, [r6, #4]
 761:Drivers/STM32G4xx_HAL_Driver/Src/stm32g4xx_hal_dma.c ****     {
 1757              		.loc 1 761 5 is_stmt 1 view .LVU682
 761:Drivers/STM32G4xx_HAL_Driver/Src/stm32g4xx_hal_dma.c ****     {
ARM GAS  /tmp/ccQfBzxp.s 			page 62


 1758              		.loc 1 761 8 is_stmt 0 view .LVU683
 1759 0030 CBB1     		cbz	r3, .L118
 1760              	.LVL89:
 1761              	.L151:
 788:Drivers/STM32G4xx_HAL_Driver/Src/stm32g4xx_hal_dma.c ****     }
 1762              		.loc 1 788 7 is_stmt 1 view .LVU684
 823:Drivers/STM32G4xx_HAL_Driver/Src/stm32g4xx_hal_dma.c **** 
 1763              		.loc 1 823 1 is_stmt 0 view .LVU685
 1764 0032 70BC     		pop	{r4, r5, r6}
 1765              	.LCFI23:
 1766              		.cfi_remember_state
 1767              		.cfi_restore 6
 1768              		.cfi_restore 5
 1769              		.cfi_restore 4
 1770              		.cfi_def_cfa_offset 0
 1771              	.LVL90:
 788:Drivers/STM32G4xx_HAL_Driver/Src/stm32g4xx_hal_dma.c ****     }
 1772              		.loc 1 788 7 view .LVU686
 1773 0034 1847     		bx	r3	@ indirect register sibling call
 1774              	.LVL91:
 1775              	.L119:
 1776              	.LCFI24:
 1777              		.cfi_restore_state
 768:Drivers/STM32G4xx_HAL_Driver/Src/stm32g4xx_hal_dma.c ****            && (0U != (source_it & DMA_IT_TC)))
 1778              		.loc 1 768 8 is_stmt 1 view .LVU687
 768:Drivers/STM32G4xx_HAL_Driver/Src/stm32g4xx_hal_dma.c ****            && (0U != (source_it & DMA_IT_TC)))
 1779              		.loc 1 768 54 is_stmt 0 view .LVU688
 1780 0036 0222     		movs	r2, #2
 1781 0038 9A40     		lsls	r2, r2, r3
 768:Drivers/STM32G4xx_HAL_Driver/Src/stm32g4xx_hal_dma.c ****            && (0U != (source_it & DMA_IT_TC)))
 1782              		.loc 1 768 11 view .LVU689
 1783 003a 0A42     		tst	r2, r1
 1784 003c 15D0     		beq	.L123
 769:Drivers/STM32G4xx_HAL_Driver/Src/stm32g4xx_hal_dma.c ****   {
 1785              		.loc 1 769 12 view .LVU690
 1786 003e 14F0020F 		tst	r4, #2
 1787 0042 12D0     		beq	.L123
 771:Drivers/STM32G4xx_HAL_Driver/Src/stm32g4xx_hal_dma.c ****     {
 1788              		.loc 1 771 5 is_stmt 1 view .LVU691
 771:Drivers/STM32G4xx_HAL_Driver/Src/stm32g4xx_hal_dma.c ****     {
 1789              		.loc 1 771 24 is_stmt 0 view .LVU692
 1790 0044 2B68     		ldr	r3, [r5]
 771:Drivers/STM32G4xx_HAL_Driver/Src/stm32g4xx_hal_dma.c ****     {
 1791              		.loc 1 771 8 view .LVU693
 1792 0046 9906     		lsls	r1, r3, #26
 1793              	.LVL92:
 771:Drivers/STM32G4xx_HAL_Driver/Src/stm32g4xx_hal_dma.c ****     {
 1794              		.loc 1 771 8 view .LVU694
 1795 0048 06D4     		bmi	.L124
 774:Drivers/STM32G4xx_HAL_Driver/Src/stm32g4xx_hal_dma.c **** 
 1796              		.loc 1 774 7 is_stmt 1 view .LVU695
 1797 004a 2B68     		ldr	r3, [r5]
 777:Drivers/STM32G4xx_HAL_Driver/Src/stm32g4xx_hal_dma.c ****     }
 1798              		.loc 1 777 19 is_stmt 0 view .LVU696
 1799 004c 0121     		movs	r1, #1
 774:Drivers/STM32G4xx_HAL_Driver/Src/stm32g4xx_hal_dma.c **** 
 1800              		.loc 1 774 7 view .LVU697
ARM GAS  /tmp/ccQfBzxp.s 			page 63


 1801 004e 23F00A03 		bic	r3, r3, #10
 1802 0052 2B60     		str	r3, [r5]
 777:Drivers/STM32G4xx_HAL_Driver/Src/stm32g4xx_hal_dma.c ****     }
 1803              		.loc 1 777 7 is_stmt 1 view .LVU698
 777:Drivers/STM32G4xx_HAL_Driver/Src/stm32g4xx_hal_dma.c ****     }
 1804              		.loc 1 777 19 is_stmt 0 view .LVU699
 1805 0054 80F82510 		strb	r1, [r0, #37]
 1806              	.L124:
 780:Drivers/STM32G4xx_HAL_Driver/Src/stm32g4xx_hal_dma.c **** 
 1807              		.loc 1 780 5 is_stmt 1 view .LVU700
 785:Drivers/STM32G4xx_HAL_Driver/Src/stm32g4xx_hal_dma.c ****     {
 1808              		.loc 1 785 13 is_stmt 0 view .LVU701
 1809 0058 C36A     		ldr	r3, [r0, #44]
 780:Drivers/STM32G4xx_HAL_Driver/Src/stm32g4xx_hal_dma.c **** 
 1810              		.loc 1 780 32 view .LVU702
 1811 005a 7260     		str	r2, [r6, #4]
 783:Drivers/STM32G4xx_HAL_Driver/Src/stm32g4xx_hal_dma.c **** 
 1812              		.loc 1 783 5 is_stmt 1 view .LVU703
 783:Drivers/STM32G4xx_HAL_Driver/Src/stm32g4xx_hal_dma.c **** 
 1813              		.loc 1 783 5 view .LVU704
 1814 005c 0022     		movs	r2, #0
 1815 005e 80F82420 		strb	r2, [r0, #36]
 783:Drivers/STM32G4xx_HAL_Driver/Src/stm32g4xx_hal_dma.c **** 
 1816              		.loc 1 783 5 view .LVU705
 785:Drivers/STM32G4xx_HAL_Driver/Src/stm32g4xx_hal_dma.c ****     {
 1817              		.loc 1 785 5 view .LVU706
 785:Drivers/STM32G4xx_HAL_Driver/Src/stm32g4xx_hal_dma.c ****     {
 1818              		.loc 1 785 8 is_stmt 0 view .LVU707
 1819 0062 002B     		cmp	r3, #0
 1820 0064 E5D1     		bne	.L151
 1821              	.LVL93:
 1822              	.L118:
 823:Drivers/STM32G4xx_HAL_Driver/Src/stm32g4xx_hal_dma.c **** 
 1823              		.loc 1 823 1 view .LVU708
 1824 0066 70BC     		pop	{r4, r5, r6}
 1825              	.LCFI25:
 1826              		.cfi_remember_state
 1827              		.cfi_restore 6
 1828              		.cfi_restore 5
 1829              		.cfi_restore 4
 1830              		.cfi_def_cfa_offset 0
 1831 0068 7047     		bx	lr
 1832              	.LVL94:
 1833              	.L123:
 1834              	.LCFI26:
 1835              		.cfi_restore_state
 792:Drivers/STM32G4xx_HAL_Driver/Src/stm32g4xx_hal_dma.c ****            && (0U != (source_it & DMA_IT_TE)))
 1836              		.loc 1 792 8 is_stmt 1 view .LVU709
 792:Drivers/STM32G4xx_HAL_Driver/Src/stm32g4xx_hal_dma.c ****            && (0U != (source_it & DMA_IT_TE)))
 1837              		.loc 1 792 54 is_stmt 0 view .LVU710
 1838 006a 0822     		movs	r2, #8
 1839 006c 9A40     		lsls	r2, r2, r3
 792:Drivers/STM32G4xx_HAL_Driver/Src/stm32g4xx_hal_dma.c ****            && (0U != (source_it & DMA_IT_TE)))
 1840              		.loc 1 792 11 view .LVU711
 1841 006e 0A42     		tst	r2, r1
 1842 0070 F9D0     		beq	.L118
 793:Drivers/STM32G4xx_HAL_Driver/Src/stm32g4xx_hal_dma.c ****   {
ARM GAS  /tmp/ccQfBzxp.s 			page 64


 1843              		.loc 1 793 12 view .LVU712
 1844 0072 2207     		lsls	r2, r4, #28
 1845 0074 F7D5     		bpl	.L118
 798:Drivers/STM32G4xx_HAL_Driver/Src/stm32g4xx_hal_dma.c **** 
 1846              		.loc 1 798 5 is_stmt 1 view .LVU713
 1847 0076 2A68     		ldr	r2, [r5]
 812:Drivers/STM32G4xx_HAL_Driver/Src/stm32g4xx_hal_dma.c ****     {
 1848              		.loc 1 812 13 is_stmt 0 view .LVU714
 1849 0078 416B     		ldr	r1, [r0, #52]
 1850              	.LVL95:
 798:Drivers/STM32G4xx_HAL_Driver/Src/stm32g4xx_hal_dma.c **** 
 1851              		.loc 1 798 5 view .LVU715
 1852 007a 22F00E02 		bic	r2, r2, #14
 1853 007e 2A60     		str	r2, [r5]
 801:Drivers/STM32G4xx_HAL_Driver/Src/stm32g4xx_hal_dma.c **** 
 1854              		.loc 1 801 5 is_stmt 1 view .LVU716
 801:Drivers/STM32G4xx_HAL_Driver/Src/stm32g4xx_hal_dma.c **** 
 1855              		.loc 1 801 58 is_stmt 0 view .LVU717
 1856 0080 0122     		movs	r2, #1
 1857 0082 02FA03F3 		lsl	r3, r2, r3
 810:Drivers/STM32G4xx_HAL_Driver/Src/stm32g4xx_hal_dma.c **** 
 1858              		.loc 1 810 5 view .LVU718
 1859 0086 0024     		movs	r4, #0
 1860              	.LVL96:
 801:Drivers/STM32G4xx_HAL_Driver/Src/stm32g4xx_hal_dma.c **** 
 1861              		.loc 1 801 32 view .LVU719
 1862 0088 7360     		str	r3, [r6, #4]
 804:Drivers/STM32G4xx_HAL_Driver/Src/stm32g4xx_hal_dma.c **** 
 1863              		.loc 1 804 5 is_stmt 1 view .LVU720
 804:Drivers/STM32G4xx_HAL_Driver/Src/stm32g4xx_hal_dma.c **** 
 1864              		.loc 1 804 21 is_stmt 0 view .LVU721
 1865 008a C263     		str	r2, [r0, #60]
 807:Drivers/STM32G4xx_HAL_Driver/Src/stm32g4xx_hal_dma.c **** 
 1866              		.loc 1 807 5 is_stmt 1 view .LVU722
 810:Drivers/STM32G4xx_HAL_Driver/Src/stm32g4xx_hal_dma.c **** 
 1867              		.loc 1 810 5 is_stmt 0 view .LVU723
 1868 008c 80F82440 		strb	r4, [r0, #36]
 807:Drivers/STM32G4xx_HAL_Driver/Src/stm32g4xx_hal_dma.c **** 
 1869              		.loc 1 807 17 view .LVU724
 1870 0090 80F82520 		strb	r2, [r0, #37]
 810:Drivers/STM32G4xx_HAL_Driver/Src/stm32g4xx_hal_dma.c **** 
 1871              		.loc 1 810 5 is_stmt 1 view .LVU725
 810:Drivers/STM32G4xx_HAL_Driver/Src/stm32g4xx_hal_dma.c **** 
 1872              		.loc 1 810 5 view .LVU726
 810:Drivers/STM32G4xx_HAL_Driver/Src/stm32g4xx_hal_dma.c **** 
 1873              		.loc 1 810 5 view .LVU727
 812:Drivers/STM32G4xx_HAL_Driver/Src/stm32g4xx_hal_dma.c ****     {
 1874              		.loc 1 812 5 view .LVU728
 812:Drivers/STM32G4xx_HAL_Driver/Src/stm32g4xx_hal_dma.c ****     {
 1875              		.loc 1 812 8 is_stmt 0 view .LVU729
 1876 0094 0029     		cmp	r1, #0
 1877 0096 E6D0     		beq	.L118
 815:Drivers/STM32G4xx_HAL_Driver/Src/stm32g4xx_hal_dma.c ****     }
 1878              		.loc 1 815 7 is_stmt 1 view .LVU730
 823:Drivers/STM32G4xx_HAL_Driver/Src/stm32g4xx_hal_dma.c **** 
 1879              		.loc 1 823 1 is_stmt 0 view .LVU731
 1880 0098 70BC     		pop	{r4, r5, r6}
ARM GAS  /tmp/ccQfBzxp.s 			page 65


 1881              	.LCFI27:
 1882              		.cfi_restore 6
 1883              		.cfi_restore 5
 1884              		.cfi_restore 4
 1885              		.cfi_def_cfa_offset 0
 815:Drivers/STM32G4xx_HAL_Driver/Src/stm32g4xx_hal_dma.c ****     }
 1886              		.loc 1 815 7 view .LVU732
 1887 009a 0847     		bx	r1	@ indirect register sibling call
 1888              	.LVL97:
 815:Drivers/STM32G4xx_HAL_Driver/Src/stm32g4xx_hal_dma.c ****     }
 1889              		.loc 1 815 7 view .LVU733
 1890              		.cfi_endproc
 1891              	.LFE336:
 1893              		.section	.text.HAL_DMA_RegisterCallback,"ax",%progbits
 1894              		.align	1
 1895              		.p2align 2,,3
 1896              		.global	HAL_DMA_RegisterCallback
 1897              		.syntax unified
 1898              		.thumb
 1899              		.thumb_func
 1900              		.fpu fpv4-sp-d16
 1902              	HAL_DMA_RegisterCallback:
 1903              	.LVL98:
 1904              	.LFB337:
 836:Drivers/STM32G4xx_HAL_Driver/Src/stm32g4xx_hal_dma.c ****   HAL_StatusTypeDef status = HAL_OK;
 1905              		.loc 1 836 1 is_stmt 1 view -0
 1906              		.cfi_startproc
 1907              		@ args = 0, pretend = 0, frame = 0
 1908              		@ frame_needed = 0, uses_anonymous_args = 0
 1909              		@ link register save eliminated.
 837:Drivers/STM32G4xx_HAL_Driver/Src/stm32g4xx_hal_dma.c **** 
 1910              		.loc 1 837 3 view .LVU735
 840:Drivers/STM32G4xx_HAL_Driver/Src/stm32g4xx_hal_dma.c **** 
 1911              		.loc 1 840 3 view .LVU736
 840:Drivers/STM32G4xx_HAL_Driver/Src/stm32g4xx_hal_dma.c **** 
 1912              		.loc 1 840 3 view .LVU737
 1913 0000 90F82430 		ldrb	r3, [r0, #36]	@ zero_extendqisi2
 1914 0004 012B     		cmp	r3, #1
 1915 0006 1FD0     		beq	.L160
 840:Drivers/STM32G4xx_HAL_Driver/Src/stm32g4xx_hal_dma.c **** 
 1916              		.loc 1 840 3 discriminator 2 view .LVU738
 840:Drivers/STM32G4xx_HAL_Driver/Src/stm32g4xx_hal_dma.c **** 
 1917              		.loc 1 840 3 discriminator 2 view .LVU739
 842:Drivers/STM32G4xx_HAL_Driver/Src/stm32g4xx_hal_dma.c ****   {
 1918              		.loc 1 842 3 discriminator 2 view .LVU740
 836:Drivers/STM32G4xx_HAL_Driver/Src/stm32g4xx_hal_dma.c ****   HAL_StatusTypeDef status = HAL_OK;
 1919              		.loc 1 836 1 is_stmt 0 discriminator 2 view .LVU741
 1920 0008 10B4     		push	{r4}
 1921              	.LCFI28:
 1922              		.cfi_def_cfa_offset 4
 1923              		.cfi_offset 4, -4
 842:Drivers/STM32G4xx_HAL_Driver/Src/stm32g4xx_hal_dma.c ****   {
 1924              		.loc 1 842 34 discriminator 2 view .LVU742
 1925 000a 90F82540 		ldrb	r4, [r0, #37]	@ zero_extendqisi2
 842:Drivers/STM32G4xx_HAL_Driver/Src/stm32g4xx_hal_dma.c ****   {
 1926              		.loc 1 842 6 discriminator 2 view .LVU743
 1927 000e 012C     		cmp	r4, #1
ARM GAS  /tmp/ccQfBzxp.s 			page 66


 842:Drivers/STM32G4xx_HAL_Driver/Src/stm32g4xx_hal_dma.c ****   {
 1928              		.loc 1 842 34 discriminator 2 view .LVU744
 1929 0010 E3B2     		uxtb	r3, r4
 842:Drivers/STM32G4xx_HAL_Driver/Src/stm32g4xx_hal_dma.c ****   {
 1930              		.loc 1 842 6 discriminator 2 view .LVU745
 1931 0012 07D0     		beq	.L166
 869:Drivers/STM32G4xx_HAL_Driver/Src/stm32g4xx_hal_dma.c ****   }
 1932              		.loc 1 869 12 view .LVU746
 1933 0014 0123     		movs	r3, #1
 1934              	.L154:
 1935              	.LVL99:
 873:Drivers/STM32G4xx_HAL_Driver/Src/stm32g4xx_hal_dma.c **** 
 1936              		.loc 1 873 3 is_stmt 1 view .LVU747
 873:Drivers/STM32G4xx_HAL_Driver/Src/stm32g4xx_hal_dma.c **** 
 1937              		.loc 1 873 3 view .LVU748
 1938 0016 0022     		movs	r2, #0
 1939              	.LVL100:
 873:Drivers/STM32G4xx_HAL_Driver/Src/stm32g4xx_hal_dma.c **** 
 1940              		.loc 1 873 3 is_stmt 0 view .LVU749
 1941 0018 80F82420 		strb	r2, [r0, #36]
 873:Drivers/STM32G4xx_HAL_Driver/Src/stm32g4xx_hal_dma.c **** 
 1942              		.loc 1 873 3 is_stmt 1 view .LVU750
 875:Drivers/STM32G4xx_HAL_Driver/Src/stm32g4xx_hal_dma.c **** }
 1943              		.loc 1 875 3 view .LVU751
 876:Drivers/STM32G4xx_HAL_Driver/Src/stm32g4xx_hal_dma.c **** 
 1944              		.loc 1 876 1 is_stmt 0 view .LVU752
 1945 001c 5DF8044B 		ldr	r4, [sp], #4
 1946              	.LCFI29:
 1947              		.cfi_remember_state
 1948              		.cfi_restore 4
 1949              		.cfi_def_cfa_offset 0
 1950 0020 1846     		mov	r0, r3
 1951              	.LVL101:
 876:Drivers/STM32G4xx_HAL_Driver/Src/stm32g4xx_hal_dma.c **** 
 1952              		.loc 1 876 1 view .LVU753
 1953 0022 7047     		bx	lr
 1954              	.LVL102:
 1955              	.L166:
 1956              	.LCFI30:
 1957              		.cfi_restore_state
 844:Drivers/STM32G4xx_HAL_Driver/Src/stm32g4xx_hal_dma.c ****     {
 1958              		.loc 1 844 5 is_stmt 1 view .LVU754
 1959 0024 0329     		cmp	r1, #3
 1960 0026 F6D8     		bhi	.L154
 1961 0028 DFE801F0 		tbb	[pc, r1]
 1962              	.L156:
 1963 002c 05       		.byte	(.L159-.L156)/2
 1964 002d 08       		.byte	(.L158-.L156)/2
 1965 002e 0B       		.byte	(.L157-.L156)/2
 1966 002f 02       		.byte	(.L155-.L156)/2
 1967              		.p2align 1
 1968              	.L155:
 859:Drivers/STM32G4xx_HAL_Driver/Src/stm32g4xx_hal_dma.c ****         break;
 1969              		.loc 1 859 9 view .LVU755
 859:Drivers/STM32G4xx_HAL_Driver/Src/stm32g4xx_hal_dma.c ****         break;
 1970              		.loc 1 859 33 is_stmt 0 view .LVU756
 1971 0030 8263     		str	r2, [r0, #56]
ARM GAS  /tmp/ccQfBzxp.s 			page 67


 860:Drivers/STM32G4xx_HAL_Driver/Src/stm32g4xx_hal_dma.c **** 
 1972              		.loc 1 860 9 is_stmt 1 view .LVU757
 837:Drivers/STM32G4xx_HAL_Driver/Src/stm32g4xx_hal_dma.c **** 
 1973              		.loc 1 837 21 is_stmt 0 view .LVU758
 1974 0032 0023     		movs	r3, #0
 860:Drivers/STM32G4xx_HAL_Driver/Src/stm32g4xx_hal_dma.c **** 
 1975              		.loc 1 860 9 view .LVU759
 1976 0034 EFE7     		b	.L154
 1977              	.L159:
 847:Drivers/STM32G4xx_HAL_Driver/Src/stm32g4xx_hal_dma.c ****         break;
 1978              		.loc 1 847 9 is_stmt 1 view .LVU760
 847:Drivers/STM32G4xx_HAL_Driver/Src/stm32g4xx_hal_dma.c ****         break;
 1979              		.loc 1 847 32 is_stmt 0 view .LVU761
 1980 0036 C262     		str	r2, [r0, #44]
 848:Drivers/STM32G4xx_HAL_Driver/Src/stm32g4xx_hal_dma.c **** 
 1981              		.loc 1 848 9 is_stmt 1 view .LVU762
 837:Drivers/STM32G4xx_HAL_Driver/Src/stm32g4xx_hal_dma.c **** 
 1982              		.loc 1 837 21 is_stmt 0 view .LVU763
 1983 0038 0B46     		mov	r3, r1
 848:Drivers/STM32G4xx_HAL_Driver/Src/stm32g4xx_hal_dma.c **** 
 1984              		.loc 1 848 9 view .LVU764
 1985 003a ECE7     		b	.L154
 1986              	.L158:
 851:Drivers/STM32G4xx_HAL_Driver/Src/stm32g4xx_hal_dma.c ****         break;
 1987              		.loc 1 851 9 is_stmt 1 view .LVU765
 851:Drivers/STM32G4xx_HAL_Driver/Src/stm32g4xx_hal_dma.c ****         break;
 1988              		.loc 1 851 36 is_stmt 0 view .LVU766
 1989 003c 0263     		str	r2, [r0, #48]
 852:Drivers/STM32G4xx_HAL_Driver/Src/stm32g4xx_hal_dma.c **** 
 1990              		.loc 1 852 9 is_stmt 1 view .LVU767
 837:Drivers/STM32G4xx_HAL_Driver/Src/stm32g4xx_hal_dma.c **** 
 1991              		.loc 1 837 21 is_stmt 0 view .LVU768
 1992 003e 0023     		movs	r3, #0
 852:Drivers/STM32G4xx_HAL_Driver/Src/stm32g4xx_hal_dma.c **** 
 1993              		.loc 1 852 9 view .LVU769
 1994 0040 E9E7     		b	.L154
 1995              	.L157:
 855:Drivers/STM32G4xx_HAL_Driver/Src/stm32g4xx_hal_dma.c ****         break;
 1996              		.loc 1 855 9 is_stmt 1 view .LVU770
 855:Drivers/STM32G4xx_HAL_Driver/Src/stm32g4xx_hal_dma.c ****         break;
 1997              		.loc 1 855 33 is_stmt 0 view .LVU771
 1998 0042 4263     		str	r2, [r0, #52]
 856:Drivers/STM32G4xx_HAL_Driver/Src/stm32g4xx_hal_dma.c **** 
 1999              		.loc 1 856 9 is_stmt 1 view .LVU772
 837:Drivers/STM32G4xx_HAL_Driver/Src/stm32g4xx_hal_dma.c **** 
 2000              		.loc 1 837 21 is_stmt 0 view .LVU773
 2001 0044 0023     		movs	r3, #0
 856:Drivers/STM32G4xx_HAL_Driver/Src/stm32g4xx_hal_dma.c **** 
 2002              		.loc 1 856 9 view .LVU774
 2003 0046 E6E7     		b	.L154
 2004              	.L160:
 2005              	.LCFI31:
 2006              		.cfi_def_cfa_offset 0
 2007              		.cfi_restore 4
 840:Drivers/STM32G4xx_HAL_Driver/Src/stm32g4xx_hal_dma.c **** 
 2008              		.loc 1 840 3 view .LVU775
 2009 0048 0223     		movs	r3, #2
ARM GAS  /tmp/ccQfBzxp.s 			page 68


 876:Drivers/STM32G4xx_HAL_Driver/Src/stm32g4xx_hal_dma.c **** 
 2010              		.loc 1 876 1 view .LVU776
 2011 004a 1846     		mov	r0, r3
 2012              	.LVL103:
 876:Drivers/STM32G4xx_HAL_Driver/Src/stm32g4xx_hal_dma.c **** 
 2013              		.loc 1 876 1 view .LVU777
 2014 004c 7047     		bx	lr
 2015              		.cfi_endproc
 2016              	.LFE337:
 2018 004e 00BF     		.section	.text.HAL_DMA_UnRegisterCallback,"ax",%progbits
 2019              		.align	1
 2020              		.p2align 2,,3
 2021              		.global	HAL_DMA_UnRegisterCallback
 2022              		.syntax unified
 2023              		.thumb
 2024              		.thumb_func
 2025              		.fpu fpv4-sp-d16
 2027              	HAL_DMA_UnRegisterCallback:
 2028              	.LVL104:
 2029              	.LFB338:
 887:Drivers/STM32G4xx_HAL_Driver/Src/stm32g4xx_hal_dma.c ****   HAL_StatusTypeDef status = HAL_OK;
 2030              		.loc 1 887 1 is_stmt 1 view -0
 2031              		.cfi_startproc
 2032              		@ args = 0, pretend = 0, frame = 0
 2033              		@ frame_needed = 0, uses_anonymous_args = 0
 2034              		@ link register save eliminated.
 888:Drivers/STM32G4xx_HAL_Driver/Src/stm32g4xx_hal_dma.c **** 
 2035              		.loc 1 888 3 view .LVU779
 891:Drivers/STM32G4xx_HAL_Driver/Src/stm32g4xx_hal_dma.c **** 
 2036              		.loc 1 891 3 view .LVU780
 891:Drivers/STM32G4xx_HAL_Driver/Src/stm32g4xx_hal_dma.c **** 
 2037              		.loc 1 891 3 view .LVU781
 2038 0000 90F82430 		ldrb	r3, [r0, #36]	@ zero_extendqisi2
 2039 0004 012B     		cmp	r3, #1
 2040 0006 17D0     		beq	.L176
 891:Drivers/STM32G4xx_HAL_Driver/Src/stm32g4xx_hal_dma.c **** 
 2041              		.loc 1 891 3 discriminator 2 view .LVU782
 887:Drivers/STM32G4xx_HAL_Driver/Src/stm32g4xx_hal_dma.c ****   HAL_StatusTypeDef status = HAL_OK;
 2042              		.loc 1 887 1 is_stmt 0 discriminator 2 view .LVU783
 2043 0008 10B4     		push	{r4}
 2044              	.LCFI32:
 2045              		.cfi_def_cfa_offset 4
 2046              		.cfi_offset 4, -4
 893:Drivers/STM32G4xx_HAL_Driver/Src/stm32g4xx_hal_dma.c ****   {
 2047              		.loc 1 893 34 discriminator 2 view .LVU784
 2048 000a 90F82520 		ldrb	r2, [r0, #37]	@ zero_extendqisi2
 891:Drivers/STM32G4xx_HAL_Driver/Src/stm32g4xx_hal_dma.c **** 
 2049              		.loc 1 891 3 discriminator 2 view .LVU785
 2050 000e 0124     		movs	r4, #1
 893:Drivers/STM32G4xx_HAL_Driver/Src/stm32g4xx_hal_dma.c ****   {
 2051              		.loc 1 893 6 discriminator 2 view .LVU786
 2052 0010 A242     		cmp	r2, r4
 893:Drivers/STM32G4xx_HAL_Driver/Src/stm32g4xx_hal_dma.c ****   {
 2053              		.loc 1 893 34 discriminator 2 view .LVU787
 2054 0012 D3B2     		uxtb	r3, r2
 891:Drivers/STM32G4xx_HAL_Driver/Src/stm32g4xx_hal_dma.c **** 
 2055              		.loc 1 891 3 discriminator 2 view .LVU788
ARM GAS  /tmp/ccQfBzxp.s 			page 69


 2056 0014 80F82440 		strb	r4, [r0, #36]
 891:Drivers/STM32G4xx_HAL_Driver/Src/stm32g4xx_hal_dma.c **** 
 2057              		.loc 1 891 3 is_stmt 1 discriminator 2 view .LVU789
 893:Drivers/STM32G4xx_HAL_Driver/Src/stm32g4xx_hal_dma.c ****   {
 2058              		.loc 1 893 3 discriminator 2 view .LVU790
 893:Drivers/STM32G4xx_HAL_Driver/Src/stm32g4xx_hal_dma.c ****   {
 2059              		.loc 1 893 6 is_stmt 0 discriminator 2 view .LVU791
 2060 0018 07D0     		beq	.L182
 927:Drivers/STM32G4xx_HAL_Driver/Src/stm32g4xx_hal_dma.c ****   }
 2061              		.loc 1 927 12 view .LVU792
 2062 001a 2346     		mov	r3, r4
 2063              	.L169:
 2064              	.LVL105:
 931:Drivers/STM32G4xx_HAL_Driver/Src/stm32g4xx_hal_dma.c **** 
 2065              		.loc 1 931 3 is_stmt 1 view .LVU793
 931:Drivers/STM32G4xx_HAL_Driver/Src/stm32g4xx_hal_dma.c **** 
 2066              		.loc 1 931 3 view .LVU794
 2067 001c 0022     		movs	r2, #0
 2068 001e 80F82420 		strb	r2, [r0, #36]
 931:Drivers/STM32G4xx_HAL_Driver/Src/stm32g4xx_hal_dma.c **** 
 2069              		.loc 1 931 3 view .LVU795
 933:Drivers/STM32G4xx_HAL_Driver/Src/stm32g4xx_hal_dma.c **** }
 2070              		.loc 1 933 3 view .LVU796
 934:Drivers/STM32G4xx_HAL_Driver/Src/stm32g4xx_hal_dma.c **** 
 2071              		.loc 1 934 1 is_stmt 0 view .LVU797
 2072 0022 5DF8044B 		ldr	r4, [sp], #4
 2073              	.LCFI33:
 2074              		.cfi_remember_state
 2075              		.cfi_restore 4
 2076              		.cfi_def_cfa_offset 0
 2077 0026 1846     		mov	r0, r3
 2078              	.LVL106:
 934:Drivers/STM32G4xx_HAL_Driver/Src/stm32g4xx_hal_dma.c **** 
 2079              		.loc 1 934 1 view .LVU798
 2080 0028 7047     		bx	lr
 2081              	.LVL107:
 2082              	.L182:
 2083              	.LCFI34:
 2084              		.cfi_restore_state
 895:Drivers/STM32G4xx_HAL_Driver/Src/stm32g4xx_hal_dma.c ****     {
 2085              		.loc 1 895 5 is_stmt 1 view .LVU799
 2086 002a 0429     		cmp	r1, #4
 2087 002c F6D8     		bhi	.L169
 2088 002e DFE801F0 		tbb	[pc, r1]
 2089              	.L171:
 2090 0032 15       		.byte	(.L175-.L171)/2
 2091 0033 12       		.byte	(.L174-.L171)/2
 2092 0034 0F       		.byte	(.L173-.L171)/2
 2093 0035 0C       		.byte	(.L172-.L171)/2
 2094 0036 06       		.byte	(.L170-.L171)/2
 2095 0037 00       		.p2align 1
 2096              	.L176:
 2097              	.LCFI35:
 2098              		.cfi_def_cfa_offset 0
 2099              		.cfi_restore 4
 891:Drivers/STM32G4xx_HAL_Driver/Src/stm32g4xx_hal_dma.c **** 
 2100              		.loc 1 891 3 is_stmt 0 view .LVU800
ARM GAS  /tmp/ccQfBzxp.s 			page 70


 2101 0038 0223     		movs	r3, #2
 934:Drivers/STM32G4xx_HAL_Driver/Src/stm32g4xx_hal_dma.c **** 
 2102              		.loc 1 934 1 view .LVU801
 2103 003a 1846     		mov	r0, r3
 2104              	.LVL108:
 934:Drivers/STM32G4xx_HAL_Driver/Src/stm32g4xx_hal_dma.c **** 
 2105              		.loc 1 934 1 view .LVU802
 2106 003c 7047     		bx	lr
 2107              	.LVL109:
 2108              	.L170:
 2109              	.LCFI36:
 2110              		.cfi_def_cfa_offset 4
 2111              		.cfi_offset 4, -4
 914:Drivers/STM32G4xx_HAL_Driver/Src/stm32g4xx_hal_dma.c ****         hdma->XferHalfCpltCallback = NULL;
 2112              		.loc 1 914 9 is_stmt 1 view .LVU803
 914:Drivers/STM32G4xx_HAL_Driver/Src/stm32g4xx_hal_dma.c ****         hdma->XferHalfCpltCallback = NULL;
 2113              		.loc 1 914 32 is_stmt 0 view .LVU804
 2114 003e 0023     		movs	r3, #0
 915:Drivers/STM32G4xx_HAL_Driver/Src/stm32g4xx_hal_dma.c ****         hdma->XferErrorCallback = NULL;
 2115              		.loc 1 915 36 view .LVU805
 2116 0040 C0E90B33 		strd	r3, r3, [r0, #44]
 916:Drivers/STM32G4xx_HAL_Driver/Src/stm32g4xx_hal_dma.c ****         hdma->XferAbortCallback = NULL;
 2117              		.loc 1 916 9 is_stmt 1 view .LVU806
 917:Drivers/STM32G4xx_HAL_Driver/Src/stm32g4xx_hal_dma.c ****         break;
 2118              		.loc 1 917 33 is_stmt 0 view .LVU807
 2119 0044 C0E90D33 		strd	r3, r3, [r0, #52]
 918:Drivers/STM32G4xx_HAL_Driver/Src/stm32g4xx_hal_dma.c **** 
 2120              		.loc 1 918 9 is_stmt 1 view .LVU808
 2121 0048 E8E7     		b	.L169
 2122              	.L172:
 910:Drivers/STM32G4xx_HAL_Driver/Src/stm32g4xx_hal_dma.c ****         break;
 2123              		.loc 1 910 9 view .LVU809
 910:Drivers/STM32G4xx_HAL_Driver/Src/stm32g4xx_hal_dma.c ****         break;
 2124              		.loc 1 910 33 is_stmt 0 view .LVU810
 2125 004a 0023     		movs	r3, #0
