ARM GAS  /tmp/cc2tlrck.s 			page 1


   1              		.cpu cortex-m4
   2              		.eabi_attribute 27, 1
   3              		.eabi_attribute 28, 1
   4              		.eabi_attribute 20, 1
   5              		.eabi_attribute 21, 1
   6              		.eabi_attribute 23, 3
   7              		.eabi_attribute 24, 1
   8              		.eabi_attribute 25, 1
   9              		.eabi_attribute 26, 1
  10              		.eabi_attribute 30, 2
  11              		.eabi_attribute 34, 1
  12              		.eabi_attribute 18, 4
  13              		.file	"stm32g4xx_it.c"
  14              		.text
  15              	.Ltext0:
  16              		.cfi_sections	.debug_frame
  17              		.section	.text.NMI_Handler,"ax",%progbits
  18              		.align	1
  19              		.p2align 2,,3
  20              		.global	NMI_Handler
  21              		.arch armv7e-m
  22              		.syntax unified
  23              		.thumb
  24              		.thumb_func
  25              		.fpu fpv4-sp-d16
  27              	NMI_Handler:
  28              	.LFB1315:
  29              		.file 1 "Core/Src/stm32g4xx_it.c"
   1:Core/Src/stm32g4xx_it.c **** /* USER CODE BEGIN Header */
   2:Core/Src/stm32g4xx_it.c **** /**
   3:Core/Src/stm32g4xx_it.c ****   ******************************************************************************
   4:Core/Src/stm32g4xx_it.c ****   * @file    stm32g4xx_it.c
   5:Core/Src/stm32g4xx_it.c ****   * @brief   Interrupt Service Routines.
   6:Core/Src/stm32g4xx_it.c ****   ******************************************************************************
   7:Core/Src/stm32g4xx_it.c ****   * @attention
   8:Core/Src/stm32g4xx_it.c ****   *
   9:Core/Src/stm32g4xx_it.c ****   * <h2><center>&copy; Copyright (c) 2020 STMicroelectronics.
  10:Core/Src/stm32g4xx_it.c ****   * All rights reserved.</center></h2>
  11:Core/Src/stm32g4xx_it.c ****   *
  12:Core/Src/stm32g4xx_it.c ****   * This software component is licensed by ST under Ultimate Liberty license
  13:Core/Src/stm32g4xx_it.c ****   * SLA0044, the "License"; You may not use this file except in compliance with
  14:Core/Src/stm32g4xx_it.c ****   * the License. You may obtain a copy of the License at:
  15:Core/Src/stm32g4xx_it.c ****   *                             www.st.com/SLA0044
  16:Core/Src/stm32g4xx_it.c ****   *
  17:Core/Src/stm32g4xx_it.c ****   ******************************************************************************
  18:Core/Src/stm32g4xx_it.c ****   */
  19:Core/Src/stm32g4xx_it.c **** /* USER CODE END Header */
  20:Core/Src/stm32g4xx_it.c **** 
  21:Core/Src/stm32g4xx_it.c **** /* Includes ------------------------------------------------------------------*/
  22:Core/Src/stm32g4xx_it.c **** #include "main.h"
  23:Core/Src/stm32g4xx_it.c **** #include "stm32g4xx_it.h"
  24:Core/Src/stm32g4xx_it.c **** /* Private includes ----------------------------------------------------------*/
  25:Core/Src/stm32g4xx_it.c **** /* USER CODE BEGIN Includes */
  26:Core/Src/stm32g4xx_it.c **** #include "FreeRTOS.h"
  27:Core/Src/stm32g4xx_it.c **** #include "cmsis_os.h"
  28:Core/Src/stm32g4xx_it.c **** #include "shared.h"
  29:Core/Src/stm32g4xx_it.c **** /* USER CODE END Includes */
ARM GAS  /tmp/cc2tlrck.s 			page 2


  30:Core/Src/stm32g4xx_it.c **** 
  31:Core/Src/stm32g4xx_it.c **** /* Private typedef -----------------------------------------------------------*/
  32:Core/Src/stm32g4xx_it.c **** /* USER CODE BEGIN TD */
  33:Core/Src/stm32g4xx_it.c **** 
  34:Core/Src/stm32g4xx_it.c **** /* USER CODE END TD */
  35:Core/Src/stm32g4xx_it.c **** 
  36:Core/Src/stm32g4xx_it.c **** /* Private define ------------------------------------------------------------*/
  37:Core/Src/stm32g4xx_it.c **** /* USER CODE BEGIN PD */
  38:Core/Src/stm32g4xx_it.c **** 
  39:Core/Src/stm32g4xx_it.c **** /* USER CODE END PD */
  40:Core/Src/stm32g4xx_it.c **** 
  41:Core/Src/stm32g4xx_it.c **** /* Private macro -------------------------------------------------------------*/
  42:Core/Src/stm32g4xx_it.c **** /* USER CODE BEGIN PM */
  43:Core/Src/stm32g4xx_it.c **** 
  44:Core/Src/stm32g4xx_it.c **** /* USER CODE END PM */
  45:Core/Src/stm32g4xx_it.c **** 
  46:Core/Src/stm32g4xx_it.c **** /* Private variables ---------------------------------------------------------*/
  47:Core/Src/stm32g4xx_it.c **** /* USER CODE BEGIN PV */
  48:Core/Src/stm32g4xx_it.c **** 
  49:Core/Src/stm32g4xx_it.c **** /* USER CODE END PV */
  50:Core/Src/stm32g4xx_it.c **** 
  51:Core/Src/stm32g4xx_it.c **** /* Private function prototypes -----------------------------------------------*/
  52:Core/Src/stm32g4xx_it.c **** /* USER CODE BEGIN PFP */
  53:Core/Src/stm32g4xx_it.c **** 
  54:Core/Src/stm32g4xx_it.c **** /* USER CODE END PFP */
  55:Core/Src/stm32g4xx_it.c **** 
  56:Core/Src/stm32g4xx_it.c **** /* Private user code ---------------------------------------------------------*/
  57:Core/Src/stm32g4xx_it.c **** /* USER CODE BEGIN 0 */
  58:Core/Src/stm32g4xx_it.c **** 
  59:Core/Src/stm32g4xx_it.c **** /* USER CODE END 0 */
  60:Core/Src/stm32g4xx_it.c **** 
  61:Core/Src/stm32g4xx_it.c **** /* External variables --------------------------------------------------------*/
  62:Core/Src/stm32g4xx_it.c **** extern TIM_HandleTypeDef htim6;
  63:Core/Src/stm32g4xx_it.c **** 
  64:Core/Src/stm32g4xx_it.c **** /* USER CODE BEGIN EV */
  65:Core/Src/stm32g4xx_it.c **** 
  66:Core/Src/stm32g4xx_it.c **** /* USER CODE END EV */
  67:Core/Src/stm32g4xx_it.c **** 
  68:Core/Src/stm32g4xx_it.c **** /******************************************************************************/
  69:Core/Src/stm32g4xx_it.c **** /*           Cortex-M4 Processor Interruption and Exception Handlers          */
  70:Core/Src/stm32g4xx_it.c **** /******************************************************************************/
  71:Core/Src/stm32g4xx_it.c **** /**
  72:Core/Src/stm32g4xx_it.c ****   * @brief This function handles Non maskable interrupt.
  73:Core/Src/stm32g4xx_it.c ****   */
  74:Core/Src/stm32g4xx_it.c **** void NMI_Handler(void)
  75:Core/Src/stm32g4xx_it.c **** {
  30              		.loc 1 75 1 view -0
  31              		.cfi_startproc
  32              		@ args = 0, pretend = 0, frame = 0
  33              		@ frame_needed = 0, uses_anonymous_args = 0
  34              		@ link register save eliminated.
  76:Core/Src/stm32g4xx_it.c ****   /* USER CODE BEGIN NonMaskableInt_IRQn 0 */
  77:Core/Src/stm32g4xx_it.c **** 
  78:Core/Src/stm32g4xx_it.c ****   /* USER CODE END NonMaskableInt_IRQn 0 */
  79:Core/Src/stm32g4xx_it.c ****   /* USER CODE BEGIN NonMaskableInt_IRQn 1 */
  80:Core/Src/stm32g4xx_it.c **** 
  81:Core/Src/stm32g4xx_it.c ****   /* USER CODE END NonMaskableInt_IRQn 1 */
ARM GAS  /tmp/cc2tlrck.s 			page 3


  82:Core/Src/stm32g4xx_it.c **** }
  35              		.loc 1 82 1 view .LVU1
  36 0000 7047     		bx	lr
  37              		.cfi_endproc
  38              	.LFE1315:
  40 0002 00BF     		.section	.text.HardFault_Handler,"ax",%progbits
  41              		.align	1
  42              		.p2align 2,,3
  43              		.global	HardFault_Handler
  44              		.syntax unified
  45              		.thumb
  46              		.thumb_func
  47              		.fpu fpv4-sp-d16
  49              	HardFault_Handler:
  50              	.LFB1316:
  83:Core/Src/stm32g4xx_it.c **** 
  84:Core/Src/stm32g4xx_it.c **** /**
  85:Core/Src/stm32g4xx_it.c ****   * @brief This function handles Hard fault interrupt.
  86:Core/Src/stm32g4xx_it.c ****   */
  87:Core/Src/stm32g4xx_it.c **** void HardFault_Handler(void)
  88:Core/Src/stm32g4xx_it.c **** {
  51              		.loc 1 88 1 view -0
  52              		.cfi_startproc
  53              		@ Volatile: function does not return.
  54              		@ args = 0, pretend = 0, frame = 0
  55              		@ frame_needed = 0, uses_anonymous_args = 0
  56              		@ link register save eliminated.
  57              	.L4:
  89:Core/Src/stm32g4xx_it.c ****   /* USER CODE BEGIN HardFault_IRQn 0 */
  90:Core/Src/stm32g4xx_it.c **** 
  91:Core/Src/stm32g4xx_it.c ****   /* USER CODE END HardFault_IRQn 0 */
  92:Core/Src/stm32g4xx_it.c ****   while (1)
  58              		.loc 1 92 3 discriminator 1 view .LVU3
  93:Core/Src/stm32g4xx_it.c ****   {
  94:Core/Src/stm32g4xx_it.c ****     /* USER CODE BEGIN W1_HardFault_IRQn 0 */
  95:Core/Src/stm32g4xx_it.c ****     /* USER CODE END W1_HardFault_IRQn 0 */
  96:Core/Src/stm32g4xx_it.c ****   }
  59              		.loc 1 96 3 discriminator 1 view .LVU4
  92:Core/Src/stm32g4xx_it.c ****   {
  60              		.loc 1 92 9 discriminator 1 view .LVU5
  61 0000 FEE7     		b	.L4
  62              		.cfi_endproc
  63              	.LFE1316:
  65 0002 00BF     		.section	.text.MemManage_Handler,"ax",%progbits
  66              		.align	1
  67              		.p2align 2,,3
  68              		.global	MemManage_Handler
  69              		.syntax unified
  70              		.thumb
  71              		.thumb_func
  72              		.fpu fpv4-sp-d16
  74              	MemManage_Handler:
  75              	.LFB1317:
  97:Core/Src/stm32g4xx_it.c **** }
  98:Core/Src/stm32g4xx_it.c **** 
  99:Core/Src/stm32g4xx_it.c **** /**
 100:Core/Src/stm32g4xx_it.c ****   * @brief This function handles Memory management fault.
ARM GAS  /tmp/cc2tlrck.s 			page 4


 101:Core/Src/stm32g4xx_it.c ****   */
 102:Core/Src/stm32g4xx_it.c **** void MemManage_Handler(void)
 103:Core/Src/stm32g4xx_it.c **** {
  76              		.loc 1 103 1 view -0
  77              		.cfi_startproc
  78              		@ Volatile: function does not return.
  79              		@ args = 0, pretend = 0, frame = 0
  80              		@ frame_needed = 0, uses_anonymous_args = 0
  81              		@ link register save eliminated.
  82              	.L6:
 104:Core/Src/stm32g4xx_it.c ****   /* USER CODE BEGIN MemoryManagement_IRQn 0 */
 105:Core/Src/stm32g4xx_it.c **** 
 106:Core/Src/stm32g4xx_it.c ****   /* USER CODE END MemoryManagement_IRQn 0 */
 107:Core/Src/stm32g4xx_it.c ****   while (1)
  83              		.loc 1 107 3 discriminator 1 view .LVU7
 108:Core/Src/stm32g4xx_it.c ****   {
 109:Core/Src/stm32g4xx_it.c ****     /* USER CODE BEGIN W1_MemoryManagement_IRQn 0 */
 110:Core/Src/stm32g4xx_it.c ****     /* USER CODE END W1_MemoryManagement_IRQn 0 */
 111:Core/Src/stm32g4xx_it.c ****   }
  84              		.loc 1 111 3 discriminator 1 view .LVU8
 107:Core/Src/stm32g4xx_it.c ****   {
  85              		.loc 1 107 9 discriminator 1 view .LVU9
  86 0000 FEE7     		b	.L6
  87              		.cfi_endproc
  88              	.LFE1317:
  90 0002 00BF     		.section	.text.BusFault_Handler,"ax",%progbits
  91              		.align	1
  92              		.p2align 2,,3
  93              		.global	BusFault_Handler
  94              		.syntax unified
  95              		.thumb
  96              		.thumb_func
  97              		.fpu fpv4-sp-d16
  99              	BusFault_Handler:
 100              	.LFB1318:
 112:Core/Src/stm32g4xx_it.c **** }
 113:Core/Src/stm32g4xx_it.c **** 
 114:Core/Src/stm32g4xx_it.c **** /**
 115:Core/Src/stm32g4xx_it.c ****   * @brief This function handles Prefetch fault, memory access fault.
 116:Core/Src/stm32g4xx_it.c ****   */
 117:Core/Src/stm32g4xx_it.c **** void BusFault_Handler(void)
 118:Core/Src/stm32g4xx_it.c **** {
 101              		.loc 1 118 1 view -0
 102              		.cfi_startproc
 103              		@ Volatile: function does not return.
 104              		@ args = 0, pretend = 0, frame = 0
 105              		@ frame_needed = 0, uses_anonymous_args = 0
 106              		@ link register save eliminated.
 107              	.L8:
 119:Core/Src/stm32g4xx_it.c ****   /* USER CODE BEGIN BusFault_IRQn 0 */
 120:Core/Src/stm32g4xx_it.c **** 
 121:Core/Src/stm32g4xx_it.c ****   /* USER CODE END BusFault_IRQn 0 */
 122:Core/Src/stm32g4xx_it.c ****   while (1)
 108              		.loc 1 122 3 discriminator 1 view .LVU11
 123:Core/Src/stm32g4xx_it.c ****   {
 124:Core/Src/stm32g4xx_it.c ****     /* USER CODE BEGIN W1_BusFault_IRQn 0 */
 125:Core/Src/stm32g4xx_it.c ****     /* USER CODE END W1_BusFault_IRQn 0 */
ARM GAS  /tmp/cc2tlrck.s 			page 5


 126:Core/Src/stm32g4xx_it.c ****   }
 109              		.loc 1 126 3 discriminator 1 view .LVU12
 122:Core/Src/stm32g4xx_it.c ****   {
 110              		.loc 1 122 9 discriminator 1 view .LVU13
 111 0000 FEE7     		b	.L8
 112              		.cfi_endproc
 113              	.LFE1318:
 115 0002 00BF     		.section	.text.UsageFault_Handler,"ax",%progbits
 116              		.align	1
 117              		.p2align 2,,3
 118              		.global	UsageFault_Handler
 119              		.syntax unified
 120              		.thumb
 121              		.thumb_func
 122              		.fpu fpv4-sp-d16
 124              	UsageFault_Handler:
 125              	.LFB1319:
 127:Core/Src/stm32g4xx_it.c **** }
 128:Core/Src/stm32g4xx_it.c **** 
 129:Core/Src/stm32g4xx_it.c **** /**
 130:Core/Src/stm32g4xx_it.c ****   * @brief This function handles Undefined instruction or illegal state.
 131:Core/Src/stm32g4xx_it.c ****   */
 132:Core/Src/stm32g4xx_it.c **** void UsageFault_Handler(void)
 133:Core/Src/stm32g4xx_it.c **** {
 126              		.loc 1 133 1 view -0
 127              		.cfi_startproc
 128              		@ Volatile: function does not return.
 129              		@ args = 0, pretend = 0, frame = 0
 130              		@ frame_needed = 0, uses_anonymous_args = 0
 131              		@ link register save eliminated.
 132              	.L10:
 134:Core/Src/stm32g4xx_it.c ****   /* USER CODE BEGIN UsageFault_IRQn 0 */
 135:Core/Src/stm32g4xx_it.c **** 
 136:Core/Src/stm32g4xx_it.c ****   /* USER CODE END UsageFault_IRQn 0 */
 137:Core/Src/stm32g4xx_it.c ****   while (1)
 133              		.loc 1 137 3 discriminator 1 view .LVU15
 138:Core/Src/stm32g4xx_it.c ****   {
 139:Core/Src/stm32g4xx_it.c ****     /* USER CODE BEGIN W1_UsageFault_IRQn 0 */
 140:Core/Src/stm32g4xx_it.c ****     /* USER CODE END W1_UsageFault_IRQn 0 */
 141:Core/Src/stm32g4xx_it.c ****   }
 134              		.loc 1 141 3 discriminator 1 view .LVU16
 137:Core/Src/stm32g4xx_it.c ****   {
 135              		.loc 1 137 9 discriminator 1 view .LVU17
 136 0000 FEE7     		b	.L10
 137              		.cfi_endproc
 138              	.LFE1319:
 140 0002 00BF     		.section	.text.DebugMon_Handler,"ax",%progbits
 141              		.align	1
 142              		.p2align 2,,3
 143              		.global	DebugMon_Handler
 144              		.syntax unified
 145              		.thumb
 146              		.thumb_func
 147              		.fpu fpv4-sp-d16
 149              	DebugMon_Handler:
 150              	.LFB1326:
 151              		.cfi_startproc
ARM GAS  /tmp/cc2tlrck.s 			page 6


 152              		@ args = 0, pretend = 0, frame = 0
 153              		@ frame_needed = 0, uses_anonymous_args = 0
 154              		@ link register save eliminated.
 155 0000 7047     		bx	lr
 156              		.cfi_endproc
 157              	.LFE1326:
 159 0002 00BF     		.section	.text.DMA1_Channel1_IRQHandler,"ax",%progbits
 160              		.align	1
 161              		.p2align 2,,3
 162              		.global	DMA1_Channel1_IRQHandler
 163              		.syntax unified
 164              		.thumb
 165              		.thumb_func
 166              		.fpu fpv4-sp-d16
 168              	DMA1_Channel1_IRQHandler:
 169              	.LFB1321:
 142:Core/Src/stm32g4xx_it.c **** }
 143:Core/Src/stm32g4xx_it.c **** 
 144:Core/Src/stm32g4xx_it.c **** /**
 145:Core/Src/stm32g4xx_it.c ****   * @brief This function handles Debug monitor.
 146:Core/Src/stm32g4xx_it.c ****   */
 147:Core/Src/stm32g4xx_it.c **** void DebugMon_Handler(void)
 148:Core/Src/stm32g4xx_it.c **** {
 149:Core/Src/stm32g4xx_it.c ****   /* USER CODE BEGIN DebugMonitor_IRQn 0 */
 150:Core/Src/stm32g4xx_it.c **** 
 151:Core/Src/stm32g4xx_it.c ****   /* USER CODE END DebugMonitor_IRQn 0 */
 152:Core/Src/stm32g4xx_it.c ****   /* USER CODE BEGIN DebugMonitor_IRQn 1 */
 153:Core/Src/stm32g4xx_it.c **** 
 154:Core/Src/stm32g4xx_it.c ****   /* USER CODE END DebugMonitor_IRQn 1 */
 155:Core/Src/stm32g4xx_it.c **** }
 156:Core/Src/stm32g4xx_it.c **** 
 157:Core/Src/stm32g4xx_it.c **** /******************************************************************************/
 158:Core/Src/stm32g4xx_it.c **** /* STM32G4xx Peripheral Interrupt Handlers                                    */
 159:Core/Src/stm32g4xx_it.c **** /* Add here the Interrupt Handlers for the used peripherals.                  */
 160:Core/Src/stm32g4xx_it.c **** /* For the available peripheral interrupt handler names,                      */
 161:Core/Src/stm32g4xx_it.c **** /* please refer to the startup file (startup_stm32g4xx.s).                    */
 162:Core/Src/stm32g4xx_it.c **** /******************************************************************************/
 163:Core/Src/stm32g4xx_it.c **** 
 164:Core/Src/stm32g4xx_it.c **** /**
 165:Core/Src/stm32g4xx_it.c ****   * @brief This function handles DMA1 channel1 global interrupt.
 166:Core/Src/stm32g4xx_it.c ****   */
 167:Core/Src/stm32g4xx_it.c **** void DMA1_Channel1_IRQHandler(void)
 168:Core/Src/stm32g4xx_it.c **** {
 170              		.loc 1 168 1 view -0
 171              		.cfi_startproc
 172              		@ args = 0, pretend = 0, frame = 8
 173              		@ frame_needed = 0, uses_anonymous_args = 0
 169:Core/Src/stm32g4xx_it.c ****   /* USER CODE BEGIN DMA1_Channel1_IRQn 0 */
 170:Core/Src/stm32g4xx_it.c ****   // This is the receive interrupt
 171:Core/Src/stm32g4xx_it.c **** 
 172:Core/Src/stm32g4xx_it.c ****   void *d = (void *)1;
 174              		.loc 1 172 3 view .LVU19
 168:Core/Src/stm32g4xx_it.c ****   /* USER CODE BEGIN DMA1_Channel1_IRQn 0 */
 175              		.loc 1 168 1 is_stmt 0 view .LVU20
 176 0000 00B5     		push	{lr}
 177              	.LCFI0:
 178              		.cfi_def_cfa_offset 4
ARM GAS  /tmp/cc2tlrck.s 			page 7


 179              		.cfi_offset 14, -4
 180              	.LBB20:
 181              	.LBB21:
 182              		.file 2 "Drivers/STM32G4xx_HAL_Driver/Inc/stm32g4xx_ll_dma.h"
   1:Drivers/STM32G4xx_HAL_Driver/Inc/stm32g4xx_ll_dma.h **** /**
   2:Drivers/STM32G4xx_HAL_Driver/Inc/stm32g4xx_ll_dma.h ****   ******************************************************************************
   3:Drivers/STM32G4xx_HAL_Driver/Inc/stm32g4xx_ll_dma.h ****   * @file    stm32g4xx_ll_dma.h
   4:Drivers/STM32G4xx_HAL_Driver/Inc/stm32g4xx_ll_dma.h ****   * @author  MCD Application Team
   5:Drivers/STM32G4xx_HAL_Driver/Inc/stm32g4xx_ll_dma.h ****   * @brief   Header file of DMA LL module.
   6:Drivers/STM32G4xx_HAL_Driver/Inc/stm32g4xx_ll_dma.h ****   ******************************************************************************
   7:Drivers/STM32G4xx_HAL_Driver/Inc/stm32g4xx_ll_dma.h ****   * @attention
   8:Drivers/STM32G4xx_HAL_Driver/Inc/stm32g4xx_ll_dma.h ****   *
   9:Drivers/STM32G4xx_HAL_Driver/Inc/stm32g4xx_ll_dma.h ****   * <h2><center>&copy; Copyright (c) 2019 STMicroelectronics.
  10:Drivers/STM32G4xx_HAL_Driver/Inc/stm32g4xx_ll_dma.h ****   * All rights reserved.</center></h2>
  11:Drivers/STM32G4xx_HAL_Driver/Inc/stm32g4xx_ll_dma.h ****   *
  12:Drivers/STM32G4xx_HAL_Driver/Inc/stm32g4xx_ll_dma.h ****   * This software component is licensed by ST under BSD 3-Clause license,
  13:Drivers/STM32G4xx_HAL_Driver/Inc/stm32g4xx_ll_dma.h ****   * the "License"; You may not use this file except in compliance with the
  14:Drivers/STM32G4xx_HAL_Driver/Inc/stm32g4xx_ll_dma.h ****   * License. You may obtain a copy of the License at:
  15:Drivers/STM32G4xx_HAL_Driver/Inc/stm32g4xx_ll_dma.h ****   *                        opensource.org/licenses/BSD-3-Clause
  16:Drivers/STM32G4xx_HAL_Driver/Inc/stm32g4xx_ll_dma.h ****   *
  17:Drivers/STM32G4xx_HAL_Driver/Inc/stm32g4xx_ll_dma.h ****   ******************************************************************************
  18:Drivers/STM32G4xx_HAL_Driver/Inc/stm32g4xx_ll_dma.h ****   */
  19:Drivers/STM32G4xx_HAL_Driver/Inc/stm32g4xx_ll_dma.h **** 
  20:Drivers/STM32G4xx_HAL_Driver/Inc/stm32g4xx_ll_dma.h **** /* Define to prevent recursive inclusion -------------------------------------*/
  21:Drivers/STM32G4xx_HAL_Driver/Inc/stm32g4xx_ll_dma.h **** #ifndef __STM32G4xx_LL_DMA_H
  22:Drivers/STM32G4xx_HAL_Driver/Inc/stm32g4xx_ll_dma.h **** #define __STM32G4xx_LL_DMA_H
  23:Drivers/STM32G4xx_HAL_Driver/Inc/stm32g4xx_ll_dma.h **** 
  24:Drivers/STM32G4xx_HAL_Driver/Inc/stm32g4xx_ll_dma.h **** #ifdef __cplusplus
  25:Drivers/STM32G4xx_HAL_Driver/Inc/stm32g4xx_ll_dma.h **** extern "C" {
  26:Drivers/STM32G4xx_HAL_Driver/Inc/stm32g4xx_ll_dma.h **** #endif
  27:Drivers/STM32G4xx_HAL_Driver/Inc/stm32g4xx_ll_dma.h **** 
  28:Drivers/STM32G4xx_HAL_Driver/Inc/stm32g4xx_ll_dma.h **** /* Includes ------------------------------------------------------------------*/
  29:Drivers/STM32G4xx_HAL_Driver/Inc/stm32g4xx_ll_dma.h **** #include "stm32g4xx.h"
  30:Drivers/STM32G4xx_HAL_Driver/Inc/stm32g4xx_ll_dma.h **** #include "stm32g4xx_ll_dmamux.h"
  31:Drivers/STM32G4xx_HAL_Driver/Inc/stm32g4xx_ll_dma.h **** 
  32:Drivers/STM32G4xx_HAL_Driver/Inc/stm32g4xx_ll_dma.h **** /** @addtogroup STM32G4xx_LL_Driver
  33:Drivers/STM32G4xx_HAL_Driver/Inc/stm32g4xx_ll_dma.h ****   * @{
  34:Drivers/STM32G4xx_HAL_Driver/Inc/stm32g4xx_ll_dma.h ****   */
  35:Drivers/STM32G4xx_HAL_Driver/Inc/stm32g4xx_ll_dma.h **** 
  36:Drivers/STM32G4xx_HAL_Driver/Inc/stm32g4xx_ll_dma.h **** #if defined (DMA1) || defined (DMA2)
  37:Drivers/STM32G4xx_HAL_Driver/Inc/stm32g4xx_ll_dma.h **** 
  38:Drivers/STM32G4xx_HAL_Driver/Inc/stm32g4xx_ll_dma.h **** /** @defgroup DMA_LL DMA
  39:Drivers/STM32G4xx_HAL_Driver/Inc/stm32g4xx_ll_dma.h ****   * @{
  40:Drivers/STM32G4xx_HAL_Driver/Inc/stm32g4xx_ll_dma.h ****   */
  41:Drivers/STM32G4xx_HAL_Driver/Inc/stm32g4xx_ll_dma.h **** 
  42:Drivers/STM32G4xx_HAL_Driver/Inc/stm32g4xx_ll_dma.h **** /* Private types -------------------------------------------------------------*/
  43:Drivers/STM32G4xx_HAL_Driver/Inc/stm32g4xx_ll_dma.h **** /* Private variables ---------------------------------------------------------*/
  44:Drivers/STM32G4xx_HAL_Driver/Inc/stm32g4xx_ll_dma.h **** /** @defgroup DMA_LL_Private_Variables DMA Private Variables
  45:Drivers/STM32G4xx_HAL_Driver/Inc/stm32g4xx_ll_dma.h ****   * @{
  46:Drivers/STM32G4xx_HAL_Driver/Inc/stm32g4xx_ll_dma.h ****   */
  47:Drivers/STM32G4xx_HAL_Driver/Inc/stm32g4xx_ll_dma.h **** /* Array used to get the DMA channel register offset versus channel index LL_DMA_CHANNEL_x */
  48:Drivers/STM32G4xx_HAL_Driver/Inc/stm32g4xx_ll_dma.h **** static const uint8_t CHANNEL_OFFSET_TAB[] =
  49:Drivers/STM32G4xx_HAL_Driver/Inc/stm32g4xx_ll_dma.h **** {
  50:Drivers/STM32G4xx_HAL_Driver/Inc/stm32g4xx_ll_dma.h ****   (uint8_t)(DMA1_Channel1_BASE - DMA1_BASE),
  51:Drivers/STM32G4xx_HAL_Driver/Inc/stm32g4xx_ll_dma.h ****   (uint8_t)(DMA1_Channel2_BASE - DMA1_BASE),
  52:Drivers/STM32G4xx_HAL_Driver/Inc/stm32g4xx_ll_dma.h ****   (uint8_t)(DMA1_Channel3_BASE - DMA1_BASE),
  53:Drivers/STM32G4xx_HAL_Driver/Inc/stm32g4xx_ll_dma.h ****   (uint8_t)(DMA1_Channel4_BASE - DMA1_BASE),
ARM GAS  /tmp/cc2tlrck.s 			page 8


  54:Drivers/STM32G4xx_HAL_Driver/Inc/stm32g4xx_ll_dma.h ****   (uint8_t)(DMA1_Channel5_BASE - DMA1_BASE),
  55:Drivers/STM32G4xx_HAL_Driver/Inc/stm32g4xx_ll_dma.h ****   (uint8_t)(DMA1_Channel6_BASE - DMA1_BASE)
  56:Drivers/STM32G4xx_HAL_Driver/Inc/stm32g4xx_ll_dma.h **** #if defined (DMA1_Channel7)
  57:Drivers/STM32G4xx_HAL_Driver/Inc/stm32g4xx_ll_dma.h ****   ,
  58:Drivers/STM32G4xx_HAL_Driver/Inc/stm32g4xx_ll_dma.h ****   (uint8_t)(DMA1_Channel7_BASE - DMA1_BASE)
  59:Drivers/STM32G4xx_HAL_Driver/Inc/stm32g4xx_ll_dma.h **** #endif /* DMA1_Channel7 */
  60:Drivers/STM32G4xx_HAL_Driver/Inc/stm32g4xx_ll_dma.h **** #if defined (DMA1_Channel8)
  61:Drivers/STM32G4xx_HAL_Driver/Inc/stm32g4xx_ll_dma.h ****   ,
  62:Drivers/STM32G4xx_HAL_Driver/Inc/stm32g4xx_ll_dma.h ****   (uint8_t)(DMA1_Channel8_BASE - DMA1_BASE)
  63:Drivers/STM32G4xx_HAL_Driver/Inc/stm32g4xx_ll_dma.h **** #endif /* DMA1_Channel8 */
  64:Drivers/STM32G4xx_HAL_Driver/Inc/stm32g4xx_ll_dma.h **** };
  65:Drivers/STM32G4xx_HAL_Driver/Inc/stm32g4xx_ll_dma.h **** /**
  66:Drivers/STM32G4xx_HAL_Driver/Inc/stm32g4xx_ll_dma.h ****   * @}
  67:Drivers/STM32G4xx_HAL_Driver/Inc/stm32g4xx_ll_dma.h ****   */
  68:Drivers/STM32G4xx_HAL_Driver/Inc/stm32g4xx_ll_dma.h **** 
  69:Drivers/STM32G4xx_HAL_Driver/Inc/stm32g4xx_ll_dma.h **** /* Private constants ---------------------------------------------------------*/
  70:Drivers/STM32G4xx_HAL_Driver/Inc/stm32g4xx_ll_dma.h **** /** @defgroup DMA_LL_Private_Constants DMA Private Constants
  71:Drivers/STM32G4xx_HAL_Driver/Inc/stm32g4xx_ll_dma.h ****   * @{
  72:Drivers/STM32G4xx_HAL_Driver/Inc/stm32g4xx_ll_dma.h ****   */
  73:Drivers/STM32G4xx_HAL_Driver/Inc/stm32g4xx_ll_dma.h **** /* Define used to get CSELR register offset */
  74:Drivers/STM32G4xx_HAL_Driver/Inc/stm32g4xx_ll_dma.h **** #define DMA_CSELR_OFFSET                  (uint32_t)(DMA1_CSELR_BASE - DMA1_BASE)
  75:Drivers/STM32G4xx_HAL_Driver/Inc/stm32g4xx_ll_dma.h **** 
  76:Drivers/STM32G4xx_HAL_Driver/Inc/stm32g4xx_ll_dma.h **** /* Defines used for the bit position in the register and perform offsets */
  77:Drivers/STM32G4xx_HAL_Driver/Inc/stm32g4xx_ll_dma.h **** #define DMA_POSITION_CSELR_CXS            POSITION_VAL(DMA_CSELR_C1S << ((Channel-1U)*4U))
  78:Drivers/STM32G4xx_HAL_Driver/Inc/stm32g4xx_ll_dma.h **** /**
  79:Drivers/STM32G4xx_HAL_Driver/Inc/stm32g4xx_ll_dma.h ****   * @}
  80:Drivers/STM32G4xx_HAL_Driver/Inc/stm32g4xx_ll_dma.h ****   */
  81:Drivers/STM32G4xx_HAL_Driver/Inc/stm32g4xx_ll_dma.h **** 
  82:Drivers/STM32G4xx_HAL_Driver/Inc/stm32g4xx_ll_dma.h **** /* Private macros ------------------------------------------------------------*/
  83:Drivers/STM32G4xx_HAL_Driver/Inc/stm32g4xx_ll_dma.h **** #if defined(USE_FULL_LL_DRIVER)
  84:Drivers/STM32G4xx_HAL_Driver/Inc/stm32g4xx_ll_dma.h **** /** @defgroup DMA_LL_Private_Macros DMA Private Macros
  85:Drivers/STM32G4xx_HAL_Driver/Inc/stm32g4xx_ll_dma.h ****   * @{
  86:Drivers/STM32G4xx_HAL_Driver/Inc/stm32g4xx_ll_dma.h ****   */
  87:Drivers/STM32G4xx_HAL_Driver/Inc/stm32g4xx_ll_dma.h **** /**
  88:Drivers/STM32G4xx_HAL_Driver/Inc/stm32g4xx_ll_dma.h ****   * @}
  89:Drivers/STM32G4xx_HAL_Driver/Inc/stm32g4xx_ll_dma.h ****   */
  90:Drivers/STM32G4xx_HAL_Driver/Inc/stm32g4xx_ll_dma.h **** #endif /*USE_FULL_LL_DRIVER*/
  91:Drivers/STM32G4xx_HAL_Driver/Inc/stm32g4xx_ll_dma.h **** 
  92:Drivers/STM32G4xx_HAL_Driver/Inc/stm32g4xx_ll_dma.h **** /* Exported types ------------------------------------------------------------*/
  93:Drivers/STM32G4xx_HAL_Driver/Inc/stm32g4xx_ll_dma.h **** #if defined(USE_FULL_LL_DRIVER)
  94:Drivers/STM32G4xx_HAL_Driver/Inc/stm32g4xx_ll_dma.h **** /** @defgroup DMA_LL_ES_INIT DMA Exported Init structure
  95:Drivers/STM32G4xx_HAL_Driver/Inc/stm32g4xx_ll_dma.h ****   * @{
  96:Drivers/STM32G4xx_HAL_Driver/Inc/stm32g4xx_ll_dma.h ****   */
  97:Drivers/STM32G4xx_HAL_Driver/Inc/stm32g4xx_ll_dma.h **** typedef struct
  98:Drivers/STM32G4xx_HAL_Driver/Inc/stm32g4xx_ll_dma.h **** {
  99:Drivers/STM32G4xx_HAL_Driver/Inc/stm32g4xx_ll_dma.h ****   uint32_t PeriphOrM2MSrcAddress;  /*!< Specifies the peripheral base address for DMA transfer
 100:Drivers/STM32G4xx_HAL_Driver/Inc/stm32g4xx_ll_dma.h ****                                         or as Source base address in case of memory to memory trans
 101:Drivers/STM32G4xx_HAL_Driver/Inc/stm32g4xx_ll_dma.h **** 
 102:Drivers/STM32G4xx_HAL_Driver/Inc/stm32g4xx_ll_dma.h ****                                         This parameter must be a value between Min_Data = 0 and Max
 103:Drivers/STM32G4xx_HAL_Driver/Inc/stm32g4xx_ll_dma.h **** 
 104:Drivers/STM32G4xx_HAL_Driver/Inc/stm32g4xx_ll_dma.h ****   uint32_t MemoryOrM2MDstAddress;  /*!< Specifies the memory base address for DMA transfer
 105:Drivers/STM32G4xx_HAL_Driver/Inc/stm32g4xx_ll_dma.h ****                                         or as Destination base address in case of memory to memory 
 106:Drivers/STM32G4xx_HAL_Driver/Inc/stm32g4xx_ll_dma.h **** 
 107:Drivers/STM32G4xx_HAL_Driver/Inc/stm32g4xx_ll_dma.h ****                                         This parameter must be a value between Min_Data = 0 and Max
 108:Drivers/STM32G4xx_HAL_Driver/Inc/stm32g4xx_ll_dma.h **** 
 109:Drivers/STM32G4xx_HAL_Driver/Inc/stm32g4xx_ll_dma.h ****   uint32_t Direction;              /*!< Specifies if the data will be transferred from memory to pe
 110:Drivers/STM32G4xx_HAL_Driver/Inc/stm32g4xx_ll_dma.h ****                                         from memory to memory or from peripheral to memory.
ARM GAS  /tmp/cc2tlrck.s 			page 9


 111:Drivers/STM32G4xx_HAL_Driver/Inc/stm32g4xx_ll_dma.h ****                                         This parameter can be a value of @ref DMA_LL_EC_DIRECTION
 112:Drivers/STM32G4xx_HAL_Driver/Inc/stm32g4xx_ll_dma.h **** 
 113:Drivers/STM32G4xx_HAL_Driver/Inc/stm32g4xx_ll_dma.h ****                                         This feature can be modified afterwards using unitary funct
 114:Drivers/STM32G4xx_HAL_Driver/Inc/stm32g4xx_ll_dma.h **** 
 115:Drivers/STM32G4xx_HAL_Driver/Inc/stm32g4xx_ll_dma.h ****   uint32_t Mode;                   /*!< Specifies the normal or circular operation mode.
 116:Drivers/STM32G4xx_HAL_Driver/Inc/stm32g4xx_ll_dma.h ****                                         This parameter can be a value of @ref DMA_LL_EC_MODE
 117:Drivers/STM32G4xx_HAL_Driver/Inc/stm32g4xx_ll_dma.h ****                                         @note: The circular buffer mode cannot be used if the memor
 118:Drivers/STM32G4xx_HAL_Driver/Inc/stm32g4xx_ll_dma.h ****                                                data transfer direction is configured on the selecte
 119:Drivers/STM32G4xx_HAL_Driver/Inc/stm32g4xx_ll_dma.h **** 
 120:Drivers/STM32G4xx_HAL_Driver/Inc/stm32g4xx_ll_dma.h ****                                         This feature can be modified afterwards using unitary funct
 121:Drivers/STM32G4xx_HAL_Driver/Inc/stm32g4xx_ll_dma.h **** 
 122:Drivers/STM32G4xx_HAL_Driver/Inc/stm32g4xx_ll_dma.h ****   uint32_t PeriphOrM2MSrcIncMode;  /*!< Specifies whether the Peripheral address or Source address 
 123:Drivers/STM32G4xx_HAL_Driver/Inc/stm32g4xx_ll_dma.h ****                                         is incremented or not.
 124:Drivers/STM32G4xx_HAL_Driver/Inc/stm32g4xx_ll_dma.h ****                                         This parameter can be a value of @ref DMA_LL_EC_PERIPH
 125:Drivers/STM32G4xx_HAL_Driver/Inc/stm32g4xx_ll_dma.h **** 
 126:Drivers/STM32G4xx_HAL_Driver/Inc/stm32g4xx_ll_dma.h ****                                         This feature can be modified afterwards using unitary funct
 127:Drivers/STM32G4xx_HAL_Driver/Inc/stm32g4xx_ll_dma.h **** 
 128:Drivers/STM32G4xx_HAL_Driver/Inc/stm32g4xx_ll_dma.h ****   uint32_t MemoryOrM2MDstIncMode;  /*!< Specifies whether the Memory address or Destination address
 129:Drivers/STM32G4xx_HAL_Driver/Inc/stm32g4xx_ll_dma.h ****                                         is incremented or not.
 130:Drivers/STM32G4xx_HAL_Driver/Inc/stm32g4xx_ll_dma.h ****                                         This parameter can be a value of @ref DMA_LL_EC_MEMORY
 131:Drivers/STM32G4xx_HAL_Driver/Inc/stm32g4xx_ll_dma.h **** 
 132:Drivers/STM32G4xx_HAL_Driver/Inc/stm32g4xx_ll_dma.h ****                                         This feature can be modified afterwards using unitary funct
 133:Drivers/STM32G4xx_HAL_Driver/Inc/stm32g4xx_ll_dma.h **** 
 134:Drivers/STM32G4xx_HAL_Driver/Inc/stm32g4xx_ll_dma.h ****   uint32_t PeriphOrM2MSrcDataSize; /*!< Specifies the Peripheral data size alignment or Source data
 135:Drivers/STM32G4xx_HAL_Driver/Inc/stm32g4xx_ll_dma.h ****                                         in case of memory to memory transfer direction.
 136:Drivers/STM32G4xx_HAL_Driver/Inc/stm32g4xx_ll_dma.h ****                                         This parameter can be a value of @ref DMA_LL_EC_PDATAALIGN
 137:Drivers/STM32G4xx_HAL_Driver/Inc/stm32g4xx_ll_dma.h **** 
 138:Drivers/STM32G4xx_HAL_Driver/Inc/stm32g4xx_ll_dma.h ****                                         This feature can be modified afterwards using unitary funct
 139:Drivers/STM32G4xx_HAL_Driver/Inc/stm32g4xx_ll_dma.h **** 
 140:Drivers/STM32G4xx_HAL_Driver/Inc/stm32g4xx_ll_dma.h ****   uint32_t MemoryOrM2MDstDataSize; /*!< Specifies the Memory data size alignment or Destination dat
 141:Drivers/STM32G4xx_HAL_Driver/Inc/stm32g4xx_ll_dma.h ****                                         in case of memory to memory transfer direction.
 142:Drivers/STM32G4xx_HAL_Driver/Inc/stm32g4xx_ll_dma.h ****                                         This parameter can be a value of @ref DMA_LL_EC_MDATAALIGN
 143:Drivers/STM32G4xx_HAL_Driver/Inc/stm32g4xx_ll_dma.h **** 
 144:Drivers/STM32G4xx_HAL_Driver/Inc/stm32g4xx_ll_dma.h ****                                         This feature can be modified afterwards using unitary funct
 145:Drivers/STM32G4xx_HAL_Driver/Inc/stm32g4xx_ll_dma.h **** 
 146:Drivers/STM32G4xx_HAL_Driver/Inc/stm32g4xx_ll_dma.h ****   uint32_t NbData;                 /*!< Specifies the number of data to transfer, in data unit.
 147:Drivers/STM32G4xx_HAL_Driver/Inc/stm32g4xx_ll_dma.h ****                                         The data unit is equal to the source buffer configuration s
 148:Drivers/STM32G4xx_HAL_Driver/Inc/stm32g4xx_ll_dma.h ****                                         or MemorySize parameters depending in the transfer directio
 149:Drivers/STM32G4xx_HAL_Driver/Inc/stm32g4xx_ll_dma.h ****                                         This parameter must be a value between Min_Data = 0 and Max
 150:Drivers/STM32G4xx_HAL_Driver/Inc/stm32g4xx_ll_dma.h **** 
 151:Drivers/STM32G4xx_HAL_Driver/Inc/stm32g4xx_ll_dma.h ****                                         This feature can be modified afterwards using unitary funct
 152:Drivers/STM32G4xx_HAL_Driver/Inc/stm32g4xx_ll_dma.h **** 
 153:Drivers/STM32G4xx_HAL_Driver/Inc/stm32g4xx_ll_dma.h ****   uint32_t PeriphRequest;          /*!< Specifies the peripheral request.
 154:Drivers/STM32G4xx_HAL_Driver/Inc/stm32g4xx_ll_dma.h ****                                         This parameter can be a value of @ref DMAMUX_LL_EC_REQUEST
 155:Drivers/STM32G4xx_HAL_Driver/Inc/stm32g4xx_ll_dma.h **** 
 156:Drivers/STM32G4xx_HAL_Driver/Inc/stm32g4xx_ll_dma.h ****                                         This feature can be modified afterwards using unitary funct
 157:Drivers/STM32G4xx_HAL_Driver/Inc/stm32g4xx_ll_dma.h **** 
 158:Drivers/STM32G4xx_HAL_Driver/Inc/stm32g4xx_ll_dma.h ****   uint32_t Priority;               /*!< Specifies the channel priority level.
 159:Drivers/STM32G4xx_HAL_Driver/Inc/stm32g4xx_ll_dma.h ****                                         This parameter can be a value of @ref DMA_LL_EC_PRIORITY
 160:Drivers/STM32G4xx_HAL_Driver/Inc/stm32g4xx_ll_dma.h **** 
 161:Drivers/STM32G4xx_HAL_Driver/Inc/stm32g4xx_ll_dma.h ****                                         This feature can be modified afterwards using unitary funct
 162:Drivers/STM32G4xx_HAL_Driver/Inc/stm32g4xx_ll_dma.h **** 
 163:Drivers/STM32G4xx_HAL_Driver/Inc/stm32g4xx_ll_dma.h **** } LL_DMA_InitTypeDef;
 164:Drivers/STM32G4xx_HAL_Driver/Inc/stm32g4xx_ll_dma.h **** /**
 165:Drivers/STM32G4xx_HAL_Driver/Inc/stm32g4xx_ll_dma.h ****   * @}
 166:Drivers/STM32G4xx_HAL_Driver/Inc/stm32g4xx_ll_dma.h ****   */
 167:Drivers/STM32G4xx_HAL_Driver/Inc/stm32g4xx_ll_dma.h **** #endif /*USE_FULL_LL_DRIVER*/
ARM GAS  /tmp/cc2tlrck.s 			page 10


 168:Drivers/STM32G4xx_HAL_Driver/Inc/stm32g4xx_ll_dma.h **** 
 169:Drivers/STM32G4xx_HAL_Driver/Inc/stm32g4xx_ll_dma.h **** /* Exported constants --------------------------------------------------------*/
 170:Drivers/STM32G4xx_HAL_Driver/Inc/stm32g4xx_ll_dma.h **** /** @defgroup DMA_LL_Exported_Constants DMA Exported Constants
 171:Drivers/STM32G4xx_HAL_Driver/Inc/stm32g4xx_ll_dma.h ****   * @{
 172:Drivers/STM32G4xx_HAL_Driver/Inc/stm32g4xx_ll_dma.h ****   */
 173:Drivers/STM32G4xx_HAL_Driver/Inc/stm32g4xx_ll_dma.h **** /** @defgroup DMA_LL_EC_CLEAR_FLAG Clear Flags Defines
 174:Drivers/STM32G4xx_HAL_Driver/Inc/stm32g4xx_ll_dma.h ****   * @brief    Flags defines which can be used with LL_DMA_WriteReg function
 175:Drivers/STM32G4xx_HAL_Driver/Inc/stm32g4xx_ll_dma.h ****   * @{
 176:Drivers/STM32G4xx_HAL_Driver/Inc/stm32g4xx_ll_dma.h ****   */
 177:Drivers/STM32G4xx_HAL_Driver/Inc/stm32g4xx_ll_dma.h **** #define LL_DMA_IFCR_CGIF1                 DMA_IFCR_CGIF1        /*!< Channel 1 global flag         
 178:Drivers/STM32G4xx_HAL_Driver/Inc/stm32g4xx_ll_dma.h **** #define LL_DMA_IFCR_CTCIF1                DMA_IFCR_CTCIF1       /*!< Channel 1 transfer complete fl
 179:Drivers/STM32G4xx_HAL_Driver/Inc/stm32g4xx_ll_dma.h **** #define LL_DMA_IFCR_CHTIF1                DMA_IFCR_CHTIF1       /*!< Channel 1 half transfer flag  
 180:Drivers/STM32G4xx_HAL_Driver/Inc/stm32g4xx_ll_dma.h **** #define LL_DMA_IFCR_CTEIF1                DMA_IFCR_CTEIF1       /*!< Channel 1 transfer error flag 
 181:Drivers/STM32G4xx_HAL_Driver/Inc/stm32g4xx_ll_dma.h **** #define LL_DMA_IFCR_CGIF2                 DMA_IFCR_CGIF2        /*!< Channel 2 global flag         
 182:Drivers/STM32G4xx_HAL_Driver/Inc/stm32g4xx_ll_dma.h **** #define LL_DMA_IFCR_CTCIF2                DMA_IFCR_CTCIF2       /*!< Channel 2 transfer complete fl
 183:Drivers/STM32G4xx_HAL_Driver/Inc/stm32g4xx_ll_dma.h **** #define LL_DMA_IFCR_CHTIF2                DMA_IFCR_CHTIF2       /*!< Channel 2 half transfer flag  
 184:Drivers/STM32G4xx_HAL_Driver/Inc/stm32g4xx_ll_dma.h **** #define LL_DMA_IFCR_CTEIF2                DMA_IFCR_CTEIF2       /*!< Channel 2 transfer error flag 
 185:Drivers/STM32G4xx_HAL_Driver/Inc/stm32g4xx_ll_dma.h **** #define LL_DMA_IFCR_CGIF3                 DMA_IFCR_CGIF3        /*!< Channel 3 global flag         
 186:Drivers/STM32G4xx_HAL_Driver/Inc/stm32g4xx_ll_dma.h **** #define LL_DMA_IFCR_CTCIF3                DMA_IFCR_CTCIF3       /*!< Channel 3 transfer complete fl
 187:Drivers/STM32G4xx_HAL_Driver/Inc/stm32g4xx_ll_dma.h **** #define LL_DMA_IFCR_CHTIF3                DMA_IFCR_CHTIF3       /*!< Channel 3 half transfer flag  
 188:Drivers/STM32G4xx_HAL_Driver/Inc/stm32g4xx_ll_dma.h **** #define LL_DMA_IFCR_CTEIF3                DMA_IFCR_CTEIF3       /*!< Channel 3 transfer error flag 
 189:Drivers/STM32G4xx_HAL_Driver/Inc/stm32g4xx_ll_dma.h **** #define LL_DMA_IFCR_CGIF4                 DMA_IFCR_CGIF4        /*!< Channel 4 global flag         
 190:Drivers/STM32G4xx_HAL_Driver/Inc/stm32g4xx_ll_dma.h **** #define LL_DMA_IFCR_CTCIF4                DMA_IFCR_CTCIF4       /*!< Channel 4 transfer complete fl
 191:Drivers/STM32G4xx_HAL_Driver/Inc/stm32g4xx_ll_dma.h **** #define LL_DMA_IFCR_CHTIF4                DMA_IFCR_CHTIF4       /*!< Channel 4 half transfer flag  
 192:Drivers/STM32G4xx_HAL_Driver/Inc/stm32g4xx_ll_dma.h **** #define LL_DMA_IFCR_CTEIF4                DMA_IFCR_CTEIF4       /*!< Channel 4 transfer error flag 
 193:Drivers/STM32G4xx_HAL_Driver/Inc/stm32g4xx_ll_dma.h **** #define LL_DMA_IFCR_CGIF5                 DMA_IFCR_CGIF5        /*!< Channel 5 global flag         
 194:Drivers/STM32G4xx_HAL_Driver/Inc/stm32g4xx_ll_dma.h **** #define LL_DMA_IFCR_CTCIF5                DMA_IFCR_CTCIF5       /*!< Channel 5 transfer complete fl
 195:Drivers/STM32G4xx_HAL_Driver/Inc/stm32g4xx_ll_dma.h **** #define LL_DMA_IFCR_CHTIF5                DMA_IFCR_CHTIF5       /*!< Channel 5 half transfer flag  
 196:Drivers/STM32G4xx_HAL_Driver/Inc/stm32g4xx_ll_dma.h **** #define LL_DMA_IFCR_CTEIF5                DMA_IFCR_CTEIF5       /*!< Channel 5 transfer error flag 
 197:Drivers/STM32G4xx_HAL_Driver/Inc/stm32g4xx_ll_dma.h **** #define LL_DMA_IFCR_CGIF6                 DMA_IFCR_CGIF6        /*!< Channel 6 global flag         
 198:Drivers/STM32G4xx_HAL_Driver/Inc/stm32g4xx_ll_dma.h **** #define LL_DMA_IFCR_CTCIF6                DMA_IFCR_CTCIF6       /*!< Channel 6 transfer complete fl
 199:Drivers/STM32G4xx_HAL_Driver/Inc/stm32g4xx_ll_dma.h **** #define LL_DMA_IFCR_CHTIF6                DMA_IFCR_CHTIF6       /*!< Channel 6 half transfer flag  
 200:Drivers/STM32G4xx_HAL_Driver/Inc/stm32g4xx_ll_dma.h **** #define LL_DMA_IFCR_CTEIF6                DMA_IFCR_CTEIF6       /*!< Channel 6 transfer error flag 
 201:Drivers/STM32G4xx_HAL_Driver/Inc/stm32g4xx_ll_dma.h **** #if defined (DMA1_Channel7)
 202:Drivers/STM32G4xx_HAL_Driver/Inc/stm32g4xx_ll_dma.h **** #define LL_DMA_IFCR_CGIF7                 DMA_IFCR_CGIF7        /*!< Channel 7 global flag         
 203:Drivers/STM32G4xx_HAL_Driver/Inc/stm32g4xx_ll_dma.h **** #define LL_DMA_IFCR_CTCIF7                DMA_IFCR_CTCIF7       /*!< Channel 7 transfer complete fl
 204:Drivers/STM32G4xx_HAL_Driver/Inc/stm32g4xx_ll_dma.h **** #define LL_DMA_IFCR_CHTIF7                DMA_IFCR_CHTIF7       /*!< Channel 7 half transfer flag  
 205:Drivers/STM32G4xx_HAL_Driver/Inc/stm32g4xx_ll_dma.h **** #define LL_DMA_IFCR_CTEIF7                DMA_IFCR_CTEIF7       /*!< Channel 7 transfer error flag 
 206:Drivers/STM32G4xx_HAL_Driver/Inc/stm32g4xx_ll_dma.h **** #endif /* DMA1_Channel7 */
 207:Drivers/STM32G4xx_HAL_Driver/Inc/stm32g4xx_ll_dma.h **** #if defined (DMA1_Channel8)
 208:Drivers/STM32G4xx_HAL_Driver/Inc/stm32g4xx_ll_dma.h **** #define LL_DMA_IFCR_CGIF8                 DMA_IFCR_CGIF8        /*!< Channel 8 global flag         
 209:Drivers/STM32G4xx_HAL_Driver/Inc/stm32g4xx_ll_dma.h **** #define LL_DMA_IFCR_CTCIF8                DMA_IFCR_CTCIF8       /*!< Channel 8 transfer complete fl
 210:Drivers/STM32G4xx_HAL_Driver/Inc/stm32g4xx_ll_dma.h **** #define LL_DMA_IFCR_CHTIF8                DMA_IFCR_CHTIF8       /*!< Channel 8 half transfer flag  
 211:Drivers/STM32G4xx_HAL_Driver/Inc/stm32g4xx_ll_dma.h **** #define LL_DMA_IFCR_CTEIF8                DMA_IFCR_CTEIF8       /*!< Channel 8 transfer error flag 
 212:Drivers/STM32G4xx_HAL_Driver/Inc/stm32g4xx_ll_dma.h **** #endif /* DMA1_Channel8 */
 213:Drivers/STM32G4xx_HAL_Driver/Inc/stm32g4xx_ll_dma.h **** /**
 214:Drivers/STM32G4xx_HAL_Driver/Inc/stm32g4xx_ll_dma.h ****   * @}
 215:Drivers/STM32G4xx_HAL_Driver/Inc/stm32g4xx_ll_dma.h ****   */
 216:Drivers/STM32G4xx_HAL_Driver/Inc/stm32g4xx_ll_dma.h **** 
 217:Drivers/STM32G4xx_HAL_Driver/Inc/stm32g4xx_ll_dma.h **** /** @defgroup DMA_LL_EC_GET_FLAG Get Flags Defines
 218:Drivers/STM32G4xx_HAL_Driver/Inc/stm32g4xx_ll_dma.h ****   * @brief    Flags defines which can be used with LL_DMA_ReadReg function
 219:Drivers/STM32G4xx_HAL_Driver/Inc/stm32g4xx_ll_dma.h ****   * @{
 220:Drivers/STM32G4xx_HAL_Driver/Inc/stm32g4xx_ll_dma.h ****   */
 221:Drivers/STM32G4xx_HAL_Driver/Inc/stm32g4xx_ll_dma.h **** #define LL_DMA_ISR_GIF1                   DMA_ISR_GIF1          /*!< Channel 1 global flag         
 222:Drivers/STM32G4xx_HAL_Driver/Inc/stm32g4xx_ll_dma.h **** #define LL_DMA_ISR_TCIF1                  DMA_ISR_TCIF1         /*!< Channel 1 transfer complete fl
 223:Drivers/STM32G4xx_HAL_Driver/Inc/stm32g4xx_ll_dma.h **** #define LL_DMA_ISR_HTIF1                  DMA_ISR_HTIF1         /*!< Channel 1 half transfer flag  
 224:Drivers/STM32G4xx_HAL_Driver/Inc/stm32g4xx_ll_dma.h **** #define LL_DMA_ISR_TEIF1                  DMA_ISR_TEIF1         /*!< Channel 1 transfer error flag 
ARM GAS  /tmp/cc2tlrck.s 			page 11


 225:Drivers/STM32G4xx_HAL_Driver/Inc/stm32g4xx_ll_dma.h **** #define LL_DMA_ISR_GIF2                   DMA_ISR_GIF2          /*!< Channel 2 global flag         
 226:Drivers/STM32G4xx_HAL_Driver/Inc/stm32g4xx_ll_dma.h **** #define LL_DMA_ISR_TCIF2                  DMA_ISR_TCIF2         /*!< Channel 2 transfer complete fl
 227:Drivers/STM32G4xx_HAL_Driver/Inc/stm32g4xx_ll_dma.h **** #define LL_DMA_ISR_HTIF2                  DMA_ISR_HTIF2         /*!< Channel 2 half transfer flag  
 228:Drivers/STM32G4xx_HAL_Driver/Inc/stm32g4xx_ll_dma.h **** #define LL_DMA_ISR_TEIF2                  DMA_ISR_TEIF2         /*!< Channel 2 transfer error flag 
 229:Drivers/STM32G4xx_HAL_Driver/Inc/stm32g4xx_ll_dma.h **** #define LL_DMA_ISR_GIF3                   DMA_ISR_GIF3          /*!< Channel 3 global flag         
 230:Drivers/STM32G4xx_HAL_Driver/Inc/stm32g4xx_ll_dma.h **** #define LL_DMA_ISR_TCIF3                  DMA_ISR_TCIF3         /*!< Channel 3 transfer complete fl
 231:Drivers/STM32G4xx_HAL_Driver/Inc/stm32g4xx_ll_dma.h **** #define LL_DMA_ISR_HTIF3                  DMA_ISR_HTIF3         /*!< Channel 3 half transfer flag  
 232:Drivers/STM32G4xx_HAL_Driver/Inc/stm32g4xx_ll_dma.h **** #define LL_DMA_ISR_TEIF3                  DMA_ISR_TEIF3         /*!< Channel 3 transfer error flag 
 233:Drivers/STM32G4xx_HAL_Driver/Inc/stm32g4xx_ll_dma.h **** #define LL_DMA_ISR_GIF4                   DMA_ISR_GIF4          /*!< Channel 4 global flag         
 234:Drivers/STM32G4xx_HAL_Driver/Inc/stm32g4xx_ll_dma.h **** #define LL_DMA_ISR_TCIF4                  DMA_ISR_TCIF4         /*!< Channel 4 transfer complete fl
 235:Drivers/STM32G4xx_HAL_Driver/Inc/stm32g4xx_ll_dma.h **** #define LL_DMA_ISR_HTIF4                  DMA_ISR_HTIF4         /*!< Channel 4 half transfer flag  
 236:Drivers/STM32G4xx_HAL_Driver/Inc/stm32g4xx_ll_dma.h **** #define LL_DMA_ISR_TEIF4                  DMA_ISR_TEIF4         /*!< Channel 4 transfer error flag 
 237:Drivers/STM32G4xx_HAL_Driver/Inc/stm32g4xx_ll_dma.h **** #define LL_DMA_ISR_GIF5                   DMA_ISR_GIF5          /*!< Channel 5 global flag         
 238:Drivers/STM32G4xx_HAL_Driver/Inc/stm32g4xx_ll_dma.h **** #define LL_DMA_ISR_TCIF5                  DMA_ISR_TCIF5         /*!< Channel 5 transfer complete fl
 239:Drivers/STM32G4xx_HAL_Driver/Inc/stm32g4xx_ll_dma.h **** #define LL_DMA_ISR_HTIF5                  DMA_ISR_HTIF5         /*!< Channel 5 half transfer flag  
 240:Drivers/STM32G4xx_HAL_Driver/Inc/stm32g4xx_ll_dma.h **** #define LL_DMA_ISR_TEIF5                  DMA_ISR_TEIF5         /*!< Channel 5 transfer error flag 
 241:Drivers/STM32G4xx_HAL_Driver/Inc/stm32g4xx_ll_dma.h **** #define LL_DMA_ISR_GIF6                   DMA_ISR_GIF6          /*!< Channel 6 global flag         
 242:Drivers/STM32G4xx_HAL_Driver/Inc/stm32g4xx_ll_dma.h **** #define LL_DMA_ISR_TCIF6                  DMA_ISR_TCIF6         /*!< Channel 6 transfer complete fl
 243:Drivers/STM32G4xx_HAL_Driver/Inc/stm32g4xx_ll_dma.h **** #define LL_DMA_ISR_HTIF6                  DMA_ISR_HTIF6         /*!< Channel 6 half transfer flag  
 244:Drivers/STM32G4xx_HAL_Driver/Inc/stm32g4xx_ll_dma.h **** #define LL_DMA_ISR_TEIF6                  DMA_ISR_TEIF6         /*!< Channel 6 transfer error flag 
 245:Drivers/STM32G4xx_HAL_Driver/Inc/stm32g4xx_ll_dma.h **** #if defined (DMA1_Channel7)
 246:Drivers/STM32G4xx_HAL_Driver/Inc/stm32g4xx_ll_dma.h **** #define LL_DMA_ISR_GIF7                   DMA_ISR_GIF7          /*!< Channel 7 global flag         
 247:Drivers/STM32G4xx_HAL_Driver/Inc/stm32g4xx_ll_dma.h **** #define LL_DMA_ISR_TCIF7                  DMA_ISR_TCIF7         /*!< Channel 7 transfer complete fl
 248:Drivers/STM32G4xx_HAL_Driver/Inc/stm32g4xx_ll_dma.h **** #define LL_DMA_ISR_HTIF7                  DMA_ISR_HTIF7         /*!< Channel 7 half transfer flag  
 249:Drivers/STM32G4xx_HAL_Driver/Inc/stm32g4xx_ll_dma.h **** #define LL_DMA_ISR_TEIF7                  DMA_ISR_TEIF7         /*!< Channel 7 transfer error flag 
 250:Drivers/STM32G4xx_HAL_Driver/Inc/stm32g4xx_ll_dma.h **** #endif /* DMA1_Channel7 */
 251:Drivers/STM32G4xx_HAL_Driver/Inc/stm32g4xx_ll_dma.h **** #if defined (DMA1_Channel8)
 252:Drivers/STM32G4xx_HAL_Driver/Inc/stm32g4xx_ll_dma.h **** #define LL_DMA_ISR_GIF8                   DMA_ISR_GIF8          /*!< Channel 8 global flag         
 253:Drivers/STM32G4xx_HAL_Driver/Inc/stm32g4xx_ll_dma.h **** #define LL_DMA_ISR_TCIF8                  DMA_ISR_TCIF8         /*!< Channel 8 transfer complete fl
 254:Drivers/STM32G4xx_HAL_Driver/Inc/stm32g4xx_ll_dma.h **** #define LL_DMA_ISR_HTIF8                  DMA_ISR_HTIF8         /*!< Channel 8 half transfer flag  
 255:Drivers/STM32G4xx_HAL_Driver/Inc/stm32g4xx_ll_dma.h **** #define LL_DMA_ISR_TEIF8                  DMA_ISR_TEIF8         /*!< Channel 8 transfer error flag 
 256:Drivers/STM32G4xx_HAL_Driver/Inc/stm32g4xx_ll_dma.h **** #endif /* DMA1_Channel8 */
 257:Drivers/STM32G4xx_HAL_Driver/Inc/stm32g4xx_ll_dma.h **** /**
 258:Drivers/STM32G4xx_HAL_Driver/Inc/stm32g4xx_ll_dma.h ****   * @}
 259:Drivers/STM32G4xx_HAL_Driver/Inc/stm32g4xx_ll_dma.h ****   */
 260:Drivers/STM32G4xx_HAL_Driver/Inc/stm32g4xx_ll_dma.h **** 
 261:Drivers/STM32G4xx_HAL_Driver/Inc/stm32g4xx_ll_dma.h **** /** @defgroup DMA_LL_EC_IT IT Defines
 262:Drivers/STM32G4xx_HAL_Driver/Inc/stm32g4xx_ll_dma.h ****   * @brief    IT defines which can be used with LL_DMA_ReadReg and  LL_DMA_WriteReg functions
 263:Drivers/STM32G4xx_HAL_Driver/Inc/stm32g4xx_ll_dma.h ****   * @{
 264:Drivers/STM32G4xx_HAL_Driver/Inc/stm32g4xx_ll_dma.h ****   */
 265:Drivers/STM32G4xx_HAL_Driver/Inc/stm32g4xx_ll_dma.h **** #define LL_DMA_CCR_TCIE                   DMA_CCR_TCIE          /*!< Transfer complete interrupt */
 266:Drivers/STM32G4xx_HAL_Driver/Inc/stm32g4xx_ll_dma.h **** #define LL_DMA_CCR_HTIE                   DMA_CCR_HTIE          /*!< Half Transfer interrupt     */
 267:Drivers/STM32G4xx_HAL_Driver/Inc/stm32g4xx_ll_dma.h **** #define LL_DMA_CCR_TEIE                   DMA_CCR_TEIE          /*!< Transfer error interrupt    */
 268:Drivers/STM32G4xx_HAL_Driver/Inc/stm32g4xx_ll_dma.h **** /**
 269:Drivers/STM32G4xx_HAL_Driver/Inc/stm32g4xx_ll_dma.h ****   * @}
 270:Drivers/STM32G4xx_HAL_Driver/Inc/stm32g4xx_ll_dma.h ****   */
 271:Drivers/STM32G4xx_HAL_Driver/Inc/stm32g4xx_ll_dma.h **** 
 272:Drivers/STM32G4xx_HAL_Driver/Inc/stm32g4xx_ll_dma.h **** /** @defgroup DMA_LL_EC_CHANNEL CHANNEL
 273:Drivers/STM32G4xx_HAL_Driver/Inc/stm32g4xx_ll_dma.h ****   * @{
 274:Drivers/STM32G4xx_HAL_Driver/Inc/stm32g4xx_ll_dma.h ****   */
 275:Drivers/STM32G4xx_HAL_Driver/Inc/stm32g4xx_ll_dma.h **** #define LL_DMA_CHANNEL_1                  0x00000000U /*!< DMA Channel 1 */
 276:Drivers/STM32G4xx_HAL_Driver/Inc/stm32g4xx_ll_dma.h **** #define LL_DMA_CHANNEL_2                  0x00000001U /*!< DMA Channel 2 */
 277:Drivers/STM32G4xx_HAL_Driver/Inc/stm32g4xx_ll_dma.h **** #define LL_DMA_CHANNEL_3                  0x00000002U /*!< DMA Channel 3 */
 278:Drivers/STM32G4xx_HAL_Driver/Inc/stm32g4xx_ll_dma.h **** #define LL_DMA_CHANNEL_4                  0x00000003U /*!< DMA Channel 4 */
 279:Drivers/STM32G4xx_HAL_Driver/Inc/stm32g4xx_ll_dma.h **** #define LL_DMA_CHANNEL_5                  0x00000004U /*!< DMA Channel 5 */
 280:Drivers/STM32G4xx_HAL_Driver/Inc/stm32g4xx_ll_dma.h **** #define LL_DMA_CHANNEL_6                  0x00000005U /*!< DMA Channel 6 */
 281:Drivers/STM32G4xx_HAL_Driver/Inc/stm32g4xx_ll_dma.h **** #if defined (DMA1_Channel7)
ARM GAS  /tmp/cc2tlrck.s 			page 12


 282:Drivers/STM32G4xx_HAL_Driver/Inc/stm32g4xx_ll_dma.h **** #define LL_DMA_CHANNEL_7                  0x00000006U /*!< DMA Channel 7 */
 283:Drivers/STM32G4xx_HAL_Driver/Inc/stm32g4xx_ll_dma.h **** #endif /* DMA1_Channel7 */
 284:Drivers/STM32G4xx_HAL_Driver/Inc/stm32g4xx_ll_dma.h **** #if defined (DMA1_Channel8)
 285:Drivers/STM32G4xx_HAL_Driver/Inc/stm32g4xx_ll_dma.h **** #define LL_DMA_CHANNEL_8                  0x00000007U /*!< DMA Channel 8 */
 286:Drivers/STM32G4xx_HAL_Driver/Inc/stm32g4xx_ll_dma.h **** #endif /* DMA1_Channel8 */
 287:Drivers/STM32G4xx_HAL_Driver/Inc/stm32g4xx_ll_dma.h **** #if defined(USE_FULL_LL_DRIVER)
 288:Drivers/STM32G4xx_HAL_Driver/Inc/stm32g4xx_ll_dma.h **** #define LL_DMA_CHANNEL_ALL                0xFFFF0000U /*!< DMA Channel all (used only for function 
 289:Drivers/STM32G4xx_HAL_Driver/Inc/stm32g4xx_ll_dma.h **** #endif /*USE_FULL_LL_DRIVER*/
 290:Drivers/STM32G4xx_HAL_Driver/Inc/stm32g4xx_ll_dma.h **** /**
 291:Drivers/STM32G4xx_HAL_Driver/Inc/stm32g4xx_ll_dma.h ****   * @}
 292:Drivers/STM32G4xx_HAL_Driver/Inc/stm32g4xx_ll_dma.h ****   */
 293:Drivers/STM32G4xx_HAL_Driver/Inc/stm32g4xx_ll_dma.h **** 
 294:Drivers/STM32G4xx_HAL_Driver/Inc/stm32g4xx_ll_dma.h **** /** @defgroup DMA_LL_EC_DIRECTION Transfer Direction
 295:Drivers/STM32G4xx_HAL_Driver/Inc/stm32g4xx_ll_dma.h ****   * @{
 296:Drivers/STM32G4xx_HAL_Driver/Inc/stm32g4xx_ll_dma.h ****   */
 297:Drivers/STM32G4xx_HAL_Driver/Inc/stm32g4xx_ll_dma.h **** #define LL_DMA_DIRECTION_PERIPH_TO_MEMORY 0x00000000U             /*!< Peripheral to memory directi
 298:Drivers/STM32G4xx_HAL_Driver/Inc/stm32g4xx_ll_dma.h **** #define LL_DMA_DIRECTION_MEMORY_TO_PERIPH DMA_CCR_DIR             /*!< Memory to peripheral directi
 299:Drivers/STM32G4xx_HAL_Driver/Inc/stm32g4xx_ll_dma.h **** #define LL_DMA_DIRECTION_MEMORY_TO_MEMORY DMA_CCR_MEM2MEM         /*!< Memory to memory direction  
 300:Drivers/STM32G4xx_HAL_Driver/Inc/stm32g4xx_ll_dma.h **** /**
 301:Drivers/STM32G4xx_HAL_Driver/Inc/stm32g4xx_ll_dma.h ****   * @}
 302:Drivers/STM32G4xx_HAL_Driver/Inc/stm32g4xx_ll_dma.h ****   */
 303:Drivers/STM32G4xx_HAL_Driver/Inc/stm32g4xx_ll_dma.h **** 
 304:Drivers/STM32G4xx_HAL_Driver/Inc/stm32g4xx_ll_dma.h **** /** @defgroup DMA_LL_EC_MODE Transfer mode
 305:Drivers/STM32G4xx_HAL_Driver/Inc/stm32g4xx_ll_dma.h ****   * @{
 306:Drivers/STM32G4xx_HAL_Driver/Inc/stm32g4xx_ll_dma.h ****   */
 307:Drivers/STM32G4xx_HAL_Driver/Inc/stm32g4xx_ll_dma.h **** #define LL_DMA_MODE_NORMAL                0x00000000U             /*!< Normal Mode                 
 308:Drivers/STM32G4xx_HAL_Driver/Inc/stm32g4xx_ll_dma.h **** #define LL_DMA_MODE_CIRCULAR              DMA_CCR_CIRC            /*!< Circular Mode               
 309:Drivers/STM32G4xx_HAL_Driver/Inc/stm32g4xx_ll_dma.h **** /**
 310:Drivers/STM32G4xx_HAL_Driver/Inc/stm32g4xx_ll_dma.h ****   * @}
 311:Drivers/STM32G4xx_HAL_Driver/Inc/stm32g4xx_ll_dma.h ****   */
 312:Drivers/STM32G4xx_HAL_Driver/Inc/stm32g4xx_ll_dma.h **** 
 313:Drivers/STM32G4xx_HAL_Driver/Inc/stm32g4xx_ll_dma.h **** /** @defgroup DMA_LL_EC_PERIPH Peripheral increment mode
 314:Drivers/STM32G4xx_HAL_Driver/Inc/stm32g4xx_ll_dma.h ****   * @{
 315:Drivers/STM32G4xx_HAL_Driver/Inc/stm32g4xx_ll_dma.h ****   */
 316:Drivers/STM32G4xx_HAL_Driver/Inc/stm32g4xx_ll_dma.h **** #define LL_DMA_PERIPH_INCREMENT           DMA_CCR_PINC            /*!< Peripheral increment mode En
 317:Drivers/STM32G4xx_HAL_Driver/Inc/stm32g4xx_ll_dma.h **** #define LL_DMA_PERIPH_NOINCREMENT         0x00000000U             /*!< Peripheral increment mode Di
 318:Drivers/STM32G4xx_HAL_Driver/Inc/stm32g4xx_ll_dma.h **** /**
 319:Drivers/STM32G4xx_HAL_Driver/Inc/stm32g4xx_ll_dma.h ****   * @}
 320:Drivers/STM32G4xx_HAL_Driver/Inc/stm32g4xx_ll_dma.h ****   */
 321:Drivers/STM32G4xx_HAL_Driver/Inc/stm32g4xx_ll_dma.h **** 
 322:Drivers/STM32G4xx_HAL_Driver/Inc/stm32g4xx_ll_dma.h **** /** @defgroup DMA_LL_EC_MEMORY Memory increment mode
 323:Drivers/STM32G4xx_HAL_Driver/Inc/stm32g4xx_ll_dma.h ****   * @{
 324:Drivers/STM32G4xx_HAL_Driver/Inc/stm32g4xx_ll_dma.h ****   */
 325:Drivers/STM32G4xx_HAL_Driver/Inc/stm32g4xx_ll_dma.h **** #define LL_DMA_MEMORY_INCREMENT           DMA_CCR_MINC            /*!< Memory increment mode Enable
 326:Drivers/STM32G4xx_HAL_Driver/Inc/stm32g4xx_ll_dma.h **** #define LL_DMA_MEMORY_NOINCREMENT         0x00000000U             /*!< Memory increment mode Disabl
 327:Drivers/STM32G4xx_HAL_Driver/Inc/stm32g4xx_ll_dma.h **** /**
 328:Drivers/STM32G4xx_HAL_Driver/Inc/stm32g4xx_ll_dma.h ****   * @}
 329:Drivers/STM32G4xx_HAL_Driver/Inc/stm32g4xx_ll_dma.h ****   */
 330:Drivers/STM32G4xx_HAL_Driver/Inc/stm32g4xx_ll_dma.h **** 
 331:Drivers/STM32G4xx_HAL_Driver/Inc/stm32g4xx_ll_dma.h **** /** @defgroup DMA_LL_EC_PDATAALIGN Peripheral data alignment
 332:Drivers/STM32G4xx_HAL_Driver/Inc/stm32g4xx_ll_dma.h ****   * @{
 333:Drivers/STM32G4xx_HAL_Driver/Inc/stm32g4xx_ll_dma.h ****   */
 334:Drivers/STM32G4xx_HAL_Driver/Inc/stm32g4xx_ll_dma.h **** #define LL_DMA_PDATAALIGN_BYTE            0x00000000U             /*!< Peripheral data alignment : 
 335:Drivers/STM32G4xx_HAL_Driver/Inc/stm32g4xx_ll_dma.h **** #define LL_DMA_PDATAALIGN_HALFWORD        DMA_CCR_PSIZE_0         /*!< Peripheral data alignment : 
 336:Drivers/STM32G4xx_HAL_Driver/Inc/stm32g4xx_ll_dma.h **** #define LL_DMA_PDATAALIGN_WORD            DMA_CCR_PSIZE_1         /*!< Peripheral data alignment : 
 337:Drivers/STM32G4xx_HAL_Driver/Inc/stm32g4xx_ll_dma.h **** /**
 338:Drivers/STM32G4xx_HAL_Driver/Inc/stm32g4xx_ll_dma.h ****   * @}
ARM GAS  /tmp/cc2tlrck.s 			page 13


 339:Drivers/STM32G4xx_HAL_Driver/Inc/stm32g4xx_ll_dma.h ****   */
 340:Drivers/STM32G4xx_HAL_Driver/Inc/stm32g4xx_ll_dma.h **** 
 341:Drivers/STM32G4xx_HAL_Driver/Inc/stm32g4xx_ll_dma.h **** /** @defgroup DMA_LL_EC_MDATAALIGN Memory data alignment
 342:Drivers/STM32G4xx_HAL_Driver/Inc/stm32g4xx_ll_dma.h ****   * @{
 343:Drivers/STM32G4xx_HAL_Driver/Inc/stm32g4xx_ll_dma.h ****   */
 344:Drivers/STM32G4xx_HAL_Driver/Inc/stm32g4xx_ll_dma.h **** #define LL_DMA_MDATAALIGN_BYTE            0x00000000U             /*!< Memory data alignment : Byte
 345:Drivers/STM32G4xx_HAL_Driver/Inc/stm32g4xx_ll_dma.h **** #define LL_DMA_MDATAALIGN_HALFWORD        DMA_CCR_MSIZE_0         /*!< Memory data alignment : Half
 346:Drivers/STM32G4xx_HAL_Driver/Inc/stm32g4xx_ll_dma.h **** #define LL_DMA_MDATAALIGN_WORD            DMA_CCR_MSIZE_1         /*!< Memory data alignment : Word
 347:Drivers/STM32G4xx_HAL_Driver/Inc/stm32g4xx_ll_dma.h **** /**
 348:Drivers/STM32G4xx_HAL_Driver/Inc/stm32g4xx_ll_dma.h ****   * @}
 349:Drivers/STM32G4xx_HAL_Driver/Inc/stm32g4xx_ll_dma.h ****   */
 350:Drivers/STM32G4xx_HAL_Driver/Inc/stm32g4xx_ll_dma.h **** 
 351:Drivers/STM32G4xx_HAL_Driver/Inc/stm32g4xx_ll_dma.h **** /** @defgroup DMA_LL_EC_PRIORITY Transfer Priority level
 352:Drivers/STM32G4xx_HAL_Driver/Inc/stm32g4xx_ll_dma.h ****   * @{
 353:Drivers/STM32G4xx_HAL_Driver/Inc/stm32g4xx_ll_dma.h ****   */
 354:Drivers/STM32G4xx_HAL_Driver/Inc/stm32g4xx_ll_dma.h **** #define LL_DMA_PRIORITY_LOW               0x00000000U             /*!< Priority level : Low       *
 355:Drivers/STM32G4xx_HAL_Driver/Inc/stm32g4xx_ll_dma.h **** #define LL_DMA_PRIORITY_MEDIUM            DMA_CCR_PL_0            /*!< Priority level : Medium    *
 356:Drivers/STM32G4xx_HAL_Driver/Inc/stm32g4xx_ll_dma.h **** #define LL_DMA_PRIORITY_HIGH              DMA_CCR_PL_1            /*!< Priority level : High      *
 357:Drivers/STM32G4xx_HAL_Driver/Inc/stm32g4xx_ll_dma.h **** #define LL_DMA_PRIORITY_VERYHIGH          DMA_CCR_PL              /*!< Priority level : Very_High *
 358:Drivers/STM32G4xx_HAL_Driver/Inc/stm32g4xx_ll_dma.h **** /**
 359:Drivers/STM32G4xx_HAL_Driver/Inc/stm32g4xx_ll_dma.h ****   * @}
 360:Drivers/STM32G4xx_HAL_Driver/Inc/stm32g4xx_ll_dma.h ****   */
 361:Drivers/STM32G4xx_HAL_Driver/Inc/stm32g4xx_ll_dma.h **** 
 362:Drivers/STM32G4xx_HAL_Driver/Inc/stm32g4xx_ll_dma.h **** /**
 363:Drivers/STM32G4xx_HAL_Driver/Inc/stm32g4xx_ll_dma.h ****   * @}
 364:Drivers/STM32G4xx_HAL_Driver/Inc/stm32g4xx_ll_dma.h ****   */
 365:Drivers/STM32G4xx_HAL_Driver/Inc/stm32g4xx_ll_dma.h **** 
 366:Drivers/STM32G4xx_HAL_Driver/Inc/stm32g4xx_ll_dma.h **** /* Exported macro ------------------------------------------------------------*/
 367:Drivers/STM32G4xx_HAL_Driver/Inc/stm32g4xx_ll_dma.h **** /** @defgroup DMA_LL_Exported_Macros DMA Exported Macros
 368:Drivers/STM32G4xx_HAL_Driver/Inc/stm32g4xx_ll_dma.h ****   * @{
 369:Drivers/STM32G4xx_HAL_Driver/Inc/stm32g4xx_ll_dma.h ****   */
 370:Drivers/STM32G4xx_HAL_Driver/Inc/stm32g4xx_ll_dma.h **** 
 371:Drivers/STM32G4xx_HAL_Driver/Inc/stm32g4xx_ll_dma.h **** /** @defgroup DMA_LL_EM_WRITE_READ Common Write and read registers macros
 372:Drivers/STM32G4xx_HAL_Driver/Inc/stm32g4xx_ll_dma.h ****   * @{
 373:Drivers/STM32G4xx_HAL_Driver/Inc/stm32g4xx_ll_dma.h ****   */
 374:Drivers/STM32G4xx_HAL_Driver/Inc/stm32g4xx_ll_dma.h **** /**
 375:Drivers/STM32G4xx_HAL_Driver/Inc/stm32g4xx_ll_dma.h ****   * @brief  Write a value in DMA register
 376:Drivers/STM32G4xx_HAL_Driver/Inc/stm32g4xx_ll_dma.h ****   * @param  __INSTANCE__ DMA Instance
 377:Drivers/STM32G4xx_HAL_Driver/Inc/stm32g4xx_ll_dma.h ****   * @param  __REG__ Register to be written
 378:Drivers/STM32G4xx_HAL_Driver/Inc/stm32g4xx_ll_dma.h ****   * @param  __VALUE__ Value to be written in the register
 379:Drivers/STM32G4xx_HAL_Driver/Inc/stm32g4xx_ll_dma.h ****   * @retval None
 380:Drivers/STM32G4xx_HAL_Driver/Inc/stm32g4xx_ll_dma.h ****   */
 381:Drivers/STM32G4xx_HAL_Driver/Inc/stm32g4xx_ll_dma.h **** #define LL_DMA_WriteReg(__INSTANCE__, __REG__, __VALUE__) WRITE_REG(__INSTANCE__->__REG__, (__VALUE
 382:Drivers/STM32G4xx_HAL_Driver/Inc/stm32g4xx_ll_dma.h **** 
 383:Drivers/STM32G4xx_HAL_Driver/Inc/stm32g4xx_ll_dma.h **** /**
 384:Drivers/STM32G4xx_HAL_Driver/Inc/stm32g4xx_ll_dma.h ****   * @brief  Read a value in DMA register
 385:Drivers/STM32G4xx_HAL_Driver/Inc/stm32g4xx_ll_dma.h ****   * @param  __INSTANCE__ DMA Instance
 386:Drivers/STM32G4xx_HAL_Driver/Inc/stm32g4xx_ll_dma.h ****   * @param  __REG__ Register to be read
 387:Drivers/STM32G4xx_HAL_Driver/Inc/stm32g4xx_ll_dma.h ****   * @retval Register value
 388:Drivers/STM32G4xx_HAL_Driver/Inc/stm32g4xx_ll_dma.h ****   */
 389:Drivers/STM32G4xx_HAL_Driver/Inc/stm32g4xx_ll_dma.h **** #define LL_DMA_ReadReg(__INSTANCE__, __REG__) READ_REG(__INSTANCE__->__REG__)
 390:Drivers/STM32G4xx_HAL_Driver/Inc/stm32g4xx_ll_dma.h **** /**
 391:Drivers/STM32G4xx_HAL_Driver/Inc/stm32g4xx_ll_dma.h ****   * @}
 392:Drivers/STM32G4xx_HAL_Driver/Inc/stm32g4xx_ll_dma.h ****   */
 393:Drivers/STM32G4xx_HAL_Driver/Inc/stm32g4xx_ll_dma.h **** 
 394:Drivers/STM32G4xx_HAL_Driver/Inc/stm32g4xx_ll_dma.h **** /** @defgroup DMA_LL_EM_CONVERT_DMAxCHANNELy Convert DMAxChannely
 395:Drivers/STM32G4xx_HAL_Driver/Inc/stm32g4xx_ll_dma.h ****   * @{
ARM GAS  /tmp/cc2tlrck.s 			page 14


 396:Drivers/STM32G4xx_HAL_Driver/Inc/stm32g4xx_ll_dma.h ****   */
 397:Drivers/STM32G4xx_HAL_Driver/Inc/stm32g4xx_ll_dma.h **** /**
 398:Drivers/STM32G4xx_HAL_Driver/Inc/stm32g4xx_ll_dma.h ****   * @brief  Convert DMAx_Channely into DMAx
 399:Drivers/STM32G4xx_HAL_Driver/Inc/stm32g4xx_ll_dma.h ****   * @param  __CHANNEL_INSTANCE__ DMAx_Channely
 400:Drivers/STM32G4xx_HAL_Driver/Inc/stm32g4xx_ll_dma.h ****   * @retval DMAx
 401:Drivers/STM32G4xx_HAL_Driver/Inc/stm32g4xx_ll_dma.h ****   */
 402:Drivers/STM32G4xx_HAL_Driver/Inc/stm32g4xx_ll_dma.h **** #if defined (DMA1_Channel8)
 403:Drivers/STM32G4xx_HAL_Driver/Inc/stm32g4xx_ll_dma.h **** #define __LL_DMA_GET_INSTANCE(__CHANNEL_INSTANCE__)   \
 404:Drivers/STM32G4xx_HAL_Driver/Inc/stm32g4xx_ll_dma.h ****   (((uint32_t)(__CHANNEL_INSTANCE__) > ((uint32_t)DMA1_Channel8)) ?  DMA2 : DMA1)
 405:Drivers/STM32G4xx_HAL_Driver/Inc/stm32g4xx_ll_dma.h **** #else
 406:Drivers/STM32G4xx_HAL_Driver/Inc/stm32g4xx_ll_dma.h **** #define __LL_DMA_GET_INSTANCE(__CHANNEL_INSTANCE__)   \
 407:Drivers/STM32G4xx_HAL_Driver/Inc/stm32g4xx_ll_dma.h ****   (((uint32_t)(__CHANNEL_INSTANCE__) > ((uint32_t)DMA1_Channel6)) ?  DMA2 : DMA1)
 408:Drivers/STM32G4xx_HAL_Driver/Inc/stm32g4xx_ll_dma.h **** #endif /* DMA1_Channel8 */
 409:Drivers/STM32G4xx_HAL_Driver/Inc/stm32g4xx_ll_dma.h **** /**
 410:Drivers/STM32G4xx_HAL_Driver/Inc/stm32g4xx_ll_dma.h ****   * @brief  Convert DMAx_Channely into LL_DMA_CHANNEL_y
 411:Drivers/STM32G4xx_HAL_Driver/Inc/stm32g4xx_ll_dma.h ****   * @param  __CHANNEL_INSTANCE__ DMAx_Channely
 412:Drivers/STM32G4xx_HAL_Driver/Inc/stm32g4xx_ll_dma.h ****   * @retval LL_DMA_CHANNEL_y
 413:Drivers/STM32G4xx_HAL_Driver/Inc/stm32g4xx_ll_dma.h ****   */
 414:Drivers/STM32G4xx_HAL_Driver/Inc/stm32g4xx_ll_dma.h **** #if defined (DMA1_Channel8)
 415:Drivers/STM32G4xx_HAL_Driver/Inc/stm32g4xx_ll_dma.h **** #define __LL_DMA_GET_CHANNEL(__CHANNEL_INSTANCE__)   \
 416:Drivers/STM32G4xx_HAL_Driver/Inc/stm32g4xx_ll_dma.h ****   (((uint32_t)(__CHANNEL_INSTANCE__) == ((uint32_t)DMA1_Channel1)) ? LL_DMA_CHANNEL_1 : \
 417:Drivers/STM32G4xx_HAL_Driver/Inc/stm32g4xx_ll_dma.h ****    ((uint32_t)(__CHANNEL_INSTANCE__) == ((uint32_t)DMA2_Channel1)) ? LL_DMA_CHANNEL_1 : \
 418:Drivers/STM32G4xx_HAL_Driver/Inc/stm32g4xx_ll_dma.h ****    ((uint32_t)(__CHANNEL_INSTANCE__) == ((uint32_t)DMA1_Channel2)) ? LL_DMA_CHANNEL_2 : \
 419:Drivers/STM32G4xx_HAL_Driver/Inc/stm32g4xx_ll_dma.h ****    ((uint32_t)(__CHANNEL_INSTANCE__) == ((uint32_t)DMA2_Channel2)) ? LL_DMA_CHANNEL_2 : \
 420:Drivers/STM32G4xx_HAL_Driver/Inc/stm32g4xx_ll_dma.h ****    ((uint32_t)(__CHANNEL_INSTANCE__) == ((uint32_t)DMA1_Channel3)) ? LL_DMA_CHANNEL_3 : \
 421:Drivers/STM32G4xx_HAL_Driver/Inc/stm32g4xx_ll_dma.h ****    ((uint32_t)(__CHANNEL_INSTANCE__) == ((uint32_t)DMA2_Channel3)) ? LL_DMA_CHANNEL_3 : \
 422:Drivers/STM32G4xx_HAL_Driver/Inc/stm32g4xx_ll_dma.h ****    ((uint32_t)(__CHANNEL_INSTANCE__) == ((uint32_t)DMA1_Channel4)) ? LL_DMA_CHANNEL_4 : \
 423:Drivers/STM32G4xx_HAL_Driver/Inc/stm32g4xx_ll_dma.h ****    ((uint32_t)(__CHANNEL_INSTANCE__) == ((uint32_t)DMA2_Channel4)) ? LL_DMA_CHANNEL_4 : \
 424:Drivers/STM32G4xx_HAL_Driver/Inc/stm32g4xx_ll_dma.h ****    ((uint32_t)(__CHANNEL_INSTANCE__) == ((uint32_t)DMA1_Channel5)) ? LL_DMA_CHANNEL_5 : \
 425:Drivers/STM32G4xx_HAL_Driver/Inc/stm32g4xx_ll_dma.h ****    ((uint32_t)(__CHANNEL_INSTANCE__) == ((uint32_t)DMA2_Channel5)) ? LL_DMA_CHANNEL_5 : \
 426:Drivers/STM32G4xx_HAL_Driver/Inc/stm32g4xx_ll_dma.h ****    ((uint32_t)(__CHANNEL_INSTANCE__) == ((uint32_t)DMA1_Channel6)) ? LL_DMA_CHANNEL_6 : \
 427:Drivers/STM32G4xx_HAL_Driver/Inc/stm32g4xx_ll_dma.h ****    ((uint32_t)(__CHANNEL_INSTANCE__) == ((uint32_t)DMA2_Channel6)) ? LL_DMA_CHANNEL_6 : \
 428:Drivers/STM32G4xx_HAL_Driver/Inc/stm32g4xx_ll_dma.h ****    ((uint32_t)(__CHANNEL_INSTANCE__) == ((uint32_t)DMA1_Channel7)) ? LL_DMA_CHANNEL_7 : \
 429:Drivers/STM32G4xx_HAL_Driver/Inc/stm32g4xx_ll_dma.h ****    ((uint32_t)(__CHANNEL_INSTANCE__) == ((uint32_t)DMA2_Channel7)) ? LL_DMA_CHANNEL_7 : \
 430:Drivers/STM32G4xx_HAL_Driver/Inc/stm32g4xx_ll_dma.h ****    LL_DMA_CHANNEL_8)
 431:Drivers/STM32G4xx_HAL_Driver/Inc/stm32g4xx_ll_dma.h **** #else
 432:Drivers/STM32G4xx_HAL_Driver/Inc/stm32g4xx_ll_dma.h **** #define __LL_DMA_GET_CHANNEL(__CHANNEL_INSTANCE__)   \
 433:Drivers/STM32G4xx_HAL_Driver/Inc/stm32g4xx_ll_dma.h ****   (((uint32_t)(__CHANNEL_INSTANCE__) == ((uint32_t)DMA1_Channel1)) ? LL_DMA_CHANNEL_1 : \
 434:Drivers/STM32G4xx_HAL_Driver/Inc/stm32g4xx_ll_dma.h ****    ((uint32_t)(__CHANNEL_INSTANCE__) == ((uint32_t)DMA2_Channel1)) ? LL_DMA_CHANNEL_1 : \
 435:Drivers/STM32G4xx_HAL_Driver/Inc/stm32g4xx_ll_dma.h ****    ((uint32_t)(__CHANNEL_INSTANCE__) == ((uint32_t)DMA1_Channel2)) ? LL_DMA_CHANNEL_2 : \
 436:Drivers/STM32G4xx_HAL_Driver/Inc/stm32g4xx_ll_dma.h ****    ((uint32_t)(__CHANNEL_INSTANCE__) == ((uint32_t)DMA2_Channel2)) ? LL_DMA_CHANNEL_2 : \
 437:Drivers/STM32G4xx_HAL_Driver/Inc/stm32g4xx_ll_dma.h ****    ((uint32_t)(__CHANNEL_INSTANCE__) == ((uint32_t)DMA1_Channel3)) ? LL_DMA_CHANNEL_3 : \
 438:Drivers/STM32G4xx_HAL_Driver/Inc/stm32g4xx_ll_dma.h ****    ((uint32_t)(__CHANNEL_INSTANCE__) == ((uint32_t)DMA2_Channel3)) ? LL_DMA_CHANNEL_3 : \
 439:Drivers/STM32G4xx_HAL_Driver/Inc/stm32g4xx_ll_dma.h ****    ((uint32_t)(__CHANNEL_INSTANCE__) == ((uint32_t)DMA1_Channel4)) ? LL_DMA_CHANNEL_4 : \
 440:Drivers/STM32G4xx_HAL_Driver/Inc/stm32g4xx_ll_dma.h ****    ((uint32_t)(__CHANNEL_INSTANCE__) == ((uint32_t)DMA2_Channel4)) ? LL_DMA_CHANNEL_4 : \
 441:Drivers/STM32G4xx_HAL_Driver/Inc/stm32g4xx_ll_dma.h ****    ((uint32_t)(__CHANNEL_INSTANCE__) == ((uint32_t)DMA1_Channel5)) ? LL_DMA_CHANNEL_5 : \
 442:Drivers/STM32G4xx_HAL_Driver/Inc/stm32g4xx_ll_dma.h ****    ((uint32_t)(__CHANNEL_INSTANCE__) == ((uint32_t)DMA2_Channel5)) ? LL_DMA_CHANNEL_5 : \
 443:Drivers/STM32G4xx_HAL_Driver/Inc/stm32g4xx_ll_dma.h ****    LL_DMA_CHANNEL_6)
 444:Drivers/STM32G4xx_HAL_Driver/Inc/stm32g4xx_ll_dma.h **** #endif /* DMA1_Channel8 */
 445:Drivers/STM32G4xx_HAL_Driver/Inc/stm32g4xx_ll_dma.h **** 
 446:Drivers/STM32G4xx_HAL_Driver/Inc/stm32g4xx_ll_dma.h **** /**
 447:Drivers/STM32G4xx_HAL_Driver/Inc/stm32g4xx_ll_dma.h ****   * @brief  Convert DMA Instance DMAx and LL_DMA_CHANNEL_y into DMAx_Channely
 448:Drivers/STM32G4xx_HAL_Driver/Inc/stm32g4xx_ll_dma.h ****   * @param  __DMA_INSTANCE__ DMAx
 449:Drivers/STM32G4xx_HAL_Driver/Inc/stm32g4xx_ll_dma.h ****   * @param  __CHANNEL__ LL_DMA_CHANNEL_y
 450:Drivers/STM32G4xx_HAL_Driver/Inc/stm32g4xx_ll_dma.h ****   * @retval DMAx_Channely
 451:Drivers/STM32G4xx_HAL_Driver/Inc/stm32g4xx_ll_dma.h ****   */
 452:Drivers/STM32G4xx_HAL_Driver/Inc/stm32g4xx_ll_dma.h **** #if defined (DMA1_Channel8)
ARM GAS  /tmp/cc2tlrck.s 			page 15


 453:Drivers/STM32G4xx_HAL_Driver/Inc/stm32g4xx_ll_dma.h **** #define __LL_DMA_GET_CHANNEL_INSTANCE(__DMA_INSTANCE__, __CHANNEL__)   \
 454:Drivers/STM32G4xx_HAL_Driver/Inc/stm32g4xx_ll_dma.h ****   ((((uint32_t)(__DMA_INSTANCE__) == ((uint32_t)DMA1)) && ((uint32_t)(__CHANNEL__) == ((uint32_t)LL
 455:Drivers/STM32G4xx_HAL_Driver/Inc/stm32g4xx_ll_dma.h ****    (((uint32_t)(__DMA_INSTANCE__) == ((uint32_t)DMA2)) && ((uint32_t)(__CHANNEL__) == ((uint32_t)LL
 456:Drivers/STM32G4xx_HAL_Driver/Inc/stm32g4xx_ll_dma.h ****    (((uint32_t)(__DMA_INSTANCE__) == ((uint32_t)DMA1)) && ((uint32_t)(__CHANNEL__) == ((uint32_t)LL
 457:Drivers/STM32G4xx_HAL_Driver/Inc/stm32g4xx_ll_dma.h ****    (((uint32_t)(__DMA_INSTANCE__) == ((uint32_t)DMA2)) && ((uint32_t)(__CHANNEL__) == ((uint32_t)LL
 458:Drivers/STM32G4xx_HAL_Driver/Inc/stm32g4xx_ll_dma.h ****    (((uint32_t)(__DMA_INSTANCE__) == ((uint32_t)DMA1)) && ((uint32_t)(__CHANNEL__) == ((uint32_t)LL
 459:Drivers/STM32G4xx_HAL_Driver/Inc/stm32g4xx_ll_dma.h ****    (((uint32_t)(__DMA_INSTANCE__) == ((uint32_t)DMA2)) && ((uint32_t)(__CHANNEL__) == ((uint32_t)LL
 460:Drivers/STM32G4xx_HAL_Driver/Inc/stm32g4xx_ll_dma.h ****    (((uint32_t)(__DMA_INSTANCE__) == ((uint32_t)DMA1)) && ((uint32_t)(__CHANNEL__) == ((uint32_t)LL
 461:Drivers/STM32G4xx_HAL_Driver/Inc/stm32g4xx_ll_dma.h ****    (((uint32_t)(__DMA_INSTANCE__) == ((uint32_t)DMA2)) && ((uint32_t)(__CHANNEL__) == ((uint32_t)LL
 462:Drivers/STM32G4xx_HAL_Driver/Inc/stm32g4xx_ll_dma.h ****    (((uint32_t)(__DMA_INSTANCE__) == ((uint32_t)DMA1)) && ((uint32_t)(__CHANNEL__) == ((uint32_t)LL
 463:Drivers/STM32G4xx_HAL_Driver/Inc/stm32g4xx_ll_dma.h ****    (((uint32_t)(__DMA_INSTANCE__) == ((uint32_t)DMA2)) && ((uint32_t)(__CHANNEL__) == ((uint32_t)LL
 464:Drivers/STM32G4xx_HAL_Driver/Inc/stm32g4xx_ll_dma.h ****    (((uint32_t)(__DMA_INSTANCE__) == ((uint32_t)DMA1)) && ((uint32_t)(__CHANNEL__) == ((uint32_t)LL
 465:Drivers/STM32G4xx_HAL_Driver/Inc/stm32g4xx_ll_dma.h ****    (((uint32_t)(__DMA_INSTANCE__) == ((uint32_t)DMA2)) && ((uint32_t)(__CHANNEL__) == ((uint32_t)LL
 466:Drivers/STM32G4xx_HAL_Driver/Inc/stm32g4xx_ll_dma.h ****    (((uint32_t)(__DMA_INSTANCE__) == ((uint32_t)DMA1)) && ((uint32_t)(__CHANNEL__) == ((uint32_t)LL
 467:Drivers/STM32G4xx_HAL_Driver/Inc/stm32g4xx_ll_dma.h ****    (((uint32_t)(__DMA_INSTANCE__) == ((uint32_t)DMA2)) && ((uint32_t)(__CHANNEL__) == ((uint32_t)LL
 468:Drivers/STM32G4xx_HAL_Driver/Inc/stm32g4xx_ll_dma.h ****    (((uint32_t)(__DMA_INSTANCE__) == ((uint32_t)DMA1)) && ((uint32_t)(__CHANNEL__) == ((uint32_t)LL
 469:Drivers/STM32G4xx_HAL_Driver/Inc/stm32g4xx_ll_dma.h ****    DMA2_Channel8)
 470:Drivers/STM32G4xx_HAL_Driver/Inc/stm32g4xx_ll_dma.h **** #else
 471:Drivers/STM32G4xx_HAL_Driver/Inc/stm32g4xx_ll_dma.h **** #define __LL_DMA_GET_CHANNEL_INSTANCE(__DMA_INSTANCE__, __CHANNEL__)   \
 472:Drivers/STM32G4xx_HAL_Driver/Inc/stm32g4xx_ll_dma.h ****   ((((uint32_t)(__DMA_INSTANCE__) == ((uint32_t)DMA1)) && ((uint32_t)(__CHANNEL__) == ((uint32_t)LL
 473:Drivers/STM32G4xx_HAL_Driver/Inc/stm32g4xx_ll_dma.h ****    (((uint32_t)(__DMA_INSTANCE__) == ((uint32_t)DMA2)) && ((uint32_t)(__CHANNEL__) == ((uint32_t)LL
 474:Drivers/STM32G4xx_HAL_Driver/Inc/stm32g4xx_ll_dma.h ****    (((uint32_t)(__DMA_INSTANCE__) == ((uint32_t)DMA1)) && ((uint32_t)(__CHANNEL__) == ((uint32_t)LL
 475:Drivers/STM32G4xx_HAL_Driver/Inc/stm32g4xx_ll_dma.h ****    (((uint32_t)(__DMA_INSTANCE__) == ((uint32_t)DMA2)) && ((uint32_t)(__CHANNEL__) == ((uint32_t)LL
 476:Drivers/STM32G4xx_HAL_Driver/Inc/stm32g4xx_ll_dma.h ****    (((uint32_t)(__DMA_INSTANCE__) == ((uint32_t)DMA1)) && ((uint32_t)(__CHANNEL__) == ((uint32_t)LL
 477:Drivers/STM32G4xx_HAL_Driver/Inc/stm32g4xx_ll_dma.h ****    (((uint32_t)(__DMA_INSTANCE__) == ((uint32_t)DMA2)) && ((uint32_t)(__CHANNEL__) == ((uint32_t)LL
 478:Drivers/STM32G4xx_HAL_Driver/Inc/stm32g4xx_ll_dma.h ****    (((uint32_t)(__DMA_INSTANCE__) == ((uint32_t)DMA1)) && ((uint32_t)(__CHANNEL__) == ((uint32_t)LL
 479:Drivers/STM32G4xx_HAL_Driver/Inc/stm32g4xx_ll_dma.h ****    (((uint32_t)(__DMA_INSTANCE__) == ((uint32_t)DMA2)) && ((uint32_t)(__CHANNEL__) == ((uint32_t)LL
 480:Drivers/STM32G4xx_HAL_Driver/Inc/stm32g4xx_ll_dma.h ****    (((uint32_t)(__DMA_INSTANCE__) == ((uint32_t)DMA1)) && ((uint32_t)(__CHANNEL__) == ((uint32_t)LL
 481:Drivers/STM32G4xx_HAL_Driver/Inc/stm32g4xx_ll_dma.h ****    (((uint32_t)(__DMA_INSTANCE__) == ((uint32_t)DMA2)) && ((uint32_t)(__CHANNEL__) == ((uint32_t)LL
 482:Drivers/STM32G4xx_HAL_Driver/Inc/stm32g4xx_ll_dma.h ****    (((uint32_t)(__DMA_INSTANCE__) == ((uint32_t)DMA1)) && ((uint32_t)(__CHANNEL__) == ((uint32_t)LL
 483:Drivers/STM32G4xx_HAL_Driver/Inc/stm32g4xx_ll_dma.h ****    DMA2_Channel6)
 484:Drivers/STM32G4xx_HAL_Driver/Inc/stm32g4xx_ll_dma.h **** #endif /* DMA1_Channel8 */
 485:Drivers/STM32G4xx_HAL_Driver/Inc/stm32g4xx_ll_dma.h **** 
 486:Drivers/STM32G4xx_HAL_Driver/Inc/stm32g4xx_ll_dma.h **** /**
 487:Drivers/STM32G4xx_HAL_Driver/Inc/stm32g4xx_ll_dma.h ****   * @}
 488:Drivers/STM32G4xx_HAL_Driver/Inc/stm32g4xx_ll_dma.h ****   */
 489:Drivers/STM32G4xx_HAL_Driver/Inc/stm32g4xx_ll_dma.h **** 
 490:Drivers/STM32G4xx_HAL_Driver/Inc/stm32g4xx_ll_dma.h **** /**
 491:Drivers/STM32G4xx_HAL_Driver/Inc/stm32g4xx_ll_dma.h ****   * @}
 492:Drivers/STM32G4xx_HAL_Driver/Inc/stm32g4xx_ll_dma.h ****   */
 493:Drivers/STM32G4xx_HAL_Driver/Inc/stm32g4xx_ll_dma.h **** 
 494:Drivers/STM32G4xx_HAL_Driver/Inc/stm32g4xx_ll_dma.h **** /* Exported functions --------------------------------------------------------*/
 495:Drivers/STM32G4xx_HAL_Driver/Inc/stm32g4xx_ll_dma.h **** /** @defgroup DMA_LL_Exported_Functions DMA Exported Functions
 496:Drivers/STM32G4xx_HAL_Driver/Inc/stm32g4xx_ll_dma.h ****   * @{
 497:Drivers/STM32G4xx_HAL_Driver/Inc/stm32g4xx_ll_dma.h ****   */
 498:Drivers/STM32G4xx_HAL_Driver/Inc/stm32g4xx_ll_dma.h **** 
 499:Drivers/STM32G4xx_HAL_Driver/Inc/stm32g4xx_ll_dma.h **** /** @defgroup DMA_LL_EF_Configuration Configuration
 500:Drivers/STM32G4xx_HAL_Driver/Inc/stm32g4xx_ll_dma.h ****   * @{
 501:Drivers/STM32G4xx_HAL_Driver/Inc/stm32g4xx_ll_dma.h ****   */
 502:Drivers/STM32G4xx_HAL_Driver/Inc/stm32g4xx_ll_dma.h **** /**
 503:Drivers/STM32G4xx_HAL_Driver/Inc/stm32g4xx_ll_dma.h ****   * @brief  Enable DMA channel.
 504:Drivers/STM32G4xx_HAL_Driver/Inc/stm32g4xx_ll_dma.h ****   * @rmtoll CCR          EN            LL_DMA_EnableChannel
 505:Drivers/STM32G4xx_HAL_Driver/Inc/stm32g4xx_ll_dma.h ****   * @param  DMAx DMAx Instance
 506:Drivers/STM32G4xx_HAL_Driver/Inc/stm32g4xx_ll_dma.h ****   * @param  Channel This parameter can be one of the following values:
 507:Drivers/STM32G4xx_HAL_Driver/Inc/stm32g4xx_ll_dma.h ****   *         @arg @ref LL_DMA_CHANNEL_1
 508:Drivers/STM32G4xx_HAL_Driver/Inc/stm32g4xx_ll_dma.h ****   *         @arg @ref LL_DMA_CHANNEL_2
 509:Drivers/STM32G4xx_HAL_Driver/Inc/stm32g4xx_ll_dma.h ****   *         @arg @ref LL_DMA_CHANNEL_3
ARM GAS  /tmp/cc2tlrck.s 			page 16


 510:Drivers/STM32G4xx_HAL_Driver/Inc/stm32g4xx_ll_dma.h ****   *         @arg @ref LL_DMA_CHANNEL_4
 511:Drivers/STM32G4xx_HAL_Driver/Inc/stm32g4xx_ll_dma.h ****   *         @arg @ref LL_DMA_CHANNEL_5
 512:Drivers/STM32G4xx_HAL_Driver/Inc/stm32g4xx_ll_dma.h ****   *         @arg @ref LL_DMA_CHANNEL_6
 513:Drivers/STM32G4xx_HAL_Driver/Inc/stm32g4xx_ll_dma.h ****   *         @arg @ref LL_DMA_CHANNEL_7 (*)
 514:Drivers/STM32G4xx_HAL_Driver/Inc/stm32g4xx_ll_dma.h ****   *         @arg @ref LL_DMA_CHANNEL_8 (*)
 515:Drivers/STM32G4xx_HAL_Driver/Inc/stm32g4xx_ll_dma.h ****   *         (*) Not on all G4 devices
 516:Drivers/STM32G4xx_HAL_Driver/Inc/stm32g4xx_ll_dma.h ****   * @retval None
 517:Drivers/STM32G4xx_HAL_Driver/Inc/stm32g4xx_ll_dma.h ****   */
 518:Drivers/STM32G4xx_HAL_Driver/Inc/stm32g4xx_ll_dma.h **** __STATIC_INLINE void LL_DMA_EnableChannel(DMA_TypeDef *DMAx, uint32_t Channel)
 519:Drivers/STM32G4xx_HAL_Driver/Inc/stm32g4xx_ll_dma.h **** {
 520:Drivers/STM32G4xx_HAL_Driver/Inc/stm32g4xx_ll_dma.h ****   uint32_t dma_base_addr = (uint32_t)DMAx;
 521:Drivers/STM32G4xx_HAL_Driver/Inc/stm32g4xx_ll_dma.h ****   SET_BIT(((DMA_Channel_TypeDef *)((uint32_t)(dma_base_addr + CHANNEL_OFFSET_TAB[Channel])))->CCR, 
 522:Drivers/STM32G4xx_HAL_Driver/Inc/stm32g4xx_ll_dma.h **** }
 523:Drivers/STM32G4xx_HAL_Driver/Inc/stm32g4xx_ll_dma.h **** 
 524:Drivers/STM32G4xx_HAL_Driver/Inc/stm32g4xx_ll_dma.h **** /**
 525:Drivers/STM32G4xx_HAL_Driver/Inc/stm32g4xx_ll_dma.h ****   * @brief  Disable DMA channel.
 526:Drivers/STM32G4xx_HAL_Driver/Inc/stm32g4xx_ll_dma.h ****   * @rmtoll CCR          EN            LL_DMA_DisableChannel
 527:Drivers/STM32G4xx_HAL_Driver/Inc/stm32g4xx_ll_dma.h ****   * @param  DMAx DMAx Instance
 528:Drivers/STM32G4xx_HAL_Driver/Inc/stm32g4xx_ll_dma.h ****   * @param  Channel This parameter can be one of the following values:
 529:Drivers/STM32G4xx_HAL_Driver/Inc/stm32g4xx_ll_dma.h ****   *         @arg @ref LL_DMA_CHANNEL_1
 530:Drivers/STM32G4xx_HAL_Driver/Inc/stm32g4xx_ll_dma.h ****   *         @arg @ref LL_DMA_CHANNEL_2
 531:Drivers/STM32G4xx_HAL_Driver/Inc/stm32g4xx_ll_dma.h ****   *         @arg @ref LL_DMA_CHANNEL_3
 532:Drivers/STM32G4xx_HAL_Driver/Inc/stm32g4xx_ll_dma.h ****   *         @arg @ref LL_DMA_CHANNEL_4
 533:Drivers/STM32G4xx_HAL_Driver/Inc/stm32g4xx_ll_dma.h ****   *         @arg @ref LL_DMA_CHANNEL_5
 534:Drivers/STM32G4xx_HAL_Driver/Inc/stm32g4xx_ll_dma.h ****   *         @arg @ref LL_DMA_CHANNEL_6
 535:Drivers/STM32G4xx_HAL_Driver/Inc/stm32g4xx_ll_dma.h ****   *         @arg @ref LL_DMA_CHANNEL_7 (*)
 536:Drivers/STM32G4xx_HAL_Driver/Inc/stm32g4xx_ll_dma.h ****   *         @arg @ref LL_DMA_CHANNEL_8 (*)
 537:Drivers/STM32G4xx_HAL_Driver/Inc/stm32g4xx_ll_dma.h ****   *         (*) Not on all G4 devices
 538:Drivers/STM32G4xx_HAL_Driver/Inc/stm32g4xx_ll_dma.h ****   * @retval None
 539:Drivers/STM32G4xx_HAL_Driver/Inc/stm32g4xx_ll_dma.h ****   */
 540:Drivers/STM32G4xx_HAL_Driver/Inc/stm32g4xx_ll_dma.h **** __STATIC_INLINE void LL_DMA_DisableChannel(DMA_TypeDef *DMAx, uint32_t Channel)
 541:Drivers/STM32G4xx_HAL_Driver/Inc/stm32g4xx_ll_dma.h **** {
 542:Drivers/STM32G4xx_HAL_Driver/Inc/stm32g4xx_ll_dma.h ****   uint32_t dma_base_addr = (uint32_t)DMAx;
 543:Drivers/STM32G4xx_HAL_Driver/Inc/stm32g4xx_ll_dma.h ****   CLEAR_BIT(((DMA_Channel_TypeDef *)((uint32_t)(dma_base_addr + CHANNEL_OFFSET_TAB[Channel])))->CCR
 544:Drivers/STM32G4xx_HAL_Driver/Inc/stm32g4xx_ll_dma.h **** }
 545:Drivers/STM32G4xx_HAL_Driver/Inc/stm32g4xx_ll_dma.h **** 
 546:Drivers/STM32G4xx_HAL_Driver/Inc/stm32g4xx_ll_dma.h **** /**
 547:Drivers/STM32G4xx_HAL_Driver/Inc/stm32g4xx_ll_dma.h ****   * @brief  Check if DMA channel is enabled or disabled.
 548:Drivers/STM32G4xx_HAL_Driver/Inc/stm32g4xx_ll_dma.h ****   * @rmtoll CCR          EN            LL_DMA_IsEnabledChannel
 549:Drivers/STM32G4xx_HAL_Driver/Inc/stm32g4xx_ll_dma.h ****   * @param  DMAx DMAx Instance
 550:Drivers/STM32G4xx_HAL_Driver/Inc/stm32g4xx_ll_dma.h ****   * @param  Channel This parameter can be one of the following values:
 551:Drivers/STM32G4xx_HAL_Driver/Inc/stm32g4xx_ll_dma.h ****   *         @arg @ref LL_DMA_CHANNEL_1
 552:Drivers/STM32G4xx_HAL_Driver/Inc/stm32g4xx_ll_dma.h ****   *         @arg @ref LL_DMA_CHANNEL_2
 553:Drivers/STM32G4xx_HAL_Driver/Inc/stm32g4xx_ll_dma.h ****   *         @arg @ref LL_DMA_CHANNEL_3
 554:Drivers/STM32G4xx_HAL_Driver/Inc/stm32g4xx_ll_dma.h ****   *         @arg @ref LL_DMA_CHANNEL_4
 555:Drivers/STM32G4xx_HAL_Driver/Inc/stm32g4xx_ll_dma.h ****   *         @arg @ref LL_DMA_CHANNEL_5
 556:Drivers/STM32G4xx_HAL_Driver/Inc/stm32g4xx_ll_dma.h ****   *         @arg @ref LL_DMA_CHANNEL_6
 557:Drivers/STM32G4xx_HAL_Driver/Inc/stm32g4xx_ll_dma.h ****   *         @arg @ref LL_DMA_CHANNEL_7 (*)
 558:Drivers/STM32G4xx_HAL_Driver/Inc/stm32g4xx_ll_dma.h ****   *         @arg @ref LL_DMA_CHANNEL_8 (*)
 559:Drivers/STM32G4xx_HAL_Driver/Inc/stm32g4xx_ll_dma.h ****   *         (*) Not on all G4 devices
 560:Drivers/STM32G4xx_HAL_Driver/Inc/stm32g4xx_ll_dma.h ****   * @retval State of bit (1 or 0).
 561:Drivers/STM32G4xx_HAL_Driver/Inc/stm32g4xx_ll_dma.h ****   */
 562:Drivers/STM32G4xx_HAL_Driver/Inc/stm32g4xx_ll_dma.h **** __STATIC_INLINE uint32_t LL_DMA_IsEnabledChannel(DMA_TypeDef *DMAx, uint32_t Channel)
 563:Drivers/STM32G4xx_HAL_Driver/Inc/stm32g4xx_ll_dma.h **** {
 564:Drivers/STM32G4xx_HAL_Driver/Inc/stm32g4xx_ll_dma.h ****   uint32_t dma_base_addr = (uint32_t)DMAx;
 565:Drivers/STM32G4xx_HAL_Driver/Inc/stm32g4xx_ll_dma.h ****   return ((READ_BIT(((DMA_Channel_TypeDef *)((uint32_t)(dma_base_addr + CHANNEL_OFFSET_TAB[Channel]
 566:Drivers/STM32G4xx_HAL_Driver/Inc/stm32g4xx_ll_dma.h ****                     DMA_CCR_EN) == (DMA_CCR_EN)) ? 1UL : 0UL);
ARM GAS  /tmp/cc2tlrck.s 			page 17


 567:Drivers/STM32G4xx_HAL_Driver/Inc/stm32g4xx_ll_dma.h **** }
 568:Drivers/STM32G4xx_HAL_Driver/Inc/stm32g4xx_ll_dma.h **** 
 569:Drivers/STM32G4xx_HAL_Driver/Inc/stm32g4xx_ll_dma.h **** /**
 570:Drivers/STM32G4xx_HAL_Driver/Inc/stm32g4xx_ll_dma.h ****   * @brief  Configure all parameters link to DMA transfer.
 571:Drivers/STM32G4xx_HAL_Driver/Inc/stm32g4xx_ll_dma.h ****   * @rmtoll CCR          DIR           LL_DMA_ConfigTransfer\n
 572:Drivers/STM32G4xx_HAL_Driver/Inc/stm32g4xx_ll_dma.h ****   *         CCR          MEM2MEM       LL_DMA_ConfigTransfer\n
 573:Drivers/STM32G4xx_HAL_Driver/Inc/stm32g4xx_ll_dma.h ****   *         CCR          CIRC          LL_DMA_ConfigTransfer\n
 574:Drivers/STM32G4xx_HAL_Driver/Inc/stm32g4xx_ll_dma.h ****   *         CCR          PINC          LL_DMA_ConfigTransfer\n
 575:Drivers/STM32G4xx_HAL_Driver/Inc/stm32g4xx_ll_dma.h ****   *         CCR          MINC          LL_DMA_ConfigTransfer\n
 576:Drivers/STM32G4xx_HAL_Driver/Inc/stm32g4xx_ll_dma.h ****   *         CCR          PSIZE         LL_DMA_ConfigTransfer\n
 577:Drivers/STM32G4xx_HAL_Driver/Inc/stm32g4xx_ll_dma.h ****   *         CCR          MSIZE         LL_DMA_ConfigTransfer\n
 578:Drivers/STM32G4xx_HAL_Driver/Inc/stm32g4xx_ll_dma.h ****   *         CCR          PL            LL_DMA_ConfigTransfer
 579:Drivers/STM32G4xx_HAL_Driver/Inc/stm32g4xx_ll_dma.h ****   * @param  DMAx DMAx Instance
 580:Drivers/STM32G4xx_HAL_Driver/Inc/stm32g4xx_ll_dma.h ****   * @param  Channel This parameter can be one of the following values:
 581:Drivers/STM32G4xx_HAL_Driver/Inc/stm32g4xx_ll_dma.h ****   *         @arg @ref LL_DMA_CHANNEL_1
 582:Drivers/STM32G4xx_HAL_Driver/Inc/stm32g4xx_ll_dma.h ****   *         @arg @ref LL_DMA_CHANNEL_2
 583:Drivers/STM32G4xx_HAL_Driver/Inc/stm32g4xx_ll_dma.h ****   *         @arg @ref LL_DMA_CHANNEL_3
 584:Drivers/STM32G4xx_HAL_Driver/Inc/stm32g4xx_ll_dma.h ****   *         @arg @ref LL_DMA_CHANNEL_4
 585:Drivers/STM32G4xx_HAL_Driver/Inc/stm32g4xx_ll_dma.h ****   *         @arg @ref LL_DMA_CHANNEL_5
 586:Drivers/STM32G4xx_HAL_Driver/Inc/stm32g4xx_ll_dma.h ****   *         @arg @ref LL_DMA_CHANNEL_6
 587:Drivers/STM32G4xx_HAL_Driver/Inc/stm32g4xx_ll_dma.h ****   *         @arg @ref LL_DMA_CHANNEL_7 (*)
 588:Drivers/STM32G4xx_HAL_Driver/Inc/stm32g4xx_ll_dma.h ****   *         @arg @ref LL_DMA_CHANNEL_8 (*)
 589:Drivers/STM32G4xx_HAL_Driver/Inc/stm32g4xx_ll_dma.h ****   *         (*) Not on all G4 devices
 590:Drivers/STM32G4xx_HAL_Driver/Inc/stm32g4xx_ll_dma.h ****   * @param  Configuration This parameter must be a combination of all the following values:
 591:Drivers/STM32G4xx_HAL_Driver/Inc/stm32g4xx_ll_dma.h ****   *         @arg @ref LL_DMA_DIRECTION_PERIPH_TO_MEMORY or @ref LL_DMA_DIRECTION_MEMORY_TO_PERIPH o
 592:Drivers/STM32G4xx_HAL_Driver/Inc/stm32g4xx_ll_dma.h ****   *         @arg @ref LL_DMA_MODE_NORMAL or @ref LL_DMA_MODE_CIRCULAR
 593:Drivers/STM32G4xx_HAL_Driver/Inc/stm32g4xx_ll_dma.h ****   *         @arg @ref LL_DMA_PERIPH_INCREMENT or @ref LL_DMA_PERIPH_NOINCREMENT
 594:Drivers/STM32G4xx_HAL_Driver/Inc/stm32g4xx_ll_dma.h ****   *         @arg @ref LL_DMA_MEMORY_INCREMENT or @ref LL_DMA_MEMORY_NOINCREMENT
 595:Drivers/STM32G4xx_HAL_Driver/Inc/stm32g4xx_ll_dma.h ****   *         @arg @ref LL_DMA_PDATAALIGN_BYTE or @ref LL_DMA_PDATAALIGN_HALFWORD or @ref LL_DMA_PDAT
 596:Drivers/STM32G4xx_HAL_Driver/Inc/stm32g4xx_ll_dma.h ****   *         @arg @ref LL_DMA_MDATAALIGN_BYTE or @ref LL_DMA_MDATAALIGN_HALFWORD or @ref LL_DMA_MDAT
 597:Drivers/STM32G4xx_HAL_Driver/Inc/stm32g4xx_ll_dma.h ****   *         @arg @ref LL_DMA_PRIORITY_LOW or @ref LL_DMA_PRIORITY_MEDIUM or @ref LL_DMA_PRIORITY_HI
 598:Drivers/STM32G4xx_HAL_Driver/Inc/stm32g4xx_ll_dma.h ****   * @retval None
 599:Drivers/STM32G4xx_HAL_Driver/Inc/stm32g4xx_ll_dma.h ****   */
 600:Drivers/STM32G4xx_HAL_Driver/Inc/stm32g4xx_ll_dma.h **** __STATIC_INLINE void LL_DMA_ConfigTransfer(DMA_TypeDef *DMAx, uint32_t Channel, uint32_t Configurat
 601:Drivers/STM32G4xx_HAL_Driver/Inc/stm32g4xx_ll_dma.h **** {
 602:Drivers/STM32G4xx_HAL_Driver/Inc/stm32g4xx_ll_dma.h ****   uint32_t dma_base_addr = (uint32_t)DMAx;
 603:Drivers/STM32G4xx_HAL_Driver/Inc/stm32g4xx_ll_dma.h ****   MODIFY_REG(((DMA_Channel_TypeDef *)((uint32_t)(dma_base_addr + CHANNEL_OFFSET_TAB[Channel])))->CC
 604:Drivers/STM32G4xx_HAL_Driver/Inc/stm32g4xx_ll_dma.h ****              DMA_CCR_DIR | DMA_CCR_MEM2MEM | DMA_CCR_CIRC | DMA_CCR_PINC | DMA_CCR_MINC | DMA_CCR_P
 605:Drivers/STM32G4xx_HAL_Driver/Inc/stm32g4xx_ll_dma.h ****              Configuration);
 606:Drivers/STM32G4xx_HAL_Driver/Inc/stm32g4xx_ll_dma.h **** }
 607:Drivers/STM32G4xx_HAL_Driver/Inc/stm32g4xx_ll_dma.h **** 
 608:Drivers/STM32G4xx_HAL_Driver/Inc/stm32g4xx_ll_dma.h **** /**
 609:Drivers/STM32G4xx_HAL_Driver/Inc/stm32g4xx_ll_dma.h ****   * @brief  Set Data transfer direction (read from peripheral or from memory).
 610:Drivers/STM32G4xx_HAL_Driver/Inc/stm32g4xx_ll_dma.h ****   * @rmtoll CCR          DIR           LL_DMA_SetDataTransferDirection\n
 611:Drivers/STM32G4xx_HAL_Driver/Inc/stm32g4xx_ll_dma.h ****   *         CCR          MEM2MEM       LL_DMA_SetDataTransferDirection
 612:Drivers/STM32G4xx_HAL_Driver/Inc/stm32g4xx_ll_dma.h ****   * @param  DMAx DMAx Instance
 613:Drivers/STM32G4xx_HAL_Driver/Inc/stm32g4xx_ll_dma.h ****   * @param  Channel This parameter can be one of the following values:
 614:Drivers/STM32G4xx_HAL_Driver/Inc/stm32g4xx_ll_dma.h ****   *         @arg @ref LL_DMA_CHANNEL_1
 615:Drivers/STM32G4xx_HAL_Driver/Inc/stm32g4xx_ll_dma.h ****   *         @arg @ref LL_DMA_CHANNEL_2
 616:Drivers/STM32G4xx_HAL_Driver/Inc/stm32g4xx_ll_dma.h ****   *         @arg @ref LL_DMA_CHANNEL_3
 617:Drivers/STM32G4xx_HAL_Driver/Inc/stm32g4xx_ll_dma.h ****   *         @arg @ref LL_DMA_CHANNEL_4
 618:Drivers/STM32G4xx_HAL_Driver/Inc/stm32g4xx_ll_dma.h ****   *         @arg @ref LL_DMA_CHANNEL_5
 619:Drivers/STM32G4xx_HAL_Driver/Inc/stm32g4xx_ll_dma.h ****   *         @arg @ref LL_DMA_CHANNEL_6
 620:Drivers/STM32G4xx_HAL_Driver/Inc/stm32g4xx_ll_dma.h ****   *         @arg @ref LL_DMA_CHANNEL_7 (*)
 621:Drivers/STM32G4xx_HAL_Driver/Inc/stm32g4xx_ll_dma.h ****   *         @arg @ref LL_DMA_CHANNEL_8 (*)
 622:Drivers/STM32G4xx_HAL_Driver/Inc/stm32g4xx_ll_dma.h ****   *         (*) Not on all G4 devices
 623:Drivers/STM32G4xx_HAL_Driver/Inc/stm32g4xx_ll_dma.h ****   * @param  Direction This parameter can be one of the following values:
ARM GAS  /tmp/cc2tlrck.s 			page 18


 624:Drivers/STM32G4xx_HAL_Driver/Inc/stm32g4xx_ll_dma.h ****   *         @arg @ref LL_DMA_DIRECTION_PERIPH_TO_MEMORY
 625:Drivers/STM32G4xx_HAL_Driver/Inc/stm32g4xx_ll_dma.h ****   *         @arg @ref LL_DMA_DIRECTION_MEMORY_TO_PERIPH
 626:Drivers/STM32G4xx_HAL_Driver/Inc/stm32g4xx_ll_dma.h ****   *         @arg @ref LL_DMA_DIRECTION_MEMORY_TO_MEMORY
 627:Drivers/STM32G4xx_HAL_Driver/Inc/stm32g4xx_ll_dma.h ****   * @retval None
 628:Drivers/STM32G4xx_HAL_Driver/Inc/stm32g4xx_ll_dma.h ****   */
 629:Drivers/STM32G4xx_HAL_Driver/Inc/stm32g4xx_ll_dma.h **** __STATIC_INLINE void LL_DMA_SetDataTransferDirection(DMA_TypeDef *DMAx, uint32_t Channel, uint32_t 
 630:Drivers/STM32G4xx_HAL_Driver/Inc/stm32g4xx_ll_dma.h **** {
 631:Drivers/STM32G4xx_HAL_Driver/Inc/stm32g4xx_ll_dma.h ****   uint32_t dma_base_addr = (uint32_t)DMAx;
 632:Drivers/STM32G4xx_HAL_Driver/Inc/stm32g4xx_ll_dma.h ****   MODIFY_REG(((DMA_Channel_TypeDef *)((uint32_t)(dma_base_addr + CHANNEL_OFFSET_TAB[Channel])))->CC
 633:Drivers/STM32G4xx_HAL_Driver/Inc/stm32g4xx_ll_dma.h ****              DMA_CCR_DIR | DMA_CCR_MEM2MEM, Direction);
 634:Drivers/STM32G4xx_HAL_Driver/Inc/stm32g4xx_ll_dma.h **** }
 635:Drivers/STM32G4xx_HAL_Driver/Inc/stm32g4xx_ll_dma.h **** 
 636:Drivers/STM32G4xx_HAL_Driver/Inc/stm32g4xx_ll_dma.h **** /**
 637:Drivers/STM32G4xx_HAL_Driver/Inc/stm32g4xx_ll_dma.h ****   * @brief  Get Data transfer direction (read from peripheral or from memory).
 638:Drivers/STM32G4xx_HAL_Driver/Inc/stm32g4xx_ll_dma.h ****   * @rmtoll CCR          DIR           LL_DMA_GetDataTransferDirection\n
 639:Drivers/STM32G4xx_HAL_Driver/Inc/stm32g4xx_ll_dma.h ****   *         CCR          MEM2MEM       LL_DMA_GetDataTransferDirection
 640:Drivers/STM32G4xx_HAL_Driver/Inc/stm32g4xx_ll_dma.h ****   * @param  DMAx DMAx Instance
 641:Drivers/STM32G4xx_HAL_Driver/Inc/stm32g4xx_ll_dma.h ****   * @param  Channel This parameter can be one of the following values:
 642:Drivers/STM32G4xx_HAL_Driver/Inc/stm32g4xx_ll_dma.h ****   *         @arg @ref LL_DMA_CHANNEL_1
 643:Drivers/STM32G4xx_HAL_Driver/Inc/stm32g4xx_ll_dma.h ****   *         @arg @ref LL_DMA_CHANNEL_2
 644:Drivers/STM32G4xx_HAL_Driver/Inc/stm32g4xx_ll_dma.h ****   *         @arg @ref LL_DMA_CHANNEL_3
 645:Drivers/STM32G4xx_HAL_Driver/Inc/stm32g4xx_ll_dma.h ****   *         @arg @ref LL_DMA_CHANNEL_4
 646:Drivers/STM32G4xx_HAL_Driver/Inc/stm32g4xx_ll_dma.h ****   *         @arg @ref LL_DMA_CHANNEL_5
 647:Drivers/STM32G4xx_HAL_Driver/Inc/stm32g4xx_ll_dma.h ****   *         @arg @ref LL_DMA_CHANNEL_6
 648:Drivers/STM32G4xx_HAL_Driver/Inc/stm32g4xx_ll_dma.h ****   *         @arg @ref LL_DMA_CHANNEL_7 (*)
 649:Drivers/STM32G4xx_HAL_Driver/Inc/stm32g4xx_ll_dma.h ****   *         @arg @ref LL_DMA_CHANNEL_8 (*)
 650:Drivers/STM32G4xx_HAL_Driver/Inc/stm32g4xx_ll_dma.h ****   *         (*) Not on all G4 devices
 651:Drivers/STM32G4xx_HAL_Driver/Inc/stm32g4xx_ll_dma.h ****   * @retval Returned value can be one of the following values:
 652:Drivers/STM32G4xx_HAL_Driver/Inc/stm32g4xx_ll_dma.h ****   *         @arg @ref LL_DMA_DIRECTION_PERIPH_TO_MEMORY
 653:Drivers/STM32G4xx_HAL_Driver/Inc/stm32g4xx_ll_dma.h ****   *         @arg @ref LL_DMA_DIRECTION_MEMORY_TO_PERIPH
 654:Drivers/STM32G4xx_HAL_Driver/Inc/stm32g4xx_ll_dma.h ****   *         @arg @ref LL_DMA_DIRECTION_MEMORY_TO_MEMORY
 655:Drivers/STM32G4xx_HAL_Driver/Inc/stm32g4xx_ll_dma.h ****   */
 656:Drivers/STM32G4xx_HAL_Driver/Inc/stm32g4xx_ll_dma.h **** __STATIC_INLINE uint32_t LL_DMA_GetDataTransferDirection(DMA_TypeDef *DMAx, uint32_t Channel)
 657:Drivers/STM32G4xx_HAL_Driver/Inc/stm32g4xx_ll_dma.h **** {
 658:Drivers/STM32G4xx_HAL_Driver/Inc/stm32g4xx_ll_dma.h ****   uint32_t dma_base_addr = (uint32_t)DMAx;
 659:Drivers/STM32G4xx_HAL_Driver/Inc/stm32g4xx_ll_dma.h ****   return (READ_BIT(((DMA_Channel_TypeDef *)((uint32_t)(dma_base_addr + CHANNEL_OFFSET_TAB[Channel])
 660:Drivers/STM32G4xx_HAL_Driver/Inc/stm32g4xx_ll_dma.h ****                    DMA_CCR_DIR | DMA_CCR_MEM2MEM));
 661:Drivers/STM32G4xx_HAL_Driver/Inc/stm32g4xx_ll_dma.h **** }
 662:Drivers/STM32G4xx_HAL_Driver/Inc/stm32g4xx_ll_dma.h **** 
 663:Drivers/STM32G4xx_HAL_Driver/Inc/stm32g4xx_ll_dma.h **** /**
 664:Drivers/STM32G4xx_HAL_Driver/Inc/stm32g4xx_ll_dma.h ****   * @brief  Set DMA mode circular or normal.
 665:Drivers/STM32G4xx_HAL_Driver/Inc/stm32g4xx_ll_dma.h ****   * @note The circular buffer mode cannot be used if the memory-to-memory
 666:Drivers/STM32G4xx_HAL_Driver/Inc/stm32g4xx_ll_dma.h ****   * data transfer is configured on the selected Channel.
 667:Drivers/STM32G4xx_HAL_Driver/Inc/stm32g4xx_ll_dma.h ****   * @rmtoll CCR          CIRC          LL_DMA_SetMode
 668:Drivers/STM32G4xx_HAL_Driver/Inc/stm32g4xx_ll_dma.h ****   * @param  DMAx DMAx Instance
 669:Drivers/STM32G4xx_HAL_Driver/Inc/stm32g4xx_ll_dma.h ****   * @param  Channel This parameter can be one of the following values:
 670:Drivers/STM32G4xx_HAL_Driver/Inc/stm32g4xx_ll_dma.h ****   *         @arg @ref LL_DMA_CHANNEL_1
 671:Drivers/STM32G4xx_HAL_Driver/Inc/stm32g4xx_ll_dma.h ****   *         @arg @ref LL_DMA_CHANNEL_2
 672:Drivers/STM32G4xx_HAL_Driver/Inc/stm32g4xx_ll_dma.h ****   *         @arg @ref LL_DMA_CHANNEL_3
 673:Drivers/STM32G4xx_HAL_Driver/Inc/stm32g4xx_ll_dma.h ****   *         @arg @ref LL_DMA_CHANNEL_4
 674:Drivers/STM32G4xx_HAL_Driver/Inc/stm32g4xx_ll_dma.h ****   *         @arg @ref LL_DMA_CHANNEL_5
 675:Drivers/STM32G4xx_HAL_Driver/Inc/stm32g4xx_ll_dma.h ****   *         @arg @ref LL_DMA_CHANNEL_6
 676:Drivers/STM32G4xx_HAL_Driver/Inc/stm32g4xx_ll_dma.h ****   *         @arg @ref LL_DMA_CHANNEL_7 (*)
 677:Drivers/STM32G4xx_HAL_Driver/Inc/stm32g4xx_ll_dma.h ****   *         @arg @ref LL_DMA_CHANNEL_8 (*)
 678:Drivers/STM32G4xx_HAL_Driver/Inc/stm32g4xx_ll_dma.h ****   *         (*) Not on all G4 devices
 679:Drivers/STM32G4xx_HAL_Driver/Inc/stm32g4xx_ll_dma.h ****   * @param  Mode This parameter can be one of the following values:
 680:Drivers/STM32G4xx_HAL_Driver/Inc/stm32g4xx_ll_dma.h ****   *         @arg @ref LL_DMA_MODE_NORMAL
ARM GAS  /tmp/cc2tlrck.s 			page 19


 681:Drivers/STM32G4xx_HAL_Driver/Inc/stm32g4xx_ll_dma.h ****   *         @arg @ref LL_DMA_MODE_CIRCULAR
 682:Drivers/STM32G4xx_HAL_Driver/Inc/stm32g4xx_ll_dma.h ****   * @retval None
 683:Drivers/STM32G4xx_HAL_Driver/Inc/stm32g4xx_ll_dma.h ****   */
 684:Drivers/STM32G4xx_HAL_Driver/Inc/stm32g4xx_ll_dma.h **** __STATIC_INLINE void LL_DMA_SetMode(DMA_TypeDef *DMAx, uint32_t Channel, uint32_t Mode)
 685:Drivers/STM32G4xx_HAL_Driver/Inc/stm32g4xx_ll_dma.h **** {
 686:Drivers/STM32G4xx_HAL_Driver/Inc/stm32g4xx_ll_dma.h ****   uint32_t dma_base_addr = (uint32_t)DMAx;
 687:Drivers/STM32G4xx_HAL_Driver/Inc/stm32g4xx_ll_dma.h ****   MODIFY_REG(((DMA_Channel_TypeDef *)((uint32_t)(dma_base_addr + CHANNEL_OFFSET_TAB[Channel])))->CC
 688:Drivers/STM32G4xx_HAL_Driver/Inc/stm32g4xx_ll_dma.h ****              Mode);
 689:Drivers/STM32G4xx_HAL_Driver/Inc/stm32g4xx_ll_dma.h **** }
 690:Drivers/STM32G4xx_HAL_Driver/Inc/stm32g4xx_ll_dma.h **** 
 691:Drivers/STM32G4xx_HAL_Driver/Inc/stm32g4xx_ll_dma.h **** /**
 692:Drivers/STM32G4xx_HAL_Driver/Inc/stm32g4xx_ll_dma.h ****   * @brief  Get DMA mode circular or normal.
 693:Drivers/STM32G4xx_HAL_Driver/Inc/stm32g4xx_ll_dma.h ****   * @rmtoll CCR          CIRC          LL_DMA_GetMode
 694:Drivers/STM32G4xx_HAL_Driver/Inc/stm32g4xx_ll_dma.h ****   * @param  DMAx DMAx Instance
 695:Drivers/STM32G4xx_HAL_Driver/Inc/stm32g4xx_ll_dma.h ****   * @param  Channel This parameter can be one of the following values:
 696:Drivers/STM32G4xx_HAL_Driver/Inc/stm32g4xx_ll_dma.h ****   *         @arg @ref LL_DMA_CHANNEL_1
 697:Drivers/STM32G4xx_HAL_Driver/Inc/stm32g4xx_ll_dma.h ****   *         @arg @ref LL_DMA_CHANNEL_2
 698:Drivers/STM32G4xx_HAL_Driver/Inc/stm32g4xx_ll_dma.h ****   *         @arg @ref LL_DMA_CHANNEL_3
 699:Drivers/STM32G4xx_HAL_Driver/Inc/stm32g4xx_ll_dma.h ****   *         @arg @ref LL_DMA_CHANNEL_4
 700:Drivers/STM32G4xx_HAL_Driver/Inc/stm32g4xx_ll_dma.h ****   *         @arg @ref LL_DMA_CHANNEL_5
 701:Drivers/STM32G4xx_HAL_Driver/Inc/stm32g4xx_ll_dma.h ****   *         @arg @ref LL_DMA_CHANNEL_6
 702:Drivers/STM32G4xx_HAL_Driver/Inc/stm32g4xx_ll_dma.h ****   *         @arg @ref LL_DMA_CHANNEL_7 (*)
 703:Drivers/STM32G4xx_HAL_Driver/Inc/stm32g4xx_ll_dma.h ****   *         @arg @ref LL_DMA_CHANNEL_8 (*)
 704:Drivers/STM32G4xx_HAL_Driver/Inc/stm32g4xx_ll_dma.h ****   *         (*) Not on all G4 devices
 705:Drivers/STM32G4xx_HAL_Driver/Inc/stm32g4xx_ll_dma.h ****   * @retval Returned value can be one of the following values:
 706:Drivers/STM32G4xx_HAL_Driver/Inc/stm32g4xx_ll_dma.h ****   *         @arg @ref LL_DMA_MODE_NORMAL
 707:Drivers/STM32G4xx_HAL_Driver/Inc/stm32g4xx_ll_dma.h ****   *         @arg @ref LL_DMA_MODE_CIRCULAR
 708:Drivers/STM32G4xx_HAL_Driver/Inc/stm32g4xx_ll_dma.h ****   */
 709:Drivers/STM32G4xx_HAL_Driver/Inc/stm32g4xx_ll_dma.h **** __STATIC_INLINE uint32_t LL_DMA_GetMode(DMA_TypeDef *DMAx, uint32_t Channel)
 710:Drivers/STM32G4xx_HAL_Driver/Inc/stm32g4xx_ll_dma.h **** {
 711:Drivers/STM32G4xx_HAL_Driver/Inc/stm32g4xx_ll_dma.h ****   uint32_t dma_base_addr = (uint32_t)DMAx;
 712:Drivers/STM32G4xx_HAL_Driver/Inc/stm32g4xx_ll_dma.h ****   return (READ_BIT(((DMA_Channel_TypeDef *)((uint32_t)(dma_base_addr + CHANNEL_OFFSET_TAB[Channel])
 713:Drivers/STM32G4xx_HAL_Driver/Inc/stm32g4xx_ll_dma.h ****                    DMA_CCR_CIRC));
 714:Drivers/STM32G4xx_HAL_Driver/Inc/stm32g4xx_ll_dma.h **** }
 715:Drivers/STM32G4xx_HAL_Driver/Inc/stm32g4xx_ll_dma.h **** 
 716:Drivers/STM32G4xx_HAL_Driver/Inc/stm32g4xx_ll_dma.h **** /**
 717:Drivers/STM32G4xx_HAL_Driver/Inc/stm32g4xx_ll_dma.h ****   * @brief  Set Peripheral increment mode.
 718:Drivers/STM32G4xx_HAL_Driver/Inc/stm32g4xx_ll_dma.h ****   * @rmtoll CCR          PINC          LL_DMA_SetPeriphIncMode
 719:Drivers/STM32G4xx_HAL_Driver/Inc/stm32g4xx_ll_dma.h ****   * @param  DMAx DMAx Instance
 720:Drivers/STM32G4xx_HAL_Driver/Inc/stm32g4xx_ll_dma.h ****   * @param  Channel This parameter can be one of the following values:
 721:Drivers/STM32G4xx_HAL_Driver/Inc/stm32g4xx_ll_dma.h ****   *         @arg @ref LL_DMA_CHANNEL_1
 722:Drivers/STM32G4xx_HAL_Driver/Inc/stm32g4xx_ll_dma.h ****   *         @arg @ref LL_DMA_CHANNEL_2
 723:Drivers/STM32G4xx_HAL_Driver/Inc/stm32g4xx_ll_dma.h ****   *         @arg @ref LL_DMA_CHANNEL_3
 724:Drivers/STM32G4xx_HAL_Driver/Inc/stm32g4xx_ll_dma.h ****   *         @arg @ref LL_DMA_CHANNEL_4
 725:Drivers/STM32G4xx_HAL_Driver/Inc/stm32g4xx_ll_dma.h ****   *         @arg @ref LL_DMA_CHANNEL_5
 726:Drivers/STM32G4xx_HAL_Driver/Inc/stm32g4xx_ll_dma.h ****   *         @arg @ref LL_DMA_CHANNEL_6
 727:Drivers/STM32G4xx_HAL_Driver/Inc/stm32g4xx_ll_dma.h ****   *         @arg @ref LL_DMA_CHANNEL_7 (*)
 728:Drivers/STM32G4xx_HAL_Driver/Inc/stm32g4xx_ll_dma.h ****   *         @arg @ref LL_DMA_CHANNEL_8 (*)
 729:Drivers/STM32G4xx_HAL_Driver/Inc/stm32g4xx_ll_dma.h ****   *         (*) Not on all G4 devices
 730:Drivers/STM32G4xx_HAL_Driver/Inc/stm32g4xx_ll_dma.h ****   * @param  PeriphOrM2MSrcIncMode This parameter can be one of the following values:
 731:Drivers/STM32G4xx_HAL_Driver/Inc/stm32g4xx_ll_dma.h ****   *         @arg @ref LL_DMA_PERIPH_INCREMENT
 732:Drivers/STM32G4xx_HAL_Driver/Inc/stm32g4xx_ll_dma.h ****   *         @arg @ref LL_DMA_PERIPH_NOINCREMENT
 733:Drivers/STM32G4xx_HAL_Driver/Inc/stm32g4xx_ll_dma.h ****   * @retval None
 734:Drivers/STM32G4xx_HAL_Driver/Inc/stm32g4xx_ll_dma.h ****   */
 735:Drivers/STM32G4xx_HAL_Driver/Inc/stm32g4xx_ll_dma.h **** __STATIC_INLINE void LL_DMA_SetPeriphIncMode(DMA_TypeDef *DMAx, uint32_t Channel, uint32_t PeriphOr
 736:Drivers/STM32G4xx_HAL_Driver/Inc/stm32g4xx_ll_dma.h **** {
 737:Drivers/STM32G4xx_HAL_Driver/Inc/stm32g4xx_ll_dma.h ****   uint32_t dma_base_addr = (uint32_t)DMAx;
ARM GAS  /tmp/cc2tlrck.s 			page 20


 738:Drivers/STM32G4xx_HAL_Driver/Inc/stm32g4xx_ll_dma.h ****   MODIFY_REG(((DMA_Channel_TypeDef *)((uint32_t)(dma_base_addr + CHANNEL_OFFSET_TAB[Channel])))->CC
 739:Drivers/STM32G4xx_HAL_Driver/Inc/stm32g4xx_ll_dma.h ****              PeriphOrM2MSrcIncMode);
 740:Drivers/STM32G4xx_HAL_Driver/Inc/stm32g4xx_ll_dma.h **** }
 741:Drivers/STM32G4xx_HAL_Driver/Inc/stm32g4xx_ll_dma.h **** 
 742:Drivers/STM32G4xx_HAL_Driver/Inc/stm32g4xx_ll_dma.h **** /**
 743:Drivers/STM32G4xx_HAL_Driver/Inc/stm32g4xx_ll_dma.h ****   * @brief  Get Peripheral increment mode.
 744:Drivers/STM32G4xx_HAL_Driver/Inc/stm32g4xx_ll_dma.h ****   * @rmtoll CCR          PINC          LL_DMA_GetPeriphIncMode
 745:Drivers/STM32G4xx_HAL_Driver/Inc/stm32g4xx_ll_dma.h ****   * @param  DMAx DMAx Instance
 746:Drivers/STM32G4xx_HAL_Driver/Inc/stm32g4xx_ll_dma.h ****   * @param  Channel This parameter can be one of the following values:
 747:Drivers/STM32G4xx_HAL_Driver/Inc/stm32g4xx_ll_dma.h ****   *         @arg @ref LL_DMA_CHANNEL_1
 748:Drivers/STM32G4xx_HAL_Driver/Inc/stm32g4xx_ll_dma.h ****   *         @arg @ref LL_DMA_CHANNEL_2
 749:Drivers/STM32G4xx_HAL_Driver/Inc/stm32g4xx_ll_dma.h ****   *         @arg @ref LL_DMA_CHANNEL_3
 750:Drivers/STM32G4xx_HAL_Driver/Inc/stm32g4xx_ll_dma.h ****   *         @arg @ref LL_DMA_CHANNEL_4
 751:Drivers/STM32G4xx_HAL_Driver/Inc/stm32g4xx_ll_dma.h ****   *         @arg @ref LL_DMA_CHANNEL_5
 752:Drivers/STM32G4xx_HAL_Driver/Inc/stm32g4xx_ll_dma.h ****   *         @arg @ref LL_DMA_CHANNEL_6
 753:Drivers/STM32G4xx_HAL_Driver/Inc/stm32g4xx_ll_dma.h ****   *         @arg @ref LL_DMA_CHANNEL_7 (*)
 754:Drivers/STM32G4xx_HAL_Driver/Inc/stm32g4xx_ll_dma.h ****   *         @arg @ref LL_DMA_CHANNEL_8 (*)
 755:Drivers/STM32G4xx_HAL_Driver/Inc/stm32g4xx_ll_dma.h ****   *         (*) Not on all G4 devices
 756:Drivers/STM32G4xx_HAL_Driver/Inc/stm32g4xx_ll_dma.h ****   * @retval Returned value can be one of the following values:
 757:Drivers/STM32G4xx_HAL_Driver/Inc/stm32g4xx_ll_dma.h ****   *         @arg @ref LL_DMA_PERIPH_INCREMENT
 758:Drivers/STM32G4xx_HAL_Driver/Inc/stm32g4xx_ll_dma.h ****   *         @arg @ref LL_DMA_PERIPH_NOINCREMENT
 759:Drivers/STM32G4xx_HAL_Driver/Inc/stm32g4xx_ll_dma.h ****   */
 760:Drivers/STM32G4xx_HAL_Driver/Inc/stm32g4xx_ll_dma.h **** __STATIC_INLINE uint32_t LL_DMA_GetPeriphIncMode(DMA_TypeDef *DMAx, uint32_t Channel)
 761:Drivers/STM32G4xx_HAL_Driver/Inc/stm32g4xx_ll_dma.h **** {
 762:Drivers/STM32G4xx_HAL_Driver/Inc/stm32g4xx_ll_dma.h ****   uint32_t dma_base_addr = (uint32_t)DMAx;
 763:Drivers/STM32G4xx_HAL_Driver/Inc/stm32g4xx_ll_dma.h ****   return (READ_BIT(((DMA_Channel_TypeDef *)((uint32_t)(dma_base_addr + CHANNEL_OFFSET_TAB[Channel])
 764:Drivers/STM32G4xx_HAL_Driver/Inc/stm32g4xx_ll_dma.h ****                    DMA_CCR_PINC));
 765:Drivers/STM32G4xx_HAL_Driver/Inc/stm32g4xx_ll_dma.h **** }
 766:Drivers/STM32G4xx_HAL_Driver/Inc/stm32g4xx_ll_dma.h **** 
 767:Drivers/STM32G4xx_HAL_Driver/Inc/stm32g4xx_ll_dma.h **** /**
 768:Drivers/STM32G4xx_HAL_Driver/Inc/stm32g4xx_ll_dma.h ****   * @brief  Set Memory increment mode.
 769:Drivers/STM32G4xx_HAL_Driver/Inc/stm32g4xx_ll_dma.h ****   * @rmtoll CCR          MINC          LL_DMA_SetMemoryIncMode
 770:Drivers/STM32G4xx_HAL_Driver/Inc/stm32g4xx_ll_dma.h ****   * @param  DMAx DMAx Instance
 771:Drivers/STM32G4xx_HAL_Driver/Inc/stm32g4xx_ll_dma.h ****   * @param  Channel This parameter can be one of the following values:
 772:Drivers/STM32G4xx_HAL_Driver/Inc/stm32g4xx_ll_dma.h ****   *         @arg @ref LL_DMA_CHANNEL_1
 773:Drivers/STM32G4xx_HAL_Driver/Inc/stm32g4xx_ll_dma.h ****   *         @arg @ref LL_DMA_CHANNEL_2
 774:Drivers/STM32G4xx_HAL_Driver/Inc/stm32g4xx_ll_dma.h ****   *         @arg @ref LL_DMA_CHANNEL_3
 775:Drivers/STM32G4xx_HAL_Driver/Inc/stm32g4xx_ll_dma.h ****   *         @arg @ref LL_DMA_CHANNEL_4
 776:Drivers/STM32G4xx_HAL_Driver/Inc/stm32g4xx_ll_dma.h ****   *         @arg @ref LL_DMA_CHANNEL_5
 777:Drivers/STM32G4xx_HAL_Driver/Inc/stm32g4xx_ll_dma.h ****   *         @arg @ref LL_DMA_CHANNEL_6
 778:Drivers/STM32G4xx_HAL_Driver/Inc/stm32g4xx_ll_dma.h ****   *         @arg @ref LL_DMA_CHANNEL_7 (*)
 779:Drivers/STM32G4xx_HAL_Driver/Inc/stm32g4xx_ll_dma.h ****   *         @arg @ref LL_DMA_CHANNEL_8 (*)
 780:Drivers/STM32G4xx_HAL_Driver/Inc/stm32g4xx_ll_dma.h ****   *         (*) Not on all G4 devices
 781:Drivers/STM32G4xx_HAL_Driver/Inc/stm32g4xx_ll_dma.h ****   * @param  MemoryOrM2MDstIncMode This parameter can be one of the following values:
 782:Drivers/STM32G4xx_HAL_Driver/Inc/stm32g4xx_ll_dma.h ****   *         @arg @ref LL_DMA_MEMORY_INCREMENT
 783:Drivers/STM32G4xx_HAL_Driver/Inc/stm32g4xx_ll_dma.h ****   *         @arg @ref LL_DMA_MEMORY_NOINCREMENT
 784:Drivers/STM32G4xx_HAL_Driver/Inc/stm32g4xx_ll_dma.h ****   * @retval None
 785:Drivers/STM32G4xx_HAL_Driver/Inc/stm32g4xx_ll_dma.h ****   */
 786:Drivers/STM32G4xx_HAL_Driver/Inc/stm32g4xx_ll_dma.h **** __STATIC_INLINE void LL_DMA_SetMemoryIncMode(DMA_TypeDef *DMAx, uint32_t Channel, uint32_t MemoryOr
 787:Drivers/STM32G4xx_HAL_Driver/Inc/stm32g4xx_ll_dma.h **** {
 788:Drivers/STM32G4xx_HAL_Driver/Inc/stm32g4xx_ll_dma.h ****   uint32_t dma_base_addr = (uint32_t)DMAx;
 789:Drivers/STM32G4xx_HAL_Driver/Inc/stm32g4xx_ll_dma.h ****   MODIFY_REG(((DMA_Channel_TypeDef *)((uint32_t)(dma_base_addr + CHANNEL_OFFSET_TAB[Channel])))->CC
 790:Drivers/STM32G4xx_HAL_Driver/Inc/stm32g4xx_ll_dma.h ****              MemoryOrM2MDstIncMode);
 791:Drivers/STM32G4xx_HAL_Driver/Inc/stm32g4xx_ll_dma.h **** }
 792:Drivers/STM32G4xx_HAL_Driver/Inc/stm32g4xx_ll_dma.h **** 
 793:Drivers/STM32G4xx_HAL_Driver/Inc/stm32g4xx_ll_dma.h **** /**
 794:Drivers/STM32G4xx_HAL_Driver/Inc/stm32g4xx_ll_dma.h ****   * @brief  Get Memory increment mode.
ARM GAS  /tmp/cc2tlrck.s 			page 21


 795:Drivers/STM32G4xx_HAL_Driver/Inc/stm32g4xx_ll_dma.h ****   * @rmtoll CCR          MINC          LL_DMA_GetMemoryIncMode
 796:Drivers/STM32G4xx_HAL_Driver/Inc/stm32g4xx_ll_dma.h ****   * @param  DMAx DMAx Instance
 797:Drivers/STM32G4xx_HAL_Driver/Inc/stm32g4xx_ll_dma.h ****   * @param  Channel This parameter can be one of the following values:
 798:Drivers/STM32G4xx_HAL_Driver/Inc/stm32g4xx_ll_dma.h ****   *         @arg @ref LL_DMA_CHANNEL_1
 799:Drivers/STM32G4xx_HAL_Driver/Inc/stm32g4xx_ll_dma.h ****   *         @arg @ref LL_DMA_CHANNEL_2
 800:Drivers/STM32G4xx_HAL_Driver/Inc/stm32g4xx_ll_dma.h ****   *         @arg @ref LL_DMA_CHANNEL_3
 801:Drivers/STM32G4xx_HAL_Driver/Inc/stm32g4xx_ll_dma.h ****   *         @arg @ref LL_DMA_CHANNEL_4
 802:Drivers/STM32G4xx_HAL_Driver/Inc/stm32g4xx_ll_dma.h ****   *         @arg @ref LL_DMA_CHANNEL_5
 803:Drivers/STM32G4xx_HAL_Driver/Inc/stm32g4xx_ll_dma.h ****   *         @arg @ref LL_DMA_CHANNEL_6
 804:Drivers/STM32G4xx_HAL_Driver/Inc/stm32g4xx_ll_dma.h ****   *         @arg @ref LL_DMA_CHANNEL_7 (*)
 805:Drivers/STM32G4xx_HAL_Driver/Inc/stm32g4xx_ll_dma.h ****   *         @arg @ref LL_DMA_CHANNEL_8 (*)
 806:Drivers/STM32G4xx_HAL_Driver/Inc/stm32g4xx_ll_dma.h ****   *         (*) Not on all G4 devices
 807:Drivers/STM32G4xx_HAL_Driver/Inc/stm32g4xx_ll_dma.h ****   * @retval Returned value can be one of the following values:
 808:Drivers/STM32G4xx_HAL_Driver/Inc/stm32g4xx_ll_dma.h ****   *         @arg @ref LL_DMA_MEMORY_INCREMENT
 809:Drivers/STM32G4xx_HAL_Driver/Inc/stm32g4xx_ll_dma.h ****   *         @arg @ref LL_DMA_MEMORY_NOINCREMENT
 810:Drivers/STM32G4xx_HAL_Driver/Inc/stm32g4xx_ll_dma.h ****   */
 811:Drivers/STM32G4xx_HAL_Driver/Inc/stm32g4xx_ll_dma.h **** __STATIC_INLINE uint32_t LL_DMA_GetMemoryIncMode(DMA_TypeDef *DMAx, uint32_t Channel)
 812:Drivers/STM32G4xx_HAL_Driver/Inc/stm32g4xx_ll_dma.h **** {
 813:Drivers/STM32G4xx_HAL_Driver/Inc/stm32g4xx_ll_dma.h ****   uint32_t dma_base_addr = (uint32_t)DMAx;
 814:Drivers/STM32G4xx_HAL_Driver/Inc/stm32g4xx_ll_dma.h ****   return (READ_BIT(((DMA_Channel_TypeDef *)((uint32_t)(dma_base_addr + CHANNEL_OFFSET_TAB[Channel])
 815:Drivers/STM32G4xx_HAL_Driver/Inc/stm32g4xx_ll_dma.h ****                    DMA_CCR_MINC));
 816:Drivers/STM32G4xx_HAL_Driver/Inc/stm32g4xx_ll_dma.h **** }
 817:Drivers/STM32G4xx_HAL_Driver/Inc/stm32g4xx_ll_dma.h **** 
 818:Drivers/STM32G4xx_HAL_Driver/Inc/stm32g4xx_ll_dma.h **** /**
 819:Drivers/STM32G4xx_HAL_Driver/Inc/stm32g4xx_ll_dma.h ****   * @brief  Set Peripheral size.
 820:Drivers/STM32G4xx_HAL_Driver/Inc/stm32g4xx_ll_dma.h ****   * @rmtoll CCR          PSIZE         LL_DMA_SetPeriphSize
 821:Drivers/STM32G4xx_HAL_Driver/Inc/stm32g4xx_ll_dma.h ****   * @param  DMAx DMAx Instance
 822:Drivers/STM32G4xx_HAL_Driver/Inc/stm32g4xx_ll_dma.h ****   * @param  Channel This parameter can be one of the following values:
 823:Drivers/STM32G4xx_HAL_Driver/Inc/stm32g4xx_ll_dma.h ****   *         @arg @ref LL_DMA_CHANNEL_1
 824:Drivers/STM32G4xx_HAL_Driver/Inc/stm32g4xx_ll_dma.h ****   *         @arg @ref LL_DMA_CHANNEL_2
 825:Drivers/STM32G4xx_HAL_Driver/Inc/stm32g4xx_ll_dma.h ****   *         @arg @ref LL_DMA_CHANNEL_3
 826:Drivers/STM32G4xx_HAL_Driver/Inc/stm32g4xx_ll_dma.h ****   *         @arg @ref LL_DMA_CHANNEL_4
 827:Drivers/STM32G4xx_HAL_Driver/Inc/stm32g4xx_ll_dma.h ****   *         @arg @ref LL_DMA_CHANNEL_5
 828:Drivers/STM32G4xx_HAL_Driver/Inc/stm32g4xx_ll_dma.h ****   *         @arg @ref LL_DMA_CHANNEL_6
 829:Drivers/STM32G4xx_HAL_Driver/Inc/stm32g4xx_ll_dma.h ****   *         @arg @ref LL_DMA_CHANNEL_7 (*)
 830:Drivers/STM32G4xx_HAL_Driver/Inc/stm32g4xx_ll_dma.h ****   *         @arg @ref LL_DMA_CHANNEL_8 (*)
 831:Drivers/STM32G4xx_HAL_Driver/Inc/stm32g4xx_ll_dma.h ****   *         (*) Not on all G4 devices
 832:Drivers/STM32G4xx_HAL_Driver/Inc/stm32g4xx_ll_dma.h ****   * @param  PeriphOrM2MSrcDataSize This parameter can be one of the following values:
 833:Drivers/STM32G4xx_HAL_Driver/Inc/stm32g4xx_ll_dma.h ****   *         @arg @ref LL_DMA_PDATAALIGN_BYTE
 834:Drivers/STM32G4xx_HAL_Driver/Inc/stm32g4xx_ll_dma.h ****   *         @arg @ref LL_DMA_PDATAALIGN_HALFWORD
 835:Drivers/STM32G4xx_HAL_Driver/Inc/stm32g4xx_ll_dma.h ****   *         @arg @ref LL_DMA_PDATAALIGN_WORD
 836:Drivers/STM32G4xx_HAL_Driver/Inc/stm32g4xx_ll_dma.h ****   * @retval None
 837:Drivers/STM32G4xx_HAL_Driver/Inc/stm32g4xx_ll_dma.h ****   */
 838:Drivers/STM32G4xx_HAL_Driver/Inc/stm32g4xx_ll_dma.h **** __STATIC_INLINE void LL_DMA_SetPeriphSize(DMA_TypeDef *DMAx, uint32_t Channel, uint32_t PeriphOrM2M
 839:Drivers/STM32G4xx_HAL_Driver/Inc/stm32g4xx_ll_dma.h **** {
 840:Drivers/STM32G4xx_HAL_Driver/Inc/stm32g4xx_ll_dma.h ****   uint32_t dma_base_addr = (uint32_t)DMAx;
 841:Drivers/STM32G4xx_HAL_Driver/Inc/stm32g4xx_ll_dma.h ****   MODIFY_REG(((DMA_Channel_TypeDef *)((uint32_t)(dma_base_addr + CHANNEL_OFFSET_TAB[Channel])))->CC
 842:Drivers/STM32G4xx_HAL_Driver/Inc/stm32g4xx_ll_dma.h ****              PeriphOrM2MSrcDataSize);
 843:Drivers/STM32G4xx_HAL_Driver/Inc/stm32g4xx_ll_dma.h **** }
 844:Drivers/STM32G4xx_HAL_Driver/Inc/stm32g4xx_ll_dma.h **** 
 845:Drivers/STM32G4xx_HAL_Driver/Inc/stm32g4xx_ll_dma.h **** /**
 846:Drivers/STM32G4xx_HAL_Driver/Inc/stm32g4xx_ll_dma.h ****   * @brief  Get Peripheral size.
 847:Drivers/STM32G4xx_HAL_Driver/Inc/stm32g4xx_ll_dma.h ****   * @rmtoll CCR          PSIZE         LL_DMA_GetPeriphSize
 848:Drivers/STM32G4xx_HAL_Driver/Inc/stm32g4xx_ll_dma.h ****   * @param  DMAx DMAx Instance
 849:Drivers/STM32G4xx_HAL_Driver/Inc/stm32g4xx_ll_dma.h ****   * @param  Channel This parameter can be one of the following values:
 850:Drivers/STM32G4xx_HAL_Driver/Inc/stm32g4xx_ll_dma.h ****   *         @arg @ref LL_DMA_CHANNEL_1
 851:Drivers/STM32G4xx_HAL_Driver/Inc/stm32g4xx_ll_dma.h ****   *         @arg @ref LL_DMA_CHANNEL_2
ARM GAS  /tmp/cc2tlrck.s 			page 22


 852:Drivers/STM32G4xx_HAL_Driver/Inc/stm32g4xx_ll_dma.h ****   *         @arg @ref LL_DMA_CHANNEL_3
 853:Drivers/STM32G4xx_HAL_Driver/Inc/stm32g4xx_ll_dma.h ****   *         @arg @ref LL_DMA_CHANNEL_4
 854:Drivers/STM32G4xx_HAL_Driver/Inc/stm32g4xx_ll_dma.h ****   *         @arg @ref LL_DMA_CHANNEL_5
 855:Drivers/STM32G4xx_HAL_Driver/Inc/stm32g4xx_ll_dma.h ****   *         @arg @ref LL_DMA_CHANNEL_6
 856:Drivers/STM32G4xx_HAL_Driver/Inc/stm32g4xx_ll_dma.h ****   *         @arg @ref LL_DMA_CHANNEL_7 (*)
 857:Drivers/STM32G4xx_HAL_Driver/Inc/stm32g4xx_ll_dma.h ****   *         @arg @ref LL_DMA_CHANNEL_8 (*)
 858:Drivers/STM32G4xx_HAL_Driver/Inc/stm32g4xx_ll_dma.h ****   *         (*) Not on all G4 devices
 859:Drivers/STM32G4xx_HAL_Driver/Inc/stm32g4xx_ll_dma.h ****   * @retval Returned value can be one of the following values:
 860:Drivers/STM32G4xx_HAL_Driver/Inc/stm32g4xx_ll_dma.h ****   *         @arg @ref LL_DMA_PDATAALIGN_BYTE
 861:Drivers/STM32G4xx_HAL_Driver/Inc/stm32g4xx_ll_dma.h ****   *         @arg @ref LL_DMA_PDATAALIGN_HALFWORD
 862:Drivers/STM32G4xx_HAL_Driver/Inc/stm32g4xx_ll_dma.h ****   *         @arg @ref LL_DMA_PDATAALIGN_WORD
 863:Drivers/STM32G4xx_HAL_Driver/Inc/stm32g4xx_ll_dma.h ****   */
 864:Drivers/STM32G4xx_HAL_Driver/Inc/stm32g4xx_ll_dma.h **** __STATIC_INLINE uint32_t LL_DMA_GetPeriphSize(DMA_TypeDef *DMAx, uint32_t Channel)
 865:Drivers/STM32G4xx_HAL_Driver/Inc/stm32g4xx_ll_dma.h **** {
 866:Drivers/STM32G4xx_HAL_Driver/Inc/stm32g4xx_ll_dma.h ****   uint32_t dma_base_addr = (uint32_t)DMAx;
 867:Drivers/STM32G4xx_HAL_Driver/Inc/stm32g4xx_ll_dma.h ****   return (READ_BIT(((DMA_Channel_TypeDef *)((uint32_t)(dma_base_addr + CHANNEL_OFFSET_TAB[Channel])
 868:Drivers/STM32G4xx_HAL_Driver/Inc/stm32g4xx_ll_dma.h ****                    DMA_CCR_PSIZE));
 869:Drivers/STM32G4xx_HAL_Driver/Inc/stm32g4xx_ll_dma.h **** }
 870:Drivers/STM32G4xx_HAL_Driver/Inc/stm32g4xx_ll_dma.h **** 
 871:Drivers/STM32G4xx_HAL_Driver/Inc/stm32g4xx_ll_dma.h **** /**
 872:Drivers/STM32G4xx_HAL_Driver/Inc/stm32g4xx_ll_dma.h ****   * @brief  Set Memory size.
 873:Drivers/STM32G4xx_HAL_Driver/Inc/stm32g4xx_ll_dma.h ****   * @rmtoll CCR          MSIZE         LL_DMA_SetMemorySize
 874:Drivers/STM32G4xx_HAL_Driver/Inc/stm32g4xx_ll_dma.h ****   * @param  DMAx DMAx Instance
 875:Drivers/STM32G4xx_HAL_Driver/Inc/stm32g4xx_ll_dma.h ****   * @param  Channel This parameter can be one of the following values:
 876:Drivers/STM32G4xx_HAL_Driver/Inc/stm32g4xx_ll_dma.h ****   *         @arg @ref LL_DMA_CHANNEL_1
 877:Drivers/STM32G4xx_HAL_Driver/Inc/stm32g4xx_ll_dma.h ****   *         @arg @ref LL_DMA_CHANNEL_2
 878:Drivers/STM32G4xx_HAL_Driver/Inc/stm32g4xx_ll_dma.h ****   *         @arg @ref LL_DMA_CHANNEL_3
 879:Drivers/STM32G4xx_HAL_Driver/Inc/stm32g4xx_ll_dma.h ****   *         @arg @ref LL_DMA_CHANNEL_4
 880:Drivers/STM32G4xx_HAL_Driver/Inc/stm32g4xx_ll_dma.h ****   *         @arg @ref LL_DMA_CHANNEL_5
 881:Drivers/STM32G4xx_HAL_Driver/Inc/stm32g4xx_ll_dma.h ****   *         @arg @ref LL_DMA_CHANNEL_6
 882:Drivers/STM32G4xx_HAL_Driver/Inc/stm32g4xx_ll_dma.h ****   *         @arg @ref LL_DMA_CHANNEL_7 (*)
 883:Drivers/STM32G4xx_HAL_Driver/Inc/stm32g4xx_ll_dma.h ****   *         @arg @ref LL_DMA_CHANNEL_8 (*)
 884:Drivers/STM32G4xx_HAL_Driver/Inc/stm32g4xx_ll_dma.h ****   *         (*) Not on all G4 devices
 885:Drivers/STM32G4xx_HAL_Driver/Inc/stm32g4xx_ll_dma.h ****   * @param  MemoryOrM2MDstDataSize This parameter can be one of the following values:
 886:Drivers/STM32G4xx_HAL_Driver/Inc/stm32g4xx_ll_dma.h ****   *         @arg @ref LL_DMA_MDATAALIGN_BYTE
 887:Drivers/STM32G4xx_HAL_Driver/Inc/stm32g4xx_ll_dma.h ****   *         @arg @ref LL_DMA_MDATAALIGN_HALFWORD
 888:Drivers/STM32G4xx_HAL_Driver/Inc/stm32g4xx_ll_dma.h ****   *         @arg @ref LL_DMA_MDATAALIGN_WORD
 889:Drivers/STM32G4xx_HAL_Driver/Inc/stm32g4xx_ll_dma.h ****   * @retval None
 890:Drivers/STM32G4xx_HAL_Driver/Inc/stm32g4xx_ll_dma.h ****   */
 891:Drivers/STM32G4xx_HAL_Driver/Inc/stm32g4xx_ll_dma.h **** __STATIC_INLINE void LL_DMA_SetMemorySize(DMA_TypeDef *DMAx, uint32_t Channel, uint32_t MemoryOrM2M
 892:Drivers/STM32G4xx_HAL_Driver/Inc/stm32g4xx_ll_dma.h **** {
 893:Drivers/STM32G4xx_HAL_Driver/Inc/stm32g4xx_ll_dma.h ****   uint32_t dma_base_addr = (uint32_t)DMAx;
 894:Drivers/STM32G4xx_HAL_Driver/Inc/stm32g4xx_ll_dma.h ****   MODIFY_REG(((DMA_Channel_TypeDef *)((uint32_t)(dma_base_addr + CHANNEL_OFFSET_TAB[Channel])))->CC
 895:Drivers/STM32G4xx_HAL_Driver/Inc/stm32g4xx_ll_dma.h ****              MemoryOrM2MDstDataSize);
 896:Drivers/STM32G4xx_HAL_Driver/Inc/stm32g4xx_ll_dma.h **** }
 897:Drivers/STM32G4xx_HAL_Driver/Inc/stm32g4xx_ll_dma.h **** 
 898:Drivers/STM32G4xx_HAL_Driver/Inc/stm32g4xx_ll_dma.h **** /**
 899:Drivers/STM32G4xx_HAL_Driver/Inc/stm32g4xx_ll_dma.h ****   * @brief  Get Memory size.
 900:Drivers/STM32G4xx_HAL_Driver/Inc/stm32g4xx_ll_dma.h ****   * @rmtoll CCR          MSIZE         LL_DMA_GetMemorySize
 901:Drivers/STM32G4xx_HAL_Driver/Inc/stm32g4xx_ll_dma.h ****   * @param  DMAx DMAx Instance
 902:Drivers/STM32G4xx_HAL_Driver/Inc/stm32g4xx_ll_dma.h ****   * @param  Channel This parameter can be one of the following values:
 903:Drivers/STM32G4xx_HAL_Driver/Inc/stm32g4xx_ll_dma.h ****   *         @arg @ref LL_DMA_CHANNEL_1
 904:Drivers/STM32G4xx_HAL_Driver/Inc/stm32g4xx_ll_dma.h ****   *         @arg @ref LL_DMA_CHANNEL_2
 905:Drivers/STM32G4xx_HAL_Driver/Inc/stm32g4xx_ll_dma.h ****   *         @arg @ref LL_DMA_CHANNEL_3
 906:Drivers/STM32G4xx_HAL_Driver/Inc/stm32g4xx_ll_dma.h ****   *         @arg @ref LL_DMA_CHANNEL_4
 907:Drivers/STM32G4xx_HAL_Driver/Inc/stm32g4xx_ll_dma.h ****   *         @arg @ref LL_DMA_CHANNEL_5
 908:Drivers/STM32G4xx_HAL_Driver/Inc/stm32g4xx_ll_dma.h ****   *         @arg @ref LL_DMA_CHANNEL_6
ARM GAS  /tmp/cc2tlrck.s 			page 23


 909:Drivers/STM32G4xx_HAL_Driver/Inc/stm32g4xx_ll_dma.h ****   *         @arg @ref LL_DMA_CHANNEL_7 (*)
 910:Drivers/STM32G4xx_HAL_Driver/Inc/stm32g4xx_ll_dma.h ****   *         @arg @ref LL_DMA_CHANNEL_8 (*)
 911:Drivers/STM32G4xx_HAL_Driver/Inc/stm32g4xx_ll_dma.h ****   *         (*) Not on all G4 devices
 912:Drivers/STM32G4xx_HAL_Driver/Inc/stm32g4xx_ll_dma.h ****   * @retval Returned value can be one of the following values:
 913:Drivers/STM32G4xx_HAL_Driver/Inc/stm32g4xx_ll_dma.h ****   *         @arg @ref LL_DMA_MDATAALIGN_BYTE
 914:Drivers/STM32G4xx_HAL_Driver/Inc/stm32g4xx_ll_dma.h ****   *         @arg @ref LL_DMA_MDATAALIGN_HALFWORD
 915:Drivers/STM32G4xx_HAL_Driver/Inc/stm32g4xx_ll_dma.h ****   *         @arg @ref LL_DMA_MDATAALIGN_WORD
 916:Drivers/STM32G4xx_HAL_Driver/Inc/stm32g4xx_ll_dma.h ****   */
 917:Drivers/STM32G4xx_HAL_Driver/Inc/stm32g4xx_ll_dma.h **** __STATIC_INLINE uint32_t LL_DMA_GetMemorySize(DMA_TypeDef *DMAx, uint32_t Channel)
 918:Drivers/STM32G4xx_HAL_Driver/Inc/stm32g4xx_ll_dma.h **** {
 919:Drivers/STM32G4xx_HAL_Driver/Inc/stm32g4xx_ll_dma.h ****   uint32_t dma_base_addr = (uint32_t)DMAx;
 920:Drivers/STM32G4xx_HAL_Driver/Inc/stm32g4xx_ll_dma.h ****   return (READ_BIT(((DMA_Channel_TypeDef *)((uint32_t)(dma_base_addr + CHANNEL_OFFSET_TAB[Channel])
 921:Drivers/STM32G4xx_HAL_Driver/Inc/stm32g4xx_ll_dma.h ****                    DMA_CCR_MSIZE));
 922:Drivers/STM32G4xx_HAL_Driver/Inc/stm32g4xx_ll_dma.h **** }
 923:Drivers/STM32G4xx_HAL_Driver/Inc/stm32g4xx_ll_dma.h **** 
 924:Drivers/STM32G4xx_HAL_Driver/Inc/stm32g4xx_ll_dma.h **** /**
 925:Drivers/STM32G4xx_HAL_Driver/Inc/stm32g4xx_ll_dma.h ****   * @brief  Set Channel priority level.
 926:Drivers/STM32G4xx_HAL_Driver/Inc/stm32g4xx_ll_dma.h ****   * @rmtoll CCR          PL            LL_DMA_SetChannelPriorityLevel
 927:Drivers/STM32G4xx_HAL_Driver/Inc/stm32g4xx_ll_dma.h ****   * @param  DMAx DMAx Instance
 928:Drivers/STM32G4xx_HAL_Driver/Inc/stm32g4xx_ll_dma.h ****   * @param  Channel This parameter can be one of the following values:
 929:Drivers/STM32G4xx_HAL_Driver/Inc/stm32g4xx_ll_dma.h ****   *         @arg @ref LL_DMA_CHANNEL_1
 930:Drivers/STM32G4xx_HAL_Driver/Inc/stm32g4xx_ll_dma.h ****   *         @arg @ref LL_DMA_CHANNEL_2
 931:Drivers/STM32G4xx_HAL_Driver/Inc/stm32g4xx_ll_dma.h ****   *         @arg @ref LL_DMA_CHANNEL_3
 932:Drivers/STM32G4xx_HAL_Driver/Inc/stm32g4xx_ll_dma.h ****   *         @arg @ref LL_DMA_CHANNEL_4
 933:Drivers/STM32G4xx_HAL_Driver/Inc/stm32g4xx_ll_dma.h ****   *         @arg @ref LL_DMA_CHANNEL_5
 934:Drivers/STM32G4xx_HAL_Driver/Inc/stm32g4xx_ll_dma.h ****   *         @arg @ref LL_DMA_CHANNEL_6
 935:Drivers/STM32G4xx_HAL_Driver/Inc/stm32g4xx_ll_dma.h ****   *         @arg @ref LL_DMA_CHANNEL_7 (*)
 936:Drivers/STM32G4xx_HAL_Driver/Inc/stm32g4xx_ll_dma.h ****   *         @arg @ref LL_DMA_CHANNEL_8 (*)
 937:Drivers/STM32G4xx_HAL_Driver/Inc/stm32g4xx_ll_dma.h ****   *         (*) Not on all G4 devices
 938:Drivers/STM32G4xx_HAL_Driver/Inc/stm32g4xx_ll_dma.h ****   * @param  Priority This parameter can be one of the following values:
 939:Drivers/STM32G4xx_HAL_Driver/Inc/stm32g4xx_ll_dma.h ****   *         @arg @ref LL_DMA_PRIORITY_LOW
 940:Drivers/STM32G4xx_HAL_Driver/Inc/stm32g4xx_ll_dma.h ****   *         @arg @ref LL_DMA_PRIORITY_MEDIUM
 941:Drivers/STM32G4xx_HAL_Driver/Inc/stm32g4xx_ll_dma.h ****   *         @arg @ref LL_DMA_PRIORITY_HIGH
 942:Drivers/STM32G4xx_HAL_Driver/Inc/stm32g4xx_ll_dma.h ****   *         @arg @ref LL_DMA_PRIORITY_VERYHIGH
 943:Drivers/STM32G4xx_HAL_Driver/Inc/stm32g4xx_ll_dma.h ****   * @retval None
 944:Drivers/STM32G4xx_HAL_Driver/Inc/stm32g4xx_ll_dma.h ****   */
 945:Drivers/STM32G4xx_HAL_Driver/Inc/stm32g4xx_ll_dma.h **** __STATIC_INLINE void LL_DMA_SetChannelPriorityLevel(DMA_TypeDef *DMAx, uint32_t Channel, uint32_t P
 946:Drivers/STM32G4xx_HAL_Driver/Inc/stm32g4xx_ll_dma.h **** {
 947:Drivers/STM32G4xx_HAL_Driver/Inc/stm32g4xx_ll_dma.h ****   uint32_t dma_base_addr = (uint32_t)DMAx;
 948:Drivers/STM32G4xx_HAL_Driver/Inc/stm32g4xx_ll_dma.h ****   MODIFY_REG(((DMA_Channel_TypeDef *)((uint32_t)(dma_base_addr + CHANNEL_OFFSET_TAB[Channel])))->CC
 949:Drivers/STM32G4xx_HAL_Driver/Inc/stm32g4xx_ll_dma.h ****              Priority);
 950:Drivers/STM32G4xx_HAL_Driver/Inc/stm32g4xx_ll_dma.h **** }
 951:Drivers/STM32G4xx_HAL_Driver/Inc/stm32g4xx_ll_dma.h **** 
 952:Drivers/STM32G4xx_HAL_Driver/Inc/stm32g4xx_ll_dma.h **** /**
 953:Drivers/STM32G4xx_HAL_Driver/Inc/stm32g4xx_ll_dma.h ****   * @brief  Get Channel priority level.
 954:Drivers/STM32G4xx_HAL_Driver/Inc/stm32g4xx_ll_dma.h ****   * @rmtoll CCR          PL            LL_DMA_GetChannelPriorityLevel
 955:Drivers/STM32G4xx_HAL_Driver/Inc/stm32g4xx_ll_dma.h ****   * @param  DMAx DMAx Instance
 956:Drivers/STM32G4xx_HAL_Driver/Inc/stm32g4xx_ll_dma.h ****   * @param  Channel This parameter can be one of the following values:
 957:Drivers/STM32G4xx_HAL_Driver/Inc/stm32g4xx_ll_dma.h ****   *         @arg @ref LL_DMA_CHANNEL_1
 958:Drivers/STM32G4xx_HAL_Driver/Inc/stm32g4xx_ll_dma.h ****   *         @arg @ref LL_DMA_CHANNEL_2
 959:Drivers/STM32G4xx_HAL_Driver/Inc/stm32g4xx_ll_dma.h ****   *         @arg @ref LL_DMA_CHANNEL_3
 960:Drivers/STM32G4xx_HAL_Driver/Inc/stm32g4xx_ll_dma.h ****   *         @arg @ref LL_DMA_CHANNEL_4
 961:Drivers/STM32G4xx_HAL_Driver/Inc/stm32g4xx_ll_dma.h ****   *         @arg @ref LL_DMA_CHANNEL_5
 962:Drivers/STM32G4xx_HAL_Driver/Inc/stm32g4xx_ll_dma.h ****   *         @arg @ref LL_DMA_CHANNEL_6
 963:Drivers/STM32G4xx_HAL_Driver/Inc/stm32g4xx_ll_dma.h ****   *         @arg @ref LL_DMA_CHANNEL_7 (*)
 964:Drivers/STM32G4xx_HAL_Driver/Inc/stm32g4xx_ll_dma.h ****   *         @arg @ref LL_DMA_CHANNEL_8 (*)
 965:Drivers/STM32G4xx_HAL_Driver/Inc/stm32g4xx_ll_dma.h ****   *         (*) Not on all G4 devices
ARM GAS  /tmp/cc2tlrck.s 			page 24


 966:Drivers/STM32G4xx_HAL_Driver/Inc/stm32g4xx_ll_dma.h ****   * @retval Returned value can be one of the following values:
 967:Drivers/STM32G4xx_HAL_Driver/Inc/stm32g4xx_ll_dma.h ****   *         @arg @ref LL_DMA_PRIORITY_LOW
 968:Drivers/STM32G4xx_HAL_Driver/Inc/stm32g4xx_ll_dma.h ****   *         @arg @ref LL_DMA_PRIORITY_MEDIUM
 969:Drivers/STM32G4xx_HAL_Driver/Inc/stm32g4xx_ll_dma.h ****   *         @arg @ref LL_DMA_PRIORITY_HIGH
 970:Drivers/STM32G4xx_HAL_Driver/Inc/stm32g4xx_ll_dma.h ****   *         @arg @ref LL_DMA_PRIORITY_VERYHIGH
 971:Drivers/STM32G4xx_HAL_Driver/Inc/stm32g4xx_ll_dma.h ****   */
 972:Drivers/STM32G4xx_HAL_Driver/Inc/stm32g4xx_ll_dma.h **** __STATIC_INLINE uint32_t LL_DMA_GetChannelPriorityLevel(DMA_TypeDef *DMAx, uint32_t Channel)
 973:Drivers/STM32G4xx_HAL_Driver/Inc/stm32g4xx_ll_dma.h **** {
 974:Drivers/STM32G4xx_HAL_Driver/Inc/stm32g4xx_ll_dma.h ****   uint32_t dma_base_addr = (uint32_t)DMAx;
 975:Drivers/STM32G4xx_HAL_Driver/Inc/stm32g4xx_ll_dma.h ****   return (READ_BIT(((DMA_Channel_TypeDef *)((uint32_t)(dma_base_addr + CHANNEL_OFFSET_TAB[Channel])
 976:Drivers/STM32G4xx_HAL_Driver/Inc/stm32g4xx_ll_dma.h ****                    DMA_CCR_PL));
 977:Drivers/STM32G4xx_HAL_Driver/Inc/stm32g4xx_ll_dma.h **** }
 978:Drivers/STM32G4xx_HAL_Driver/Inc/stm32g4xx_ll_dma.h **** 
 979:Drivers/STM32G4xx_HAL_Driver/Inc/stm32g4xx_ll_dma.h **** /**
 980:Drivers/STM32G4xx_HAL_Driver/Inc/stm32g4xx_ll_dma.h ****   * @brief  Set Number of data to transfer.
 981:Drivers/STM32G4xx_HAL_Driver/Inc/stm32g4xx_ll_dma.h ****   * @note   This action has no effect if
 982:Drivers/STM32G4xx_HAL_Driver/Inc/stm32g4xx_ll_dma.h ****   *         channel is enabled.
 983:Drivers/STM32G4xx_HAL_Driver/Inc/stm32g4xx_ll_dma.h ****   * @rmtoll CNDTR        NDT           LL_DMA_SetDataLength
 984:Drivers/STM32G4xx_HAL_Driver/Inc/stm32g4xx_ll_dma.h ****   * @param  DMAx DMAx Instance
 985:Drivers/STM32G4xx_HAL_Driver/Inc/stm32g4xx_ll_dma.h ****   * @param  Channel This parameter can be one of the following values:
 986:Drivers/STM32G4xx_HAL_Driver/Inc/stm32g4xx_ll_dma.h ****   *         @arg @ref LL_DMA_CHANNEL_1
 987:Drivers/STM32G4xx_HAL_Driver/Inc/stm32g4xx_ll_dma.h ****   *         @arg @ref LL_DMA_CHANNEL_2
 988:Drivers/STM32G4xx_HAL_Driver/Inc/stm32g4xx_ll_dma.h ****   *         @arg @ref LL_DMA_CHANNEL_3
 989:Drivers/STM32G4xx_HAL_Driver/Inc/stm32g4xx_ll_dma.h ****   *         @arg @ref LL_DMA_CHANNEL_4
 990:Drivers/STM32G4xx_HAL_Driver/Inc/stm32g4xx_ll_dma.h ****   *         @arg @ref LL_DMA_CHANNEL_5
 991:Drivers/STM32G4xx_HAL_Driver/Inc/stm32g4xx_ll_dma.h ****   *         @arg @ref LL_DMA_CHANNEL_6
 992:Drivers/STM32G4xx_HAL_Driver/Inc/stm32g4xx_ll_dma.h ****   *         @arg @ref LL_DMA_CHANNEL_7 (*)
 993:Drivers/STM32G4xx_HAL_Driver/Inc/stm32g4xx_ll_dma.h ****   *         @arg @ref LL_DMA_CHANNEL_8 (*)
 994:Drivers/STM32G4xx_HAL_Driver/Inc/stm32g4xx_ll_dma.h ****   *         (*) Not on all G4 devices
 995:Drivers/STM32G4xx_HAL_Driver/Inc/stm32g4xx_ll_dma.h ****   * @param  NbData Between Min_Data = 0 and Max_Data = 0x0000FFFF
 996:Drivers/STM32G4xx_HAL_Driver/Inc/stm32g4xx_ll_dma.h ****   * @retval None
 997:Drivers/STM32G4xx_HAL_Driver/Inc/stm32g4xx_ll_dma.h ****   */
 998:Drivers/STM32G4xx_HAL_Driver/Inc/stm32g4xx_ll_dma.h **** __STATIC_INLINE void LL_DMA_SetDataLength(DMA_TypeDef *DMAx, uint32_t Channel, uint32_t NbData)
 999:Drivers/STM32G4xx_HAL_Driver/Inc/stm32g4xx_ll_dma.h **** {
1000:Drivers/STM32G4xx_HAL_Driver/Inc/stm32g4xx_ll_dma.h ****   uint32_t dma_base_addr = (uint32_t)DMAx;
1001:Drivers/STM32G4xx_HAL_Driver/Inc/stm32g4xx_ll_dma.h ****   MODIFY_REG(((DMA_Channel_TypeDef *)((uint32_t)(dma_base_addr + CHANNEL_OFFSET_TAB[Channel])))->CN
1002:Drivers/STM32G4xx_HAL_Driver/Inc/stm32g4xx_ll_dma.h ****              DMA_CNDTR_NDT, NbData);
1003:Drivers/STM32G4xx_HAL_Driver/Inc/stm32g4xx_ll_dma.h **** }
1004:Drivers/STM32G4xx_HAL_Driver/Inc/stm32g4xx_ll_dma.h **** 
1005:Drivers/STM32G4xx_HAL_Driver/Inc/stm32g4xx_ll_dma.h **** /**
1006:Drivers/STM32G4xx_HAL_Driver/Inc/stm32g4xx_ll_dma.h ****   * @brief  Get Number of data to transfer.
1007:Drivers/STM32G4xx_HAL_Driver/Inc/stm32g4xx_ll_dma.h ****   * @note   Once the channel is enabled, the return value indicate the
1008:Drivers/STM32G4xx_HAL_Driver/Inc/stm32g4xx_ll_dma.h ****   *         remaining bytes to be transmitted.
1009:Drivers/STM32G4xx_HAL_Driver/Inc/stm32g4xx_ll_dma.h ****   * @rmtoll CNDTR        NDT           LL_DMA_GetDataLength
1010:Drivers/STM32G4xx_HAL_Driver/Inc/stm32g4xx_ll_dma.h ****   * @param  DMAx DMAx Instance
1011:Drivers/STM32G4xx_HAL_Driver/Inc/stm32g4xx_ll_dma.h ****   * @param  Channel This parameter can be one of the following values:
1012:Drivers/STM32G4xx_HAL_Driver/Inc/stm32g4xx_ll_dma.h ****   *         @arg @ref LL_DMA_CHANNEL_1
1013:Drivers/STM32G4xx_HAL_Driver/Inc/stm32g4xx_ll_dma.h ****   *         @arg @ref LL_DMA_CHANNEL_2
1014:Drivers/STM32G4xx_HAL_Driver/Inc/stm32g4xx_ll_dma.h ****   *         @arg @ref LL_DMA_CHANNEL_3
1015:Drivers/STM32G4xx_HAL_Driver/Inc/stm32g4xx_ll_dma.h ****   *         @arg @ref LL_DMA_CHANNEL_4
1016:Drivers/STM32G4xx_HAL_Driver/Inc/stm32g4xx_ll_dma.h ****   *         @arg @ref LL_DMA_CHANNEL_5
1017:Drivers/STM32G4xx_HAL_Driver/Inc/stm32g4xx_ll_dma.h ****   *         @arg @ref LL_DMA_CHANNEL_6
1018:Drivers/STM32G4xx_HAL_Driver/Inc/stm32g4xx_ll_dma.h ****   *         @arg @ref LL_DMA_CHANNEL_7 (*)
1019:Drivers/STM32G4xx_HAL_Driver/Inc/stm32g4xx_ll_dma.h ****   *         @arg @ref LL_DMA_CHANNEL_8 (*)
1020:Drivers/STM32G4xx_HAL_Driver/Inc/stm32g4xx_ll_dma.h ****   *         (*) Not on all G4 devices
1021:Drivers/STM32G4xx_HAL_Driver/Inc/stm32g4xx_ll_dma.h ****   * @retval Between Min_Data = 0 and Max_Data = 0xFFFFFFFF
1022:Drivers/STM32G4xx_HAL_Driver/Inc/stm32g4xx_ll_dma.h ****   */
ARM GAS  /tmp/cc2tlrck.s 			page 25


1023:Drivers/STM32G4xx_HAL_Driver/Inc/stm32g4xx_ll_dma.h **** __STATIC_INLINE uint32_t LL_DMA_GetDataLength(DMA_TypeDef *DMAx, uint32_t Channel)
1024:Drivers/STM32G4xx_HAL_Driver/Inc/stm32g4xx_ll_dma.h **** {
1025:Drivers/STM32G4xx_HAL_Driver/Inc/stm32g4xx_ll_dma.h ****   uint32_t dma_base_addr = (uint32_t)DMAx;
1026:Drivers/STM32G4xx_HAL_Driver/Inc/stm32g4xx_ll_dma.h ****   return (READ_BIT(((DMA_Channel_TypeDef *)((uint32_t)(dma_base_addr + CHANNEL_OFFSET_TAB[Channel])
1027:Drivers/STM32G4xx_HAL_Driver/Inc/stm32g4xx_ll_dma.h ****                    DMA_CNDTR_NDT));
1028:Drivers/STM32G4xx_HAL_Driver/Inc/stm32g4xx_ll_dma.h **** }
1029:Drivers/STM32G4xx_HAL_Driver/Inc/stm32g4xx_ll_dma.h **** 
1030:Drivers/STM32G4xx_HAL_Driver/Inc/stm32g4xx_ll_dma.h **** /**
1031:Drivers/STM32G4xx_HAL_Driver/Inc/stm32g4xx_ll_dma.h ****   * @brief  Configure the Source and Destination addresses.
1032:Drivers/STM32G4xx_HAL_Driver/Inc/stm32g4xx_ll_dma.h ****   * @note   This API must not be called when the DMA channel is enabled.
1033:Drivers/STM32G4xx_HAL_Driver/Inc/stm32g4xx_ll_dma.h ****   * @note   Each IP using DMA provides an API to get directly the register address (LL_PPP_DMA_GetR
1034:Drivers/STM32G4xx_HAL_Driver/Inc/stm32g4xx_ll_dma.h ****   * @rmtoll CPAR         PA            LL_DMA_ConfigAddresses\n
1035:Drivers/STM32G4xx_HAL_Driver/Inc/stm32g4xx_ll_dma.h ****   *         CMAR         MA            LL_DMA_ConfigAddresses
1036:Drivers/STM32G4xx_HAL_Driver/Inc/stm32g4xx_ll_dma.h ****   * @param  DMAx DMAx Instance
1037:Drivers/STM32G4xx_HAL_Driver/Inc/stm32g4xx_ll_dma.h ****   * @param  Channel This parameter can be one of the following values:
1038:Drivers/STM32G4xx_HAL_Driver/Inc/stm32g4xx_ll_dma.h ****   *         @arg @ref LL_DMA_CHANNEL_1
1039:Drivers/STM32G4xx_HAL_Driver/Inc/stm32g4xx_ll_dma.h ****   *         @arg @ref LL_DMA_CHANNEL_2
1040:Drivers/STM32G4xx_HAL_Driver/Inc/stm32g4xx_ll_dma.h ****   *         @arg @ref LL_DMA_CHANNEL_3
1041:Drivers/STM32G4xx_HAL_Driver/Inc/stm32g4xx_ll_dma.h ****   *         @arg @ref LL_DMA_CHANNEL_4
1042:Drivers/STM32G4xx_HAL_Driver/Inc/stm32g4xx_ll_dma.h ****   *         @arg @ref LL_DMA_CHANNEL_5
1043:Drivers/STM32G4xx_HAL_Driver/Inc/stm32g4xx_ll_dma.h ****   *         @arg @ref LL_DMA_CHANNEL_6
1044:Drivers/STM32G4xx_HAL_Driver/Inc/stm32g4xx_ll_dma.h ****   *         @arg @ref LL_DMA_CHANNEL_7 (*)
1045:Drivers/STM32G4xx_HAL_Driver/Inc/stm32g4xx_ll_dma.h ****   *         @arg @ref LL_DMA_CHANNEL_8 (*)
1046:Drivers/STM32G4xx_HAL_Driver/Inc/stm32g4xx_ll_dma.h ****   *         (*) Not on all G4 devices
1047:Drivers/STM32G4xx_HAL_Driver/Inc/stm32g4xx_ll_dma.h ****   * @param  SrcAddress Between Min_Data = 0 and Max_Data = 0xFFFFFFFF
1048:Drivers/STM32G4xx_HAL_Driver/Inc/stm32g4xx_ll_dma.h ****   * @param  DstAddress Between Min_Data = 0 and Max_Data = 0xFFFFFFFF
1049:Drivers/STM32G4xx_HAL_Driver/Inc/stm32g4xx_ll_dma.h ****   * @param  Direction This parameter can be one of the following values:
1050:Drivers/STM32G4xx_HAL_Driver/Inc/stm32g4xx_ll_dma.h ****   *         @arg @ref LL_DMA_DIRECTION_PERIPH_TO_MEMORY
1051:Drivers/STM32G4xx_HAL_Driver/Inc/stm32g4xx_ll_dma.h ****   *         @arg @ref LL_DMA_DIRECTION_MEMORY_TO_PERIPH
1052:Drivers/STM32G4xx_HAL_Driver/Inc/stm32g4xx_ll_dma.h ****   *         @arg @ref LL_DMA_DIRECTION_MEMORY_TO_MEMORY
1053:Drivers/STM32G4xx_HAL_Driver/Inc/stm32g4xx_ll_dma.h ****   * @retval None
1054:Drivers/STM32G4xx_HAL_Driver/Inc/stm32g4xx_ll_dma.h ****   */
1055:Drivers/STM32G4xx_HAL_Driver/Inc/stm32g4xx_ll_dma.h **** __STATIC_INLINE void LL_DMA_ConfigAddresses(DMA_TypeDef *DMAx, uint32_t Channel, uint32_t SrcAddres
1056:Drivers/STM32G4xx_HAL_Driver/Inc/stm32g4xx_ll_dma.h ****                                             uint32_t DstAddress, uint32_t Direction)
1057:Drivers/STM32G4xx_HAL_Driver/Inc/stm32g4xx_ll_dma.h **** {
1058:Drivers/STM32G4xx_HAL_Driver/Inc/stm32g4xx_ll_dma.h ****   uint32_t dma_base_addr = (uint32_t)DMAx;
1059:Drivers/STM32G4xx_HAL_Driver/Inc/stm32g4xx_ll_dma.h **** 
1060:Drivers/STM32G4xx_HAL_Driver/Inc/stm32g4xx_ll_dma.h ****   /* Direction Memory to Periph */
1061:Drivers/STM32G4xx_HAL_Driver/Inc/stm32g4xx_ll_dma.h ****   if (Direction == LL_DMA_DIRECTION_MEMORY_TO_PERIPH)
1062:Drivers/STM32G4xx_HAL_Driver/Inc/stm32g4xx_ll_dma.h ****   {
1063:Drivers/STM32G4xx_HAL_Driver/Inc/stm32g4xx_ll_dma.h ****     WRITE_REG(((DMA_Channel_TypeDef *)((uint32_t)(dma_base_addr + CHANNEL_OFFSET_TAB[Channel])))->C
1064:Drivers/STM32G4xx_HAL_Driver/Inc/stm32g4xx_ll_dma.h ****     WRITE_REG(((DMA_Channel_TypeDef *)((uint32_t)(dma_base_addr + CHANNEL_OFFSET_TAB[Channel])))->C
1065:Drivers/STM32G4xx_HAL_Driver/Inc/stm32g4xx_ll_dma.h ****   }
1066:Drivers/STM32G4xx_HAL_Driver/Inc/stm32g4xx_ll_dma.h ****   /* Direction Periph to Memory and Memory to Memory */
1067:Drivers/STM32G4xx_HAL_Driver/Inc/stm32g4xx_ll_dma.h ****   else
1068:Drivers/STM32G4xx_HAL_Driver/Inc/stm32g4xx_ll_dma.h ****   {
1069:Drivers/STM32G4xx_HAL_Driver/Inc/stm32g4xx_ll_dma.h ****     WRITE_REG(((DMA_Channel_TypeDef *)((uint32_t)(dma_base_addr + CHANNEL_OFFSET_TAB[Channel])))->C
1070:Drivers/STM32G4xx_HAL_Driver/Inc/stm32g4xx_ll_dma.h ****     WRITE_REG(((DMA_Channel_TypeDef *)((uint32_t)(dma_base_addr + CHANNEL_OFFSET_TAB[Channel])))->C
1071:Drivers/STM32G4xx_HAL_Driver/Inc/stm32g4xx_ll_dma.h ****   }
1072:Drivers/STM32G4xx_HAL_Driver/Inc/stm32g4xx_ll_dma.h **** }
1073:Drivers/STM32G4xx_HAL_Driver/Inc/stm32g4xx_ll_dma.h **** 
1074:Drivers/STM32G4xx_HAL_Driver/Inc/stm32g4xx_ll_dma.h **** /**
1075:Drivers/STM32G4xx_HAL_Driver/Inc/stm32g4xx_ll_dma.h ****   * @brief  Set the Memory address.
1076:Drivers/STM32G4xx_HAL_Driver/Inc/stm32g4xx_ll_dma.h ****   * @note   Interface used for direction LL_DMA_DIRECTION_PERIPH_TO_MEMORY or LL_DMA_DIRECTION_MEMO
1077:Drivers/STM32G4xx_HAL_Driver/Inc/stm32g4xx_ll_dma.h ****   * @note   This API must not be called when the DMA channel is enabled.
1078:Drivers/STM32G4xx_HAL_Driver/Inc/stm32g4xx_ll_dma.h ****   * @rmtoll CMAR         MA            LL_DMA_SetMemoryAddress
1079:Drivers/STM32G4xx_HAL_Driver/Inc/stm32g4xx_ll_dma.h ****   * @param  DMAx DMAx Instance
ARM GAS  /tmp/cc2tlrck.s 			page 26


1080:Drivers/STM32G4xx_HAL_Driver/Inc/stm32g4xx_ll_dma.h ****   * @param  Channel This parameter can be one of the following values:
1081:Drivers/STM32G4xx_HAL_Driver/Inc/stm32g4xx_ll_dma.h ****   *         @arg @ref LL_DMA_CHANNEL_1
1082:Drivers/STM32G4xx_HAL_Driver/Inc/stm32g4xx_ll_dma.h ****   *         @arg @ref LL_DMA_CHANNEL_2
1083:Drivers/STM32G4xx_HAL_Driver/Inc/stm32g4xx_ll_dma.h ****   *         @arg @ref LL_DMA_CHANNEL_3
1084:Drivers/STM32G4xx_HAL_Driver/Inc/stm32g4xx_ll_dma.h ****   *         @arg @ref LL_DMA_CHANNEL_4
1085:Drivers/STM32G4xx_HAL_Driver/Inc/stm32g4xx_ll_dma.h ****   *         @arg @ref LL_DMA_CHANNEL_5
1086:Drivers/STM32G4xx_HAL_Driver/Inc/stm32g4xx_ll_dma.h ****   *         @arg @ref LL_DMA_CHANNEL_6
1087:Drivers/STM32G4xx_HAL_Driver/Inc/stm32g4xx_ll_dma.h ****   *         @arg @ref LL_DMA_CHANNEL_7 (*)
1088:Drivers/STM32G4xx_HAL_Driver/Inc/stm32g4xx_ll_dma.h ****   *         @arg @ref LL_DMA_CHANNEL_8 (*)
1089:Drivers/STM32G4xx_HAL_Driver/Inc/stm32g4xx_ll_dma.h ****   *         (*) Not on all G4 devices
1090:Drivers/STM32G4xx_HAL_Driver/Inc/stm32g4xx_ll_dma.h ****   * @param  MemoryAddress Between Min_Data = 0 and Max_Data = 0xFFFFFFFF
1091:Drivers/STM32G4xx_HAL_Driver/Inc/stm32g4xx_ll_dma.h ****   * @retval None
1092:Drivers/STM32G4xx_HAL_Driver/Inc/stm32g4xx_ll_dma.h ****   */
1093:Drivers/STM32G4xx_HAL_Driver/Inc/stm32g4xx_ll_dma.h **** __STATIC_INLINE void LL_DMA_SetMemoryAddress(DMA_TypeDef *DMAx, uint32_t Channel, uint32_t MemoryAd
1094:Drivers/STM32G4xx_HAL_Driver/Inc/stm32g4xx_ll_dma.h **** {
1095:Drivers/STM32G4xx_HAL_Driver/Inc/stm32g4xx_ll_dma.h ****   uint32_t dma_base_addr = (uint32_t)DMAx;
1096:Drivers/STM32G4xx_HAL_Driver/Inc/stm32g4xx_ll_dma.h ****   WRITE_REG(((DMA_Channel_TypeDef *)((uint32_t)(dma_base_addr + CHANNEL_OFFSET_TAB[Channel])))->CMA
1097:Drivers/STM32G4xx_HAL_Driver/Inc/stm32g4xx_ll_dma.h **** }
1098:Drivers/STM32G4xx_HAL_Driver/Inc/stm32g4xx_ll_dma.h **** 
1099:Drivers/STM32G4xx_HAL_Driver/Inc/stm32g4xx_ll_dma.h **** /**
1100:Drivers/STM32G4xx_HAL_Driver/Inc/stm32g4xx_ll_dma.h ****   * @brief  Set the Peripheral address.
1101:Drivers/STM32G4xx_HAL_Driver/Inc/stm32g4xx_ll_dma.h ****   * @note   Interface used for direction LL_DMA_DIRECTION_PERIPH_TO_MEMORY or LL_DMA_DIRECTION_MEMO
1102:Drivers/STM32G4xx_HAL_Driver/Inc/stm32g4xx_ll_dma.h ****   * @note   This API must not be called when the DMA channel is enabled.
1103:Drivers/STM32G4xx_HAL_Driver/Inc/stm32g4xx_ll_dma.h ****   * @rmtoll CPAR         PA            LL_DMA_SetPeriphAddress
1104:Drivers/STM32G4xx_HAL_Driver/Inc/stm32g4xx_ll_dma.h ****   * @param  DMAx DMAx Instance
1105:Drivers/STM32G4xx_HAL_Driver/Inc/stm32g4xx_ll_dma.h ****   * @param  Channel This parameter can be one of the following values:
1106:Drivers/STM32G4xx_HAL_Driver/Inc/stm32g4xx_ll_dma.h ****   *         @arg @ref LL_DMA_CHANNEL_1
1107:Drivers/STM32G4xx_HAL_Driver/Inc/stm32g4xx_ll_dma.h ****   *         @arg @ref LL_DMA_CHANNEL_2
1108:Drivers/STM32G4xx_HAL_Driver/Inc/stm32g4xx_ll_dma.h ****   *         @arg @ref LL_DMA_CHANNEL_3
1109:Drivers/STM32G4xx_HAL_Driver/Inc/stm32g4xx_ll_dma.h ****   *         @arg @ref LL_DMA_CHANNEL_4
1110:Drivers/STM32G4xx_HAL_Driver/Inc/stm32g4xx_ll_dma.h ****   *         @arg @ref LL_DMA_CHANNEL_5
1111:Drivers/STM32G4xx_HAL_Driver/Inc/stm32g4xx_ll_dma.h ****   *         @arg @ref LL_DMA_CHANNEL_6
1112:Drivers/STM32G4xx_HAL_Driver/Inc/stm32g4xx_ll_dma.h ****   *         @arg @ref LL_DMA_CHANNEL_7 (*)
1113:Drivers/STM32G4xx_HAL_Driver/Inc/stm32g4xx_ll_dma.h ****   *         @arg @ref LL_DMA_CHANNEL_8 (*)
1114:Drivers/STM32G4xx_HAL_Driver/Inc/stm32g4xx_ll_dma.h ****   *         (*) Not on all G4 devices
1115:Drivers/STM32G4xx_HAL_Driver/Inc/stm32g4xx_ll_dma.h ****   * @param  PeriphAddress Between Min_Data = 0 and Max_Data = 0xFFFFFFFF
1116:Drivers/STM32G4xx_HAL_Driver/Inc/stm32g4xx_ll_dma.h ****   * @retval None
1117:Drivers/STM32G4xx_HAL_Driver/Inc/stm32g4xx_ll_dma.h ****   */
1118:Drivers/STM32G4xx_HAL_Driver/Inc/stm32g4xx_ll_dma.h **** __STATIC_INLINE void LL_DMA_SetPeriphAddress(DMA_TypeDef *DMAx, uint32_t Channel, uint32_t PeriphAd
1119:Drivers/STM32G4xx_HAL_Driver/Inc/stm32g4xx_ll_dma.h **** {
1120:Drivers/STM32G4xx_HAL_Driver/Inc/stm32g4xx_ll_dma.h ****   uint32_t dma_base_addr = (uint32_t)DMAx;
1121:Drivers/STM32G4xx_HAL_Driver/Inc/stm32g4xx_ll_dma.h ****   WRITE_REG(((DMA_Channel_TypeDef *)((uint32_t)(dma_base_addr + CHANNEL_OFFSET_TAB[Channel])))->CPA
1122:Drivers/STM32G4xx_HAL_Driver/Inc/stm32g4xx_ll_dma.h **** }
1123:Drivers/STM32G4xx_HAL_Driver/Inc/stm32g4xx_ll_dma.h **** 
1124:Drivers/STM32G4xx_HAL_Driver/Inc/stm32g4xx_ll_dma.h **** /**
1125:Drivers/STM32G4xx_HAL_Driver/Inc/stm32g4xx_ll_dma.h ****   * @brief  Get Memory address.
1126:Drivers/STM32G4xx_HAL_Driver/Inc/stm32g4xx_ll_dma.h ****   * @note   Interface used for direction LL_DMA_DIRECTION_PERIPH_TO_MEMORY or LL_DMA_DIRECTION_MEMO
1127:Drivers/STM32G4xx_HAL_Driver/Inc/stm32g4xx_ll_dma.h ****   * @rmtoll CMAR         MA            LL_DMA_GetMemoryAddress
1128:Drivers/STM32G4xx_HAL_Driver/Inc/stm32g4xx_ll_dma.h ****   * @param  DMAx DMAx Instance
1129:Drivers/STM32G4xx_HAL_Driver/Inc/stm32g4xx_ll_dma.h ****   * @param  Channel This parameter can be one of the following values:
1130:Drivers/STM32G4xx_HAL_Driver/Inc/stm32g4xx_ll_dma.h ****   *         @arg @ref LL_DMA_CHANNEL_1
1131:Drivers/STM32G4xx_HAL_Driver/Inc/stm32g4xx_ll_dma.h ****   *         @arg @ref LL_DMA_CHANNEL_2
1132:Drivers/STM32G4xx_HAL_Driver/Inc/stm32g4xx_ll_dma.h ****   *         @arg @ref LL_DMA_CHANNEL_3
1133:Drivers/STM32G4xx_HAL_Driver/Inc/stm32g4xx_ll_dma.h ****   *         @arg @ref LL_DMA_CHANNEL_4
1134:Drivers/STM32G4xx_HAL_Driver/Inc/stm32g4xx_ll_dma.h ****   *         @arg @ref LL_DMA_CHANNEL_5
1135:Drivers/STM32G4xx_HAL_Driver/Inc/stm32g4xx_ll_dma.h ****   *         @arg @ref LL_DMA_CHANNEL_6
1136:Drivers/STM32G4xx_HAL_Driver/Inc/stm32g4xx_ll_dma.h ****   *         @arg @ref LL_DMA_CHANNEL_7 (*)
ARM GAS  /tmp/cc2tlrck.s 			page 27


1137:Drivers/STM32G4xx_HAL_Driver/Inc/stm32g4xx_ll_dma.h ****   *         @arg @ref LL_DMA_CHANNEL_8 (*)
1138:Drivers/STM32G4xx_HAL_Driver/Inc/stm32g4xx_ll_dma.h ****   *         (*) Not on all G4 devices
1139:Drivers/STM32G4xx_HAL_Driver/Inc/stm32g4xx_ll_dma.h ****   * @retval Between Min_Data = 0 and Max_Data = 0xFFFFFFFF
1140:Drivers/STM32G4xx_HAL_Driver/Inc/stm32g4xx_ll_dma.h ****   */
1141:Drivers/STM32G4xx_HAL_Driver/Inc/stm32g4xx_ll_dma.h **** __STATIC_INLINE uint32_t LL_DMA_GetMemoryAddress(DMA_TypeDef *DMAx, uint32_t Channel)
1142:Drivers/STM32G4xx_HAL_Driver/Inc/stm32g4xx_ll_dma.h **** {
1143:Drivers/STM32G4xx_HAL_Driver/Inc/stm32g4xx_ll_dma.h ****   uint32_t dma_base_addr = (uint32_t)DMAx;
1144:Drivers/STM32G4xx_HAL_Driver/Inc/stm32g4xx_ll_dma.h ****   return (READ_REG(((DMA_Channel_TypeDef *)((uint32_t)(dma_base_addr + CHANNEL_OFFSET_TAB[Channel])
1145:Drivers/STM32G4xx_HAL_Driver/Inc/stm32g4xx_ll_dma.h **** }
1146:Drivers/STM32G4xx_HAL_Driver/Inc/stm32g4xx_ll_dma.h **** 
1147:Drivers/STM32G4xx_HAL_Driver/Inc/stm32g4xx_ll_dma.h **** /**
1148:Drivers/STM32G4xx_HAL_Driver/Inc/stm32g4xx_ll_dma.h ****   * @brief  Get Peripheral address.
1149:Drivers/STM32G4xx_HAL_Driver/Inc/stm32g4xx_ll_dma.h ****   * @note   Interface used for direction LL_DMA_DIRECTION_PERIPH_TO_MEMORY or LL_DMA_DIRECTION_MEMO
1150:Drivers/STM32G4xx_HAL_Driver/Inc/stm32g4xx_ll_dma.h ****   * @rmtoll CPAR         PA            LL_DMA_GetPeriphAddress
1151:Drivers/STM32G4xx_HAL_Driver/Inc/stm32g4xx_ll_dma.h ****   * @param  DMAx DMAx Instance
1152:Drivers/STM32G4xx_HAL_Driver/Inc/stm32g4xx_ll_dma.h ****   * @param  Channel This parameter can be one of the following values:
1153:Drivers/STM32G4xx_HAL_Driver/Inc/stm32g4xx_ll_dma.h ****   *         @arg @ref LL_DMA_CHANNEL_1
1154:Drivers/STM32G4xx_HAL_Driver/Inc/stm32g4xx_ll_dma.h ****   *         @arg @ref LL_DMA_CHANNEL_2
1155:Drivers/STM32G4xx_HAL_Driver/Inc/stm32g4xx_ll_dma.h ****   *         @arg @ref LL_DMA_CHANNEL_3
1156:Drivers/STM32G4xx_HAL_Driver/Inc/stm32g4xx_ll_dma.h ****   *         @arg @ref LL_DMA_CHANNEL_4
1157:Drivers/STM32G4xx_HAL_Driver/Inc/stm32g4xx_ll_dma.h ****   *         @arg @ref LL_DMA_CHANNEL_5
1158:Drivers/STM32G4xx_HAL_Driver/Inc/stm32g4xx_ll_dma.h ****   *         @arg @ref LL_DMA_CHANNEL_6
1159:Drivers/STM32G4xx_HAL_Driver/Inc/stm32g4xx_ll_dma.h ****   *         @arg @ref LL_DMA_CHANNEL_7 (*)
1160:Drivers/STM32G4xx_HAL_Driver/Inc/stm32g4xx_ll_dma.h ****   *         @arg @ref LL_DMA_CHANNEL_8 (*)
1161:Drivers/STM32G4xx_HAL_Driver/Inc/stm32g4xx_ll_dma.h ****   *         (*) Not on all G4 devices
1162:Drivers/STM32G4xx_HAL_Driver/Inc/stm32g4xx_ll_dma.h ****   * @retval Between Min_Data = 0 and Max_Data = 0xFFFFFFFF
1163:Drivers/STM32G4xx_HAL_Driver/Inc/stm32g4xx_ll_dma.h ****   */
1164:Drivers/STM32G4xx_HAL_Driver/Inc/stm32g4xx_ll_dma.h **** __STATIC_INLINE uint32_t LL_DMA_GetPeriphAddress(DMA_TypeDef *DMAx, uint32_t Channel)
1165:Drivers/STM32G4xx_HAL_Driver/Inc/stm32g4xx_ll_dma.h **** {
1166:Drivers/STM32G4xx_HAL_Driver/Inc/stm32g4xx_ll_dma.h ****   uint32_t dma_base_addr = (uint32_t)DMAx;
1167:Drivers/STM32G4xx_HAL_Driver/Inc/stm32g4xx_ll_dma.h ****   return (READ_REG(((DMA_Channel_TypeDef *)((uint32_t)(dma_base_addr + CHANNEL_OFFSET_TAB[Channel])
1168:Drivers/STM32G4xx_HAL_Driver/Inc/stm32g4xx_ll_dma.h **** }
1169:Drivers/STM32G4xx_HAL_Driver/Inc/stm32g4xx_ll_dma.h **** 
1170:Drivers/STM32G4xx_HAL_Driver/Inc/stm32g4xx_ll_dma.h **** /**
1171:Drivers/STM32G4xx_HAL_Driver/Inc/stm32g4xx_ll_dma.h ****   * @brief  Set the Memory to Memory Source address.
1172:Drivers/STM32G4xx_HAL_Driver/Inc/stm32g4xx_ll_dma.h ****   * @note   Interface used for direction LL_DMA_DIRECTION_MEMORY_TO_MEMORY only.
1173:Drivers/STM32G4xx_HAL_Driver/Inc/stm32g4xx_ll_dma.h ****   * @note   This API must not be called when the DMA channel is enabled.
1174:Drivers/STM32G4xx_HAL_Driver/Inc/stm32g4xx_ll_dma.h ****   * @rmtoll CPAR         PA            LL_DMA_SetM2MSrcAddress
1175:Drivers/STM32G4xx_HAL_Driver/Inc/stm32g4xx_ll_dma.h ****   * @param  DMAx DMAx Instance
1176:Drivers/STM32G4xx_HAL_Driver/Inc/stm32g4xx_ll_dma.h ****   * @param  Channel This parameter can be one of the following values:
1177:Drivers/STM32G4xx_HAL_Driver/Inc/stm32g4xx_ll_dma.h ****   *         @arg @ref LL_DMA_CHANNEL_1
1178:Drivers/STM32G4xx_HAL_Driver/Inc/stm32g4xx_ll_dma.h ****   *         @arg @ref LL_DMA_CHANNEL_2
1179:Drivers/STM32G4xx_HAL_Driver/Inc/stm32g4xx_ll_dma.h ****   *         @arg @ref LL_DMA_CHANNEL_3
1180:Drivers/STM32G4xx_HAL_Driver/Inc/stm32g4xx_ll_dma.h ****   *         @arg @ref LL_DMA_CHANNEL_4
1181:Drivers/STM32G4xx_HAL_Driver/Inc/stm32g4xx_ll_dma.h ****   *         @arg @ref LL_DMA_CHANNEL_5
1182:Drivers/STM32G4xx_HAL_Driver/Inc/stm32g4xx_ll_dma.h ****   *         @arg @ref LL_DMA_CHANNEL_6
1183:Drivers/STM32G4xx_HAL_Driver/Inc/stm32g4xx_ll_dma.h ****   *         @arg @ref LL_DMA_CHANNEL_7 (*)
1184:Drivers/STM32G4xx_HAL_Driver/Inc/stm32g4xx_ll_dma.h ****   *         @arg @ref LL_DMA_CHANNEL_8 (*)
1185:Drivers/STM32G4xx_HAL_Driver/Inc/stm32g4xx_ll_dma.h ****   *         (*) Not on all G4 devices
1186:Drivers/STM32G4xx_HAL_Driver/Inc/stm32g4xx_ll_dma.h ****   * @param  MemoryAddress Between Min_Data = 0 and Max_Data = 0xFFFFFFFF
1187:Drivers/STM32G4xx_HAL_Driver/Inc/stm32g4xx_ll_dma.h ****   * @retval None
1188:Drivers/STM32G4xx_HAL_Driver/Inc/stm32g4xx_ll_dma.h ****   */
1189:Drivers/STM32G4xx_HAL_Driver/Inc/stm32g4xx_ll_dma.h **** __STATIC_INLINE void LL_DMA_SetM2MSrcAddress(DMA_TypeDef *DMAx, uint32_t Channel, uint32_t MemoryAd
1190:Drivers/STM32G4xx_HAL_Driver/Inc/stm32g4xx_ll_dma.h **** {
1191:Drivers/STM32G4xx_HAL_Driver/Inc/stm32g4xx_ll_dma.h ****   uint32_t dma_base_addr = (uint32_t)DMAx;
1192:Drivers/STM32G4xx_HAL_Driver/Inc/stm32g4xx_ll_dma.h ****   WRITE_REG(((DMA_Channel_TypeDef *)((uint32_t)(dma_base_addr + CHANNEL_OFFSET_TAB[Channel])))->CPA
1193:Drivers/STM32G4xx_HAL_Driver/Inc/stm32g4xx_ll_dma.h **** }
ARM GAS  /tmp/cc2tlrck.s 			page 28


1194:Drivers/STM32G4xx_HAL_Driver/Inc/stm32g4xx_ll_dma.h **** 
1195:Drivers/STM32G4xx_HAL_Driver/Inc/stm32g4xx_ll_dma.h **** /**
1196:Drivers/STM32G4xx_HAL_Driver/Inc/stm32g4xx_ll_dma.h ****   * @brief  Set the Memory to Memory Destination address.
1197:Drivers/STM32G4xx_HAL_Driver/Inc/stm32g4xx_ll_dma.h ****   * @note   Interface used for direction LL_DMA_DIRECTION_MEMORY_TO_MEMORY only.
1198:Drivers/STM32G4xx_HAL_Driver/Inc/stm32g4xx_ll_dma.h ****   * @note   This API must not be called when the DMA channel is enabled.
1199:Drivers/STM32G4xx_HAL_Driver/Inc/stm32g4xx_ll_dma.h ****   * @rmtoll CMAR         MA            LL_DMA_SetM2MDstAddress
1200:Drivers/STM32G4xx_HAL_Driver/Inc/stm32g4xx_ll_dma.h ****   * @param  DMAx DMAx Instance
1201:Drivers/STM32G4xx_HAL_Driver/Inc/stm32g4xx_ll_dma.h ****   * @param  Channel This parameter can be one of the following values:
1202:Drivers/STM32G4xx_HAL_Driver/Inc/stm32g4xx_ll_dma.h ****   *         @arg @ref LL_DMA_CHANNEL_1
1203:Drivers/STM32G4xx_HAL_Driver/Inc/stm32g4xx_ll_dma.h ****   *         @arg @ref LL_DMA_CHANNEL_2
1204:Drivers/STM32G4xx_HAL_Driver/Inc/stm32g4xx_ll_dma.h ****   *         @arg @ref LL_DMA_CHANNEL_3
1205:Drivers/STM32G4xx_HAL_Driver/Inc/stm32g4xx_ll_dma.h ****   *         @arg @ref LL_DMA_CHANNEL_4
1206:Drivers/STM32G4xx_HAL_Driver/Inc/stm32g4xx_ll_dma.h ****   *         @arg @ref LL_DMA_CHANNEL_5
1207:Drivers/STM32G4xx_HAL_Driver/Inc/stm32g4xx_ll_dma.h ****   *         @arg @ref LL_DMA_CHANNEL_6
1208:Drivers/STM32G4xx_HAL_Driver/Inc/stm32g4xx_ll_dma.h ****   *         @arg @ref LL_DMA_CHANNEL_7 (*)
1209:Drivers/STM32G4xx_HAL_Driver/Inc/stm32g4xx_ll_dma.h ****   *         @arg @ref LL_DMA_CHANNEL_8 (*)
1210:Drivers/STM32G4xx_HAL_Driver/Inc/stm32g4xx_ll_dma.h ****   *         (*) Not on all G4 devices
1211:Drivers/STM32G4xx_HAL_Driver/Inc/stm32g4xx_ll_dma.h ****   * @param  MemoryAddress Between Min_Data = 0 and Max_Data = 0xFFFFFFFF
1212:Drivers/STM32G4xx_HAL_Driver/Inc/stm32g4xx_ll_dma.h ****   * @retval None
1213:Drivers/STM32G4xx_HAL_Driver/Inc/stm32g4xx_ll_dma.h ****   */
1214:Drivers/STM32G4xx_HAL_Driver/Inc/stm32g4xx_ll_dma.h **** __STATIC_INLINE void LL_DMA_SetM2MDstAddress(DMA_TypeDef *DMAx, uint32_t Channel, uint32_t MemoryAd
1215:Drivers/STM32G4xx_HAL_Driver/Inc/stm32g4xx_ll_dma.h **** {
1216:Drivers/STM32G4xx_HAL_Driver/Inc/stm32g4xx_ll_dma.h ****   uint32_t dma_base_addr = (uint32_t)DMAx;
1217:Drivers/STM32G4xx_HAL_Driver/Inc/stm32g4xx_ll_dma.h ****   WRITE_REG(((DMA_Channel_TypeDef *)((uint32_t)(dma_base_addr + CHANNEL_OFFSET_TAB[Channel])))->CMA
1218:Drivers/STM32G4xx_HAL_Driver/Inc/stm32g4xx_ll_dma.h **** }
1219:Drivers/STM32G4xx_HAL_Driver/Inc/stm32g4xx_ll_dma.h **** 
1220:Drivers/STM32G4xx_HAL_Driver/Inc/stm32g4xx_ll_dma.h **** /**
1221:Drivers/STM32G4xx_HAL_Driver/Inc/stm32g4xx_ll_dma.h ****   * @brief  Get the Memory to Memory Source address.
1222:Drivers/STM32G4xx_HAL_Driver/Inc/stm32g4xx_ll_dma.h ****   * @note   Interface used for direction LL_DMA_DIRECTION_MEMORY_TO_MEMORY only.
1223:Drivers/STM32G4xx_HAL_Driver/Inc/stm32g4xx_ll_dma.h ****   * @rmtoll CPAR         PA            LL_DMA_GetM2MSrcAddress
1224:Drivers/STM32G4xx_HAL_Driver/Inc/stm32g4xx_ll_dma.h ****   * @param  DMAx DMAx Instance
1225:Drivers/STM32G4xx_HAL_Driver/Inc/stm32g4xx_ll_dma.h ****   * @param  Channel This parameter can be one of the following values:
1226:Drivers/STM32G4xx_HAL_Driver/Inc/stm32g4xx_ll_dma.h ****   *         @arg @ref LL_DMA_CHANNEL_1
1227:Drivers/STM32G4xx_HAL_Driver/Inc/stm32g4xx_ll_dma.h ****   *         @arg @ref LL_DMA_CHANNEL_2
1228:Drivers/STM32G4xx_HAL_Driver/Inc/stm32g4xx_ll_dma.h ****   *         @arg @ref LL_DMA_CHANNEL_3
1229:Drivers/STM32G4xx_HAL_Driver/Inc/stm32g4xx_ll_dma.h ****   *         @arg @ref LL_DMA_CHANNEL_4
1230:Drivers/STM32G4xx_HAL_Driver/Inc/stm32g4xx_ll_dma.h ****   *         @arg @ref LL_DMA_CHANNEL_5
1231:Drivers/STM32G4xx_HAL_Driver/Inc/stm32g4xx_ll_dma.h ****   *         @arg @ref LL_DMA_CHANNEL_6
1232:Drivers/STM32G4xx_HAL_Driver/Inc/stm32g4xx_ll_dma.h ****   *         @arg @ref LL_DMA_CHANNEL_7 (*)
1233:Drivers/STM32G4xx_HAL_Driver/Inc/stm32g4xx_ll_dma.h ****   *         @arg @ref LL_DMA_CHANNEL_8 (*)
1234:Drivers/STM32G4xx_HAL_Driver/Inc/stm32g4xx_ll_dma.h ****   *         (*) Not on all G4 devices
1235:Drivers/STM32G4xx_HAL_Driver/Inc/stm32g4xx_ll_dma.h ****   * @retval Between Min_Data = 0 and Max_Data = 0xFFFFFFFF
1236:Drivers/STM32G4xx_HAL_Driver/Inc/stm32g4xx_ll_dma.h ****   */
1237:Drivers/STM32G4xx_HAL_Driver/Inc/stm32g4xx_ll_dma.h **** __STATIC_INLINE uint32_t LL_DMA_GetM2MSrcAddress(DMA_TypeDef *DMAx, uint32_t Channel)
1238:Drivers/STM32G4xx_HAL_Driver/Inc/stm32g4xx_ll_dma.h **** {
1239:Drivers/STM32G4xx_HAL_Driver/Inc/stm32g4xx_ll_dma.h ****   uint32_t dma_base_addr = (uint32_t)DMAx;
1240:Drivers/STM32G4xx_HAL_Driver/Inc/stm32g4xx_ll_dma.h ****   return (READ_REG(((DMA_Channel_TypeDef *)((uint32_t)(dma_base_addr + CHANNEL_OFFSET_TAB[Channel])
1241:Drivers/STM32G4xx_HAL_Driver/Inc/stm32g4xx_ll_dma.h **** }
1242:Drivers/STM32G4xx_HAL_Driver/Inc/stm32g4xx_ll_dma.h **** 
1243:Drivers/STM32G4xx_HAL_Driver/Inc/stm32g4xx_ll_dma.h **** /**
1244:Drivers/STM32G4xx_HAL_Driver/Inc/stm32g4xx_ll_dma.h ****   * @brief  Get the Memory to Memory Destination address.
1245:Drivers/STM32G4xx_HAL_Driver/Inc/stm32g4xx_ll_dma.h ****   * @note   Interface used for direction LL_DMA_DIRECTION_MEMORY_TO_MEMORY only.
1246:Drivers/STM32G4xx_HAL_Driver/Inc/stm32g4xx_ll_dma.h ****   * @rmtoll CMAR         MA            LL_DMA_GetM2MDstAddress
1247:Drivers/STM32G4xx_HAL_Driver/Inc/stm32g4xx_ll_dma.h ****   * @param  DMAx DMAx Instance
1248:Drivers/STM32G4xx_HAL_Driver/Inc/stm32g4xx_ll_dma.h ****   * @param  Channel This parameter can be one of the following values:
1249:Drivers/STM32G4xx_HAL_Driver/Inc/stm32g4xx_ll_dma.h ****   *         @arg @ref LL_DMA_CHANNEL_1
1250:Drivers/STM32G4xx_HAL_Driver/Inc/stm32g4xx_ll_dma.h ****   *         @arg @ref LL_DMA_CHANNEL_2
ARM GAS  /tmp/cc2tlrck.s 			page 29


1251:Drivers/STM32G4xx_HAL_Driver/Inc/stm32g4xx_ll_dma.h ****   *         @arg @ref LL_DMA_CHANNEL_3
1252:Drivers/STM32G4xx_HAL_Driver/Inc/stm32g4xx_ll_dma.h ****   *         @arg @ref LL_DMA_CHANNEL_4
1253:Drivers/STM32G4xx_HAL_Driver/Inc/stm32g4xx_ll_dma.h ****   *         @arg @ref LL_DMA_CHANNEL_5
1254:Drivers/STM32G4xx_HAL_Driver/Inc/stm32g4xx_ll_dma.h ****   *         @arg @ref LL_DMA_CHANNEL_6
1255:Drivers/STM32G4xx_HAL_Driver/Inc/stm32g4xx_ll_dma.h ****   *         @arg @ref LL_DMA_CHANNEL_7 (*)
1256:Drivers/STM32G4xx_HAL_Driver/Inc/stm32g4xx_ll_dma.h ****   *         @arg @ref LL_DMA_CHANNEL_8 (*)
1257:Drivers/STM32G4xx_HAL_Driver/Inc/stm32g4xx_ll_dma.h ****   *         (*) Not on all G4 devices
1258:Drivers/STM32G4xx_HAL_Driver/Inc/stm32g4xx_ll_dma.h ****   * @retval Between Min_Data = 0 and Max_Data = 0xFFFFFFFF
1259:Drivers/STM32G4xx_HAL_Driver/Inc/stm32g4xx_ll_dma.h ****   */
1260:Drivers/STM32G4xx_HAL_Driver/Inc/stm32g4xx_ll_dma.h **** __STATIC_INLINE uint32_t LL_DMA_GetM2MDstAddress(DMA_TypeDef *DMAx, uint32_t Channel)
1261:Drivers/STM32G4xx_HAL_Driver/Inc/stm32g4xx_ll_dma.h **** {
1262:Drivers/STM32G4xx_HAL_Driver/Inc/stm32g4xx_ll_dma.h ****   uint32_t dma_base_addr = (uint32_t)DMAx;
1263:Drivers/STM32G4xx_HAL_Driver/Inc/stm32g4xx_ll_dma.h ****   return (READ_REG(((DMA_Channel_TypeDef *)((uint32_t)(dma_base_addr + CHANNEL_OFFSET_TAB[Channel])
1264:Drivers/STM32G4xx_HAL_Driver/Inc/stm32g4xx_ll_dma.h **** }
1265:Drivers/STM32G4xx_HAL_Driver/Inc/stm32g4xx_ll_dma.h **** 
1266:Drivers/STM32G4xx_HAL_Driver/Inc/stm32g4xx_ll_dma.h **** /**
1267:Drivers/STM32G4xx_HAL_Driver/Inc/stm32g4xx_ll_dma.h ****   * @brief  Set DMA request for DMA instance on Channel x.
1268:Drivers/STM32G4xx_HAL_Driver/Inc/stm32g4xx_ll_dma.h ****   * @note   Please refer to Reference Manual to get the available mapping of Request value link to 
1269:Drivers/STM32G4xx_HAL_Driver/Inc/stm32g4xx_ll_dma.h ****   * @rmtoll CSELR        C1S           LL_DMA_SetPeriphRequest\n
1270:Drivers/STM32G4xx_HAL_Driver/Inc/stm32g4xx_ll_dma.h ****   *         CSELR        C2S           LL_DMA_SetPeriphRequest\n
1271:Drivers/STM32G4xx_HAL_Driver/Inc/stm32g4xx_ll_dma.h ****   *         CSELR        C3S           LL_DMA_SetPeriphRequest\n
1272:Drivers/STM32G4xx_HAL_Driver/Inc/stm32g4xx_ll_dma.h ****   *         CSELR        C4S           LL_DMA_SetPeriphRequest\n
1273:Drivers/STM32G4xx_HAL_Driver/Inc/stm32g4xx_ll_dma.h ****   *         CSELR        C5S           LL_DMA_SetPeriphRequest\n
1274:Drivers/STM32G4xx_HAL_Driver/Inc/stm32g4xx_ll_dma.h ****   *         CSELR        C6S           LL_DMA_SetPeriphRequest\n
1275:Drivers/STM32G4xx_HAL_Driver/Inc/stm32g4xx_ll_dma.h ****   *         CSELR        C7S           LL_DMA_SetPeriphRequest
1276:Drivers/STM32G4xx_HAL_Driver/Inc/stm32g4xx_ll_dma.h ****   * @param  DMAx DMAx Instance
1277:Drivers/STM32G4xx_HAL_Driver/Inc/stm32g4xx_ll_dma.h ****   * @param  Channel This parameter can be one of the following values:
1278:Drivers/STM32G4xx_HAL_Driver/Inc/stm32g4xx_ll_dma.h ****   *         @arg @ref LL_DMA_CHANNEL_1
1279:Drivers/STM32G4xx_HAL_Driver/Inc/stm32g4xx_ll_dma.h ****   *         @arg @ref LL_DMA_CHANNEL_2
1280:Drivers/STM32G4xx_HAL_Driver/Inc/stm32g4xx_ll_dma.h ****   *         @arg @ref LL_DMA_CHANNEL_3
1281:Drivers/STM32G4xx_HAL_Driver/Inc/stm32g4xx_ll_dma.h ****   *         @arg @ref LL_DMA_CHANNEL_4
1282:Drivers/STM32G4xx_HAL_Driver/Inc/stm32g4xx_ll_dma.h ****   *         @arg @ref LL_DMA_CHANNEL_5
1283:Drivers/STM32G4xx_HAL_Driver/Inc/stm32g4xx_ll_dma.h ****   *         @arg @ref LL_DMA_CHANNEL_6
1284:Drivers/STM32G4xx_HAL_Driver/Inc/stm32g4xx_ll_dma.h ****   *         @arg @ref LL_DMA_CHANNEL_7 (*)
1285:Drivers/STM32G4xx_HAL_Driver/Inc/stm32g4xx_ll_dma.h ****   *         @arg @ref LL_DMA_CHANNEL_8 (*)
1286:Drivers/STM32G4xx_HAL_Driver/Inc/stm32g4xx_ll_dma.h ****   *         (*) Not on all G4 devices
1287:Drivers/STM32G4xx_HAL_Driver/Inc/stm32g4xx_ll_dma.h ****   * @param  PeriphRequest This parameter can be one of the following values:
1288:Drivers/STM32G4xx_HAL_Driver/Inc/stm32g4xx_ll_dma.h ****   *         @arg @ref LL_DMAMUX_REQ_MEM2MEM
1289:Drivers/STM32G4xx_HAL_Driver/Inc/stm32g4xx_ll_dma.h ****   *         @arg @ref LL_DMAMUX_REQ_GENERATOR0
1290:Drivers/STM32G4xx_HAL_Driver/Inc/stm32g4xx_ll_dma.h ****   *         @arg @ref LL_DMAMUX_REQ_GENERATOR1
1291:Drivers/STM32G4xx_HAL_Driver/Inc/stm32g4xx_ll_dma.h ****   *         @arg @ref LL_DMAMUX_REQ_GENERATOR2
1292:Drivers/STM32G4xx_HAL_Driver/Inc/stm32g4xx_ll_dma.h ****   *         @arg @ref LL_DMAMUX_REQ_GENERATOR3
1293:Drivers/STM32G4xx_HAL_Driver/Inc/stm32g4xx_ll_dma.h ****   *         @arg @ref LL_DMAMUX_REQ_ADC1
1294:Drivers/STM32G4xx_HAL_Driver/Inc/stm32g4xx_ll_dma.h ****   *         @arg @ref LL_DMAMUX_REQ_DAC1_CH1
1295:Drivers/STM32G4xx_HAL_Driver/Inc/stm32g4xx_ll_dma.h ****   *         @arg @ref LL_DMAMUX_REQ_DAC1_CH2
1296:Drivers/STM32G4xx_HAL_Driver/Inc/stm32g4xx_ll_dma.h ****   *         @arg @ref LL_DMAMUX_REQ_TIM6_UP
1297:Drivers/STM32G4xx_HAL_Driver/Inc/stm32g4xx_ll_dma.h ****   *         @arg @ref LL_DMAMUX_REQ_TIM7_UP
1298:Drivers/STM32G4xx_HAL_Driver/Inc/stm32g4xx_ll_dma.h ****   *         @arg @ref LL_DMAMUX_REQ_SPI1_RX
1299:Drivers/STM32G4xx_HAL_Driver/Inc/stm32g4xx_ll_dma.h ****   *         @arg @ref LL_DMAMUX_REQ_SPI1_TX
1300:Drivers/STM32G4xx_HAL_Driver/Inc/stm32g4xx_ll_dma.h ****   *         @arg @ref LL_DMAMUX_REQ_SPI2_RX
1301:Drivers/STM32G4xx_HAL_Driver/Inc/stm32g4xx_ll_dma.h ****   *         @arg @ref LL_DMAMUX_REQ_SPI2_TX
1302:Drivers/STM32G4xx_HAL_Driver/Inc/stm32g4xx_ll_dma.h ****   *         @arg @ref LL_DMAMUX_REQ_SPI3_RX
1303:Drivers/STM32G4xx_HAL_Driver/Inc/stm32g4xx_ll_dma.h ****   *         @arg @ref LL_DMAMUX_REQ_SPI3_TX
1304:Drivers/STM32G4xx_HAL_Driver/Inc/stm32g4xx_ll_dma.h ****   *         @arg @ref LL_DMAMUX_REQ_I2C1_RX
1305:Drivers/STM32G4xx_HAL_Driver/Inc/stm32g4xx_ll_dma.h ****   *         @arg @ref LL_DMAMUX_REQ_I2C1_TX
1306:Drivers/STM32G4xx_HAL_Driver/Inc/stm32g4xx_ll_dma.h ****   *         @arg @ref LL_DMAMUX_REQ_I2C2_RX
1307:Drivers/STM32G4xx_HAL_Driver/Inc/stm32g4xx_ll_dma.h ****   *         @arg @ref LL_DMAMUX_REQ_I2C2_TX
ARM GAS  /tmp/cc2tlrck.s 			page 30


1308:Drivers/STM32G4xx_HAL_Driver/Inc/stm32g4xx_ll_dma.h ****   *         @arg @ref LL_DMAMUX_REQ_I2C3_RX
1309:Drivers/STM32G4xx_HAL_Driver/Inc/stm32g4xx_ll_dma.h ****   *         @arg @ref LL_DMAMUX_REQ_I2C3_TX (*)
1310:Drivers/STM32G4xx_HAL_Driver/Inc/stm32g4xx_ll_dma.h ****   *         @arg @ref LL_DMAMUX_REQ_I2C4_RX (*)
1311:Drivers/STM32G4xx_HAL_Driver/Inc/stm32g4xx_ll_dma.h ****   *         @arg @ref LL_DMAMUX_REQ_I2C4_TX
1312:Drivers/STM32G4xx_HAL_Driver/Inc/stm32g4xx_ll_dma.h ****   *         @arg @ref LL_DMAMUX_REQ_USART1_RX
1313:Drivers/STM32G4xx_HAL_Driver/Inc/stm32g4xx_ll_dma.h ****   *         @arg @ref LL_DMAMUX_REQ_USART1_TX
1314:Drivers/STM32G4xx_HAL_Driver/Inc/stm32g4xx_ll_dma.h ****   *         @arg @ref LL_DMAMUX_REQ_USART2_RX
1315:Drivers/STM32G4xx_HAL_Driver/Inc/stm32g4xx_ll_dma.h ****   *         @arg @ref LL_DMAMUX_REQ_USART2_TX
1316:Drivers/STM32G4xx_HAL_Driver/Inc/stm32g4xx_ll_dma.h ****   *         @arg @ref LL_DMAMUX_REQ_USART3_RX
1317:Drivers/STM32G4xx_HAL_Driver/Inc/stm32g4xx_ll_dma.h ****   *         @arg @ref LL_DMAMUX_REQ_USART3_TX
1318:Drivers/STM32G4xx_HAL_Driver/Inc/stm32g4xx_ll_dma.h ****   *         @arg @ref LL_DMAMUX_REQ_UART4_RX
1319:Drivers/STM32G4xx_HAL_Driver/Inc/stm32g4xx_ll_dma.h ****   *         @arg @ref LL_DMAMUX_REQ_UART4_TX
1320:Drivers/STM32G4xx_HAL_Driver/Inc/stm32g4xx_ll_dma.h ****   *         @arg @ref LL_DMAMUX_REQ_UART5_RX (*)
1321:Drivers/STM32G4xx_HAL_Driver/Inc/stm32g4xx_ll_dma.h ****   *         @arg @ref LL_DMAMUX_REQ_UART5_TX (*)
1322:Drivers/STM32G4xx_HAL_Driver/Inc/stm32g4xx_ll_dma.h ****   *         @arg @ref LL_DMAMUX_REQ_LPUART1_RX
1323:Drivers/STM32G4xx_HAL_Driver/Inc/stm32g4xx_ll_dma.h ****   *         @arg @ref LL_DMAMUX_REQ_LPUART1_TX
1324:Drivers/STM32G4xx_HAL_Driver/Inc/stm32g4xx_ll_dma.h ****   *         @arg @ref LL_DMAMUX_REQ_ADC2
1325:Drivers/STM32G4xx_HAL_Driver/Inc/stm32g4xx_ll_dma.h ****   *         @arg @ref LL_DMAMUX_REQ_ADC3 (*)
1326:Drivers/STM32G4xx_HAL_Driver/Inc/stm32g4xx_ll_dma.h ****   *         @arg @ref LL_DMAMUX_REQ_ADC4 (*)
1327:Drivers/STM32G4xx_HAL_Driver/Inc/stm32g4xx_ll_dma.h ****   *         @arg @ref LL_DMAMUX_REQ_ADC5 (*)
1328:Drivers/STM32G4xx_HAL_Driver/Inc/stm32g4xx_ll_dma.h ****   *         @arg @ref LL_DMAMUX_REQ_QSPI (*)
1329:Drivers/STM32G4xx_HAL_Driver/Inc/stm32g4xx_ll_dma.h ****   *         @arg @ref LL_DMAMUX_REQ_DAC2_CH1 (*)
1330:Drivers/STM32G4xx_HAL_Driver/Inc/stm32g4xx_ll_dma.h ****   *         @arg @ref LL_DMAMUX_REQ_TIM1_CH1
1331:Drivers/STM32G4xx_HAL_Driver/Inc/stm32g4xx_ll_dma.h ****   *         @arg @ref LL_DMAMUX_REQ_TIM1_CH2
1332:Drivers/STM32G4xx_HAL_Driver/Inc/stm32g4xx_ll_dma.h ****   *         @arg @ref LL_DMAMUX_REQ_TIM1_CH3
1333:Drivers/STM32G4xx_HAL_Driver/Inc/stm32g4xx_ll_dma.h ****   *         @arg @ref LL_DMAMUX_REQ_TIM1_CH4
1334:Drivers/STM32G4xx_HAL_Driver/Inc/stm32g4xx_ll_dma.h ****   *         @arg @ref LL_DMAMUX_REQ_TIM1_UP
1335:Drivers/STM32G4xx_HAL_Driver/Inc/stm32g4xx_ll_dma.h ****   *         @arg @ref LL_DMAMUX_REQ_TIM1_TRIG
1336:Drivers/STM32G4xx_HAL_Driver/Inc/stm32g4xx_ll_dma.h ****   *         @arg @ref LL_DMAMUX_REQ_TIM1_COM
1337:Drivers/STM32G4xx_HAL_Driver/Inc/stm32g4xx_ll_dma.h ****   *         @arg @ref LL_DMAMUX_REQ_TIM8_CH1
1338:Drivers/STM32G4xx_HAL_Driver/Inc/stm32g4xx_ll_dma.h ****   *         @arg @ref LL_DMAMUX_REQ_TIM8_CH2
1339:Drivers/STM32G4xx_HAL_Driver/Inc/stm32g4xx_ll_dma.h ****   *         @arg @ref LL_DMAMUX_REQ_TIM8_CH3
1340:Drivers/STM32G4xx_HAL_Driver/Inc/stm32g4xx_ll_dma.h ****   *         @arg @ref LL_DMAMUX_REQ_TIM8_CH4
1341:Drivers/STM32G4xx_HAL_Driver/Inc/stm32g4xx_ll_dma.h ****   *         @arg @ref LL_DMAMUX_REQ_TIM8_UP
1342:Drivers/STM32G4xx_HAL_Driver/Inc/stm32g4xx_ll_dma.h ****   *         @arg @ref LL_DMAMUX_REQ_TIM8_TRIG
1343:Drivers/STM32G4xx_HAL_Driver/Inc/stm32g4xx_ll_dma.h ****   *         @arg @ref LL_DMAMUX_REQ_TIM8_COM
1344:Drivers/STM32G4xx_HAL_Driver/Inc/stm32g4xx_ll_dma.h ****   *         @arg @ref LL_DMAMUX_REQ_TIM2_CH1
1345:Drivers/STM32G4xx_HAL_Driver/Inc/stm32g4xx_ll_dma.h ****   *         @arg @ref LL_DMAMUX_REQ_TIM2_CH2
1346:Drivers/STM32G4xx_HAL_Driver/Inc/stm32g4xx_ll_dma.h ****   *         @arg @ref LL_DMAMUX_REQ_TIM2_CH3
1347:Drivers/STM32G4xx_HAL_Driver/Inc/stm32g4xx_ll_dma.h ****   *         @arg @ref LL_DMAMUX_REQ_TIM2_CH4
1348:Drivers/STM32G4xx_HAL_Driver/Inc/stm32g4xx_ll_dma.h ****   *         @arg @ref LL_DMAMUX_REQ_TIM2_UP
1349:Drivers/STM32G4xx_HAL_Driver/Inc/stm32g4xx_ll_dma.h ****   *         @arg @ref LL_DMAMUX_REQ_TIM3_CH1
1350:Drivers/STM32G4xx_HAL_Driver/Inc/stm32g4xx_ll_dma.h ****   *         @arg @ref LL_DMAMUX_REQ_TIM3_CH2
1351:Drivers/STM32G4xx_HAL_Driver/Inc/stm32g4xx_ll_dma.h ****   *         @arg @ref LL_DMAMUX_REQ_TIM3_CH3
1352:Drivers/STM32G4xx_HAL_Driver/Inc/stm32g4xx_ll_dma.h ****   *         @arg @ref LL_DMAMUX_REQ_TIM3_CH4
1353:Drivers/STM32G4xx_HAL_Driver/Inc/stm32g4xx_ll_dma.h ****   *         @arg @ref LL_DMAMUX_REQ_TIM3_UP
1354:Drivers/STM32G4xx_HAL_Driver/Inc/stm32g4xx_ll_dma.h ****   *         @arg @ref LL_DMAMUX_REQ_TIM3_TRIG
1355:Drivers/STM32G4xx_HAL_Driver/Inc/stm32g4xx_ll_dma.h ****   *         @arg @ref LL_DMAMUX_REQ_TIM4_CH1
1356:Drivers/STM32G4xx_HAL_Driver/Inc/stm32g4xx_ll_dma.h ****   *         @arg @ref LL_DMAMUX_REQ_TIM4_CH2
1357:Drivers/STM32G4xx_HAL_Driver/Inc/stm32g4xx_ll_dma.h ****   *         @arg @ref LL_DMAMUX_REQ_TIM4_CH3
1358:Drivers/STM32G4xx_HAL_Driver/Inc/stm32g4xx_ll_dma.h ****   *         @arg @ref LL_DMAMUX_REQ_TIM4_CH4
1359:Drivers/STM32G4xx_HAL_Driver/Inc/stm32g4xx_ll_dma.h ****   *         @arg @ref LL_DMAMUX_REQ_TIM4_UP
1360:Drivers/STM32G4xx_HAL_Driver/Inc/stm32g4xx_ll_dma.h ****   *         @arg @ref LL_DMAMUX_REQ_TIM5_CH1 (*)
1361:Drivers/STM32G4xx_HAL_Driver/Inc/stm32g4xx_ll_dma.h ****   *         @arg @ref LL_DMAMUX_REQ_TIM5_CH2 (*)
1362:Drivers/STM32G4xx_HAL_Driver/Inc/stm32g4xx_ll_dma.h ****   *         @arg @ref LL_DMAMUX_REQ_TIM5_CH3 (*)
1363:Drivers/STM32G4xx_HAL_Driver/Inc/stm32g4xx_ll_dma.h ****   *         @arg @ref LL_DMAMUX_REQ_TIM5_CH4 (*)
1364:Drivers/STM32G4xx_HAL_Driver/Inc/stm32g4xx_ll_dma.h ****   *         @arg @ref LL_DMAMUX_REQ_TIM5_UP (*)
ARM GAS  /tmp/cc2tlrck.s 			page 31


1365:Drivers/STM32G4xx_HAL_Driver/Inc/stm32g4xx_ll_dma.h ****   *         @arg @ref LL_DMAMUX_REQ_TIM5_TRIG (*)
1366:Drivers/STM32G4xx_HAL_Driver/Inc/stm32g4xx_ll_dma.h ****   *         @arg @ref LL_DMAMUX_REQ_TIM15_CH1
1367:Drivers/STM32G4xx_HAL_Driver/Inc/stm32g4xx_ll_dma.h ****   *         @arg @ref LL_DMAMUX_REQ_TIM15_UP
1368:Drivers/STM32G4xx_HAL_Driver/Inc/stm32g4xx_ll_dma.h ****   *         @arg @ref LL_DMAMUX_REQ_TIM15_TRIG
1369:Drivers/STM32G4xx_HAL_Driver/Inc/stm32g4xx_ll_dma.h ****   *         @arg @ref LL_DMAMUX_REQ_TIM15_COM
1370:Drivers/STM32G4xx_HAL_Driver/Inc/stm32g4xx_ll_dma.h ****   *         @arg @ref LL_DMAMUX_REQ_TIM16_CH1
1371:Drivers/STM32G4xx_HAL_Driver/Inc/stm32g4xx_ll_dma.h ****   *         @arg @ref LL_DMAMUX_REQ_TIM16_UP
1372:Drivers/STM32G4xx_HAL_Driver/Inc/stm32g4xx_ll_dma.h ****   *         @arg @ref LL_DMAMUX_REQ_TIM17_CH1
1373:Drivers/STM32G4xx_HAL_Driver/Inc/stm32g4xx_ll_dma.h ****   *         @arg @ref LL_DMAMUX_REQ_TIM17_UP
1374:Drivers/STM32G4xx_HAL_Driver/Inc/stm32g4xx_ll_dma.h ****   *         @arg @ref LL_DMAMUX_REQ_TIM20_CH1 (*)
1375:Drivers/STM32G4xx_HAL_Driver/Inc/stm32g4xx_ll_dma.h ****   *         @arg @ref LL_DMAMUX_REQ_TIM20_CH2 (*)
1376:Drivers/STM32G4xx_HAL_Driver/Inc/stm32g4xx_ll_dma.h ****   *         @arg @ref LL_DMAMUX_REQ_TIM20_CH3 (*)
1377:Drivers/STM32G4xx_HAL_Driver/Inc/stm32g4xx_ll_dma.h ****   *         @arg @ref LL_DMAMUX_REQ_TIM20_CH4 (*)
1378:Drivers/STM32G4xx_HAL_Driver/Inc/stm32g4xx_ll_dma.h ****   *         @arg @ref LL_DMAMUX_REQ_TIM20_UP (*)
1379:Drivers/STM32G4xx_HAL_Driver/Inc/stm32g4xx_ll_dma.h ****   *         @arg @ref LL_DMAMUX_REQ_AES_IN
1380:Drivers/STM32G4xx_HAL_Driver/Inc/stm32g4xx_ll_dma.h ****   *         @arg @ref LL_DMAMUX_REQ_AES_OUT
1381:Drivers/STM32G4xx_HAL_Driver/Inc/stm32g4xx_ll_dma.h ****   *         @arg @ref LL_DMAMUX_REQ_TIM20_TRIG (*)
1382:Drivers/STM32G4xx_HAL_Driver/Inc/stm32g4xx_ll_dma.h ****   *         @arg @ref LL_DMAMUX_REQ_TIM20_COM (*)
1383:Drivers/STM32G4xx_HAL_Driver/Inc/stm32g4xx_ll_dma.h ****   *         @arg @ref LL_DMAMUX_REQ_HRTIM1_M (*)
1384:Drivers/STM32G4xx_HAL_Driver/Inc/stm32g4xx_ll_dma.h ****   *         @arg @ref LL_DMAMUX_REQ_HRTIM1_A (*)
1385:Drivers/STM32G4xx_HAL_Driver/Inc/stm32g4xx_ll_dma.h ****   *         @arg @ref LL_DMAMUX_REQ_HRTIM1_B (*)
1386:Drivers/STM32G4xx_HAL_Driver/Inc/stm32g4xx_ll_dma.h ****   *         @arg @ref LL_DMAMUX_REQ_HRTIM1_C (*)
1387:Drivers/STM32G4xx_HAL_Driver/Inc/stm32g4xx_ll_dma.h ****   *         @arg @ref LL_DMAMUX_REQ_HRTIM1_D (*)
1388:Drivers/STM32G4xx_HAL_Driver/Inc/stm32g4xx_ll_dma.h ****   *         @arg @ref LL_DMAMUX_REQ_HRTIM1_E (*)
1389:Drivers/STM32G4xx_HAL_Driver/Inc/stm32g4xx_ll_dma.h ****   *         @arg @ref LL_DMAMUX_REQ_HRTIM1_F (*)
1390:Drivers/STM32G4xx_HAL_Driver/Inc/stm32g4xx_ll_dma.h ****   *         @arg @ref LL_DMAMUX_REQ_DAC3_CH1
1391:Drivers/STM32G4xx_HAL_Driver/Inc/stm32g4xx_ll_dma.h ****   *         @arg @ref LL_DMAMUX_REQ_DAC3_CH2
1392:Drivers/STM32G4xx_HAL_Driver/Inc/stm32g4xx_ll_dma.h ****   *         @arg @ref LL_DMAMUX_REQ_DAC4_CH1 (*)
1393:Drivers/STM32G4xx_HAL_Driver/Inc/stm32g4xx_ll_dma.h ****   *         @arg @ref LL_DMAMUX_REQ_DAC4_CH2 (*)
1394:Drivers/STM32G4xx_HAL_Driver/Inc/stm32g4xx_ll_dma.h ****   *         @arg @ref LL_DMAMUX_REQ_SPI4_RX (*)
1395:Drivers/STM32G4xx_HAL_Driver/Inc/stm32g4xx_ll_dma.h ****   *         @arg @ref LL_DMAMUX_REQ_SPI4_TX (*)
1396:Drivers/STM32G4xx_HAL_Driver/Inc/stm32g4xx_ll_dma.h ****   *         @arg @ref LL_DMAMUX_REQ_SAI1_A
1397:Drivers/STM32G4xx_HAL_Driver/Inc/stm32g4xx_ll_dma.h ****   *         @arg @ref LL_DMAMUX_REQ_SAI1_B
1398:Drivers/STM32G4xx_HAL_Driver/Inc/stm32g4xx_ll_dma.h ****   *         @arg @ref LL_DMAMUX_REQ_FMAC_WRITE
1399:Drivers/STM32G4xx_HAL_Driver/Inc/stm32g4xx_ll_dma.h ****   *         @arg @ref LL_DMAMUX_REQ_FMAC_READ
1400:Drivers/STM32G4xx_HAL_Driver/Inc/stm32g4xx_ll_dma.h ****   *         @arg @ref LL_DMAMUX_REQ_CORDIC_WRITE
1401:Drivers/STM32G4xx_HAL_Driver/Inc/stm32g4xx_ll_dma.h ****   *         @arg @ref LL_DMAMUX_REQ_CORDIC_READ
1402:Drivers/STM32G4xx_HAL_Driver/Inc/stm32g4xx_ll_dma.h ****   *         @arg @ref LL_DMAMUX_REQ_UCPD1_RX
1403:Drivers/STM32G4xx_HAL_Driver/Inc/stm32g4xx_ll_dma.h ****   *         @arg @ref LL_DMAMUX_REQ_UCPD1_TX
1404:Drivers/STM32G4xx_HAL_Driver/Inc/stm32g4xx_ll_dma.h ****   *         (*) Not on all G4 devices
1405:Drivers/STM32G4xx_HAL_Driver/Inc/stm32g4xx_ll_dma.h ****   * @retval None
1406:Drivers/STM32G4xx_HAL_Driver/Inc/stm32g4xx_ll_dma.h ****   */
1407:Drivers/STM32G4xx_HAL_Driver/Inc/stm32g4xx_ll_dma.h **** __STATIC_INLINE void LL_DMA_SetPeriphRequest(DMA_TypeDef *DMAx, uint32_t Channel, uint32_t PeriphRe
1408:Drivers/STM32G4xx_HAL_Driver/Inc/stm32g4xx_ll_dma.h **** {
1409:Drivers/STM32G4xx_HAL_Driver/Inc/stm32g4xx_ll_dma.h ****   uint32_t dmamux_ccr_offset = ((((uint32_t)DMAx ^ (uint32_t)DMA1) >> 10U) * 8U);
1410:Drivers/STM32G4xx_HAL_Driver/Inc/stm32g4xx_ll_dma.h ****   MODIFY_REG((DMAMUX1_Channel0 + Channel + dmamux_ccr_offset)->CCR, DMAMUX_CxCR_DMAREQ_ID, PeriphRe
1411:Drivers/STM32G4xx_HAL_Driver/Inc/stm32g4xx_ll_dma.h **** }
1412:Drivers/STM32G4xx_HAL_Driver/Inc/stm32g4xx_ll_dma.h **** 
1413:Drivers/STM32G4xx_HAL_Driver/Inc/stm32g4xx_ll_dma.h **** /**
1414:Drivers/STM32G4xx_HAL_Driver/Inc/stm32g4xx_ll_dma.h ****   * @brief  Get DMA request for DMA instance on Channel x.
1415:Drivers/STM32G4xx_HAL_Driver/Inc/stm32g4xx_ll_dma.h ****   * @rmtoll CSELR        C1S           LL_DMA_GetPeriphRequest\n
1416:Drivers/STM32G4xx_HAL_Driver/Inc/stm32g4xx_ll_dma.h ****   *         CSELR        C2S           LL_DMA_GetPeriphRequest\n
1417:Drivers/STM32G4xx_HAL_Driver/Inc/stm32g4xx_ll_dma.h ****   *         CSELR        C3S           LL_DMA_GetPeriphRequest\n
1418:Drivers/STM32G4xx_HAL_Driver/Inc/stm32g4xx_ll_dma.h ****   *         CSELR        C4S           LL_DMA_GetPeriphRequest\n
1419:Drivers/STM32G4xx_HAL_Driver/Inc/stm32g4xx_ll_dma.h ****   *         CSELR        C5S           LL_DMA_GetPeriphRequest\n
1420:Drivers/STM32G4xx_HAL_Driver/Inc/stm32g4xx_ll_dma.h ****   *         CSELR        C6S           LL_DMA_GetPeriphRequest\n
1421:Drivers/STM32G4xx_HAL_Driver/Inc/stm32g4xx_ll_dma.h ****   *         CSELR        C7S           LL_DMA_GetPeriphRequest
ARM GAS  /tmp/cc2tlrck.s 			page 32


1422:Drivers/STM32G4xx_HAL_Driver/Inc/stm32g4xx_ll_dma.h ****   * @param  DMAx DMAx Instance
1423:Drivers/STM32G4xx_HAL_Driver/Inc/stm32g4xx_ll_dma.h ****   * @param  Channel This parameter can be one of the following values:
1424:Drivers/STM32G4xx_HAL_Driver/Inc/stm32g4xx_ll_dma.h ****   *         @arg @ref LL_DMA_CHANNEL_1
1425:Drivers/STM32G4xx_HAL_Driver/Inc/stm32g4xx_ll_dma.h ****   *         @arg @ref LL_DMA_CHANNEL_2
1426:Drivers/STM32G4xx_HAL_Driver/Inc/stm32g4xx_ll_dma.h ****   *         @arg @ref LL_DMA_CHANNEL_3
1427:Drivers/STM32G4xx_HAL_Driver/Inc/stm32g4xx_ll_dma.h ****   *         @arg @ref LL_DMA_CHANNEL_4
1428:Drivers/STM32G4xx_HAL_Driver/Inc/stm32g4xx_ll_dma.h ****   *         @arg @ref LL_DMA_CHANNEL_5
1429:Drivers/STM32G4xx_HAL_Driver/Inc/stm32g4xx_ll_dma.h ****   *         @arg @ref LL_DMA_CHANNEL_6
1430:Drivers/STM32G4xx_HAL_Driver/Inc/stm32g4xx_ll_dma.h ****   *         @arg @ref LL_DMA_CHANNEL_7 (*)
1431:Drivers/STM32G4xx_HAL_Driver/Inc/stm32g4xx_ll_dma.h ****   *         @arg @ref LL_DMA_CHANNEL_8 (*)
1432:Drivers/STM32G4xx_HAL_Driver/Inc/stm32g4xx_ll_dma.h ****   *         (*) Not on all G4 devices
1433:Drivers/STM32G4xx_HAL_Driver/Inc/stm32g4xx_ll_dma.h ****   * @retval Returned value can be one of the following values:
1434:Drivers/STM32G4xx_HAL_Driver/Inc/stm32g4xx_ll_dma.h ****   *         @arg @ref LL_DMAMUX_REQ_MEM2MEM
1435:Drivers/STM32G4xx_HAL_Driver/Inc/stm32g4xx_ll_dma.h ****   *         @arg @ref LL_DMAMUX_REQ_GENERATOR0
1436:Drivers/STM32G4xx_HAL_Driver/Inc/stm32g4xx_ll_dma.h ****   *         @arg @ref LL_DMAMUX_REQ_GENERATOR1
1437:Drivers/STM32G4xx_HAL_Driver/Inc/stm32g4xx_ll_dma.h ****   *         @arg @ref LL_DMAMUX_REQ_GENERATOR2
1438:Drivers/STM32G4xx_HAL_Driver/Inc/stm32g4xx_ll_dma.h ****   *         @arg @ref LL_DMAMUX_REQ_GENERATOR3
1439:Drivers/STM32G4xx_HAL_Driver/Inc/stm32g4xx_ll_dma.h ****   *         @arg @ref LL_DMAMUX_REQ_ADC1
1440:Drivers/STM32G4xx_HAL_Driver/Inc/stm32g4xx_ll_dma.h ****   *         @arg @ref LL_DMAMUX_REQ_DAC1_CH1
1441:Drivers/STM32G4xx_HAL_Driver/Inc/stm32g4xx_ll_dma.h ****   *         @arg @ref LL_DMAMUX_REQ_DAC1_CH2
1442:Drivers/STM32G4xx_HAL_Driver/Inc/stm32g4xx_ll_dma.h ****   *         @arg @ref LL_DMAMUX_REQ_TIM6_UP
1443:Drivers/STM32G4xx_HAL_Driver/Inc/stm32g4xx_ll_dma.h ****   *         @arg @ref LL_DMAMUX_REQ_TIM7_UP
1444:Drivers/STM32G4xx_HAL_Driver/Inc/stm32g4xx_ll_dma.h ****   *         @arg @ref LL_DMAMUX_REQ_SPI1_RX
1445:Drivers/STM32G4xx_HAL_Driver/Inc/stm32g4xx_ll_dma.h ****   *         @arg @ref LL_DMAMUX_REQ_SPI1_TX
1446:Drivers/STM32G4xx_HAL_Driver/Inc/stm32g4xx_ll_dma.h ****   *         @arg @ref LL_DMAMUX_REQ_SPI2_RX
1447:Drivers/STM32G4xx_HAL_Driver/Inc/stm32g4xx_ll_dma.h ****   *         @arg @ref LL_DMAMUX_REQ_SPI2_TX
1448:Drivers/STM32G4xx_HAL_Driver/Inc/stm32g4xx_ll_dma.h ****   *         @arg @ref LL_DMAMUX_REQ_SPI3_RX
1449:Drivers/STM32G4xx_HAL_Driver/Inc/stm32g4xx_ll_dma.h ****   *         @arg @ref LL_DMAMUX_REQ_SPI3_TX
1450:Drivers/STM32G4xx_HAL_Driver/Inc/stm32g4xx_ll_dma.h ****   *         @arg @ref LL_DMAMUX_REQ_I2C1_RX
1451:Drivers/STM32G4xx_HAL_Driver/Inc/stm32g4xx_ll_dma.h ****   *         @arg @ref LL_DMAMUX_REQ_I2C1_TX
1452:Drivers/STM32G4xx_HAL_Driver/Inc/stm32g4xx_ll_dma.h ****   *         @arg @ref LL_DMAMUX_REQ_I2C2_RX
1453:Drivers/STM32G4xx_HAL_Driver/Inc/stm32g4xx_ll_dma.h ****   *         @arg @ref LL_DMAMUX_REQ_I2C2_TX
1454:Drivers/STM32G4xx_HAL_Driver/Inc/stm32g4xx_ll_dma.h ****   *         @arg @ref LL_DMAMUX_REQ_I2C3_RX
1455:Drivers/STM32G4xx_HAL_Driver/Inc/stm32g4xx_ll_dma.h ****   *         @arg @ref LL_DMAMUX_REQ_I2C3_TX (*)
1456:Drivers/STM32G4xx_HAL_Driver/Inc/stm32g4xx_ll_dma.h ****   *         @arg @ref LL_DMAMUX_REQ_I2C4_RX (*)
1457:Drivers/STM32G4xx_HAL_Driver/Inc/stm32g4xx_ll_dma.h ****   *         @arg @ref LL_DMAMUX_REQ_I2C4_TX
1458:Drivers/STM32G4xx_HAL_Driver/Inc/stm32g4xx_ll_dma.h ****   *         @arg @ref LL_DMAMUX_REQ_USART1_RX
1459:Drivers/STM32G4xx_HAL_Driver/Inc/stm32g4xx_ll_dma.h ****   *         @arg @ref LL_DMAMUX_REQ_USART1_TX
1460:Drivers/STM32G4xx_HAL_Driver/Inc/stm32g4xx_ll_dma.h ****   *         @arg @ref LL_DMAMUX_REQ_USART2_RX
1461:Drivers/STM32G4xx_HAL_Driver/Inc/stm32g4xx_ll_dma.h ****   *         @arg @ref LL_DMAMUX_REQ_USART2_TX
1462:Drivers/STM32G4xx_HAL_Driver/Inc/stm32g4xx_ll_dma.h ****   *         @arg @ref LL_DMAMUX_REQ_USART3_RX
1463:Drivers/STM32G4xx_HAL_Driver/Inc/stm32g4xx_ll_dma.h ****   *         @arg @ref LL_DMAMUX_REQ_USART3_TX
1464:Drivers/STM32G4xx_HAL_Driver/Inc/stm32g4xx_ll_dma.h ****   *         @arg @ref LL_DMAMUX_REQ_UART4_RX
1465:Drivers/STM32G4xx_HAL_Driver/Inc/stm32g4xx_ll_dma.h ****   *         @arg @ref LL_DMAMUX_REQ_UART4_TX
1466:Drivers/STM32G4xx_HAL_Driver/Inc/stm32g4xx_ll_dma.h ****   *         @arg @ref LL_DMAMUX_REQ_UART5_RX (*)
1467:Drivers/STM32G4xx_HAL_Driver/Inc/stm32g4xx_ll_dma.h ****   *         @arg @ref LL_DMAMUX_REQ_UART5_TX (*)
1468:Drivers/STM32G4xx_HAL_Driver/Inc/stm32g4xx_ll_dma.h ****   *         @arg @ref LL_DMAMUX_REQ_LPUART1_RX
1469:Drivers/STM32G4xx_HAL_Driver/Inc/stm32g4xx_ll_dma.h ****   *         @arg @ref LL_DMAMUX_REQ_LPUART1_TX
1470:Drivers/STM32G4xx_HAL_Driver/Inc/stm32g4xx_ll_dma.h ****   *         @arg @ref LL_DMAMUX_REQ_ADC2
1471:Drivers/STM32G4xx_HAL_Driver/Inc/stm32g4xx_ll_dma.h ****   *         @arg @ref LL_DMAMUX_REQ_ADC3 (*)
1472:Drivers/STM32G4xx_HAL_Driver/Inc/stm32g4xx_ll_dma.h ****   *         @arg @ref LL_DMAMUX_REQ_ADC4 (*)
1473:Drivers/STM32G4xx_HAL_Driver/Inc/stm32g4xx_ll_dma.h ****   *         @arg @ref LL_DMAMUX_REQ_ADC5 (*)
1474:Drivers/STM32G4xx_HAL_Driver/Inc/stm32g4xx_ll_dma.h ****   *         @arg @ref LL_DMAMUX_REQ_QSPI (*)
1475:Drivers/STM32G4xx_HAL_Driver/Inc/stm32g4xx_ll_dma.h ****   *         @arg @ref LL_DMAMUX_REQ_DAC2_CH1 (*)
1476:Drivers/STM32G4xx_HAL_Driver/Inc/stm32g4xx_ll_dma.h ****   *         @arg @ref LL_DMAMUX_REQ_TIM1_CH1
1477:Drivers/STM32G4xx_HAL_Driver/Inc/stm32g4xx_ll_dma.h ****   *         @arg @ref LL_DMAMUX_REQ_TIM1_CH2
1478:Drivers/STM32G4xx_HAL_Driver/Inc/stm32g4xx_ll_dma.h ****   *         @arg @ref LL_DMAMUX_REQ_TIM1_CH3
ARM GAS  /tmp/cc2tlrck.s 			page 33


1479:Drivers/STM32G4xx_HAL_Driver/Inc/stm32g4xx_ll_dma.h ****   *         @arg @ref LL_DMAMUX_REQ_TIM1_CH4
1480:Drivers/STM32G4xx_HAL_Driver/Inc/stm32g4xx_ll_dma.h ****   *         @arg @ref LL_DMAMUX_REQ_TIM1_UP
1481:Drivers/STM32G4xx_HAL_Driver/Inc/stm32g4xx_ll_dma.h ****   *         @arg @ref LL_DMAMUX_REQ_TIM1_TRIG
1482:Drivers/STM32G4xx_HAL_Driver/Inc/stm32g4xx_ll_dma.h ****   *         @arg @ref LL_DMAMUX_REQ_TIM1_COM
1483:Drivers/STM32G4xx_HAL_Driver/Inc/stm32g4xx_ll_dma.h ****   *         @arg @ref LL_DMAMUX_REQ_TIM8_CH1
1484:Drivers/STM32G4xx_HAL_Driver/Inc/stm32g4xx_ll_dma.h ****   *         @arg @ref LL_DMAMUX_REQ_TIM8_CH2
1485:Drivers/STM32G4xx_HAL_Driver/Inc/stm32g4xx_ll_dma.h ****   *         @arg @ref LL_DMAMUX_REQ_TIM8_CH3
1486:Drivers/STM32G4xx_HAL_Driver/Inc/stm32g4xx_ll_dma.h ****   *         @arg @ref LL_DMAMUX_REQ_TIM8_CH4
1487:Drivers/STM32G4xx_HAL_Driver/Inc/stm32g4xx_ll_dma.h ****   *         @arg @ref LL_DMAMUX_REQ_TIM8_UP
1488:Drivers/STM32G4xx_HAL_Driver/Inc/stm32g4xx_ll_dma.h ****   *         @arg @ref LL_DMAMUX_REQ_TIM8_TRIG
1489:Drivers/STM32G4xx_HAL_Driver/Inc/stm32g4xx_ll_dma.h ****   *         @arg @ref LL_DMAMUX_REQ_TIM8_COM
1490:Drivers/STM32G4xx_HAL_Driver/Inc/stm32g4xx_ll_dma.h ****   *         @arg @ref LL_DMAMUX_REQ_TIM2_CH1
1491:Drivers/STM32G4xx_HAL_Driver/Inc/stm32g4xx_ll_dma.h ****   *         @arg @ref LL_DMAMUX_REQ_TIM2_CH2
1492:Drivers/STM32G4xx_HAL_Driver/Inc/stm32g4xx_ll_dma.h ****   *         @arg @ref LL_DMAMUX_REQ_TIM2_CH3
1493:Drivers/STM32G4xx_HAL_Driver/Inc/stm32g4xx_ll_dma.h ****   *         @arg @ref LL_DMAMUX_REQ_TIM2_CH4
1494:Drivers/STM32G4xx_HAL_Driver/Inc/stm32g4xx_ll_dma.h ****   *         @arg @ref LL_DMAMUX_REQ_TIM2_UP
1495:Drivers/STM32G4xx_HAL_Driver/Inc/stm32g4xx_ll_dma.h ****   *         @arg @ref LL_DMAMUX_REQ_TIM3_CH1
1496:Drivers/STM32G4xx_HAL_Driver/Inc/stm32g4xx_ll_dma.h ****   *         @arg @ref LL_DMAMUX_REQ_TIM3_CH2
1497:Drivers/STM32G4xx_HAL_Driver/Inc/stm32g4xx_ll_dma.h ****   *         @arg @ref LL_DMAMUX_REQ_TIM3_CH3
1498:Drivers/STM32G4xx_HAL_Driver/Inc/stm32g4xx_ll_dma.h ****   *         @arg @ref LL_DMAMUX_REQ_TIM3_CH4
1499:Drivers/STM32G4xx_HAL_Driver/Inc/stm32g4xx_ll_dma.h ****   *         @arg @ref LL_DMAMUX_REQ_TIM3_UP
1500:Drivers/STM32G4xx_HAL_Driver/Inc/stm32g4xx_ll_dma.h ****   *         @arg @ref LL_DMAMUX_REQ_TIM3_TRIG
1501:Drivers/STM32G4xx_HAL_Driver/Inc/stm32g4xx_ll_dma.h ****   *         @arg @ref LL_DMAMUX_REQ_TIM4_CH1
1502:Drivers/STM32G4xx_HAL_Driver/Inc/stm32g4xx_ll_dma.h ****   *         @arg @ref LL_DMAMUX_REQ_TIM4_CH2
1503:Drivers/STM32G4xx_HAL_Driver/Inc/stm32g4xx_ll_dma.h ****   *         @arg @ref LL_DMAMUX_REQ_TIM4_CH3
1504:Drivers/STM32G4xx_HAL_Driver/Inc/stm32g4xx_ll_dma.h ****   *         @arg @ref LL_DMAMUX_REQ_TIM4_CH4
1505:Drivers/STM32G4xx_HAL_Driver/Inc/stm32g4xx_ll_dma.h ****   *         @arg @ref LL_DMAMUX_REQ_TIM4_UP
1506:Drivers/STM32G4xx_HAL_Driver/Inc/stm32g4xx_ll_dma.h ****   *         @arg @ref LL_DMAMUX_REQ_TIM5_CH1 (*)
1507:Drivers/STM32G4xx_HAL_Driver/Inc/stm32g4xx_ll_dma.h ****   *         @arg @ref LL_DMAMUX_REQ_TIM5_CH2 (*)
1508:Drivers/STM32G4xx_HAL_Driver/Inc/stm32g4xx_ll_dma.h ****   *         @arg @ref LL_DMAMUX_REQ_TIM5_CH3 (*)
1509:Drivers/STM32G4xx_HAL_Driver/Inc/stm32g4xx_ll_dma.h ****   *         @arg @ref LL_DMAMUX_REQ_TIM5_CH4 (*)
1510:Drivers/STM32G4xx_HAL_Driver/Inc/stm32g4xx_ll_dma.h ****   *         @arg @ref LL_DMAMUX_REQ_TIM5_UP (*)
1511:Drivers/STM32G4xx_HAL_Driver/Inc/stm32g4xx_ll_dma.h ****   *         @arg @ref LL_DMAMUX_REQ_TIM5_TRIG (*)
1512:Drivers/STM32G4xx_HAL_Driver/Inc/stm32g4xx_ll_dma.h ****   *         @arg @ref LL_DMAMUX_REQ_TIM15_CH1
1513:Drivers/STM32G4xx_HAL_Driver/Inc/stm32g4xx_ll_dma.h ****   *         @arg @ref LL_DMAMUX_REQ_TIM15_UP
1514:Drivers/STM32G4xx_HAL_Driver/Inc/stm32g4xx_ll_dma.h ****   *         @arg @ref LL_DMAMUX_REQ_TIM15_TRIG
1515:Drivers/STM32G4xx_HAL_Driver/Inc/stm32g4xx_ll_dma.h ****   *         @arg @ref LL_DMAMUX_REQ_TIM15_COM
1516:Drivers/STM32G4xx_HAL_Driver/Inc/stm32g4xx_ll_dma.h ****   *         @arg @ref LL_DMAMUX_REQ_TIM16_CH1
1517:Drivers/STM32G4xx_HAL_Driver/Inc/stm32g4xx_ll_dma.h ****   *         @arg @ref LL_DMAMUX_REQ_TIM16_UP
1518:Drivers/STM32G4xx_HAL_Driver/Inc/stm32g4xx_ll_dma.h ****   *         @arg @ref LL_DMAMUX_REQ_TIM17_CH1
1519:Drivers/STM32G4xx_HAL_Driver/Inc/stm32g4xx_ll_dma.h ****   *         @arg @ref LL_DMAMUX_REQ_TIM17_UP
1520:Drivers/STM32G4xx_HAL_Driver/Inc/stm32g4xx_ll_dma.h ****   *         @arg @ref LL_DMAMUX_REQ_TIM20_CH1 (*)
1521:Drivers/STM32G4xx_HAL_Driver/Inc/stm32g4xx_ll_dma.h ****   *         @arg @ref LL_DMAMUX_REQ_TIM20_CH2 (*)
1522:Drivers/STM32G4xx_HAL_Driver/Inc/stm32g4xx_ll_dma.h ****   *         @arg @ref LL_DMAMUX_REQ_TIM20_CH3 (*)
1523:Drivers/STM32G4xx_HAL_Driver/Inc/stm32g4xx_ll_dma.h ****   *         @arg @ref LL_DMAMUX_REQ_TIM20_CH4 (*)
1524:Drivers/STM32G4xx_HAL_Driver/Inc/stm32g4xx_ll_dma.h ****   *         @arg @ref LL_DMAMUX_REQ_TIM20_UP (*)
1525:Drivers/STM32G4xx_HAL_Driver/Inc/stm32g4xx_ll_dma.h ****   *         @arg @ref LL_DMAMUX_REQ_AES_IN
1526:Drivers/STM32G4xx_HAL_Driver/Inc/stm32g4xx_ll_dma.h ****   *         @arg @ref LL_DMAMUX_REQ_AES_OUT
1527:Drivers/STM32G4xx_HAL_Driver/Inc/stm32g4xx_ll_dma.h ****   *         @arg @ref LL_DMAMUX_REQ_TIM20_TRIG (*)
1528:Drivers/STM32G4xx_HAL_Driver/Inc/stm32g4xx_ll_dma.h ****   *         @arg @ref LL_DMAMUX_REQ_TIM20_COM (*)
1529:Drivers/STM32G4xx_HAL_Driver/Inc/stm32g4xx_ll_dma.h ****   *         @arg @ref LL_DMAMUX_REQ_HRTIM1_M (*)
1530:Drivers/STM32G4xx_HAL_Driver/Inc/stm32g4xx_ll_dma.h ****   *         @arg @ref LL_DMAMUX_REQ_HRTIM1_A (*)
1531:Drivers/STM32G4xx_HAL_Driver/Inc/stm32g4xx_ll_dma.h ****   *         @arg @ref LL_DMAMUX_REQ_HRTIM1_B (*)
1532:Drivers/STM32G4xx_HAL_Driver/Inc/stm32g4xx_ll_dma.h ****   *         @arg @ref LL_DMAMUX_REQ_HRTIM1_C (*)
1533:Drivers/STM32G4xx_HAL_Driver/Inc/stm32g4xx_ll_dma.h ****   *         @arg @ref LL_DMAMUX_REQ_HRTIM1_D (*)
1534:Drivers/STM32G4xx_HAL_Driver/Inc/stm32g4xx_ll_dma.h ****   *         @arg @ref LL_DMAMUX_REQ_HRTIM1_E (*)
1535:Drivers/STM32G4xx_HAL_Driver/Inc/stm32g4xx_ll_dma.h ****   *         @arg @ref LL_DMAMUX_REQ_HRTIM1_F (*)
ARM GAS  /tmp/cc2tlrck.s 			page 34


1536:Drivers/STM32G4xx_HAL_Driver/Inc/stm32g4xx_ll_dma.h ****   *         @arg @ref LL_DMAMUX_REQ_DAC3_CH1
1537:Drivers/STM32G4xx_HAL_Driver/Inc/stm32g4xx_ll_dma.h ****   *         @arg @ref LL_DMAMUX_REQ_DAC3_CH2
1538:Drivers/STM32G4xx_HAL_Driver/Inc/stm32g4xx_ll_dma.h ****   *         @arg @ref LL_DMAMUX_REQ_DAC4_CH1 (*)
1539:Drivers/STM32G4xx_HAL_Driver/Inc/stm32g4xx_ll_dma.h ****   *         @arg @ref LL_DMAMUX_REQ_DAC4_CH2 (*)
1540:Drivers/STM32G4xx_HAL_Driver/Inc/stm32g4xx_ll_dma.h ****   *         @arg @ref LL_DMAMUX_REQ_SPI4_RX (*)
1541:Drivers/STM32G4xx_HAL_Driver/Inc/stm32g4xx_ll_dma.h ****   *         @arg @ref LL_DMAMUX_REQ_SPI4_TX (*)
1542:Drivers/STM32G4xx_HAL_Driver/Inc/stm32g4xx_ll_dma.h ****   *         @arg @ref LL_DMAMUX_REQ_SAI1_A
1543:Drivers/STM32G4xx_HAL_Driver/Inc/stm32g4xx_ll_dma.h ****   *         @arg @ref LL_DMAMUX_REQ_SAI1_B
1544:Drivers/STM32G4xx_HAL_Driver/Inc/stm32g4xx_ll_dma.h ****   *         @arg @ref LL_DMAMUX_REQ_FMAC_WRITE
1545:Drivers/STM32G4xx_HAL_Driver/Inc/stm32g4xx_ll_dma.h ****   *         @arg @ref LL_DMAMUX_REQ_FMAC_READ
1546:Drivers/STM32G4xx_HAL_Driver/Inc/stm32g4xx_ll_dma.h ****   *         @arg @ref LL_DMAMUX_REQ_CORDIC_WRITE
1547:Drivers/STM32G4xx_HAL_Driver/Inc/stm32g4xx_ll_dma.h ****   *         @arg @ref LL_DMAMUX_REQ_CORDIC_READ
1548:Drivers/STM32G4xx_HAL_Driver/Inc/stm32g4xx_ll_dma.h ****   *         @arg @ref LL_DMAMUX_REQ_UCPD1_RX
1549:Drivers/STM32G4xx_HAL_Driver/Inc/stm32g4xx_ll_dma.h ****   *         @arg @ref LL_DMAMUX_REQ_UCPD1_TX
1550:Drivers/STM32G4xx_HAL_Driver/Inc/stm32g4xx_ll_dma.h ****   *         (*) Not on all G4 devices
1551:Drivers/STM32G4xx_HAL_Driver/Inc/stm32g4xx_ll_dma.h ****   */
1552:Drivers/STM32G4xx_HAL_Driver/Inc/stm32g4xx_ll_dma.h **** __STATIC_INLINE uint32_t LL_DMA_GetPeriphRequest(DMA_TypeDef *DMAx, uint32_t Channel)
1553:Drivers/STM32G4xx_HAL_Driver/Inc/stm32g4xx_ll_dma.h **** {
1554:Drivers/STM32G4xx_HAL_Driver/Inc/stm32g4xx_ll_dma.h ****   uint32_t dmamux_ccr_offset = ((((uint32_t)DMAx ^ (uint32_t)DMA1) >> 10U) * 8U);
1555:Drivers/STM32G4xx_HAL_Driver/Inc/stm32g4xx_ll_dma.h ****   return (READ_BIT((DMAMUX1_Channel0 + Channel + dmamux_ccr_offset)->CCR, DMAMUX_CxCR_DMAREQ_ID));
1556:Drivers/STM32G4xx_HAL_Driver/Inc/stm32g4xx_ll_dma.h **** }
1557:Drivers/STM32G4xx_HAL_Driver/Inc/stm32g4xx_ll_dma.h **** 
1558:Drivers/STM32G4xx_HAL_Driver/Inc/stm32g4xx_ll_dma.h **** /**
1559:Drivers/STM32G4xx_HAL_Driver/Inc/stm32g4xx_ll_dma.h ****   * @}
1560:Drivers/STM32G4xx_HAL_Driver/Inc/stm32g4xx_ll_dma.h ****   */
1561:Drivers/STM32G4xx_HAL_Driver/Inc/stm32g4xx_ll_dma.h **** 
1562:Drivers/STM32G4xx_HAL_Driver/Inc/stm32g4xx_ll_dma.h **** /** @defgroup DMA_LL_EF_FLAG_Management FLAG_Management
1563:Drivers/STM32G4xx_HAL_Driver/Inc/stm32g4xx_ll_dma.h ****   * @{
1564:Drivers/STM32G4xx_HAL_Driver/Inc/stm32g4xx_ll_dma.h ****   */
1565:Drivers/STM32G4xx_HAL_Driver/Inc/stm32g4xx_ll_dma.h **** 
1566:Drivers/STM32G4xx_HAL_Driver/Inc/stm32g4xx_ll_dma.h **** /**
1567:Drivers/STM32G4xx_HAL_Driver/Inc/stm32g4xx_ll_dma.h ****   * @brief  Get Channel 1 global interrupt flag.
1568:Drivers/STM32G4xx_HAL_Driver/Inc/stm32g4xx_ll_dma.h ****   * @rmtoll ISR          GIF1          LL_DMA_IsActiveFlag_GI1
1569:Drivers/STM32G4xx_HAL_Driver/Inc/stm32g4xx_ll_dma.h ****   * @param  DMAx DMAx Instance
1570:Drivers/STM32G4xx_HAL_Driver/Inc/stm32g4xx_ll_dma.h ****   * @retval State of bit (1 or 0).
1571:Drivers/STM32G4xx_HAL_Driver/Inc/stm32g4xx_ll_dma.h ****   */
1572:Drivers/STM32G4xx_HAL_Driver/Inc/stm32g4xx_ll_dma.h **** __STATIC_INLINE uint32_t LL_DMA_IsActiveFlag_GI1(DMA_TypeDef *DMAx)
1573:Drivers/STM32G4xx_HAL_Driver/Inc/stm32g4xx_ll_dma.h **** {
1574:Drivers/STM32G4xx_HAL_Driver/Inc/stm32g4xx_ll_dma.h ****   return ((READ_BIT(DMAx->ISR, DMA_ISR_GIF1) == (DMA_ISR_GIF1)) ? 1UL : 0UL);
1575:Drivers/STM32G4xx_HAL_Driver/Inc/stm32g4xx_ll_dma.h **** }
1576:Drivers/STM32G4xx_HAL_Driver/Inc/stm32g4xx_ll_dma.h **** 
1577:Drivers/STM32G4xx_HAL_Driver/Inc/stm32g4xx_ll_dma.h **** /**
1578:Drivers/STM32G4xx_HAL_Driver/Inc/stm32g4xx_ll_dma.h ****   * @brief  Get Channel 2 global interrupt flag.
1579:Drivers/STM32G4xx_HAL_Driver/Inc/stm32g4xx_ll_dma.h ****   * @rmtoll ISR          GIF2          LL_DMA_IsActiveFlag_GI2
1580:Drivers/STM32G4xx_HAL_Driver/Inc/stm32g4xx_ll_dma.h ****   * @param  DMAx DMAx Instance
1581:Drivers/STM32G4xx_HAL_Driver/Inc/stm32g4xx_ll_dma.h ****   * @retval State of bit (1 or 0).
1582:Drivers/STM32G4xx_HAL_Driver/Inc/stm32g4xx_ll_dma.h ****   */
1583:Drivers/STM32G4xx_HAL_Driver/Inc/stm32g4xx_ll_dma.h **** __STATIC_INLINE uint32_t LL_DMA_IsActiveFlag_GI2(DMA_TypeDef *DMAx)
1584:Drivers/STM32G4xx_HAL_Driver/Inc/stm32g4xx_ll_dma.h **** {
1585:Drivers/STM32G4xx_HAL_Driver/Inc/stm32g4xx_ll_dma.h ****   return ((READ_BIT(DMAx->ISR, DMA_ISR_GIF2) == (DMA_ISR_GIF2)) ? 1UL : 0UL);
1586:Drivers/STM32G4xx_HAL_Driver/Inc/stm32g4xx_ll_dma.h **** }
1587:Drivers/STM32G4xx_HAL_Driver/Inc/stm32g4xx_ll_dma.h **** 
1588:Drivers/STM32G4xx_HAL_Driver/Inc/stm32g4xx_ll_dma.h **** /**
1589:Drivers/STM32G4xx_HAL_Driver/Inc/stm32g4xx_ll_dma.h ****   * @brief  Get Channel 3 global interrupt flag.
1590:Drivers/STM32G4xx_HAL_Driver/Inc/stm32g4xx_ll_dma.h ****   * @rmtoll ISR          GIF3          LL_DMA_IsActiveFlag_GI3
1591:Drivers/STM32G4xx_HAL_Driver/Inc/stm32g4xx_ll_dma.h ****   * @param  DMAx DMAx Instance
1592:Drivers/STM32G4xx_HAL_Driver/Inc/stm32g4xx_ll_dma.h ****   * @retval State of bit (1 or 0).
ARM GAS  /tmp/cc2tlrck.s 			page 35


1593:Drivers/STM32G4xx_HAL_Driver/Inc/stm32g4xx_ll_dma.h ****   */
1594:Drivers/STM32G4xx_HAL_Driver/Inc/stm32g4xx_ll_dma.h **** __STATIC_INLINE uint32_t LL_DMA_IsActiveFlag_GI3(DMA_TypeDef *DMAx)
1595:Drivers/STM32G4xx_HAL_Driver/Inc/stm32g4xx_ll_dma.h **** {
1596:Drivers/STM32G4xx_HAL_Driver/Inc/stm32g4xx_ll_dma.h ****   return ((READ_BIT(DMAx->ISR, DMA_ISR_GIF3) == (DMA_ISR_GIF3)) ? 1UL : 0UL);
1597:Drivers/STM32G4xx_HAL_Driver/Inc/stm32g4xx_ll_dma.h **** }
1598:Drivers/STM32G4xx_HAL_Driver/Inc/stm32g4xx_ll_dma.h **** 
1599:Drivers/STM32G4xx_HAL_Driver/Inc/stm32g4xx_ll_dma.h **** /**
1600:Drivers/STM32G4xx_HAL_Driver/Inc/stm32g4xx_ll_dma.h ****   * @brief  Get Channel 4 global interrupt flag.
1601:Drivers/STM32G4xx_HAL_Driver/Inc/stm32g4xx_ll_dma.h ****   * @rmtoll ISR          GIF4          LL_DMA_IsActiveFlag_GI4
1602:Drivers/STM32G4xx_HAL_Driver/Inc/stm32g4xx_ll_dma.h ****   * @param  DMAx DMAx Instance
1603:Drivers/STM32G4xx_HAL_Driver/Inc/stm32g4xx_ll_dma.h ****   * @retval State of bit (1 or 0).
1604:Drivers/STM32G4xx_HAL_Driver/Inc/stm32g4xx_ll_dma.h ****   */
1605:Drivers/STM32G4xx_HAL_Driver/Inc/stm32g4xx_ll_dma.h **** __STATIC_INLINE uint32_t LL_DMA_IsActiveFlag_GI4(DMA_TypeDef *DMAx)
1606:Drivers/STM32G4xx_HAL_Driver/Inc/stm32g4xx_ll_dma.h **** {
1607:Drivers/STM32G4xx_HAL_Driver/Inc/stm32g4xx_ll_dma.h ****   return ((READ_BIT(DMAx->ISR, DMA_ISR_GIF4) == (DMA_ISR_GIF4)) ? 1UL : 0UL);
1608:Drivers/STM32G4xx_HAL_Driver/Inc/stm32g4xx_ll_dma.h **** }
1609:Drivers/STM32G4xx_HAL_Driver/Inc/stm32g4xx_ll_dma.h **** 
1610:Drivers/STM32G4xx_HAL_Driver/Inc/stm32g4xx_ll_dma.h **** /**
1611:Drivers/STM32G4xx_HAL_Driver/Inc/stm32g4xx_ll_dma.h ****   * @brief  Get Channel 5 global interrupt flag.
1612:Drivers/STM32G4xx_HAL_Driver/Inc/stm32g4xx_ll_dma.h ****   * @rmtoll ISR          GIF5          LL_DMA_IsActiveFlag_GI5
1613:Drivers/STM32G4xx_HAL_Driver/Inc/stm32g4xx_ll_dma.h ****   * @param  DMAx DMAx Instance
1614:Drivers/STM32G4xx_HAL_Driver/Inc/stm32g4xx_ll_dma.h ****   * @retval State of bit (1 or 0).
1615:Drivers/STM32G4xx_HAL_Driver/Inc/stm32g4xx_ll_dma.h ****   */
1616:Drivers/STM32G4xx_HAL_Driver/Inc/stm32g4xx_ll_dma.h **** __STATIC_INLINE uint32_t LL_DMA_IsActiveFlag_GI5(DMA_TypeDef *DMAx)
1617:Drivers/STM32G4xx_HAL_Driver/Inc/stm32g4xx_ll_dma.h **** {
1618:Drivers/STM32G4xx_HAL_Driver/Inc/stm32g4xx_ll_dma.h ****   return ((READ_BIT(DMAx->ISR, DMA_ISR_GIF5) == (DMA_ISR_GIF5)) ? 1UL : 0UL);
1619:Drivers/STM32G4xx_HAL_Driver/Inc/stm32g4xx_ll_dma.h **** }
1620:Drivers/STM32G4xx_HAL_Driver/Inc/stm32g4xx_ll_dma.h **** 
1621:Drivers/STM32G4xx_HAL_Driver/Inc/stm32g4xx_ll_dma.h **** /**
1622:Drivers/STM32G4xx_HAL_Driver/Inc/stm32g4xx_ll_dma.h ****   * @brief  Get Channel 6 global interrupt flag.
1623:Drivers/STM32G4xx_HAL_Driver/Inc/stm32g4xx_ll_dma.h ****   * @rmtoll ISR          GIF6          LL_DMA_IsActiveFlag_GI6
1624:Drivers/STM32G4xx_HAL_Driver/Inc/stm32g4xx_ll_dma.h ****   * @param  DMAx DMAx Instance
1625:Drivers/STM32G4xx_HAL_Driver/Inc/stm32g4xx_ll_dma.h ****   * @retval State of bit (1 or 0).
1626:Drivers/STM32G4xx_HAL_Driver/Inc/stm32g4xx_ll_dma.h ****   */
1627:Drivers/STM32G4xx_HAL_Driver/Inc/stm32g4xx_ll_dma.h **** __STATIC_INLINE uint32_t LL_DMA_IsActiveFlag_GI6(DMA_TypeDef *DMAx)
1628:Drivers/STM32G4xx_HAL_Driver/Inc/stm32g4xx_ll_dma.h **** {
1629:Drivers/STM32G4xx_HAL_Driver/Inc/stm32g4xx_ll_dma.h ****   return ((READ_BIT(DMAx->ISR, DMA_ISR_GIF6) == (DMA_ISR_GIF6)) ? 1UL : 0UL);
1630:Drivers/STM32G4xx_HAL_Driver/Inc/stm32g4xx_ll_dma.h **** }
1631:Drivers/STM32G4xx_HAL_Driver/Inc/stm32g4xx_ll_dma.h **** 
1632:Drivers/STM32G4xx_HAL_Driver/Inc/stm32g4xx_ll_dma.h **** #if defined (DMA1_Channel7)
1633:Drivers/STM32G4xx_HAL_Driver/Inc/stm32g4xx_ll_dma.h **** /**
1634:Drivers/STM32G4xx_HAL_Driver/Inc/stm32g4xx_ll_dma.h ****   * @brief  Get Channel 7 global interrupt flag.
1635:Drivers/STM32G4xx_HAL_Driver/Inc/stm32g4xx_ll_dma.h ****   * @rmtoll ISR          GIF7          LL_DMA_IsActiveFlag_GI7
1636:Drivers/STM32G4xx_HAL_Driver/Inc/stm32g4xx_ll_dma.h ****   * @param  DMAx DMAx Instance
1637:Drivers/STM32G4xx_HAL_Driver/Inc/stm32g4xx_ll_dma.h ****   * @retval State of bit (1 or 0).
1638:Drivers/STM32G4xx_HAL_Driver/Inc/stm32g4xx_ll_dma.h ****   */
1639:Drivers/STM32G4xx_HAL_Driver/Inc/stm32g4xx_ll_dma.h **** __STATIC_INLINE uint32_t LL_DMA_IsActiveFlag_GI7(DMA_TypeDef *DMAx)
1640:Drivers/STM32G4xx_HAL_Driver/Inc/stm32g4xx_ll_dma.h **** {
1641:Drivers/STM32G4xx_HAL_Driver/Inc/stm32g4xx_ll_dma.h ****   return ((READ_BIT(DMAx->ISR, DMA_ISR_GIF7) == (DMA_ISR_GIF7)) ? 1UL : 0UL);
1642:Drivers/STM32G4xx_HAL_Driver/Inc/stm32g4xx_ll_dma.h **** }
1643:Drivers/STM32G4xx_HAL_Driver/Inc/stm32g4xx_ll_dma.h **** #endif /* DMA1_Channel7 */
1644:Drivers/STM32G4xx_HAL_Driver/Inc/stm32g4xx_ll_dma.h **** 
1645:Drivers/STM32G4xx_HAL_Driver/Inc/stm32g4xx_ll_dma.h **** #if defined (DMA1_Channel8)
1646:Drivers/STM32G4xx_HAL_Driver/Inc/stm32g4xx_ll_dma.h **** /**
1647:Drivers/STM32G4xx_HAL_Driver/Inc/stm32g4xx_ll_dma.h ****   * @brief  Get Channel 8 global interrupt flag.
1648:Drivers/STM32G4xx_HAL_Driver/Inc/stm32g4xx_ll_dma.h ****   * @rmtoll ISR          GIF8          LL_DMA_IsActiveFlag_GI8
1649:Drivers/STM32G4xx_HAL_Driver/Inc/stm32g4xx_ll_dma.h ****   * @param  DMAx DMAx Instance
ARM GAS  /tmp/cc2tlrck.s 			page 36


1650:Drivers/STM32G4xx_HAL_Driver/Inc/stm32g4xx_ll_dma.h ****   * @retval State of bit (1 or 0).
1651:Drivers/STM32G4xx_HAL_Driver/Inc/stm32g4xx_ll_dma.h ****   */
1652:Drivers/STM32G4xx_HAL_Driver/Inc/stm32g4xx_ll_dma.h **** __STATIC_INLINE uint32_t LL_DMA_IsActiveFlag_GI8(DMA_TypeDef *DMAx)
1653:Drivers/STM32G4xx_HAL_Driver/Inc/stm32g4xx_ll_dma.h **** {
1654:Drivers/STM32G4xx_HAL_Driver/Inc/stm32g4xx_ll_dma.h ****   return ((READ_BIT(DMAx->ISR, DMA_ISR_GIF8) == (DMA_ISR_GIF8)) ? 1UL : 0UL);
1655:Drivers/STM32G4xx_HAL_Driver/Inc/stm32g4xx_ll_dma.h **** }
1656:Drivers/STM32G4xx_HAL_Driver/Inc/stm32g4xx_ll_dma.h **** #endif /* DMA1_Channel8 */
1657:Drivers/STM32G4xx_HAL_Driver/Inc/stm32g4xx_ll_dma.h **** 
1658:Drivers/STM32G4xx_HAL_Driver/Inc/stm32g4xx_ll_dma.h **** /**
1659:Drivers/STM32G4xx_HAL_Driver/Inc/stm32g4xx_ll_dma.h ****   * @brief  Get Channel 1 transfer complete flag.
1660:Drivers/STM32G4xx_HAL_Driver/Inc/stm32g4xx_ll_dma.h ****   * @rmtoll ISR          TCIF1         LL_DMA_IsActiveFlag_TC1
1661:Drivers/STM32G4xx_HAL_Driver/Inc/stm32g4xx_ll_dma.h ****   * @param  DMAx DMAx Instance
1662:Drivers/STM32G4xx_HAL_Driver/Inc/stm32g4xx_ll_dma.h ****   * @retval State of bit (1 or 0).
1663:Drivers/STM32G4xx_HAL_Driver/Inc/stm32g4xx_ll_dma.h ****   */
1664:Drivers/STM32G4xx_HAL_Driver/Inc/stm32g4xx_ll_dma.h **** __STATIC_INLINE uint32_t LL_DMA_IsActiveFlag_TC1(DMA_TypeDef *DMAx)
1665:Drivers/STM32G4xx_HAL_Driver/Inc/stm32g4xx_ll_dma.h **** {
1666:Drivers/STM32G4xx_HAL_Driver/Inc/stm32g4xx_ll_dma.h ****   return ((READ_BIT(DMAx->ISR, DMA_ISR_TCIF1) == (DMA_ISR_TCIF1)) ? 1UL : 0UL);
1667:Drivers/STM32G4xx_HAL_Driver/Inc/stm32g4xx_ll_dma.h **** }
1668:Drivers/STM32G4xx_HAL_Driver/Inc/stm32g4xx_ll_dma.h **** 
1669:Drivers/STM32G4xx_HAL_Driver/Inc/stm32g4xx_ll_dma.h **** /**
1670:Drivers/STM32G4xx_HAL_Driver/Inc/stm32g4xx_ll_dma.h ****   * @brief  Get Channel 2 transfer complete flag.
1671:Drivers/STM32G4xx_HAL_Driver/Inc/stm32g4xx_ll_dma.h ****   * @rmtoll ISR          TCIF2         LL_DMA_IsActiveFlag_TC2
1672:Drivers/STM32G4xx_HAL_Driver/Inc/stm32g4xx_ll_dma.h ****   * @param  DMAx DMAx Instance
1673:Drivers/STM32G4xx_HAL_Driver/Inc/stm32g4xx_ll_dma.h ****   * @retval State of bit (1 or 0).
1674:Drivers/STM32G4xx_HAL_Driver/Inc/stm32g4xx_ll_dma.h ****   */
1675:Drivers/STM32G4xx_HAL_Driver/Inc/stm32g4xx_ll_dma.h **** __STATIC_INLINE uint32_t LL_DMA_IsActiveFlag_TC2(DMA_TypeDef *DMAx)
1676:Drivers/STM32G4xx_HAL_Driver/Inc/stm32g4xx_ll_dma.h **** {
1677:Drivers/STM32G4xx_HAL_Driver/Inc/stm32g4xx_ll_dma.h ****   return ((READ_BIT(DMAx->ISR, DMA_ISR_TCIF2) == (DMA_ISR_TCIF2)) ? 1UL : 0UL);
1678:Drivers/STM32G4xx_HAL_Driver/Inc/stm32g4xx_ll_dma.h **** }
1679:Drivers/STM32G4xx_HAL_Driver/Inc/stm32g4xx_ll_dma.h **** 
1680:Drivers/STM32G4xx_HAL_Driver/Inc/stm32g4xx_ll_dma.h **** /**
1681:Drivers/STM32G4xx_HAL_Driver/Inc/stm32g4xx_ll_dma.h ****   * @brief  Get Channel 3 transfer complete flag.
1682:Drivers/STM32G4xx_HAL_Driver/Inc/stm32g4xx_ll_dma.h ****   * @rmtoll ISR          TCIF3         LL_DMA_IsActiveFlag_TC3
1683:Drivers/STM32G4xx_HAL_Driver/Inc/stm32g4xx_ll_dma.h ****   * @param  DMAx DMAx Instance
1684:Drivers/STM32G4xx_HAL_Driver/Inc/stm32g4xx_ll_dma.h ****   * @retval State of bit (1 or 0).
1685:Drivers/STM32G4xx_HAL_Driver/Inc/stm32g4xx_ll_dma.h ****   */
1686:Drivers/STM32G4xx_HAL_Driver/Inc/stm32g4xx_ll_dma.h **** __STATIC_INLINE uint32_t LL_DMA_IsActiveFlag_TC3(DMA_TypeDef *DMAx)
1687:Drivers/STM32G4xx_HAL_Driver/Inc/stm32g4xx_ll_dma.h **** {
1688:Drivers/STM32G4xx_HAL_Driver/Inc/stm32g4xx_ll_dma.h ****   return ((READ_BIT(DMAx->ISR, DMA_ISR_TCIF3) == (DMA_ISR_TCIF3)) ? 1UL : 0UL);
1689:Drivers/STM32G4xx_HAL_Driver/Inc/stm32g4xx_ll_dma.h **** }
1690:Drivers/STM32G4xx_HAL_Driver/Inc/stm32g4xx_ll_dma.h **** 
1691:Drivers/STM32G4xx_HAL_Driver/Inc/stm32g4xx_ll_dma.h **** /**
1692:Drivers/STM32G4xx_HAL_Driver/Inc/stm32g4xx_ll_dma.h ****   * @brief  Get Channel 4 transfer complete flag.
1693:Drivers/STM32G4xx_HAL_Driver/Inc/stm32g4xx_ll_dma.h ****   * @rmtoll ISR          TCIF4         LL_DMA_IsActiveFlag_TC4
1694:Drivers/STM32G4xx_HAL_Driver/Inc/stm32g4xx_ll_dma.h ****   * @param  DMAx DMAx Instance
1695:Drivers/STM32G4xx_HAL_Driver/Inc/stm32g4xx_ll_dma.h ****   * @retval State of bit (1 or 0).
1696:Drivers/STM32G4xx_HAL_Driver/Inc/stm32g4xx_ll_dma.h ****   */
1697:Drivers/STM32G4xx_HAL_Driver/Inc/stm32g4xx_ll_dma.h **** __STATIC_INLINE uint32_t LL_DMA_IsActiveFlag_TC4(DMA_TypeDef *DMAx)
1698:Drivers/STM32G4xx_HAL_Driver/Inc/stm32g4xx_ll_dma.h **** {
1699:Drivers/STM32G4xx_HAL_Driver/Inc/stm32g4xx_ll_dma.h ****   return ((READ_BIT(DMAx->ISR, DMA_ISR_TCIF4) == (DMA_ISR_TCIF4)) ? 1UL : 0UL);
1700:Drivers/STM32G4xx_HAL_Driver/Inc/stm32g4xx_ll_dma.h **** }
1701:Drivers/STM32G4xx_HAL_Driver/Inc/stm32g4xx_ll_dma.h **** 
1702:Drivers/STM32G4xx_HAL_Driver/Inc/stm32g4xx_ll_dma.h **** /**
1703:Drivers/STM32G4xx_HAL_Driver/Inc/stm32g4xx_ll_dma.h ****   * @brief  Get Channel 5 transfer complete flag.
1704:Drivers/STM32G4xx_HAL_Driver/Inc/stm32g4xx_ll_dma.h ****   * @rmtoll ISR          TCIF5         LL_DMA_IsActiveFlag_TC5
1705:Drivers/STM32G4xx_HAL_Driver/Inc/stm32g4xx_ll_dma.h ****   * @param  DMAx DMAx Instance
1706:Drivers/STM32G4xx_HAL_Driver/Inc/stm32g4xx_ll_dma.h ****   * @retval State of bit (1 or 0).
ARM GAS  /tmp/cc2tlrck.s 			page 37


1707:Drivers/STM32G4xx_HAL_Driver/Inc/stm32g4xx_ll_dma.h ****   */
1708:Drivers/STM32G4xx_HAL_Driver/Inc/stm32g4xx_ll_dma.h **** __STATIC_INLINE uint32_t LL_DMA_IsActiveFlag_TC5(DMA_TypeDef *DMAx)
1709:Drivers/STM32G4xx_HAL_Driver/Inc/stm32g4xx_ll_dma.h **** {
1710:Drivers/STM32G4xx_HAL_Driver/Inc/stm32g4xx_ll_dma.h ****   return ((READ_BIT(DMAx->ISR, DMA_ISR_TCIF5) == (DMA_ISR_TCIF5)) ? 1UL : 0UL);
1711:Drivers/STM32G4xx_HAL_Driver/Inc/stm32g4xx_ll_dma.h **** }
1712:Drivers/STM32G4xx_HAL_Driver/Inc/stm32g4xx_ll_dma.h **** 
1713:Drivers/STM32G4xx_HAL_Driver/Inc/stm32g4xx_ll_dma.h **** /**
1714:Drivers/STM32G4xx_HAL_Driver/Inc/stm32g4xx_ll_dma.h ****   * @brief  Get Channel 6 transfer complete flag.
1715:Drivers/STM32G4xx_HAL_Driver/Inc/stm32g4xx_ll_dma.h ****   * @rmtoll ISR          TCIF6         LL_DMA_IsActiveFlag_TC6
1716:Drivers/STM32G4xx_HAL_Driver/Inc/stm32g4xx_ll_dma.h ****   * @param  DMAx DMAx Instance
1717:Drivers/STM32G4xx_HAL_Driver/Inc/stm32g4xx_ll_dma.h ****   * @retval State of bit (1 or 0).
1718:Drivers/STM32G4xx_HAL_Driver/Inc/stm32g4xx_ll_dma.h ****   */
1719:Drivers/STM32G4xx_HAL_Driver/Inc/stm32g4xx_ll_dma.h **** __STATIC_INLINE uint32_t LL_DMA_IsActiveFlag_TC6(DMA_TypeDef *DMAx)
1720:Drivers/STM32G4xx_HAL_Driver/Inc/stm32g4xx_ll_dma.h **** {
1721:Drivers/STM32G4xx_HAL_Driver/Inc/stm32g4xx_ll_dma.h ****   return ((READ_BIT(DMAx->ISR, DMA_ISR_TCIF6) == (DMA_ISR_TCIF6)) ? 1UL : 0UL);
1722:Drivers/STM32G4xx_HAL_Driver/Inc/stm32g4xx_ll_dma.h **** }
1723:Drivers/STM32G4xx_HAL_Driver/Inc/stm32g4xx_ll_dma.h **** 
1724:Drivers/STM32G4xx_HAL_Driver/Inc/stm32g4xx_ll_dma.h **** #if defined (DMA1_Channel7)
1725:Drivers/STM32G4xx_HAL_Driver/Inc/stm32g4xx_ll_dma.h **** /**
1726:Drivers/STM32G4xx_HAL_Driver/Inc/stm32g4xx_ll_dma.h ****   * @brief  Get Channel 7 transfer complete flag.
1727:Drivers/STM32G4xx_HAL_Driver/Inc/stm32g4xx_ll_dma.h ****   * @rmtoll ISR          TCIF7         LL_DMA_IsActiveFlag_TC7
1728:Drivers/STM32G4xx_HAL_Driver/Inc/stm32g4xx_ll_dma.h ****   * @param  DMAx DMAx Instance
1729:Drivers/STM32G4xx_HAL_Driver/Inc/stm32g4xx_ll_dma.h ****   * @retval State of bit (1 or 0).
1730:Drivers/STM32G4xx_HAL_Driver/Inc/stm32g4xx_ll_dma.h ****   */
1731:Drivers/STM32G4xx_HAL_Driver/Inc/stm32g4xx_ll_dma.h **** __STATIC_INLINE uint32_t LL_DMA_IsActiveFlag_TC7(DMA_TypeDef *DMAx)
1732:Drivers/STM32G4xx_HAL_Driver/Inc/stm32g4xx_ll_dma.h **** {
1733:Drivers/STM32G4xx_HAL_Driver/Inc/stm32g4xx_ll_dma.h ****   return ((READ_BIT(DMAx->ISR, DMA_ISR_TCIF7) == (DMA_ISR_TCIF7)) ? 1UL : 0UL);
1734:Drivers/STM32G4xx_HAL_Driver/Inc/stm32g4xx_ll_dma.h **** }
1735:Drivers/STM32G4xx_HAL_Driver/Inc/stm32g4xx_ll_dma.h **** #endif /* DMA1_Channel7 */
1736:Drivers/STM32G4xx_HAL_Driver/Inc/stm32g4xx_ll_dma.h **** 
1737:Drivers/STM32G4xx_HAL_Driver/Inc/stm32g4xx_ll_dma.h **** #if defined (DMA1_Channel8)
1738:Drivers/STM32G4xx_HAL_Driver/Inc/stm32g4xx_ll_dma.h **** /**
1739:Drivers/STM32G4xx_HAL_Driver/Inc/stm32g4xx_ll_dma.h ****   * @brief  Get Channel 8 transfer complete flag.
1740:Drivers/STM32G4xx_HAL_Driver/Inc/stm32g4xx_ll_dma.h ****   * @rmtoll ISR          TCIF8         LL_DMA_IsActiveFlag_TC8
1741:Drivers/STM32G4xx_HAL_Driver/Inc/stm32g4xx_ll_dma.h ****   * @param  DMAx DMAx Instance
1742:Drivers/STM32G4xx_HAL_Driver/Inc/stm32g4xx_ll_dma.h ****   * @retval State of bit (1 or 0).
1743:Drivers/STM32G4xx_HAL_Driver/Inc/stm32g4xx_ll_dma.h ****   */
1744:Drivers/STM32G4xx_HAL_Driver/Inc/stm32g4xx_ll_dma.h **** __STATIC_INLINE uint32_t LL_DMA_IsActiveFlag_TC8(DMA_TypeDef *DMAx)
1745:Drivers/STM32G4xx_HAL_Driver/Inc/stm32g4xx_ll_dma.h **** {
1746:Drivers/STM32G4xx_HAL_Driver/Inc/stm32g4xx_ll_dma.h ****   return ((READ_BIT(DMAx->ISR, DMA_ISR_TCIF8) == (DMA_ISR_TCIF8)) ? 1UL : 0UL);
1747:Drivers/STM32G4xx_HAL_Driver/Inc/stm32g4xx_ll_dma.h **** }
1748:Drivers/STM32G4xx_HAL_Driver/Inc/stm32g4xx_ll_dma.h **** #endif /* DMA1_Channel8 */
1749:Drivers/STM32G4xx_HAL_Driver/Inc/stm32g4xx_ll_dma.h **** 
1750:Drivers/STM32G4xx_HAL_Driver/Inc/stm32g4xx_ll_dma.h **** /**
1751:Drivers/STM32G4xx_HAL_Driver/Inc/stm32g4xx_ll_dma.h ****   * @brief  Get Channel 1 half transfer flag.
1752:Drivers/STM32G4xx_HAL_Driver/Inc/stm32g4xx_ll_dma.h ****   * @rmtoll ISR          HTIF1         LL_DMA_IsActiveFlag_HT1
1753:Drivers/STM32G4xx_HAL_Driver/Inc/stm32g4xx_ll_dma.h ****   * @param  DMAx DMAx Instance
1754:Drivers/STM32G4xx_HAL_Driver/Inc/stm32g4xx_ll_dma.h ****   * @retval State of bit (1 or 0).
1755:Drivers/STM32G4xx_HAL_Driver/Inc/stm32g4xx_ll_dma.h ****   */
1756:Drivers/STM32G4xx_HAL_Driver/Inc/stm32g4xx_ll_dma.h **** __STATIC_INLINE uint32_t LL_DMA_IsActiveFlag_HT1(DMA_TypeDef *DMAx)
1757:Drivers/STM32G4xx_HAL_Driver/Inc/stm32g4xx_ll_dma.h **** {
1758:Drivers/STM32G4xx_HAL_Driver/Inc/stm32g4xx_ll_dma.h ****   return ((READ_BIT(DMAx->ISR, DMA_ISR_HTIF1) == (DMA_ISR_HTIF1)) ? 1UL : 0UL);
1759:Drivers/STM32G4xx_HAL_Driver/Inc/stm32g4xx_ll_dma.h **** }
1760:Drivers/STM32G4xx_HAL_Driver/Inc/stm32g4xx_ll_dma.h **** 
1761:Drivers/STM32G4xx_HAL_Driver/Inc/stm32g4xx_ll_dma.h **** /**
1762:Drivers/STM32G4xx_HAL_Driver/Inc/stm32g4xx_ll_dma.h ****   * @brief  Get Channel 2 half transfer flag.
1763:Drivers/STM32G4xx_HAL_Driver/Inc/stm32g4xx_ll_dma.h ****   * @rmtoll ISR          HTIF2         LL_DMA_IsActiveFlag_HT2
ARM GAS  /tmp/cc2tlrck.s 			page 38


1764:Drivers/STM32G4xx_HAL_Driver/Inc/stm32g4xx_ll_dma.h ****   * @param  DMAx DMAx Instance
1765:Drivers/STM32G4xx_HAL_Driver/Inc/stm32g4xx_ll_dma.h ****   * @retval State of bit (1 or 0).
1766:Drivers/STM32G4xx_HAL_Driver/Inc/stm32g4xx_ll_dma.h ****   */
1767:Drivers/STM32G4xx_HAL_Driver/Inc/stm32g4xx_ll_dma.h **** __STATIC_INLINE uint32_t LL_DMA_IsActiveFlag_HT2(DMA_TypeDef *DMAx)
1768:Drivers/STM32G4xx_HAL_Driver/Inc/stm32g4xx_ll_dma.h **** {
1769:Drivers/STM32G4xx_HAL_Driver/Inc/stm32g4xx_ll_dma.h ****   return ((READ_BIT(DMAx->ISR, DMA_ISR_HTIF2) == (DMA_ISR_HTIF2)) ? 1UL : 0UL);
1770:Drivers/STM32G4xx_HAL_Driver/Inc/stm32g4xx_ll_dma.h **** }
1771:Drivers/STM32G4xx_HAL_Driver/Inc/stm32g4xx_ll_dma.h **** 
1772:Drivers/STM32G4xx_HAL_Driver/Inc/stm32g4xx_ll_dma.h **** /**
1773:Drivers/STM32G4xx_HAL_Driver/Inc/stm32g4xx_ll_dma.h ****   * @brief  Get Channel 3 half transfer flag.
1774:Drivers/STM32G4xx_HAL_Driver/Inc/stm32g4xx_ll_dma.h ****   * @rmtoll ISR          HTIF3         LL_DMA_IsActiveFlag_HT3
1775:Drivers/STM32G4xx_HAL_Driver/Inc/stm32g4xx_ll_dma.h ****   * @param  DMAx DMAx Instance
1776:Drivers/STM32G4xx_HAL_Driver/Inc/stm32g4xx_ll_dma.h ****   * @retval State of bit (1 or 0).
1777:Drivers/STM32G4xx_HAL_Driver/Inc/stm32g4xx_ll_dma.h ****   */
1778:Drivers/STM32G4xx_HAL_Driver/Inc/stm32g4xx_ll_dma.h **** __STATIC_INLINE uint32_t LL_DMA_IsActiveFlag_HT3(DMA_TypeDef *DMAx)
1779:Drivers/STM32G4xx_HAL_Driver/Inc/stm32g4xx_ll_dma.h **** {
1780:Drivers/STM32G4xx_HAL_Driver/Inc/stm32g4xx_ll_dma.h ****   return ((READ_BIT(DMAx->ISR, DMA_ISR_HTIF3) == (DMA_ISR_HTIF3)) ? 1UL : 0UL);
1781:Drivers/STM32G4xx_HAL_Driver/Inc/stm32g4xx_ll_dma.h **** }
1782:Drivers/STM32G4xx_HAL_Driver/Inc/stm32g4xx_ll_dma.h **** 
1783:Drivers/STM32G4xx_HAL_Driver/Inc/stm32g4xx_ll_dma.h **** /**
1784:Drivers/STM32G4xx_HAL_Driver/Inc/stm32g4xx_ll_dma.h ****   * @brief  Get Channel 4 half transfer flag.
1785:Drivers/STM32G4xx_HAL_Driver/Inc/stm32g4xx_ll_dma.h ****   * @rmtoll ISR          HTIF4         LL_DMA_IsActiveFlag_HT4
1786:Drivers/STM32G4xx_HAL_Driver/Inc/stm32g4xx_ll_dma.h ****   * @param  DMAx DMAx Instance
1787:Drivers/STM32G4xx_HAL_Driver/Inc/stm32g4xx_ll_dma.h ****   * @retval State of bit (1 or 0).
1788:Drivers/STM32G4xx_HAL_Driver/Inc/stm32g4xx_ll_dma.h ****   */
1789:Drivers/STM32G4xx_HAL_Driver/Inc/stm32g4xx_ll_dma.h **** __STATIC_INLINE uint32_t LL_DMA_IsActiveFlag_HT4(DMA_TypeDef *DMAx)
1790:Drivers/STM32G4xx_HAL_Driver/Inc/stm32g4xx_ll_dma.h **** {
1791:Drivers/STM32G4xx_HAL_Driver/Inc/stm32g4xx_ll_dma.h ****   return ((READ_BIT(DMAx->ISR, DMA_ISR_HTIF4) == (DMA_ISR_HTIF4)) ? 1UL : 0UL);
1792:Drivers/STM32G4xx_HAL_Driver/Inc/stm32g4xx_ll_dma.h **** }
1793:Drivers/STM32G4xx_HAL_Driver/Inc/stm32g4xx_ll_dma.h **** 
1794:Drivers/STM32G4xx_HAL_Driver/Inc/stm32g4xx_ll_dma.h **** /**
1795:Drivers/STM32G4xx_HAL_Driver/Inc/stm32g4xx_ll_dma.h ****   * @brief  Get Channel 5 half transfer flag.
1796:Drivers/STM32G4xx_HAL_Driver/Inc/stm32g4xx_ll_dma.h ****   * @rmtoll ISR          HTIF5         LL_DMA_IsActiveFlag_HT5
1797:Drivers/STM32G4xx_HAL_Driver/Inc/stm32g4xx_ll_dma.h ****   * @param  DMAx DMAx Instance
1798:Drivers/STM32G4xx_HAL_Driver/Inc/stm32g4xx_ll_dma.h ****   * @retval State of bit (1 or 0).
1799:Drivers/STM32G4xx_HAL_Driver/Inc/stm32g4xx_ll_dma.h ****   */
1800:Drivers/STM32G4xx_HAL_Driver/Inc/stm32g4xx_ll_dma.h **** __STATIC_INLINE uint32_t LL_DMA_IsActiveFlag_HT5(DMA_TypeDef *DMAx)
1801:Drivers/STM32G4xx_HAL_Driver/Inc/stm32g4xx_ll_dma.h **** {
1802:Drivers/STM32G4xx_HAL_Driver/Inc/stm32g4xx_ll_dma.h ****   return ((READ_BIT(DMAx->ISR, DMA_ISR_HTIF5) == (DMA_ISR_HTIF5)) ? 1UL : 0UL);
1803:Drivers/STM32G4xx_HAL_Driver/Inc/stm32g4xx_ll_dma.h **** }
1804:Drivers/STM32G4xx_HAL_Driver/Inc/stm32g4xx_ll_dma.h **** 
1805:Drivers/STM32G4xx_HAL_Driver/Inc/stm32g4xx_ll_dma.h **** /**
1806:Drivers/STM32G4xx_HAL_Driver/Inc/stm32g4xx_ll_dma.h ****   * @brief  Get Channel 6 half transfer flag.
1807:Drivers/STM32G4xx_HAL_Driver/Inc/stm32g4xx_ll_dma.h ****   * @rmtoll ISR          HTIF6         LL_DMA_IsActiveFlag_HT6
1808:Drivers/STM32G4xx_HAL_Driver/Inc/stm32g4xx_ll_dma.h ****   * @param  DMAx DMAx Instance
1809:Drivers/STM32G4xx_HAL_Driver/Inc/stm32g4xx_ll_dma.h ****   * @retval State of bit (1 or 0).
1810:Drivers/STM32G4xx_HAL_Driver/Inc/stm32g4xx_ll_dma.h ****   */
1811:Drivers/STM32G4xx_HAL_Driver/Inc/stm32g4xx_ll_dma.h **** __STATIC_INLINE uint32_t LL_DMA_IsActiveFlag_HT6(DMA_TypeDef *DMAx)
1812:Drivers/STM32G4xx_HAL_Driver/Inc/stm32g4xx_ll_dma.h **** {
1813:Drivers/STM32G4xx_HAL_Driver/Inc/stm32g4xx_ll_dma.h ****   return ((READ_BIT(DMAx->ISR, DMA_ISR_HTIF6) == (DMA_ISR_HTIF6)) ? 1UL : 0UL);
1814:Drivers/STM32G4xx_HAL_Driver/Inc/stm32g4xx_ll_dma.h **** }
1815:Drivers/STM32G4xx_HAL_Driver/Inc/stm32g4xx_ll_dma.h **** 
1816:Drivers/STM32G4xx_HAL_Driver/Inc/stm32g4xx_ll_dma.h **** #if defined (DMA1_Channel8)
1817:Drivers/STM32G4xx_HAL_Driver/Inc/stm32g4xx_ll_dma.h **** /**
1818:Drivers/STM32G4xx_HAL_Driver/Inc/stm32g4xx_ll_dma.h ****   * @brief  Get Channel 7 half transfer flag.
1819:Drivers/STM32G4xx_HAL_Driver/Inc/stm32g4xx_ll_dma.h ****   * @rmtoll ISR          HTIF7         LL_DMA_IsActiveFlag_HT7
1820:Drivers/STM32G4xx_HAL_Driver/Inc/stm32g4xx_ll_dma.h ****   * @param  DMAx DMAx Instance
ARM GAS  /tmp/cc2tlrck.s 			page 39


1821:Drivers/STM32G4xx_HAL_Driver/Inc/stm32g4xx_ll_dma.h ****   * @retval State of bit (1 or 0).
1822:Drivers/STM32G4xx_HAL_Driver/Inc/stm32g4xx_ll_dma.h ****   */
1823:Drivers/STM32G4xx_HAL_Driver/Inc/stm32g4xx_ll_dma.h **** __STATIC_INLINE uint32_t LL_DMA_IsActiveFlag_HT7(DMA_TypeDef *DMAx)
1824:Drivers/STM32G4xx_HAL_Driver/Inc/stm32g4xx_ll_dma.h **** {
1825:Drivers/STM32G4xx_HAL_Driver/Inc/stm32g4xx_ll_dma.h ****   return ((READ_BIT(DMAx->ISR, DMA_ISR_HTIF7) == (DMA_ISR_HTIF7)) ? 1UL : 0UL);
1826:Drivers/STM32G4xx_HAL_Driver/Inc/stm32g4xx_ll_dma.h **** }
1827:Drivers/STM32G4xx_HAL_Driver/Inc/stm32g4xx_ll_dma.h **** #endif /* DMA1_Channel7 */
1828:Drivers/STM32G4xx_HAL_Driver/Inc/stm32g4xx_ll_dma.h **** 
1829:Drivers/STM32G4xx_HAL_Driver/Inc/stm32g4xx_ll_dma.h **** #if defined (DMA1_Channel8)
1830:Drivers/STM32G4xx_HAL_Driver/Inc/stm32g4xx_ll_dma.h **** /**
1831:Drivers/STM32G4xx_HAL_Driver/Inc/stm32g4xx_ll_dma.h ****   * @brief  Get Channel 8 half transfer flag.
1832:Drivers/STM32G4xx_HAL_Driver/Inc/stm32g4xx_ll_dma.h ****   * @rmtoll ISR          HTIF8         LL_DMA_IsActiveFlag_HT8
1833:Drivers/STM32G4xx_HAL_Driver/Inc/stm32g4xx_ll_dma.h ****   * @param  DMAx DMAx Instance
1834:Drivers/STM32G4xx_HAL_Driver/Inc/stm32g4xx_ll_dma.h ****   * @retval State of bit (1 or 0).
1835:Drivers/STM32G4xx_HAL_Driver/Inc/stm32g4xx_ll_dma.h ****   */
1836:Drivers/STM32G4xx_HAL_Driver/Inc/stm32g4xx_ll_dma.h **** __STATIC_INLINE uint32_t LL_DMA_IsActiveFlag_HT8(DMA_TypeDef *DMAx)
1837:Drivers/STM32G4xx_HAL_Driver/Inc/stm32g4xx_ll_dma.h **** {
1838:Drivers/STM32G4xx_HAL_Driver/Inc/stm32g4xx_ll_dma.h ****   return ((READ_BIT(DMAx->ISR, DMA_ISR_HTIF8) == (DMA_ISR_HTIF8)) ? 1UL : 0UL);
1839:Drivers/STM32G4xx_HAL_Driver/Inc/stm32g4xx_ll_dma.h **** }
1840:Drivers/STM32G4xx_HAL_Driver/Inc/stm32g4xx_ll_dma.h **** #endif /* DMA1_Channel8 */
1841:Drivers/STM32G4xx_HAL_Driver/Inc/stm32g4xx_ll_dma.h **** 
1842:Drivers/STM32G4xx_HAL_Driver/Inc/stm32g4xx_ll_dma.h **** /**
1843:Drivers/STM32G4xx_HAL_Driver/Inc/stm32g4xx_ll_dma.h ****   * @brief  Get Channel 1 transfer error flag.
1844:Drivers/STM32G4xx_HAL_Driver/Inc/stm32g4xx_ll_dma.h ****   * @rmtoll ISR          TEIF1         LL_DMA_IsActiveFlag_TE1
1845:Drivers/STM32G4xx_HAL_Driver/Inc/stm32g4xx_ll_dma.h ****   * @param  DMAx DMAx Instance
1846:Drivers/STM32G4xx_HAL_Driver/Inc/stm32g4xx_ll_dma.h ****   * @retval State of bit (1 or 0).
1847:Drivers/STM32G4xx_HAL_Driver/Inc/stm32g4xx_ll_dma.h ****   */
1848:Drivers/STM32G4xx_HAL_Driver/Inc/stm32g4xx_ll_dma.h **** __STATIC_INLINE uint32_t LL_DMA_IsActiveFlag_TE1(DMA_TypeDef *DMAx)
1849:Drivers/STM32G4xx_HAL_Driver/Inc/stm32g4xx_ll_dma.h **** {
1850:Drivers/STM32G4xx_HAL_Driver/Inc/stm32g4xx_ll_dma.h ****   return ((READ_BIT(DMAx->ISR, DMA_ISR_TEIF1) == (DMA_ISR_TEIF1)) ? 1UL : 0UL);
1851:Drivers/STM32G4xx_HAL_Driver/Inc/stm32g4xx_ll_dma.h **** }
1852:Drivers/STM32G4xx_HAL_Driver/Inc/stm32g4xx_ll_dma.h **** 
1853:Drivers/STM32G4xx_HAL_Driver/Inc/stm32g4xx_ll_dma.h **** /**
1854:Drivers/STM32G4xx_HAL_Driver/Inc/stm32g4xx_ll_dma.h ****   * @brief  Get Channel 2 transfer error flag.
1855:Drivers/STM32G4xx_HAL_Driver/Inc/stm32g4xx_ll_dma.h ****   * @rmtoll ISR          TEIF2         LL_DMA_IsActiveFlag_TE2
1856:Drivers/STM32G4xx_HAL_Driver/Inc/stm32g4xx_ll_dma.h ****   * @param  DMAx DMAx Instance
1857:Drivers/STM32G4xx_HAL_Driver/Inc/stm32g4xx_ll_dma.h ****   * @retval State of bit (1 or 0).
1858:Drivers/STM32G4xx_HAL_Driver/Inc/stm32g4xx_ll_dma.h ****   */
1859:Drivers/STM32G4xx_HAL_Driver/Inc/stm32g4xx_ll_dma.h **** __STATIC_INLINE uint32_t LL_DMA_IsActiveFlag_TE2(DMA_TypeDef *DMAx)
1860:Drivers/STM32G4xx_HAL_Driver/Inc/stm32g4xx_ll_dma.h **** {
1861:Drivers/STM32G4xx_HAL_Driver/Inc/stm32g4xx_ll_dma.h ****   return ((READ_BIT(DMAx->ISR, DMA_ISR_TEIF2) == (DMA_ISR_TEIF2)) ? 1UL : 0UL);
1862:Drivers/STM32G4xx_HAL_Driver/Inc/stm32g4xx_ll_dma.h **** }
1863:Drivers/STM32G4xx_HAL_Driver/Inc/stm32g4xx_ll_dma.h **** 
1864:Drivers/STM32G4xx_HAL_Driver/Inc/stm32g4xx_ll_dma.h **** /**
1865:Drivers/STM32G4xx_HAL_Driver/Inc/stm32g4xx_ll_dma.h ****   * @brief  Get Channel 3 transfer error flag.
1866:Drivers/STM32G4xx_HAL_Driver/Inc/stm32g4xx_ll_dma.h ****   * @rmtoll ISR          TEIF3         LL_DMA_IsActiveFlag_TE3
1867:Drivers/STM32G4xx_HAL_Driver/Inc/stm32g4xx_ll_dma.h ****   * @param  DMAx DMAx Instance
1868:Drivers/STM32G4xx_HAL_Driver/Inc/stm32g4xx_ll_dma.h ****   * @retval State of bit (1 or 0).
1869:Drivers/STM32G4xx_HAL_Driver/Inc/stm32g4xx_ll_dma.h ****   */
1870:Drivers/STM32G4xx_HAL_Driver/Inc/stm32g4xx_ll_dma.h **** __STATIC_INLINE uint32_t LL_DMA_IsActiveFlag_TE3(DMA_TypeDef *DMAx)
1871:Drivers/STM32G4xx_HAL_Driver/Inc/stm32g4xx_ll_dma.h **** {
1872:Drivers/STM32G4xx_HAL_Driver/Inc/stm32g4xx_ll_dma.h ****   return ((READ_BIT(DMAx->ISR, DMA_ISR_TEIF3) == (DMA_ISR_TEIF3)) ? 1UL : 0UL);
1873:Drivers/STM32G4xx_HAL_Driver/Inc/stm32g4xx_ll_dma.h **** }
1874:Drivers/STM32G4xx_HAL_Driver/Inc/stm32g4xx_ll_dma.h **** 
1875:Drivers/STM32G4xx_HAL_Driver/Inc/stm32g4xx_ll_dma.h **** /**
1876:Drivers/STM32G4xx_HAL_Driver/Inc/stm32g4xx_ll_dma.h ****   * @brief  Get Channel 4 transfer error flag.
1877:Drivers/STM32G4xx_HAL_Driver/Inc/stm32g4xx_ll_dma.h ****   * @rmtoll ISR          TEIF4         LL_DMA_IsActiveFlag_TE4
ARM GAS  /tmp/cc2tlrck.s 			page 40


1878:Drivers/STM32G4xx_HAL_Driver/Inc/stm32g4xx_ll_dma.h ****   * @param  DMAx DMAx Instance
1879:Drivers/STM32G4xx_HAL_Driver/Inc/stm32g4xx_ll_dma.h ****   * @retval State of bit (1 or 0).
1880:Drivers/STM32G4xx_HAL_Driver/Inc/stm32g4xx_ll_dma.h ****   */
1881:Drivers/STM32G4xx_HAL_Driver/Inc/stm32g4xx_ll_dma.h **** __STATIC_INLINE uint32_t LL_DMA_IsActiveFlag_TE4(DMA_TypeDef *DMAx)
1882:Drivers/STM32G4xx_HAL_Driver/Inc/stm32g4xx_ll_dma.h **** {
1883:Drivers/STM32G4xx_HAL_Driver/Inc/stm32g4xx_ll_dma.h ****   return ((READ_BIT(DMAx->ISR, DMA_ISR_TEIF4) == (DMA_ISR_TEIF4)) ? 1UL : 0UL);
1884:Drivers/STM32G4xx_HAL_Driver/Inc/stm32g4xx_ll_dma.h **** }
1885:Drivers/STM32G4xx_HAL_Driver/Inc/stm32g4xx_ll_dma.h **** 
1886:Drivers/STM32G4xx_HAL_Driver/Inc/stm32g4xx_ll_dma.h **** /**
1887:Drivers/STM32G4xx_HAL_Driver/Inc/stm32g4xx_ll_dma.h ****   * @brief  Get Channel 5 transfer error flag.
1888:Drivers/STM32G4xx_HAL_Driver/Inc/stm32g4xx_ll_dma.h ****   * @rmtoll ISR          TEIF5         LL_DMA_IsActiveFlag_TE5
1889:Drivers/STM32G4xx_HAL_Driver/Inc/stm32g4xx_ll_dma.h ****   * @param  DMAx DMAx Instance
1890:Drivers/STM32G4xx_HAL_Driver/Inc/stm32g4xx_ll_dma.h ****   * @retval State of bit (1 or 0).
1891:Drivers/STM32G4xx_HAL_Driver/Inc/stm32g4xx_ll_dma.h ****   */
1892:Drivers/STM32G4xx_HAL_Driver/Inc/stm32g4xx_ll_dma.h **** __STATIC_INLINE uint32_t LL_DMA_IsActiveFlag_TE5(DMA_TypeDef *DMAx)
1893:Drivers/STM32G4xx_HAL_Driver/Inc/stm32g4xx_ll_dma.h **** {
1894:Drivers/STM32G4xx_HAL_Driver/Inc/stm32g4xx_ll_dma.h ****   return ((READ_BIT(DMAx->ISR, DMA_ISR_TEIF5) == (DMA_ISR_TEIF5)) ? 1UL : 0UL);
1895:Drivers/STM32G4xx_HAL_Driver/Inc/stm32g4xx_ll_dma.h **** }
1896:Drivers/STM32G4xx_HAL_Driver/Inc/stm32g4xx_ll_dma.h **** 
1897:Drivers/STM32G4xx_HAL_Driver/Inc/stm32g4xx_ll_dma.h **** /**
1898:Drivers/STM32G4xx_HAL_Driver/Inc/stm32g4xx_ll_dma.h ****   * @brief  Get Channel 6 transfer error flag.
1899:Drivers/STM32G4xx_HAL_Driver/Inc/stm32g4xx_ll_dma.h ****   * @rmtoll ISR          TEIF6         LL_DMA_IsActiveFlag_TE6
1900:Drivers/STM32G4xx_HAL_Driver/Inc/stm32g4xx_ll_dma.h ****   * @param  DMAx DMAx Instance
1901:Drivers/STM32G4xx_HAL_Driver/Inc/stm32g4xx_ll_dma.h ****   * @retval State of bit (1 or 0).
1902:Drivers/STM32G4xx_HAL_Driver/Inc/stm32g4xx_ll_dma.h ****   */
1903:Drivers/STM32G4xx_HAL_Driver/Inc/stm32g4xx_ll_dma.h **** __STATIC_INLINE uint32_t LL_DMA_IsActiveFlag_TE6(DMA_TypeDef *DMAx)
1904:Drivers/STM32G4xx_HAL_Driver/Inc/stm32g4xx_ll_dma.h **** {
1905:Drivers/STM32G4xx_HAL_Driver/Inc/stm32g4xx_ll_dma.h ****   return ((READ_BIT(DMAx->ISR, DMA_ISR_TEIF6) == (DMA_ISR_TEIF6)) ? 1UL : 0UL);
1906:Drivers/STM32G4xx_HAL_Driver/Inc/stm32g4xx_ll_dma.h **** }
1907:Drivers/STM32G4xx_HAL_Driver/Inc/stm32g4xx_ll_dma.h **** 
1908:Drivers/STM32G4xx_HAL_Driver/Inc/stm32g4xx_ll_dma.h **** #if defined (DMA1_Channel7)
1909:Drivers/STM32G4xx_HAL_Driver/Inc/stm32g4xx_ll_dma.h **** /**
1910:Drivers/STM32G4xx_HAL_Driver/Inc/stm32g4xx_ll_dma.h ****   * @brief  Get Channel 7 transfer error flag.
1911:Drivers/STM32G4xx_HAL_Driver/Inc/stm32g4xx_ll_dma.h ****   * @rmtoll ISR          TEIF7         LL_DMA_IsActiveFlag_TE7
1912:Drivers/STM32G4xx_HAL_Driver/Inc/stm32g4xx_ll_dma.h ****   * @param  DMAx DMAx Instance
1913:Drivers/STM32G4xx_HAL_Driver/Inc/stm32g4xx_ll_dma.h ****   * @retval State of bit (1 or 0).
1914:Drivers/STM32G4xx_HAL_Driver/Inc/stm32g4xx_ll_dma.h ****   */
1915:Drivers/STM32G4xx_HAL_Driver/Inc/stm32g4xx_ll_dma.h **** __STATIC_INLINE uint32_t LL_DMA_IsActiveFlag_TE7(DMA_TypeDef *DMAx)
1916:Drivers/STM32G4xx_HAL_Driver/Inc/stm32g4xx_ll_dma.h **** {
1917:Drivers/STM32G4xx_HAL_Driver/Inc/stm32g4xx_ll_dma.h ****   return ((READ_BIT(DMAx->ISR, DMA_ISR_TEIF7) == (DMA_ISR_TEIF7)) ? 1UL : 0UL);
1918:Drivers/STM32G4xx_HAL_Driver/Inc/stm32g4xx_ll_dma.h **** }
1919:Drivers/STM32G4xx_HAL_Driver/Inc/stm32g4xx_ll_dma.h **** #endif /* DMA1_Channel7 */
1920:Drivers/STM32G4xx_HAL_Driver/Inc/stm32g4xx_ll_dma.h **** 
1921:Drivers/STM32G4xx_HAL_Driver/Inc/stm32g4xx_ll_dma.h **** #if defined (DMA1_Channel8)
1922:Drivers/STM32G4xx_HAL_Driver/Inc/stm32g4xx_ll_dma.h **** /**
1923:Drivers/STM32G4xx_HAL_Driver/Inc/stm32g4xx_ll_dma.h ****   * @brief  Get Channel 8 transfer error flag.
1924:Drivers/STM32G4xx_HAL_Driver/Inc/stm32g4xx_ll_dma.h ****   * @rmtoll ISR          TEIF8         LL_DMA_IsActiveFlag_TE8
1925:Drivers/STM32G4xx_HAL_Driver/Inc/stm32g4xx_ll_dma.h ****   * @param  DMAx DMAx Instance
1926:Drivers/STM32G4xx_HAL_Driver/Inc/stm32g4xx_ll_dma.h ****   * @retval State of bit (1 or 0).
1927:Drivers/STM32G4xx_HAL_Driver/Inc/stm32g4xx_ll_dma.h ****   */
1928:Drivers/STM32G4xx_HAL_Driver/Inc/stm32g4xx_ll_dma.h **** __STATIC_INLINE uint32_t LL_DMA_IsActiveFlag_TE8(DMA_TypeDef *DMAx)
1929:Drivers/STM32G4xx_HAL_Driver/Inc/stm32g4xx_ll_dma.h **** {
1930:Drivers/STM32G4xx_HAL_Driver/Inc/stm32g4xx_ll_dma.h ****   return ((READ_BIT(DMAx->ISR, DMA_ISR_TEIF8) == (DMA_ISR_TEIF8)) ? 1UL : 0UL);
1931:Drivers/STM32G4xx_HAL_Driver/Inc/stm32g4xx_ll_dma.h **** }
1932:Drivers/STM32G4xx_HAL_Driver/Inc/stm32g4xx_ll_dma.h **** #endif /* DMA1_Channel8 */
1933:Drivers/STM32G4xx_HAL_Driver/Inc/stm32g4xx_ll_dma.h **** 
1934:Drivers/STM32G4xx_HAL_Driver/Inc/stm32g4xx_ll_dma.h **** /**
ARM GAS  /tmp/cc2tlrck.s 			page 41


1935:Drivers/STM32G4xx_HAL_Driver/Inc/stm32g4xx_ll_dma.h ****   * @brief  Clear Channel 1 global interrupt flag.
1936:Drivers/STM32G4xx_HAL_Driver/Inc/stm32g4xx_ll_dma.h ****   * @rmtoll IFCR         CGIF1         LL_DMA_ClearFlag_GI1
1937:Drivers/STM32G4xx_HAL_Driver/Inc/stm32g4xx_ll_dma.h ****   * @param  DMAx DMAx Instance
1938:Drivers/STM32G4xx_HAL_Driver/Inc/stm32g4xx_ll_dma.h ****   * @retval None
1939:Drivers/STM32G4xx_HAL_Driver/Inc/stm32g4xx_ll_dma.h ****   */
1940:Drivers/STM32G4xx_HAL_Driver/Inc/stm32g4xx_ll_dma.h **** __STATIC_INLINE void LL_DMA_ClearFlag_GI1(DMA_TypeDef *DMAx)
1941:Drivers/STM32G4xx_HAL_Driver/Inc/stm32g4xx_ll_dma.h **** {
1942:Drivers/STM32G4xx_HAL_Driver/Inc/stm32g4xx_ll_dma.h ****   WRITE_REG(DMAx->IFCR, DMA_IFCR_CGIF1);
1943:Drivers/STM32G4xx_HAL_Driver/Inc/stm32g4xx_ll_dma.h **** }
1944:Drivers/STM32G4xx_HAL_Driver/Inc/stm32g4xx_ll_dma.h **** 
1945:Drivers/STM32G4xx_HAL_Driver/Inc/stm32g4xx_ll_dma.h **** /**
1946:Drivers/STM32G4xx_HAL_Driver/Inc/stm32g4xx_ll_dma.h ****   * @brief  Clear Channel 2 global interrupt flag.
1947:Drivers/STM32G4xx_HAL_Driver/Inc/stm32g4xx_ll_dma.h ****   * @rmtoll IFCR         CGIF2         LL_DMA_ClearFlag_GI2
1948:Drivers/STM32G4xx_HAL_Driver/Inc/stm32g4xx_ll_dma.h ****   * @param  DMAx DMAx Instance
1949:Drivers/STM32G4xx_HAL_Driver/Inc/stm32g4xx_ll_dma.h ****   * @retval None
1950:Drivers/STM32G4xx_HAL_Driver/Inc/stm32g4xx_ll_dma.h ****   */
1951:Drivers/STM32G4xx_HAL_Driver/Inc/stm32g4xx_ll_dma.h **** __STATIC_INLINE void LL_DMA_ClearFlag_GI2(DMA_TypeDef *DMAx)
1952:Drivers/STM32G4xx_HAL_Driver/Inc/stm32g4xx_ll_dma.h **** {
1953:Drivers/STM32G4xx_HAL_Driver/Inc/stm32g4xx_ll_dma.h ****   WRITE_REG(DMAx->IFCR, DMA_IFCR_CGIF2);
1954:Drivers/STM32G4xx_HAL_Driver/Inc/stm32g4xx_ll_dma.h **** }
1955:Drivers/STM32G4xx_HAL_Driver/Inc/stm32g4xx_ll_dma.h **** 
1956:Drivers/STM32G4xx_HAL_Driver/Inc/stm32g4xx_ll_dma.h **** /**
1957:Drivers/STM32G4xx_HAL_Driver/Inc/stm32g4xx_ll_dma.h ****   * @brief  Clear Channel 3 global interrupt flag.
1958:Drivers/STM32G4xx_HAL_Driver/Inc/stm32g4xx_ll_dma.h ****   * @rmtoll IFCR         CGIF3         LL_DMA_ClearFlag_GI3
1959:Drivers/STM32G4xx_HAL_Driver/Inc/stm32g4xx_ll_dma.h ****   * @param  DMAx DMAx Instance
1960:Drivers/STM32G4xx_HAL_Driver/Inc/stm32g4xx_ll_dma.h ****   * @retval None
1961:Drivers/STM32G4xx_HAL_Driver/Inc/stm32g4xx_ll_dma.h ****   */
1962:Drivers/STM32G4xx_HAL_Driver/Inc/stm32g4xx_ll_dma.h **** __STATIC_INLINE void LL_DMA_ClearFlag_GI3(DMA_TypeDef *DMAx)
1963:Drivers/STM32G4xx_HAL_Driver/Inc/stm32g4xx_ll_dma.h **** {
1964:Drivers/STM32G4xx_HAL_Driver/Inc/stm32g4xx_ll_dma.h ****   WRITE_REG(DMAx->IFCR, DMA_IFCR_CGIF3);
1965:Drivers/STM32G4xx_HAL_Driver/Inc/stm32g4xx_ll_dma.h **** }
1966:Drivers/STM32G4xx_HAL_Driver/Inc/stm32g4xx_ll_dma.h **** 
1967:Drivers/STM32G4xx_HAL_Driver/Inc/stm32g4xx_ll_dma.h **** /**
1968:Drivers/STM32G4xx_HAL_Driver/Inc/stm32g4xx_ll_dma.h ****   * @brief  Clear Channel 4 global interrupt flag.
1969:Drivers/STM32G4xx_HAL_Driver/Inc/stm32g4xx_ll_dma.h ****   * @rmtoll IFCR         CGIF4         LL_DMA_ClearFlag_GI4
1970:Drivers/STM32G4xx_HAL_Driver/Inc/stm32g4xx_ll_dma.h ****   * @param  DMAx DMAx Instance
1971:Drivers/STM32G4xx_HAL_Driver/Inc/stm32g4xx_ll_dma.h ****   * @retval None
1972:Drivers/STM32G4xx_HAL_Driver/Inc/stm32g4xx_ll_dma.h ****   */
1973:Drivers/STM32G4xx_HAL_Driver/Inc/stm32g4xx_ll_dma.h **** __STATIC_INLINE void LL_DMA_ClearFlag_GI4(DMA_TypeDef *DMAx)
1974:Drivers/STM32G4xx_HAL_Driver/Inc/stm32g4xx_ll_dma.h **** {
1975:Drivers/STM32G4xx_HAL_Driver/Inc/stm32g4xx_ll_dma.h ****   WRITE_REG(DMAx->IFCR, DMA_IFCR_CGIF4);
1976:Drivers/STM32G4xx_HAL_Driver/Inc/stm32g4xx_ll_dma.h **** }
1977:Drivers/STM32G4xx_HAL_Driver/Inc/stm32g4xx_ll_dma.h **** 
1978:Drivers/STM32G4xx_HAL_Driver/Inc/stm32g4xx_ll_dma.h **** /**
1979:Drivers/STM32G4xx_HAL_Driver/Inc/stm32g4xx_ll_dma.h ****   * @brief  Clear Channel 5 global interrupt flag.
1980:Drivers/STM32G4xx_HAL_Driver/Inc/stm32g4xx_ll_dma.h ****   * @rmtoll IFCR         CGIF5         LL_DMA_ClearFlag_GI5
1981:Drivers/STM32G4xx_HAL_Driver/Inc/stm32g4xx_ll_dma.h ****   * @param  DMAx DMAx Instance
1982:Drivers/STM32G4xx_HAL_Driver/Inc/stm32g4xx_ll_dma.h ****   * @retval None
1983:Drivers/STM32G4xx_HAL_Driver/Inc/stm32g4xx_ll_dma.h ****   */
1984:Drivers/STM32G4xx_HAL_Driver/Inc/stm32g4xx_ll_dma.h **** __STATIC_INLINE void LL_DMA_ClearFlag_GI5(DMA_TypeDef *DMAx)
1985:Drivers/STM32G4xx_HAL_Driver/Inc/stm32g4xx_ll_dma.h **** {
1986:Drivers/STM32G4xx_HAL_Driver/Inc/stm32g4xx_ll_dma.h ****   WRITE_REG(DMAx->IFCR, DMA_IFCR_CGIF5);
1987:Drivers/STM32G4xx_HAL_Driver/Inc/stm32g4xx_ll_dma.h **** }
1988:Drivers/STM32G4xx_HAL_Driver/Inc/stm32g4xx_ll_dma.h **** 
1989:Drivers/STM32G4xx_HAL_Driver/Inc/stm32g4xx_ll_dma.h **** /**
1990:Drivers/STM32G4xx_HAL_Driver/Inc/stm32g4xx_ll_dma.h ****   * @brief  Clear Channel 6 global interrupt flag.
1991:Drivers/STM32G4xx_HAL_Driver/Inc/stm32g4xx_ll_dma.h ****   * @rmtoll IFCR         CGIF6         LL_DMA_ClearFlag_GI6
ARM GAS  /tmp/cc2tlrck.s 			page 42


1992:Drivers/STM32G4xx_HAL_Driver/Inc/stm32g4xx_ll_dma.h ****   * @param  DMAx DMAx Instance
1993:Drivers/STM32G4xx_HAL_Driver/Inc/stm32g4xx_ll_dma.h ****   * @retval None
1994:Drivers/STM32G4xx_HAL_Driver/Inc/stm32g4xx_ll_dma.h ****   */
1995:Drivers/STM32G4xx_HAL_Driver/Inc/stm32g4xx_ll_dma.h **** __STATIC_INLINE void LL_DMA_ClearFlag_GI6(DMA_TypeDef *DMAx)
1996:Drivers/STM32G4xx_HAL_Driver/Inc/stm32g4xx_ll_dma.h **** {
1997:Drivers/STM32G4xx_HAL_Driver/Inc/stm32g4xx_ll_dma.h ****   WRITE_REG(DMAx->IFCR, DMA_IFCR_CGIF6);
1998:Drivers/STM32G4xx_HAL_Driver/Inc/stm32g4xx_ll_dma.h **** }
1999:Drivers/STM32G4xx_HAL_Driver/Inc/stm32g4xx_ll_dma.h **** 
2000:Drivers/STM32G4xx_HAL_Driver/Inc/stm32g4xx_ll_dma.h **** #if defined (DMA1_Channel7)
2001:Drivers/STM32G4xx_HAL_Driver/Inc/stm32g4xx_ll_dma.h **** /**
2002:Drivers/STM32G4xx_HAL_Driver/Inc/stm32g4xx_ll_dma.h ****   * @brief  Clear Channel 7 global interrupt flag.
2003:Drivers/STM32G4xx_HAL_Driver/Inc/stm32g4xx_ll_dma.h ****   * @rmtoll IFCR         CGIF7         LL_DMA_ClearFlag_GI7
2004:Drivers/STM32G4xx_HAL_Driver/Inc/stm32g4xx_ll_dma.h ****   * @param  DMAx DMAx Instance
2005:Drivers/STM32G4xx_HAL_Driver/Inc/stm32g4xx_ll_dma.h ****   * @retval None
2006:Drivers/STM32G4xx_HAL_Driver/Inc/stm32g4xx_ll_dma.h ****   */
2007:Drivers/STM32G4xx_HAL_Driver/Inc/stm32g4xx_ll_dma.h **** __STATIC_INLINE void LL_DMA_ClearFlag_GI7(DMA_TypeDef *DMAx)
2008:Drivers/STM32G4xx_HAL_Driver/Inc/stm32g4xx_ll_dma.h **** {
2009:Drivers/STM32G4xx_HAL_Driver/Inc/stm32g4xx_ll_dma.h ****   WRITE_REG(DMAx->IFCR, DMA_IFCR_CGIF7);
2010:Drivers/STM32G4xx_HAL_Driver/Inc/stm32g4xx_ll_dma.h **** }
2011:Drivers/STM32G4xx_HAL_Driver/Inc/stm32g4xx_ll_dma.h **** #endif /* DMA1_Channel7 */
2012:Drivers/STM32G4xx_HAL_Driver/Inc/stm32g4xx_ll_dma.h **** 
2013:Drivers/STM32G4xx_HAL_Driver/Inc/stm32g4xx_ll_dma.h **** #if defined (DMA1_Channel8)
2014:Drivers/STM32G4xx_HAL_Driver/Inc/stm32g4xx_ll_dma.h **** /**
2015:Drivers/STM32G4xx_HAL_Driver/Inc/stm32g4xx_ll_dma.h ****   * @brief  Clear Channel 8 global interrupt flag.
2016:Drivers/STM32G4xx_HAL_Driver/Inc/stm32g4xx_ll_dma.h ****   * @rmtoll IFCR         CGIF8         LL_DMA_ClearFlag_GI8
2017:Drivers/STM32G4xx_HAL_Driver/Inc/stm32g4xx_ll_dma.h ****   * @param  DMAx DMAx Instance
2018:Drivers/STM32G4xx_HAL_Driver/Inc/stm32g4xx_ll_dma.h ****   * @retval None
2019:Drivers/STM32G4xx_HAL_Driver/Inc/stm32g4xx_ll_dma.h ****   */
2020:Drivers/STM32G4xx_HAL_Driver/Inc/stm32g4xx_ll_dma.h **** __STATIC_INLINE void LL_DMA_ClearFlag_GI8(DMA_TypeDef *DMAx)
2021:Drivers/STM32G4xx_HAL_Driver/Inc/stm32g4xx_ll_dma.h **** {
2022:Drivers/STM32G4xx_HAL_Driver/Inc/stm32g4xx_ll_dma.h ****   WRITE_REG(DMAx->IFCR, DMA_IFCR_CGIF8);
2023:Drivers/STM32G4xx_HAL_Driver/Inc/stm32g4xx_ll_dma.h **** }
2024:Drivers/STM32G4xx_HAL_Driver/Inc/stm32g4xx_ll_dma.h **** #endif /* DMA1_Channel8 */
2025:Drivers/STM32G4xx_HAL_Driver/Inc/stm32g4xx_ll_dma.h **** 
2026:Drivers/STM32G4xx_HAL_Driver/Inc/stm32g4xx_ll_dma.h **** /**
2027:Drivers/STM32G4xx_HAL_Driver/Inc/stm32g4xx_ll_dma.h ****   * @brief  Clear Channel 1  transfer complete flag.
2028:Drivers/STM32G4xx_HAL_Driver/Inc/stm32g4xx_ll_dma.h ****   * @rmtoll IFCR         CTCIF1        LL_DMA_ClearFlag_TC1
2029:Drivers/STM32G4xx_HAL_Driver/Inc/stm32g4xx_ll_dma.h ****   * @param  DMAx DMAx Instance
2030:Drivers/STM32G4xx_HAL_Driver/Inc/stm32g4xx_ll_dma.h ****   * @retval None
2031:Drivers/STM32G4xx_HAL_Driver/Inc/stm32g4xx_ll_dma.h ****   */
2032:Drivers/STM32G4xx_HAL_Driver/Inc/stm32g4xx_ll_dma.h **** __STATIC_INLINE void LL_DMA_ClearFlag_TC1(DMA_TypeDef *DMAx)
2033:Drivers/STM32G4xx_HAL_Driver/Inc/stm32g4xx_ll_dma.h **** {
2034:Drivers/STM32G4xx_HAL_Driver/Inc/stm32g4xx_ll_dma.h ****   WRITE_REG(DMAx->IFCR, DMA_IFCR_CTCIF1);
2035:Drivers/STM32G4xx_HAL_Driver/Inc/stm32g4xx_ll_dma.h **** }
2036:Drivers/STM32G4xx_HAL_Driver/Inc/stm32g4xx_ll_dma.h **** 
2037:Drivers/STM32G4xx_HAL_Driver/Inc/stm32g4xx_ll_dma.h **** /**
2038:Drivers/STM32G4xx_HAL_Driver/Inc/stm32g4xx_ll_dma.h ****   * @brief  Clear Channel 2  transfer complete flag.
2039:Drivers/STM32G4xx_HAL_Driver/Inc/stm32g4xx_ll_dma.h ****   * @rmtoll IFCR         CTCIF2        LL_DMA_ClearFlag_TC2
2040:Drivers/STM32G4xx_HAL_Driver/Inc/stm32g4xx_ll_dma.h ****   * @param  DMAx DMAx Instance
2041:Drivers/STM32G4xx_HAL_Driver/Inc/stm32g4xx_ll_dma.h ****   * @retval None
2042:Drivers/STM32G4xx_HAL_Driver/Inc/stm32g4xx_ll_dma.h ****   */
2043:Drivers/STM32G4xx_HAL_Driver/Inc/stm32g4xx_ll_dma.h **** __STATIC_INLINE void LL_DMA_ClearFlag_TC2(DMA_TypeDef *DMAx)
2044:Drivers/STM32G4xx_HAL_Driver/Inc/stm32g4xx_ll_dma.h **** {
2045:Drivers/STM32G4xx_HAL_Driver/Inc/stm32g4xx_ll_dma.h ****   WRITE_REG(DMAx->IFCR, DMA_IFCR_CTCIF2);
2046:Drivers/STM32G4xx_HAL_Driver/Inc/stm32g4xx_ll_dma.h **** }
2047:Drivers/STM32G4xx_HAL_Driver/Inc/stm32g4xx_ll_dma.h **** 
2048:Drivers/STM32G4xx_HAL_Driver/Inc/stm32g4xx_ll_dma.h **** /**
ARM GAS  /tmp/cc2tlrck.s 			page 43


2049:Drivers/STM32G4xx_HAL_Driver/Inc/stm32g4xx_ll_dma.h ****   * @brief  Clear Channel 3  transfer complete flag.
2050:Drivers/STM32G4xx_HAL_Driver/Inc/stm32g4xx_ll_dma.h ****   * @rmtoll IFCR         CTCIF3        LL_DMA_ClearFlag_TC3
2051:Drivers/STM32G4xx_HAL_Driver/Inc/stm32g4xx_ll_dma.h ****   * @param  DMAx DMAx Instance
2052:Drivers/STM32G4xx_HAL_Driver/Inc/stm32g4xx_ll_dma.h ****   * @retval None
2053:Drivers/STM32G4xx_HAL_Driver/Inc/stm32g4xx_ll_dma.h ****   */
2054:Drivers/STM32G4xx_HAL_Driver/Inc/stm32g4xx_ll_dma.h **** __STATIC_INLINE void LL_DMA_ClearFlag_TC3(DMA_TypeDef *DMAx)
2055:Drivers/STM32G4xx_HAL_Driver/Inc/stm32g4xx_ll_dma.h **** {
2056:Drivers/STM32G4xx_HAL_Driver/Inc/stm32g4xx_ll_dma.h ****   WRITE_REG(DMAx->IFCR, DMA_IFCR_CTCIF3);
2057:Drivers/STM32G4xx_HAL_Driver/Inc/stm32g4xx_ll_dma.h **** }
2058:Drivers/STM32G4xx_HAL_Driver/Inc/stm32g4xx_ll_dma.h **** 
2059:Drivers/STM32G4xx_HAL_Driver/Inc/stm32g4xx_ll_dma.h **** /**
2060:Drivers/STM32G4xx_HAL_Driver/Inc/stm32g4xx_ll_dma.h ****   * @brief  Clear Channel 4  transfer complete flag.
2061:Drivers/STM32G4xx_HAL_Driver/Inc/stm32g4xx_ll_dma.h ****   * @rmtoll IFCR         CTCIF4        LL_DMA_ClearFlag_TC4
2062:Drivers/STM32G4xx_HAL_Driver/Inc/stm32g4xx_ll_dma.h ****   * @param  DMAx DMAx Instance
2063:Drivers/STM32G4xx_HAL_Driver/Inc/stm32g4xx_ll_dma.h ****   * @retval None
2064:Drivers/STM32G4xx_HAL_Driver/Inc/stm32g4xx_ll_dma.h ****   */
2065:Drivers/STM32G4xx_HAL_Driver/Inc/stm32g4xx_ll_dma.h **** __STATIC_INLINE void LL_DMA_ClearFlag_TC4(DMA_TypeDef *DMAx)
2066:Drivers/STM32G4xx_HAL_Driver/Inc/stm32g4xx_ll_dma.h **** {
2067:Drivers/STM32G4xx_HAL_Driver/Inc/stm32g4xx_ll_dma.h ****   WRITE_REG(DMAx->IFCR, DMA_IFCR_CTCIF4);
2068:Drivers/STM32G4xx_HAL_Driver/Inc/stm32g4xx_ll_dma.h **** }
2069:Drivers/STM32G4xx_HAL_Driver/Inc/stm32g4xx_ll_dma.h **** 
2070:Drivers/STM32G4xx_HAL_Driver/Inc/stm32g4xx_ll_dma.h **** /**
2071:Drivers/STM32G4xx_HAL_Driver/Inc/stm32g4xx_ll_dma.h ****   * @brief  Clear Channel 5  transfer complete flag.
2072:Drivers/STM32G4xx_HAL_Driver/Inc/stm32g4xx_ll_dma.h ****   * @rmtoll IFCR         CTCIF5        LL_DMA_ClearFlag_TC5
2073:Drivers/STM32G4xx_HAL_Driver/Inc/stm32g4xx_ll_dma.h ****   * @param  DMAx DMAx Instance
2074:Drivers/STM32G4xx_HAL_Driver/Inc/stm32g4xx_ll_dma.h ****   * @retval None
2075:Drivers/STM32G4xx_HAL_Driver/Inc/stm32g4xx_ll_dma.h ****   */
2076:Drivers/STM32G4xx_HAL_Driver/Inc/stm32g4xx_ll_dma.h **** __STATIC_INLINE void LL_DMA_ClearFlag_TC5(DMA_TypeDef *DMAx)
2077:Drivers/STM32G4xx_HAL_Driver/Inc/stm32g4xx_ll_dma.h **** {
2078:Drivers/STM32G4xx_HAL_Driver/Inc/stm32g4xx_ll_dma.h ****   WRITE_REG(DMAx->IFCR, DMA_IFCR_CTCIF5);
2079:Drivers/STM32G4xx_HAL_Driver/Inc/stm32g4xx_ll_dma.h **** }
2080:Drivers/STM32G4xx_HAL_Driver/Inc/stm32g4xx_ll_dma.h **** 
2081:Drivers/STM32G4xx_HAL_Driver/Inc/stm32g4xx_ll_dma.h **** /**
2082:Drivers/STM32G4xx_HAL_Driver/Inc/stm32g4xx_ll_dma.h ****   * @brief  Clear Channel 6  transfer complete flag.
2083:Drivers/STM32G4xx_HAL_Driver/Inc/stm32g4xx_ll_dma.h ****   * @rmtoll IFCR         CTCIF6        LL_DMA_ClearFlag_TC6
2084:Drivers/STM32G4xx_HAL_Driver/Inc/stm32g4xx_ll_dma.h ****   * @param  DMAx DMAx Instance
2085:Drivers/STM32G4xx_HAL_Driver/Inc/stm32g4xx_ll_dma.h ****   * @retval None
2086:Drivers/STM32G4xx_HAL_Driver/Inc/stm32g4xx_ll_dma.h ****   */
2087:Drivers/STM32G4xx_HAL_Driver/Inc/stm32g4xx_ll_dma.h **** __STATIC_INLINE void LL_DMA_ClearFlag_TC6(DMA_TypeDef *DMAx)
2088:Drivers/STM32G4xx_HAL_Driver/Inc/stm32g4xx_ll_dma.h **** {
2089:Drivers/STM32G4xx_HAL_Driver/Inc/stm32g4xx_ll_dma.h ****   WRITE_REG(DMAx->IFCR, DMA_IFCR_CTCIF6);
2090:Drivers/STM32G4xx_HAL_Driver/Inc/stm32g4xx_ll_dma.h **** }
2091:Drivers/STM32G4xx_HAL_Driver/Inc/stm32g4xx_ll_dma.h **** 
2092:Drivers/STM32G4xx_HAL_Driver/Inc/stm32g4xx_ll_dma.h **** #if defined (DMA1_Channel7)
2093:Drivers/STM32G4xx_HAL_Driver/Inc/stm32g4xx_ll_dma.h **** /**
2094:Drivers/STM32G4xx_HAL_Driver/Inc/stm32g4xx_ll_dma.h ****   * @brief  Clear Channel 7  transfer complete flag.
2095:Drivers/STM32G4xx_HAL_Driver/Inc/stm32g4xx_ll_dma.h ****   * @rmtoll IFCR         CTCIF7        LL_DMA_ClearFlag_TC7
2096:Drivers/STM32G4xx_HAL_Driver/Inc/stm32g4xx_ll_dma.h ****   * @param  DMAx DMAx Instance
2097:Drivers/STM32G4xx_HAL_Driver/Inc/stm32g4xx_ll_dma.h ****   * @retval None
2098:Drivers/STM32G4xx_HAL_Driver/Inc/stm32g4xx_ll_dma.h ****   */
2099:Drivers/STM32G4xx_HAL_Driver/Inc/stm32g4xx_ll_dma.h **** __STATIC_INLINE void LL_DMA_ClearFlag_TC7(DMA_TypeDef *DMAx)
2100:Drivers/STM32G4xx_HAL_Driver/Inc/stm32g4xx_ll_dma.h **** {
2101:Drivers/STM32G4xx_HAL_Driver/Inc/stm32g4xx_ll_dma.h ****   WRITE_REG(DMAx->IFCR, DMA_IFCR_CTCIF7);
2102:Drivers/STM32G4xx_HAL_Driver/Inc/stm32g4xx_ll_dma.h **** }
2103:Drivers/STM32G4xx_HAL_Driver/Inc/stm32g4xx_ll_dma.h **** #endif /* DMA1_Channel7 */
2104:Drivers/STM32G4xx_HAL_Driver/Inc/stm32g4xx_ll_dma.h **** 
2105:Drivers/STM32G4xx_HAL_Driver/Inc/stm32g4xx_ll_dma.h **** #if defined (DMA1_Channel8)
ARM GAS  /tmp/cc2tlrck.s 			page 44


2106:Drivers/STM32G4xx_HAL_Driver/Inc/stm32g4xx_ll_dma.h **** /**
2107:Drivers/STM32G4xx_HAL_Driver/Inc/stm32g4xx_ll_dma.h ****   * @brief  Clear Channel 8  transfer complete flag.
2108:Drivers/STM32G4xx_HAL_Driver/Inc/stm32g4xx_ll_dma.h ****   * @rmtoll IFCR         CTCIF8        LL_DMA_ClearFlag_TC8
2109:Drivers/STM32G4xx_HAL_Driver/Inc/stm32g4xx_ll_dma.h ****   * @param  DMAx DMAx Instance
2110:Drivers/STM32G4xx_HAL_Driver/Inc/stm32g4xx_ll_dma.h ****   * @retval None
2111:Drivers/STM32G4xx_HAL_Driver/Inc/stm32g4xx_ll_dma.h ****   */
2112:Drivers/STM32G4xx_HAL_Driver/Inc/stm32g4xx_ll_dma.h **** __STATIC_INLINE void LL_DMA_ClearFlag_TC8(DMA_TypeDef *DMAx)
2113:Drivers/STM32G4xx_HAL_Driver/Inc/stm32g4xx_ll_dma.h **** {
2114:Drivers/STM32G4xx_HAL_Driver/Inc/stm32g4xx_ll_dma.h ****   WRITE_REG(DMAx->IFCR, DMA_IFCR_CTCIF8);
2115:Drivers/STM32G4xx_HAL_Driver/Inc/stm32g4xx_ll_dma.h **** }
2116:Drivers/STM32G4xx_HAL_Driver/Inc/stm32g4xx_ll_dma.h **** #endif /* DMA1_Channel8 */
2117:Drivers/STM32G4xx_HAL_Driver/Inc/stm32g4xx_ll_dma.h **** 
2118:Drivers/STM32G4xx_HAL_Driver/Inc/stm32g4xx_ll_dma.h **** /**
2119:Drivers/STM32G4xx_HAL_Driver/Inc/stm32g4xx_ll_dma.h ****   * @brief  Clear Channel 1  half transfer flag.
2120:Drivers/STM32G4xx_HAL_Driver/Inc/stm32g4xx_ll_dma.h ****   * @rmtoll IFCR         CHTIF1        LL_DMA_ClearFlag_HT1
2121:Drivers/STM32G4xx_HAL_Driver/Inc/stm32g4xx_ll_dma.h ****   * @param  DMAx DMAx Instance
2122:Drivers/STM32G4xx_HAL_Driver/Inc/stm32g4xx_ll_dma.h ****   * @retval None
2123:Drivers/STM32G4xx_HAL_Driver/Inc/stm32g4xx_ll_dma.h ****   */
2124:Drivers/STM32G4xx_HAL_Driver/Inc/stm32g4xx_ll_dma.h **** __STATIC_INLINE void LL_DMA_ClearFlag_HT1(DMA_TypeDef *DMAx)
2125:Drivers/STM32G4xx_HAL_Driver/Inc/stm32g4xx_ll_dma.h **** {
2126:Drivers/STM32G4xx_HAL_Driver/Inc/stm32g4xx_ll_dma.h ****   WRITE_REG(DMAx->IFCR, DMA_IFCR_CHTIF1);
2127:Drivers/STM32G4xx_HAL_Driver/Inc/stm32g4xx_ll_dma.h **** }
2128:Drivers/STM32G4xx_HAL_Driver/Inc/stm32g4xx_ll_dma.h **** 
2129:Drivers/STM32G4xx_HAL_Driver/Inc/stm32g4xx_ll_dma.h **** /**
2130:Drivers/STM32G4xx_HAL_Driver/Inc/stm32g4xx_ll_dma.h ****   * @brief  Clear Channel 2  half transfer flag.
2131:Drivers/STM32G4xx_HAL_Driver/Inc/stm32g4xx_ll_dma.h ****   * @rmtoll IFCR         CHTIF2        LL_DMA_ClearFlag_HT2
2132:Drivers/STM32G4xx_HAL_Driver/Inc/stm32g4xx_ll_dma.h ****   * @param  DMAx DMAx Instance
2133:Drivers/STM32G4xx_HAL_Driver/Inc/stm32g4xx_ll_dma.h ****   * @retval None
2134:Drivers/STM32G4xx_HAL_Driver/Inc/stm32g4xx_ll_dma.h ****   */
2135:Drivers/STM32G4xx_HAL_Driver/Inc/stm32g4xx_ll_dma.h **** __STATIC_INLINE void LL_DMA_ClearFlag_HT2(DMA_TypeDef *DMAx)
2136:Drivers/STM32G4xx_HAL_Driver/Inc/stm32g4xx_ll_dma.h **** {
2137:Drivers/STM32G4xx_HAL_Driver/Inc/stm32g4xx_ll_dma.h ****   WRITE_REG(DMAx->IFCR, DMA_IFCR_CHTIF2);
2138:Drivers/STM32G4xx_HAL_Driver/Inc/stm32g4xx_ll_dma.h **** }
2139:Drivers/STM32G4xx_HAL_Driver/Inc/stm32g4xx_ll_dma.h **** 
2140:Drivers/STM32G4xx_HAL_Driver/Inc/stm32g4xx_ll_dma.h **** /**
2141:Drivers/STM32G4xx_HAL_Driver/Inc/stm32g4xx_ll_dma.h ****   * @brief  Clear Channel 3  half transfer flag.
2142:Drivers/STM32G4xx_HAL_Driver/Inc/stm32g4xx_ll_dma.h ****   * @rmtoll IFCR         CHTIF3        LL_DMA_ClearFlag_HT3
2143:Drivers/STM32G4xx_HAL_Driver/Inc/stm32g4xx_ll_dma.h ****   * @param  DMAx DMAx Instance
2144:Drivers/STM32G4xx_HAL_Driver/Inc/stm32g4xx_ll_dma.h ****   * @retval None
2145:Drivers/STM32G4xx_HAL_Driver/Inc/stm32g4xx_ll_dma.h ****   */
2146:Drivers/STM32G4xx_HAL_Driver/Inc/stm32g4xx_ll_dma.h **** __STATIC_INLINE void LL_DMA_ClearFlag_HT3(DMA_TypeDef *DMAx)
2147:Drivers/STM32G4xx_HAL_Driver/Inc/stm32g4xx_ll_dma.h **** {
2148:Drivers/STM32G4xx_HAL_Driver/Inc/stm32g4xx_ll_dma.h ****   WRITE_REG(DMAx->IFCR, DMA_IFCR_CHTIF3);
2149:Drivers/STM32G4xx_HAL_Driver/Inc/stm32g4xx_ll_dma.h **** }
2150:Drivers/STM32G4xx_HAL_Driver/Inc/stm32g4xx_ll_dma.h **** 
2151:Drivers/STM32G4xx_HAL_Driver/Inc/stm32g4xx_ll_dma.h **** /**
2152:Drivers/STM32G4xx_HAL_Driver/Inc/stm32g4xx_ll_dma.h ****   * @brief  Clear Channel 4  half transfer flag.
2153:Drivers/STM32G4xx_HAL_Driver/Inc/stm32g4xx_ll_dma.h ****   * @rmtoll IFCR         CHTIF4        LL_DMA_ClearFlag_HT4
2154:Drivers/STM32G4xx_HAL_Driver/Inc/stm32g4xx_ll_dma.h ****   * @param  DMAx DMAx Instance
2155:Drivers/STM32G4xx_HAL_Driver/Inc/stm32g4xx_ll_dma.h ****   * @retval None
2156:Drivers/STM32G4xx_HAL_Driver/Inc/stm32g4xx_ll_dma.h ****   */
2157:Drivers/STM32G4xx_HAL_Driver/Inc/stm32g4xx_ll_dma.h **** __STATIC_INLINE void LL_DMA_ClearFlag_HT4(DMA_TypeDef *DMAx)
2158:Drivers/STM32G4xx_HAL_Driver/Inc/stm32g4xx_ll_dma.h **** {
2159:Drivers/STM32G4xx_HAL_Driver/Inc/stm32g4xx_ll_dma.h ****   WRITE_REG(DMAx->IFCR, DMA_IFCR_CHTIF4);
2160:Drivers/STM32G4xx_HAL_Driver/Inc/stm32g4xx_ll_dma.h **** }
2161:Drivers/STM32G4xx_HAL_Driver/Inc/stm32g4xx_ll_dma.h **** 
2162:Drivers/STM32G4xx_HAL_Driver/Inc/stm32g4xx_ll_dma.h **** /**
ARM GAS  /tmp/cc2tlrck.s 			page 45


2163:Drivers/STM32G4xx_HAL_Driver/Inc/stm32g4xx_ll_dma.h ****   * @brief  Clear Channel 5  half transfer flag.
2164:Drivers/STM32G4xx_HAL_Driver/Inc/stm32g4xx_ll_dma.h ****   * @rmtoll IFCR         CHTIF5        LL_DMA_ClearFlag_HT5
2165:Drivers/STM32G4xx_HAL_Driver/Inc/stm32g4xx_ll_dma.h ****   * @param  DMAx DMAx Instance
2166:Drivers/STM32G4xx_HAL_Driver/Inc/stm32g4xx_ll_dma.h ****   * @retval None
2167:Drivers/STM32G4xx_HAL_Driver/Inc/stm32g4xx_ll_dma.h ****   */
2168:Drivers/STM32G4xx_HAL_Driver/Inc/stm32g4xx_ll_dma.h **** __STATIC_INLINE void LL_DMA_ClearFlag_HT5(DMA_TypeDef *DMAx)
2169:Drivers/STM32G4xx_HAL_Driver/Inc/stm32g4xx_ll_dma.h **** {
2170:Drivers/STM32G4xx_HAL_Driver/Inc/stm32g4xx_ll_dma.h ****   WRITE_REG(DMAx->IFCR, DMA_IFCR_CHTIF5);
2171:Drivers/STM32G4xx_HAL_Driver/Inc/stm32g4xx_ll_dma.h **** }
2172:Drivers/STM32G4xx_HAL_Driver/Inc/stm32g4xx_ll_dma.h **** 
2173:Drivers/STM32G4xx_HAL_Driver/Inc/stm32g4xx_ll_dma.h **** /**
2174:Drivers/STM32G4xx_HAL_Driver/Inc/stm32g4xx_ll_dma.h ****   * @brief  Clear Channel 6  half transfer flag.
2175:Drivers/STM32G4xx_HAL_Driver/Inc/stm32g4xx_ll_dma.h ****   * @rmtoll IFCR         CHTIF6        LL_DMA_ClearFlag_HT6
2176:Drivers/STM32G4xx_HAL_Driver/Inc/stm32g4xx_ll_dma.h ****   * @param  DMAx DMAx Instance
2177:Drivers/STM32G4xx_HAL_Driver/Inc/stm32g4xx_ll_dma.h ****   * @retval None
2178:Drivers/STM32G4xx_HAL_Driver/Inc/stm32g4xx_ll_dma.h ****   */
2179:Drivers/STM32G4xx_HAL_Driver/Inc/stm32g4xx_ll_dma.h **** __STATIC_INLINE void LL_DMA_ClearFlag_HT6(DMA_TypeDef *DMAx)
2180:Drivers/STM32G4xx_HAL_Driver/Inc/stm32g4xx_ll_dma.h **** {
2181:Drivers/STM32G4xx_HAL_Driver/Inc/stm32g4xx_ll_dma.h ****   WRITE_REG(DMAx->IFCR, DMA_IFCR_CHTIF6);
2182:Drivers/STM32G4xx_HAL_Driver/Inc/stm32g4xx_ll_dma.h **** }
2183:Drivers/STM32G4xx_HAL_Driver/Inc/stm32g4xx_ll_dma.h **** 
2184:Drivers/STM32G4xx_HAL_Driver/Inc/stm32g4xx_ll_dma.h **** #if defined (DMA1_Channel7)
2185:Drivers/STM32G4xx_HAL_Driver/Inc/stm32g4xx_ll_dma.h **** /**
2186:Drivers/STM32G4xx_HAL_Driver/Inc/stm32g4xx_ll_dma.h ****   * @brief  Clear Channel 7  half transfer flag.
2187:Drivers/STM32G4xx_HAL_Driver/Inc/stm32g4xx_ll_dma.h ****   * @rmtoll IFCR         CHTIF7        LL_DMA_ClearFlag_HT7
2188:Drivers/STM32G4xx_HAL_Driver/Inc/stm32g4xx_ll_dma.h ****   * @param  DMAx DMAx Instance
2189:Drivers/STM32G4xx_HAL_Driver/Inc/stm32g4xx_ll_dma.h ****   * @retval None
2190:Drivers/STM32G4xx_HAL_Driver/Inc/stm32g4xx_ll_dma.h ****   */
2191:Drivers/STM32G4xx_HAL_Driver/Inc/stm32g4xx_ll_dma.h **** __STATIC_INLINE void LL_DMA_ClearFlag_HT7(DMA_TypeDef *DMAx)
2192:Drivers/STM32G4xx_HAL_Driver/Inc/stm32g4xx_ll_dma.h **** {
2193:Drivers/STM32G4xx_HAL_Driver/Inc/stm32g4xx_ll_dma.h ****   WRITE_REG(DMAx->IFCR, DMA_IFCR_CHTIF7);
2194:Drivers/STM32G4xx_HAL_Driver/Inc/stm32g4xx_ll_dma.h **** }
2195:Drivers/STM32G4xx_HAL_Driver/Inc/stm32g4xx_ll_dma.h **** #endif /* DMA1_Channel7 */
2196:Drivers/STM32G4xx_HAL_Driver/Inc/stm32g4xx_ll_dma.h **** 
2197:Drivers/STM32G4xx_HAL_Driver/Inc/stm32g4xx_ll_dma.h **** #if defined (DMA1_Channel8)
2198:Drivers/STM32G4xx_HAL_Driver/Inc/stm32g4xx_ll_dma.h **** /**
2199:Drivers/STM32G4xx_HAL_Driver/Inc/stm32g4xx_ll_dma.h ****   * @brief  Clear Channel 8  half transfer flag.
2200:Drivers/STM32G4xx_HAL_Driver/Inc/stm32g4xx_ll_dma.h ****   * @rmtoll IFCR         CHTIF8        LL_DMA_ClearFlag_HT8
2201:Drivers/STM32G4xx_HAL_Driver/Inc/stm32g4xx_ll_dma.h ****   * @param  DMAx DMAx Instance
2202:Drivers/STM32G4xx_HAL_Driver/Inc/stm32g4xx_ll_dma.h ****   * @retval None
2203:Drivers/STM32G4xx_HAL_Driver/Inc/stm32g4xx_ll_dma.h ****   */
2204:Drivers/STM32G4xx_HAL_Driver/Inc/stm32g4xx_ll_dma.h **** __STATIC_INLINE void LL_DMA_ClearFlag_HT8(DMA_TypeDef *DMAx)
2205:Drivers/STM32G4xx_HAL_Driver/Inc/stm32g4xx_ll_dma.h **** {
2206:Drivers/STM32G4xx_HAL_Driver/Inc/stm32g4xx_ll_dma.h ****   WRITE_REG(DMAx->IFCR, DMA_IFCR_CHTIF8);
2207:Drivers/STM32G4xx_HAL_Driver/Inc/stm32g4xx_ll_dma.h **** }
2208:Drivers/STM32G4xx_HAL_Driver/Inc/stm32g4xx_ll_dma.h **** #endif /* DMA1_Channel8 */
2209:Drivers/STM32G4xx_HAL_Driver/Inc/stm32g4xx_ll_dma.h **** 
2210:Drivers/STM32G4xx_HAL_Driver/Inc/stm32g4xx_ll_dma.h **** /**
2211:Drivers/STM32G4xx_HAL_Driver/Inc/stm32g4xx_ll_dma.h ****   * @brief  Clear Channel 1 transfer error flag.
2212:Drivers/STM32G4xx_HAL_Driver/Inc/stm32g4xx_ll_dma.h ****   * @rmtoll IFCR         CTEIF1        LL_DMA_ClearFlag_TE1
2213:Drivers/STM32G4xx_HAL_Driver/Inc/stm32g4xx_ll_dma.h ****   * @param  DMAx DMAx Instance
2214:Drivers/STM32G4xx_HAL_Driver/Inc/stm32g4xx_ll_dma.h ****   * @retval None
2215:Drivers/STM32G4xx_HAL_Driver/Inc/stm32g4xx_ll_dma.h ****   */
2216:Drivers/STM32G4xx_HAL_Driver/Inc/stm32g4xx_ll_dma.h **** __STATIC_INLINE void LL_DMA_ClearFlag_TE1(DMA_TypeDef *DMAx)
2217:Drivers/STM32G4xx_HAL_Driver/Inc/stm32g4xx_ll_dma.h **** {
2218:Drivers/STM32G4xx_HAL_Driver/Inc/stm32g4xx_ll_dma.h ****   WRITE_REG(DMAx->IFCR, DMA_IFCR_CTEIF1);
2219:Drivers/STM32G4xx_HAL_Driver/Inc/stm32g4xx_ll_dma.h **** }
ARM GAS  /tmp/cc2tlrck.s 			page 46


2220:Drivers/STM32G4xx_HAL_Driver/Inc/stm32g4xx_ll_dma.h **** 
2221:Drivers/STM32G4xx_HAL_Driver/Inc/stm32g4xx_ll_dma.h **** /**
2222:Drivers/STM32G4xx_HAL_Driver/Inc/stm32g4xx_ll_dma.h ****   * @brief  Clear Channel 2 transfer error flag.
2223:Drivers/STM32G4xx_HAL_Driver/Inc/stm32g4xx_ll_dma.h ****   * @rmtoll IFCR         CTEIF2        LL_DMA_ClearFlag_TE2
2224:Drivers/STM32G4xx_HAL_Driver/Inc/stm32g4xx_ll_dma.h ****   * @param  DMAx DMAx Instance
2225:Drivers/STM32G4xx_HAL_Driver/Inc/stm32g4xx_ll_dma.h ****   * @retval None
2226:Drivers/STM32G4xx_HAL_Driver/Inc/stm32g4xx_ll_dma.h ****   */
2227:Drivers/STM32G4xx_HAL_Driver/Inc/stm32g4xx_ll_dma.h **** __STATIC_INLINE void LL_DMA_ClearFlag_TE2(DMA_TypeDef *DMAx)
2228:Drivers/STM32G4xx_HAL_Driver/Inc/stm32g4xx_ll_dma.h **** {
2229:Drivers/STM32G4xx_HAL_Driver/Inc/stm32g4xx_ll_dma.h ****   WRITE_REG(DMAx->IFCR, DMA_IFCR_CTEIF2);
2230:Drivers/STM32G4xx_HAL_Driver/Inc/stm32g4xx_ll_dma.h **** }
2231:Drivers/STM32G4xx_HAL_Driver/Inc/stm32g4xx_ll_dma.h **** 
2232:Drivers/STM32G4xx_HAL_Driver/Inc/stm32g4xx_ll_dma.h **** /**
2233:Drivers/STM32G4xx_HAL_Driver/Inc/stm32g4xx_ll_dma.h ****   * @brief  Clear Channel 3 transfer error flag.
2234:Drivers/STM32G4xx_HAL_Driver/Inc/stm32g4xx_ll_dma.h ****   * @rmtoll IFCR         CTEIF3        LL_DMA_ClearFlag_TE3
2235:Drivers/STM32G4xx_HAL_Driver/Inc/stm32g4xx_ll_dma.h ****   * @param  DMAx DMAx Instance
2236:Drivers/STM32G4xx_HAL_Driver/Inc/stm32g4xx_ll_dma.h ****   * @retval None
2237:Drivers/STM32G4xx_HAL_Driver/Inc/stm32g4xx_ll_dma.h ****   */
2238:Drivers/STM32G4xx_HAL_Driver/Inc/stm32g4xx_ll_dma.h **** __STATIC_INLINE void LL_DMA_ClearFlag_TE3(DMA_TypeDef *DMAx)
2239:Drivers/STM32G4xx_HAL_Driver/Inc/stm32g4xx_ll_dma.h **** {
2240:Drivers/STM32G4xx_HAL_Driver/Inc/stm32g4xx_ll_dma.h ****   WRITE_REG(DMAx->IFCR, DMA_IFCR_CTEIF3);
2241:Drivers/STM32G4xx_HAL_Driver/Inc/stm32g4xx_ll_dma.h **** }
2242:Drivers/STM32G4xx_HAL_Driver/Inc/stm32g4xx_ll_dma.h **** 
2243:Drivers/STM32G4xx_HAL_Driver/Inc/stm32g4xx_ll_dma.h **** /**
2244:Drivers/STM32G4xx_HAL_Driver/Inc/stm32g4xx_ll_dma.h ****   * @brief  Clear Channel 4 transfer error flag.
2245:Drivers/STM32G4xx_HAL_Driver/Inc/stm32g4xx_ll_dma.h ****   * @rmtoll IFCR         CTEIF4        LL_DMA_ClearFlag_TE4
2246:Drivers/STM32G4xx_HAL_Driver/Inc/stm32g4xx_ll_dma.h ****   * @param  DMAx DMAx Instance
2247:Drivers/STM32G4xx_HAL_Driver/Inc/stm32g4xx_ll_dma.h ****   * @retval None
2248:Drivers/STM32G4xx_HAL_Driver/Inc/stm32g4xx_ll_dma.h ****   */
2249:Drivers/STM32G4xx_HAL_Driver/Inc/stm32g4xx_ll_dma.h **** __STATIC_INLINE void LL_DMA_ClearFlag_TE4(DMA_TypeDef *DMAx)
2250:Drivers/STM32G4xx_HAL_Driver/Inc/stm32g4xx_ll_dma.h **** {
2251:Drivers/STM32G4xx_HAL_Driver/Inc/stm32g4xx_ll_dma.h ****   WRITE_REG(DMAx->IFCR, DMA_IFCR_CTEIF4);
2252:Drivers/STM32G4xx_HAL_Driver/Inc/stm32g4xx_ll_dma.h **** }
2253:Drivers/STM32G4xx_HAL_Driver/Inc/stm32g4xx_ll_dma.h **** 
2254:Drivers/STM32G4xx_HAL_Driver/Inc/stm32g4xx_ll_dma.h **** /**
2255:Drivers/STM32G4xx_HAL_Driver/Inc/stm32g4xx_ll_dma.h ****   * @brief  Clear Channel 5 transfer error flag.
2256:Drivers/STM32G4xx_HAL_Driver/Inc/stm32g4xx_ll_dma.h ****   * @rmtoll IFCR         CTEIF5        LL_DMA_ClearFlag_TE5
2257:Drivers/STM32G4xx_HAL_Driver/Inc/stm32g4xx_ll_dma.h ****   * @param  DMAx DMAx Instance
2258:Drivers/STM32G4xx_HAL_Driver/Inc/stm32g4xx_ll_dma.h ****   * @retval None
2259:Drivers/STM32G4xx_HAL_Driver/Inc/stm32g4xx_ll_dma.h ****   */
