ARM GAS  /tmp/ccR9GgNa.s 			page 1


   1              		.cpu cortex-m4
   2              		.eabi_attribute 27, 1
   3              		.eabi_attribute 28, 1
   4              		.eabi_attribute 20, 1
   5              		.eabi_attribute 21, 1
   6              		.eabi_attribute 23, 3
   7              		.eabi_attribute 24, 1
   8              		.eabi_attribute 25, 1
   9              		.eabi_attribute 26, 1
  10              		.eabi_attribute 30, 2
  11              		.eabi_attribute 34, 1
  12              		.eabi_attribute 18, 4
  13              		.file	"stm32g4xx_hal_cordic.c"
  14              		.text
  15              	.Ltext0:
  16              		.cfi_sections	.debug_frame
  17              		.section	.text.HAL_CORDIC_MspInit,"ax",%progbits
  18              		.align	1
  19              		.p2align 2,,3
  20              		.weak	HAL_CORDIC_MspInit
  21              		.arch armv7e-m
  22              		.syntax unified
  23              		.thumb
  24              		.thumb_func
  25              		.fpu fpv4-sp-d16
  27              	HAL_CORDIC_MspInit:
  28              	.LVL0:
  29              	.LFB331:
  30              		.file 1 "Drivers/STM32G4xx_HAL_Driver/Src/stm32g4xx_hal_cordic.c"
   1:Drivers/STM32G4xx_HAL_Driver/Src/stm32g4xx_hal_cordic.c **** /**
   2:Drivers/STM32G4xx_HAL_Driver/Src/stm32g4xx_hal_cordic.c ****   ******************************************************************************
   3:Drivers/STM32G4xx_HAL_Driver/Src/stm32g4xx_hal_cordic.c ****   * @file    stm32g4xx_hal_cordic.c
   4:Drivers/STM32G4xx_HAL_Driver/Src/stm32g4xx_hal_cordic.c ****   * @author  MCD Application Team
   5:Drivers/STM32G4xx_HAL_Driver/Src/stm32g4xx_hal_cordic.c ****   * @brief   CORDIC HAL module driver.
   6:Drivers/STM32G4xx_HAL_Driver/Src/stm32g4xx_hal_cordic.c ****   *          This file provides firmware functions to manage the following
   7:Drivers/STM32G4xx_HAL_Driver/Src/stm32g4xx_hal_cordic.c ****   *          functionalities of the CORDIC peripheral:
   8:Drivers/STM32G4xx_HAL_Driver/Src/stm32g4xx_hal_cordic.c ****   *           + Initialization and de-initialization functions
   9:Drivers/STM32G4xx_HAL_Driver/Src/stm32g4xx_hal_cordic.c ****   *           + Peripheral Control functions
  10:Drivers/STM32G4xx_HAL_Driver/Src/stm32g4xx_hal_cordic.c ****   *           + Callback functions
  11:Drivers/STM32G4xx_HAL_Driver/Src/stm32g4xx_hal_cordic.c ****   *           + IRQ handler management
  12:Drivers/STM32G4xx_HAL_Driver/Src/stm32g4xx_hal_cordic.c ****   *           + Peripheral State functions
  13:Drivers/STM32G4xx_HAL_Driver/Src/stm32g4xx_hal_cordic.c ****   *
  14:Drivers/STM32G4xx_HAL_Driver/Src/stm32g4xx_hal_cordic.c ****   *  @verbatim
  15:Drivers/STM32G4xx_HAL_Driver/Src/stm32g4xx_hal_cordic.c ****   ================================================================================
  16:Drivers/STM32G4xx_HAL_Driver/Src/stm32g4xx_hal_cordic.c ****             ##### How to use this driver #####
  17:Drivers/STM32G4xx_HAL_Driver/Src/stm32g4xx_hal_cordic.c ****   ================================================================================
  18:Drivers/STM32G4xx_HAL_Driver/Src/stm32g4xx_hal_cordic.c ****     [..]
  19:Drivers/STM32G4xx_HAL_Driver/Src/stm32g4xx_hal_cordic.c ****       The CORDIC HAL driver can be used as follows:
  20:Drivers/STM32G4xx_HAL_Driver/Src/stm32g4xx_hal_cordic.c **** 
  21:Drivers/STM32G4xx_HAL_Driver/Src/stm32g4xx_hal_cordic.c ****       (#) Initialize the CORDIC low level resources by implementing the HAL_CORDIC_MspInit():
  22:Drivers/STM32G4xx_HAL_Driver/Src/stm32g4xx_hal_cordic.c ****          (++) Enable the CORDIC interface clock using __HAL_RCC_CORDIC_CLK_ENABLE()
  23:Drivers/STM32G4xx_HAL_Driver/Src/stm32g4xx_hal_cordic.c ****          (++) In case of using interrupts (e.g. HAL_CORDIC_Calculate_IT())
  24:Drivers/STM32G4xx_HAL_Driver/Src/stm32g4xx_hal_cordic.c ****              (+++) Configure the CORDIC interrupt priority using HAL_NVIC_SetPriority()
  25:Drivers/STM32G4xx_HAL_Driver/Src/stm32g4xx_hal_cordic.c ****              (+++) Enable the CORDIC IRQ handler using HAL_NVIC_EnableIRQ()
  26:Drivers/STM32G4xx_HAL_Driver/Src/stm32g4xx_hal_cordic.c ****              (+++) In CORDIC IRQ handler, call HAL_CORDIC_IRQHandler()
  27:Drivers/STM32G4xx_HAL_Driver/Src/stm32g4xx_hal_cordic.c ****          (++) In case of using DMA to control data transfer (e.g. HAL_CORDIC_Calculate_DMA())
  28:Drivers/STM32G4xx_HAL_Driver/Src/stm32g4xx_hal_cordic.c ****              (+++) Enable the DMA2 interface clock using
ARM GAS  /tmp/ccR9GgNa.s 			page 2


  29:Drivers/STM32G4xx_HAL_Driver/Src/stm32g4xx_hal_cordic.c ****                  __HAL_RCC_DMA2_CLK_ENABLE()
  30:Drivers/STM32G4xx_HAL_Driver/Src/stm32g4xx_hal_cordic.c ****              (+++) Configure and enable two DMA channels one for managing data transfer from
  31:Drivers/STM32G4xx_HAL_Driver/Src/stm32g4xx_hal_cordic.c ****                  memory to peripheral (input channel) and another channel for managing data
  32:Drivers/STM32G4xx_HAL_Driver/Src/stm32g4xx_hal_cordic.c ****                  transfer from peripheral to memory (output channel)
  33:Drivers/STM32G4xx_HAL_Driver/Src/stm32g4xx_hal_cordic.c ****              (+++) Associate the initialized DMA handle to the CORDIC DMA handle
  34:Drivers/STM32G4xx_HAL_Driver/Src/stm32g4xx_hal_cordic.c ****                  using __HAL_LINKDMA()
  35:Drivers/STM32G4xx_HAL_Driver/Src/stm32g4xx_hal_cordic.c ****              (+++) Configure the priority and enable the NVIC for the transfer complete
  36:Drivers/STM32G4xx_HAL_Driver/Src/stm32g4xx_hal_cordic.c ****                  interrupt on the two DMA channels.
  37:Drivers/STM32G4xx_HAL_Driver/Src/stm32g4xx_hal_cordic.c ****                  Resort to HAL_NVIC_SetPriority() and HAL_NVIC_EnableIRQ()
  38:Drivers/STM32G4xx_HAL_Driver/Src/stm32g4xx_hal_cordic.c **** 
  39:Drivers/STM32G4xx_HAL_Driver/Src/stm32g4xx_hal_cordic.c ****       (#) Initialize the CORDIC HAL using HAL_CORDIC_Init(). This function
  40:Drivers/STM32G4xx_HAL_Driver/Src/stm32g4xx_hal_cordic.c ****          (++) resorts to HAL_CORDIC_MspInit() for low-level initialization,
  41:Drivers/STM32G4xx_HAL_Driver/Src/stm32g4xx_hal_cordic.c **** 
  42:Drivers/STM32G4xx_HAL_Driver/Src/stm32g4xx_hal_cordic.c ****       (#) Configure CORDIC processing (calculation) using HAL_CORDIC_Configure().
  43:Drivers/STM32G4xx_HAL_Driver/Src/stm32g4xx_hal_cordic.c ****           This function configures:
  44:Drivers/STM32G4xx_HAL_Driver/Src/stm32g4xx_hal_cordic.c ****          (++) Processing functions: Cosine, Sine, Phase, Modulus, Arctangent,
  45:Drivers/STM32G4xx_HAL_Driver/Src/stm32g4xx_hal_cordic.c ****               Hyperbolic cosine, Hyperbolic sine, Hyperbolic arctangent,
  46:Drivers/STM32G4xx_HAL_Driver/Src/stm32g4xx_hal_cordic.c ****               Natural log, Square root
  47:Drivers/STM32G4xx_HAL_Driver/Src/stm32g4xx_hal_cordic.c ****          (++) Scaling factor: 1 to 2exp(-7)
  48:Drivers/STM32G4xx_HAL_Driver/Src/stm32g4xx_hal_cordic.c ****          (++) Width of input data: 32 bits input data size (Q1.31 format) or 16 bits
  49:Drivers/STM32G4xx_HAL_Driver/Src/stm32g4xx_hal_cordic.c ****               input data size (Q1.15 format)
  50:Drivers/STM32G4xx_HAL_Driver/Src/stm32g4xx_hal_cordic.c ****          (++) Width of output data: 32 bits output data size (Q1.31 format) or 16 bits
  51:Drivers/STM32G4xx_HAL_Driver/Src/stm32g4xx_hal_cordic.c ****               output data size (Q1.15 format)
  52:Drivers/STM32G4xx_HAL_Driver/Src/stm32g4xx_hal_cordic.c ****          (++) Number of 32-bit write expected for one calculation: One 32-bits write
  53:Drivers/STM32G4xx_HAL_Driver/Src/stm32g4xx_hal_cordic.c ****               or Two 32-bit write
  54:Drivers/STM32G4xx_HAL_Driver/Src/stm32g4xx_hal_cordic.c ****          (++) Number of 32-bit read expected after one calculation: One 32-bits read
  55:Drivers/STM32G4xx_HAL_Driver/Src/stm32g4xx_hal_cordic.c ****               or Two 32-bit read
  56:Drivers/STM32G4xx_HAL_Driver/Src/stm32g4xx_hal_cordic.c ****          (++) Precision: 1 to 15 cycles for calculation (the more cycles, the better precision)
  57:Drivers/STM32G4xx_HAL_Driver/Src/stm32g4xx_hal_cordic.c **** 
  58:Drivers/STM32G4xx_HAL_Driver/Src/stm32g4xx_hal_cordic.c ****       (#) Four processing (calculation) functions are available:
  59:Drivers/STM32G4xx_HAL_Driver/Src/stm32g4xx_hal_cordic.c ****          (++) Polling mode: processing API is blocking function
  60:Drivers/STM32G4xx_HAL_Driver/Src/stm32g4xx_hal_cordic.c ****               i.e. it processes the data and wait till the processing is finished
  61:Drivers/STM32G4xx_HAL_Driver/Src/stm32g4xx_hal_cordic.c ****               API is HAL_CORDIC_Calculate
  62:Drivers/STM32G4xx_HAL_Driver/Src/stm32g4xx_hal_cordic.c ****          (++) Polling Zero-overhead mode: processing API is blocking function
  63:Drivers/STM32G4xx_HAL_Driver/Src/stm32g4xx_hal_cordic.c ****               i.e. it processes the data and wait till the processing is finished
  64:Drivers/STM32G4xx_HAL_Driver/Src/stm32g4xx_hal_cordic.c ****               A bit faster than standard polling mode, but blocking also AHB bus
  65:Drivers/STM32G4xx_HAL_Driver/Src/stm32g4xx_hal_cordic.c ****               API is HAL_CORDIC_CalculateZO
  66:Drivers/STM32G4xx_HAL_Driver/Src/stm32g4xx_hal_cordic.c ****          (++) Interrupt mode: processing API is not blocking functions
  67:Drivers/STM32G4xx_HAL_Driver/Src/stm32g4xx_hal_cordic.c ****               i.e. it processes the data under interrupt
  68:Drivers/STM32G4xx_HAL_Driver/Src/stm32g4xx_hal_cordic.c ****               API is HAL_CORDIC_Calculate_IT
  69:Drivers/STM32G4xx_HAL_Driver/Src/stm32g4xx_hal_cordic.c ****          (++) DMA mode: processing API is not blocking functions and the CPU is
  70:Drivers/STM32G4xx_HAL_Driver/Src/stm32g4xx_hal_cordic.c ****               not used for data transfer,
  71:Drivers/STM32G4xx_HAL_Driver/Src/stm32g4xx_hal_cordic.c ****               i.e. the data transfer is ensured by DMA
  72:Drivers/STM32G4xx_HAL_Driver/Src/stm32g4xx_hal_cordic.c ****               API is HAL_CORDIC_Calculate_DMA
  73:Drivers/STM32G4xx_HAL_Driver/Src/stm32g4xx_hal_cordic.c **** 
  74:Drivers/STM32G4xx_HAL_Driver/Src/stm32g4xx_hal_cordic.c ****       (#) Call HAL_CORDIC_DeInit() to de-initialize the CORDIC peripheral. This function
  75:Drivers/STM32G4xx_HAL_Driver/Src/stm32g4xx_hal_cordic.c ****          (++) resorts to HAL_CORDIC_MspDeInit() for low-level de-initialization,
  76:Drivers/STM32G4xx_HAL_Driver/Src/stm32g4xx_hal_cordic.c **** 
  77:Drivers/STM32G4xx_HAL_Driver/Src/stm32g4xx_hal_cordic.c ****   *** Callback registration ***
  78:Drivers/STM32G4xx_HAL_Driver/Src/stm32g4xx_hal_cordic.c ****   =============================================
  79:Drivers/STM32G4xx_HAL_Driver/Src/stm32g4xx_hal_cordic.c **** 
  80:Drivers/STM32G4xx_HAL_Driver/Src/stm32g4xx_hal_cordic.c ****   The compilation define  USE_HAL_CORDIC_REGISTER_CALLBACKS when set to 1
  81:Drivers/STM32G4xx_HAL_Driver/Src/stm32g4xx_hal_cordic.c ****   allows the user to configure dynamically the driver callbacks.
  82:Drivers/STM32G4xx_HAL_Driver/Src/stm32g4xx_hal_cordic.c ****   Use Function @ref HAL_CORDIC_RegisterCallback() to register an interrupt callback.
  83:Drivers/STM32G4xx_HAL_Driver/Src/stm32g4xx_hal_cordic.c **** 
  84:Drivers/STM32G4xx_HAL_Driver/Src/stm32g4xx_hal_cordic.c ****   Function @ref HAL_CORDIC_RegisterCallback() allows to register following callbacks:
  85:Drivers/STM32G4xx_HAL_Driver/Src/stm32g4xx_hal_cordic.c ****     (+) ErrorCallback             : Error Callback.
ARM GAS  /tmp/ccR9GgNa.s 			page 3


  86:Drivers/STM32G4xx_HAL_Driver/Src/stm32g4xx_hal_cordic.c ****     (+) CalculateCpltCallback     : Calculate complete Callback.
  87:Drivers/STM32G4xx_HAL_Driver/Src/stm32g4xx_hal_cordic.c ****     (+) MspInitCallback           : CORDIC MspInit.
  88:Drivers/STM32G4xx_HAL_Driver/Src/stm32g4xx_hal_cordic.c ****     (+) MspDeInitCallback         : CORDIC MspDeInit.
  89:Drivers/STM32G4xx_HAL_Driver/Src/stm32g4xx_hal_cordic.c ****   This function takes as parameters the HAL peripheral handle, the Callback ID
  90:Drivers/STM32G4xx_HAL_Driver/Src/stm32g4xx_hal_cordic.c ****   and a pointer to the user callback function.
  91:Drivers/STM32G4xx_HAL_Driver/Src/stm32g4xx_hal_cordic.c **** 
  92:Drivers/STM32G4xx_HAL_Driver/Src/stm32g4xx_hal_cordic.c ****   Use function @ref HAL_CORDIC_UnRegisterCallback() to reset a callback to the default
  93:Drivers/STM32G4xx_HAL_Driver/Src/stm32g4xx_hal_cordic.c ****   weak function.
  94:Drivers/STM32G4xx_HAL_Driver/Src/stm32g4xx_hal_cordic.c ****   @ref HAL_CORDIC_UnRegisterCallback takes as parameters the HAL peripheral handle,
  95:Drivers/STM32G4xx_HAL_Driver/Src/stm32g4xx_hal_cordic.c ****   and the Callback ID.
  96:Drivers/STM32G4xx_HAL_Driver/Src/stm32g4xx_hal_cordic.c ****   This function allows to reset following callbacks:
  97:Drivers/STM32G4xx_HAL_Driver/Src/stm32g4xx_hal_cordic.c ****     (+) ErrorCallback             : Error Callback.
  98:Drivers/STM32G4xx_HAL_Driver/Src/stm32g4xx_hal_cordic.c ****     (+) CalculateCpltCallback     : Calculate complete Callback.
  99:Drivers/STM32G4xx_HAL_Driver/Src/stm32g4xx_hal_cordic.c ****     (+) MspInitCallback           : CORDIC MspInit.
 100:Drivers/STM32G4xx_HAL_Driver/Src/stm32g4xx_hal_cordic.c ****     (+) MspDeInitCallback         : CORDIC MspDeInit.
 101:Drivers/STM32G4xx_HAL_Driver/Src/stm32g4xx_hal_cordic.c **** 
 102:Drivers/STM32G4xx_HAL_Driver/Src/stm32g4xx_hal_cordic.c ****   By default, after the HAL_CORDIC_Init() and when the state is HAL_CORDIC_STATE_RESET,
 103:Drivers/STM32G4xx_HAL_Driver/Src/stm32g4xx_hal_cordic.c ****   all callbacks are set to the corresponding weak functions:
 104:Drivers/STM32G4xx_HAL_Driver/Src/stm32g4xx_hal_cordic.c ****   examples @ref HAL_CORDIC_ErrorCallback(), @ref HAL_CORDIC_CalculateCpltCallback().
 105:Drivers/STM32G4xx_HAL_Driver/Src/stm32g4xx_hal_cordic.c ****   Exception done for MspInit and MspDeInit functions that are
 106:Drivers/STM32G4xx_HAL_Driver/Src/stm32g4xx_hal_cordic.c ****   reset to the legacy weak function in the HAL_CORDIC_Init()/ @ref HAL_CORDIC_DeInit() only when
 107:Drivers/STM32G4xx_HAL_Driver/Src/stm32g4xx_hal_cordic.c ****   these callbacks are null (not registered beforehand).
 108:Drivers/STM32G4xx_HAL_Driver/Src/stm32g4xx_hal_cordic.c ****   if not, MspInit or MspDeInit are not null, the HAL_CORDIC_Init()/ @ref HAL_CORDIC_DeInit()
 109:Drivers/STM32G4xx_HAL_Driver/Src/stm32g4xx_hal_cordic.c ****   keep and use the user MspInit/MspDeInit callbacks (registered beforehand)
 110:Drivers/STM32G4xx_HAL_Driver/Src/stm32g4xx_hal_cordic.c **** 
 111:Drivers/STM32G4xx_HAL_Driver/Src/stm32g4xx_hal_cordic.c ****   Callbacks can be registered/unregistered in HAL_CORDIC_STATE_READY state only.
 112:Drivers/STM32G4xx_HAL_Driver/Src/stm32g4xx_hal_cordic.c ****   Exception done MspInit/MspDeInit that can be registered/unregistered
 113:Drivers/STM32G4xx_HAL_Driver/Src/stm32g4xx_hal_cordic.c ****   in HAL_CORDIC_STATE_READY or HAL_CORDIC_STATE_RESET state,
 114:Drivers/STM32G4xx_HAL_Driver/Src/stm32g4xx_hal_cordic.c ****   thus registered (user) MspInit/DeInit callbacks can be used during the Init/DeInit.
 115:Drivers/STM32G4xx_HAL_Driver/Src/stm32g4xx_hal_cordic.c ****   In that case first register the MspInit/MspDeInit user callbacks
 116:Drivers/STM32G4xx_HAL_Driver/Src/stm32g4xx_hal_cordic.c ****   using @ref HAL_CORDIC_RegisterCallback() before calling @ref HAL_CORDIC_DeInit()
 117:Drivers/STM32G4xx_HAL_Driver/Src/stm32g4xx_hal_cordic.c ****   or HAL_CORDIC_Init() function.
 118:Drivers/STM32G4xx_HAL_Driver/Src/stm32g4xx_hal_cordic.c **** 
 119:Drivers/STM32G4xx_HAL_Driver/Src/stm32g4xx_hal_cordic.c ****   When The compilation define USE_HAL_CORDIC_REGISTER_CALLBACKS is set to 0 or
 120:Drivers/STM32G4xx_HAL_Driver/Src/stm32g4xx_hal_cordic.c ****   not defined, the callback registration feature is not available and all callbacks
 121:Drivers/STM32G4xx_HAL_Driver/Src/stm32g4xx_hal_cordic.c ****   are set to the corresponding weak functions.
 122:Drivers/STM32G4xx_HAL_Driver/Src/stm32g4xx_hal_cordic.c **** 
 123:Drivers/STM32G4xx_HAL_Driver/Src/stm32g4xx_hal_cordic.c ****   @endverbatim
 124:Drivers/STM32G4xx_HAL_Driver/Src/stm32g4xx_hal_cordic.c ****   *
 125:Drivers/STM32G4xx_HAL_Driver/Src/stm32g4xx_hal_cordic.c ****   ******************************************************************************
 126:Drivers/STM32G4xx_HAL_Driver/Src/stm32g4xx_hal_cordic.c ****   * @attention
 127:Drivers/STM32G4xx_HAL_Driver/Src/stm32g4xx_hal_cordic.c ****   *
 128:Drivers/STM32G4xx_HAL_Driver/Src/stm32g4xx_hal_cordic.c ****   * <h2><center>&copy; Copyright (c) 2019 STMicroelectronics.
 129:Drivers/STM32G4xx_HAL_Driver/Src/stm32g4xx_hal_cordic.c ****   * All rights reserved.</center></h2>
 130:Drivers/STM32G4xx_HAL_Driver/Src/stm32g4xx_hal_cordic.c ****   *
 131:Drivers/STM32G4xx_HAL_Driver/Src/stm32g4xx_hal_cordic.c ****   * This software component is licensed by ST under BSD 3-Clause license,
 132:Drivers/STM32G4xx_HAL_Driver/Src/stm32g4xx_hal_cordic.c ****   * the "License"; You may not use this file except in compliance with the
 133:Drivers/STM32G4xx_HAL_Driver/Src/stm32g4xx_hal_cordic.c ****   * License. You may obtain a copy of the License at:
 134:Drivers/STM32G4xx_HAL_Driver/Src/stm32g4xx_hal_cordic.c ****   *                        opensource.org/licenses/BSD-3-Clause
 135:Drivers/STM32G4xx_HAL_Driver/Src/stm32g4xx_hal_cordic.c ****   *
 136:Drivers/STM32G4xx_HAL_Driver/Src/stm32g4xx_hal_cordic.c ****   ******************************************************************************
 137:Drivers/STM32G4xx_HAL_Driver/Src/stm32g4xx_hal_cordic.c ****   */
 138:Drivers/STM32G4xx_HAL_Driver/Src/stm32g4xx_hal_cordic.c **** 
 139:Drivers/STM32G4xx_HAL_Driver/Src/stm32g4xx_hal_cordic.c **** /* Includes ------------------------------------------------------------------*/
 140:Drivers/STM32G4xx_HAL_Driver/Src/stm32g4xx_hal_cordic.c **** #include "stm32g4xx_hal.h"
 141:Drivers/STM32G4xx_HAL_Driver/Src/stm32g4xx_hal_cordic.c **** 
 142:Drivers/STM32G4xx_HAL_Driver/Src/stm32g4xx_hal_cordic.c **** #if defined(CORDIC)
ARM GAS  /tmp/ccR9GgNa.s 			page 4


 143:Drivers/STM32G4xx_HAL_Driver/Src/stm32g4xx_hal_cordic.c **** #ifdef HAL_CORDIC_MODULE_ENABLED
 144:Drivers/STM32G4xx_HAL_Driver/Src/stm32g4xx_hal_cordic.c **** 
 145:Drivers/STM32G4xx_HAL_Driver/Src/stm32g4xx_hal_cordic.c **** /** @addtogroup STM32G4xx_HAL_Driver
 146:Drivers/STM32G4xx_HAL_Driver/Src/stm32g4xx_hal_cordic.c ****   * @{
 147:Drivers/STM32G4xx_HAL_Driver/Src/stm32g4xx_hal_cordic.c ****   */
 148:Drivers/STM32G4xx_HAL_Driver/Src/stm32g4xx_hal_cordic.c **** 
 149:Drivers/STM32G4xx_HAL_Driver/Src/stm32g4xx_hal_cordic.c **** /** @defgroup CORDIC CORDIC
 150:Drivers/STM32G4xx_HAL_Driver/Src/stm32g4xx_hal_cordic.c ****   * @brief CORDIC HAL driver modules.
 151:Drivers/STM32G4xx_HAL_Driver/Src/stm32g4xx_hal_cordic.c ****   * @{
 152:Drivers/STM32G4xx_HAL_Driver/Src/stm32g4xx_hal_cordic.c ****   */
 153:Drivers/STM32G4xx_HAL_Driver/Src/stm32g4xx_hal_cordic.c **** 
 154:Drivers/STM32G4xx_HAL_Driver/Src/stm32g4xx_hal_cordic.c **** /* Private typedef -----------------------------------------------------------*/
 155:Drivers/STM32G4xx_HAL_Driver/Src/stm32g4xx_hal_cordic.c **** /* Private define ------------------------------------------------------------*/
 156:Drivers/STM32G4xx_HAL_Driver/Src/stm32g4xx_hal_cordic.c **** /* Private macro -------------------------------------------------------------*/
 157:Drivers/STM32G4xx_HAL_Driver/Src/stm32g4xx_hal_cordic.c **** /* Private variables ---------------------------------------------------------*/
 158:Drivers/STM32G4xx_HAL_Driver/Src/stm32g4xx_hal_cordic.c **** /* Private function prototypes -----------------------------------------------*/
 159:Drivers/STM32G4xx_HAL_Driver/Src/stm32g4xx_hal_cordic.c **** 
 160:Drivers/STM32G4xx_HAL_Driver/Src/stm32g4xx_hal_cordic.c **** /** @defgroup CORDIC_Private_Functions CORDIC Private Functions
 161:Drivers/STM32G4xx_HAL_Driver/Src/stm32g4xx_hal_cordic.c ****   * @{
 162:Drivers/STM32G4xx_HAL_Driver/Src/stm32g4xx_hal_cordic.c ****   */
 163:Drivers/STM32G4xx_HAL_Driver/Src/stm32g4xx_hal_cordic.c **** static void CORDIC_WriteInDataIncrementPtr(CORDIC_HandleTypeDef *hcordic, int32_t **ppInBuff);
 164:Drivers/STM32G4xx_HAL_Driver/Src/stm32g4xx_hal_cordic.c **** static void CORDIC_ReadOutDataIncrementPtr(CORDIC_HandleTypeDef *hcordic, int32_t **ppOutBuff);
 165:Drivers/STM32G4xx_HAL_Driver/Src/stm32g4xx_hal_cordic.c **** static void CORDIC_DMAInCplt(DMA_HandleTypeDef *hdma);
 166:Drivers/STM32G4xx_HAL_Driver/Src/stm32g4xx_hal_cordic.c **** static void CORDIC_DMAOutCplt(DMA_HandleTypeDef *hdma);
 167:Drivers/STM32G4xx_HAL_Driver/Src/stm32g4xx_hal_cordic.c **** static void CORDIC_DMAError(DMA_HandleTypeDef *hdma);
 168:Drivers/STM32G4xx_HAL_Driver/Src/stm32g4xx_hal_cordic.c **** /**
 169:Drivers/STM32G4xx_HAL_Driver/Src/stm32g4xx_hal_cordic.c ****   * @}
 170:Drivers/STM32G4xx_HAL_Driver/Src/stm32g4xx_hal_cordic.c ****   */
 171:Drivers/STM32G4xx_HAL_Driver/Src/stm32g4xx_hal_cordic.c **** 
 172:Drivers/STM32G4xx_HAL_Driver/Src/stm32g4xx_hal_cordic.c **** /* Exported functions --------------------------------------------------------*/
 173:Drivers/STM32G4xx_HAL_Driver/Src/stm32g4xx_hal_cordic.c **** 
 174:Drivers/STM32G4xx_HAL_Driver/Src/stm32g4xx_hal_cordic.c **** /** @defgroup CORDIC_Exported_Functions CORDIC Exported Functions
 175:Drivers/STM32G4xx_HAL_Driver/Src/stm32g4xx_hal_cordic.c ****   * @{
 176:Drivers/STM32G4xx_HAL_Driver/Src/stm32g4xx_hal_cordic.c ****   */
 177:Drivers/STM32G4xx_HAL_Driver/Src/stm32g4xx_hal_cordic.c **** 
 178:Drivers/STM32G4xx_HAL_Driver/Src/stm32g4xx_hal_cordic.c **** /** @defgroup CORDIC_Exported_Functions_Group1 Initialization and de-initialization functions
 179:Drivers/STM32G4xx_HAL_Driver/Src/stm32g4xx_hal_cordic.c ****   *  @brief    Initialization and Configuration functions.
 180:Drivers/STM32G4xx_HAL_Driver/Src/stm32g4xx_hal_cordic.c ****   *
 181:Drivers/STM32G4xx_HAL_Driver/Src/stm32g4xx_hal_cordic.c **** @verbatim
 182:Drivers/STM32G4xx_HAL_Driver/Src/stm32g4xx_hal_cordic.c ****   ==============================================================================
 183:Drivers/STM32G4xx_HAL_Driver/Src/stm32g4xx_hal_cordic.c ****               ##### Initialization and de-initialization functions #####
 184:Drivers/STM32G4xx_HAL_Driver/Src/stm32g4xx_hal_cordic.c ****   ==============================================================================
 185:Drivers/STM32G4xx_HAL_Driver/Src/stm32g4xx_hal_cordic.c ****     [..]  This section provides functions allowing to:
 186:Drivers/STM32G4xx_HAL_Driver/Src/stm32g4xx_hal_cordic.c ****       (+) Initialize the CORDIC peripheral and the associated handle
 187:Drivers/STM32G4xx_HAL_Driver/Src/stm32g4xx_hal_cordic.c ****       (+) DeInitialize the CORDIC peripheral
 188:Drivers/STM32G4xx_HAL_Driver/Src/stm32g4xx_hal_cordic.c ****       (+) Initialize the CORDIC MSP (MCU Specific Package)
 189:Drivers/STM32G4xx_HAL_Driver/Src/stm32g4xx_hal_cordic.c ****       (+) De-Initialize the CORDIC MSP
 190:Drivers/STM32G4xx_HAL_Driver/Src/stm32g4xx_hal_cordic.c **** 
 191:Drivers/STM32G4xx_HAL_Driver/Src/stm32g4xx_hal_cordic.c ****     [..]
 192:Drivers/STM32G4xx_HAL_Driver/Src/stm32g4xx_hal_cordic.c **** 
 193:Drivers/STM32G4xx_HAL_Driver/Src/stm32g4xx_hal_cordic.c **** @endverbatim
 194:Drivers/STM32G4xx_HAL_Driver/Src/stm32g4xx_hal_cordic.c ****   * @{
 195:Drivers/STM32G4xx_HAL_Driver/Src/stm32g4xx_hal_cordic.c ****   */
 196:Drivers/STM32G4xx_HAL_Driver/Src/stm32g4xx_hal_cordic.c **** 
 197:Drivers/STM32G4xx_HAL_Driver/Src/stm32g4xx_hal_cordic.c **** /**
 198:Drivers/STM32G4xx_HAL_Driver/Src/stm32g4xx_hal_cordic.c ****   * @brief  Initialize the CORDIC peripheral and the associated handle.
 199:Drivers/STM32G4xx_HAL_Driver/Src/stm32g4xx_hal_cordic.c ****   * @param  hcordic pointer to a CORDIC_HandleTypeDef structure.
ARM GAS  /tmp/ccR9GgNa.s 			page 5


 200:Drivers/STM32G4xx_HAL_Driver/Src/stm32g4xx_hal_cordic.c ****   * @retval HAL status
 201:Drivers/STM32G4xx_HAL_Driver/Src/stm32g4xx_hal_cordic.c ****   */
 202:Drivers/STM32G4xx_HAL_Driver/Src/stm32g4xx_hal_cordic.c **** HAL_StatusTypeDef HAL_CORDIC_Init(CORDIC_HandleTypeDef *hcordic)
 203:Drivers/STM32G4xx_HAL_Driver/Src/stm32g4xx_hal_cordic.c **** {
 204:Drivers/STM32G4xx_HAL_Driver/Src/stm32g4xx_hal_cordic.c ****   /* Check the CORDIC handle allocation */
 205:Drivers/STM32G4xx_HAL_Driver/Src/stm32g4xx_hal_cordic.c ****   if (hcordic == NULL)
 206:Drivers/STM32G4xx_HAL_Driver/Src/stm32g4xx_hal_cordic.c ****   {
 207:Drivers/STM32G4xx_HAL_Driver/Src/stm32g4xx_hal_cordic.c ****     /* Return error status */
 208:Drivers/STM32G4xx_HAL_Driver/Src/stm32g4xx_hal_cordic.c ****     return HAL_ERROR;
 209:Drivers/STM32G4xx_HAL_Driver/Src/stm32g4xx_hal_cordic.c ****   }
 210:Drivers/STM32G4xx_HAL_Driver/Src/stm32g4xx_hal_cordic.c **** 
 211:Drivers/STM32G4xx_HAL_Driver/Src/stm32g4xx_hal_cordic.c ****   /* Check the instance */
 212:Drivers/STM32G4xx_HAL_Driver/Src/stm32g4xx_hal_cordic.c ****   assert_param(IS_CORDIC_ALL_INSTANCE(hcordic->Instance));
 213:Drivers/STM32G4xx_HAL_Driver/Src/stm32g4xx_hal_cordic.c **** 
 214:Drivers/STM32G4xx_HAL_Driver/Src/stm32g4xx_hal_cordic.c **** #if USE_HAL_CORDIC_REGISTER_CALLBACKS == 1
 215:Drivers/STM32G4xx_HAL_Driver/Src/stm32g4xx_hal_cordic.c ****   if (hcordic->State == HAL_CORDIC_STATE_RESET)
 216:Drivers/STM32G4xx_HAL_Driver/Src/stm32g4xx_hal_cordic.c ****   {
 217:Drivers/STM32G4xx_HAL_Driver/Src/stm32g4xx_hal_cordic.c ****     /* Allocate lock resource and initialize it */
 218:Drivers/STM32G4xx_HAL_Driver/Src/stm32g4xx_hal_cordic.c ****     hcordic->Lock = HAL_UNLOCKED;
 219:Drivers/STM32G4xx_HAL_Driver/Src/stm32g4xx_hal_cordic.c **** 
 220:Drivers/STM32G4xx_HAL_Driver/Src/stm32g4xx_hal_cordic.c ****     /* Reset callbacks to legacy functions */
 221:Drivers/STM32G4xx_HAL_Driver/Src/stm32g4xx_hal_cordic.c ****     hcordic->ErrorCallback         = HAL_CORDIC_ErrorCallback;         /* Legacy weak ErrorCallback
 222:Drivers/STM32G4xx_HAL_Driver/Src/stm32g4xx_hal_cordic.c ****     hcordic->CalculateCpltCallback = HAL_CORDIC_CalculateCpltCallback; /* Legacy weak CalculateCplt
 223:Drivers/STM32G4xx_HAL_Driver/Src/stm32g4xx_hal_cordic.c **** 
 224:Drivers/STM32G4xx_HAL_Driver/Src/stm32g4xx_hal_cordic.c ****     if (hcordic->MspInitCallback == NULL)
 225:Drivers/STM32G4xx_HAL_Driver/Src/stm32g4xx_hal_cordic.c ****     {
 226:Drivers/STM32G4xx_HAL_Driver/Src/stm32g4xx_hal_cordic.c ****       hcordic->MspInitCallback = HAL_CORDIC_MspInit;                   /* Legacy weak MspInit */
 227:Drivers/STM32G4xx_HAL_Driver/Src/stm32g4xx_hal_cordic.c ****     }
 228:Drivers/STM32G4xx_HAL_Driver/Src/stm32g4xx_hal_cordic.c **** 
 229:Drivers/STM32G4xx_HAL_Driver/Src/stm32g4xx_hal_cordic.c ****     /* Initialize the low level hardware */
 230:Drivers/STM32G4xx_HAL_Driver/Src/stm32g4xx_hal_cordic.c ****     hcordic->MspInitCallback(hcordic);
 231:Drivers/STM32G4xx_HAL_Driver/Src/stm32g4xx_hal_cordic.c ****   }
 232:Drivers/STM32G4xx_HAL_Driver/Src/stm32g4xx_hal_cordic.c **** #else
 233:Drivers/STM32G4xx_HAL_Driver/Src/stm32g4xx_hal_cordic.c ****   if (hcordic->State == HAL_CORDIC_STATE_RESET)
 234:Drivers/STM32G4xx_HAL_Driver/Src/stm32g4xx_hal_cordic.c ****   {
 235:Drivers/STM32G4xx_HAL_Driver/Src/stm32g4xx_hal_cordic.c ****     /* Allocate lock resource and initialize it */
 236:Drivers/STM32G4xx_HAL_Driver/Src/stm32g4xx_hal_cordic.c ****     hcordic->Lock = HAL_UNLOCKED;
 237:Drivers/STM32G4xx_HAL_Driver/Src/stm32g4xx_hal_cordic.c **** 
 238:Drivers/STM32G4xx_HAL_Driver/Src/stm32g4xx_hal_cordic.c ****     /* Initialize the low level hardware */
 239:Drivers/STM32G4xx_HAL_Driver/Src/stm32g4xx_hal_cordic.c ****     HAL_CORDIC_MspInit(hcordic);
 240:Drivers/STM32G4xx_HAL_Driver/Src/stm32g4xx_hal_cordic.c ****   }
 241:Drivers/STM32G4xx_HAL_Driver/Src/stm32g4xx_hal_cordic.c **** #endif /* (USE_HAL_CORDIC_REGISTER_CALLBACKS) */
 242:Drivers/STM32G4xx_HAL_Driver/Src/stm32g4xx_hal_cordic.c **** 
 243:Drivers/STM32G4xx_HAL_Driver/Src/stm32g4xx_hal_cordic.c ****   /* Set CORDIC error code to none */
 244:Drivers/STM32G4xx_HAL_Driver/Src/stm32g4xx_hal_cordic.c ****   hcordic->ErrorCode = HAL_CORDIC_ERROR_NONE;
 245:Drivers/STM32G4xx_HAL_Driver/Src/stm32g4xx_hal_cordic.c **** 
 246:Drivers/STM32G4xx_HAL_Driver/Src/stm32g4xx_hal_cordic.c ****   /* Reset pInBuff and pOutBuff */
 247:Drivers/STM32G4xx_HAL_Driver/Src/stm32g4xx_hal_cordic.c ****   hcordic->pInBuff = NULL;
 248:Drivers/STM32G4xx_HAL_Driver/Src/stm32g4xx_hal_cordic.c ****   hcordic->pOutBuff = NULL;
 249:Drivers/STM32G4xx_HAL_Driver/Src/stm32g4xx_hal_cordic.c **** 
 250:Drivers/STM32G4xx_HAL_Driver/Src/stm32g4xx_hal_cordic.c ****   /* Reset NbCalcToOrder and NbCalcToGet */
 251:Drivers/STM32G4xx_HAL_Driver/Src/stm32g4xx_hal_cordic.c ****   hcordic->NbCalcToOrder = 0U;
 252:Drivers/STM32G4xx_HAL_Driver/Src/stm32g4xx_hal_cordic.c ****   hcordic->NbCalcToGet = 0U;
 253:Drivers/STM32G4xx_HAL_Driver/Src/stm32g4xx_hal_cordic.c **** 
 254:Drivers/STM32G4xx_HAL_Driver/Src/stm32g4xx_hal_cordic.c ****   /* Reset DMADirection */
 255:Drivers/STM32G4xx_HAL_Driver/Src/stm32g4xx_hal_cordic.c ****   hcordic->DMADirection = CORDIC_DMA_DIR_NONE;
 256:Drivers/STM32G4xx_HAL_Driver/Src/stm32g4xx_hal_cordic.c **** 
ARM GAS  /tmp/ccR9GgNa.s 			page 6


 257:Drivers/STM32G4xx_HAL_Driver/Src/stm32g4xx_hal_cordic.c ****   /* Change CORDIC peripheral state */
 258:Drivers/STM32G4xx_HAL_Driver/Src/stm32g4xx_hal_cordic.c ****   hcordic->State = HAL_CORDIC_STATE_READY;
 259:Drivers/STM32G4xx_HAL_Driver/Src/stm32g4xx_hal_cordic.c **** 
 260:Drivers/STM32G4xx_HAL_Driver/Src/stm32g4xx_hal_cordic.c ****   /* Return function status */
 261:Drivers/STM32G4xx_HAL_Driver/Src/stm32g4xx_hal_cordic.c ****   return HAL_OK;
 262:Drivers/STM32G4xx_HAL_Driver/Src/stm32g4xx_hal_cordic.c **** }
 263:Drivers/STM32G4xx_HAL_Driver/Src/stm32g4xx_hal_cordic.c **** 
 264:Drivers/STM32G4xx_HAL_Driver/Src/stm32g4xx_hal_cordic.c **** /**
 265:Drivers/STM32G4xx_HAL_Driver/Src/stm32g4xx_hal_cordic.c ****   * @brief  DeInitialize the CORDIC peripheral.
 266:Drivers/STM32G4xx_HAL_Driver/Src/stm32g4xx_hal_cordic.c ****   * @param  hcordic pointer to a CORDIC_HandleTypeDef structure.
 267:Drivers/STM32G4xx_HAL_Driver/Src/stm32g4xx_hal_cordic.c ****   * @retval HAL status
 268:Drivers/STM32G4xx_HAL_Driver/Src/stm32g4xx_hal_cordic.c ****   */
 269:Drivers/STM32G4xx_HAL_Driver/Src/stm32g4xx_hal_cordic.c **** HAL_StatusTypeDef HAL_CORDIC_DeInit(CORDIC_HandleTypeDef *hcordic)
 270:Drivers/STM32G4xx_HAL_Driver/Src/stm32g4xx_hal_cordic.c **** {
 271:Drivers/STM32G4xx_HAL_Driver/Src/stm32g4xx_hal_cordic.c ****   /* Check the CORDIC handle allocation */
 272:Drivers/STM32G4xx_HAL_Driver/Src/stm32g4xx_hal_cordic.c ****   if (hcordic == NULL)
 273:Drivers/STM32G4xx_HAL_Driver/Src/stm32g4xx_hal_cordic.c ****   {
 274:Drivers/STM32G4xx_HAL_Driver/Src/stm32g4xx_hal_cordic.c ****     /* Return error status */
 275:Drivers/STM32G4xx_HAL_Driver/Src/stm32g4xx_hal_cordic.c ****     return HAL_ERROR;
 276:Drivers/STM32G4xx_HAL_Driver/Src/stm32g4xx_hal_cordic.c ****   }
 277:Drivers/STM32G4xx_HAL_Driver/Src/stm32g4xx_hal_cordic.c **** 
 278:Drivers/STM32G4xx_HAL_Driver/Src/stm32g4xx_hal_cordic.c ****   /* Check the parameters */
 279:Drivers/STM32G4xx_HAL_Driver/Src/stm32g4xx_hal_cordic.c ****   assert_param(IS_CORDIC_ALL_INSTANCE(hcordic->Instance));
 280:Drivers/STM32G4xx_HAL_Driver/Src/stm32g4xx_hal_cordic.c **** 
 281:Drivers/STM32G4xx_HAL_Driver/Src/stm32g4xx_hal_cordic.c ****   /* Change CORDIC peripheral state */
 282:Drivers/STM32G4xx_HAL_Driver/Src/stm32g4xx_hal_cordic.c ****   hcordic->State = HAL_CORDIC_STATE_BUSY;
 283:Drivers/STM32G4xx_HAL_Driver/Src/stm32g4xx_hal_cordic.c **** 
 284:Drivers/STM32G4xx_HAL_Driver/Src/stm32g4xx_hal_cordic.c **** #if USE_HAL_CORDIC_REGISTER_CALLBACKS == 1
 285:Drivers/STM32G4xx_HAL_Driver/Src/stm32g4xx_hal_cordic.c ****   if (hcordic->MspDeInitCallback == NULL)
 286:Drivers/STM32G4xx_HAL_Driver/Src/stm32g4xx_hal_cordic.c ****   {
 287:Drivers/STM32G4xx_HAL_Driver/Src/stm32g4xx_hal_cordic.c ****     hcordic->MspDeInitCallback = HAL_CORDIC_MspDeInit;
 288:Drivers/STM32G4xx_HAL_Driver/Src/stm32g4xx_hal_cordic.c ****   }
 289:Drivers/STM32G4xx_HAL_Driver/Src/stm32g4xx_hal_cordic.c **** 
 290:Drivers/STM32G4xx_HAL_Driver/Src/stm32g4xx_hal_cordic.c ****   /* De-Initialize the low level hardware */
 291:Drivers/STM32G4xx_HAL_Driver/Src/stm32g4xx_hal_cordic.c ****   hcordic->MspDeInitCallback(hcordic);
 292:Drivers/STM32G4xx_HAL_Driver/Src/stm32g4xx_hal_cordic.c **** #else
 293:Drivers/STM32G4xx_HAL_Driver/Src/stm32g4xx_hal_cordic.c ****   /* De-Initialize the low level hardware: CLOCK, NVIC, DMA */
 294:Drivers/STM32G4xx_HAL_Driver/Src/stm32g4xx_hal_cordic.c ****   HAL_CORDIC_MspDeInit(hcordic);
 295:Drivers/STM32G4xx_HAL_Driver/Src/stm32g4xx_hal_cordic.c **** #endif /* USE_HAL_CORDIC_REGISTER_CALLBACKS */
 296:Drivers/STM32G4xx_HAL_Driver/Src/stm32g4xx_hal_cordic.c **** 
 297:Drivers/STM32G4xx_HAL_Driver/Src/stm32g4xx_hal_cordic.c ****   /* Set CORDIC error code to none */
 298:Drivers/STM32G4xx_HAL_Driver/Src/stm32g4xx_hal_cordic.c ****   hcordic->ErrorCode = HAL_CORDIC_ERROR_NONE;
 299:Drivers/STM32G4xx_HAL_Driver/Src/stm32g4xx_hal_cordic.c **** 
 300:Drivers/STM32G4xx_HAL_Driver/Src/stm32g4xx_hal_cordic.c ****   /* Reset pInBuff and pOutBuff */
 301:Drivers/STM32G4xx_HAL_Driver/Src/stm32g4xx_hal_cordic.c ****   hcordic->pInBuff = NULL;
 302:Drivers/STM32G4xx_HAL_Driver/Src/stm32g4xx_hal_cordic.c ****   hcordic->pOutBuff = NULL;
 303:Drivers/STM32G4xx_HAL_Driver/Src/stm32g4xx_hal_cordic.c **** 
 304:Drivers/STM32G4xx_HAL_Driver/Src/stm32g4xx_hal_cordic.c ****   /* Reset NbCalcToOrder and NbCalcToGet */
 305:Drivers/STM32G4xx_HAL_Driver/Src/stm32g4xx_hal_cordic.c ****   hcordic->NbCalcToOrder = 0U;
 306:Drivers/STM32G4xx_HAL_Driver/Src/stm32g4xx_hal_cordic.c ****   hcordic->NbCalcToGet = 0U;
 307:Drivers/STM32G4xx_HAL_Driver/Src/stm32g4xx_hal_cordic.c **** 
 308:Drivers/STM32G4xx_HAL_Driver/Src/stm32g4xx_hal_cordic.c ****   /* Reset DMADirection */
 309:Drivers/STM32G4xx_HAL_Driver/Src/stm32g4xx_hal_cordic.c ****   hcordic->DMADirection = CORDIC_DMA_DIR_NONE;
 310:Drivers/STM32G4xx_HAL_Driver/Src/stm32g4xx_hal_cordic.c **** 
 311:Drivers/STM32G4xx_HAL_Driver/Src/stm32g4xx_hal_cordic.c ****   /* Change CORDIC peripheral state */
 312:Drivers/STM32G4xx_HAL_Driver/Src/stm32g4xx_hal_cordic.c ****   hcordic->State = HAL_CORDIC_STATE_RESET;
 313:Drivers/STM32G4xx_HAL_Driver/Src/stm32g4xx_hal_cordic.c **** 
ARM GAS  /tmp/ccR9GgNa.s 			page 7


 314:Drivers/STM32G4xx_HAL_Driver/Src/stm32g4xx_hal_cordic.c ****   /* Reset Lock */
 315:Drivers/STM32G4xx_HAL_Driver/Src/stm32g4xx_hal_cordic.c ****   hcordic->Lock = HAL_UNLOCKED;
 316:Drivers/STM32G4xx_HAL_Driver/Src/stm32g4xx_hal_cordic.c **** 
 317:Drivers/STM32G4xx_HAL_Driver/Src/stm32g4xx_hal_cordic.c ****   /* Return function status */
 318:Drivers/STM32G4xx_HAL_Driver/Src/stm32g4xx_hal_cordic.c ****   return HAL_OK;
 319:Drivers/STM32G4xx_HAL_Driver/Src/stm32g4xx_hal_cordic.c **** }
 320:Drivers/STM32G4xx_HAL_Driver/Src/stm32g4xx_hal_cordic.c **** 
 321:Drivers/STM32G4xx_HAL_Driver/Src/stm32g4xx_hal_cordic.c **** /**
 322:Drivers/STM32G4xx_HAL_Driver/Src/stm32g4xx_hal_cordic.c ****   * @brief  Initialize the CORDIC MSP.
 323:Drivers/STM32G4xx_HAL_Driver/Src/stm32g4xx_hal_cordic.c ****   * @param  hcordic CORDIC handle
 324:Drivers/STM32G4xx_HAL_Driver/Src/stm32g4xx_hal_cordic.c ****   * @retval None
 325:Drivers/STM32G4xx_HAL_Driver/Src/stm32g4xx_hal_cordic.c ****   */
 326:Drivers/STM32G4xx_HAL_Driver/Src/stm32g4xx_hal_cordic.c **** __weak void HAL_CORDIC_MspInit(CORDIC_HandleTypeDef *hcordic)
 327:Drivers/STM32G4xx_HAL_Driver/Src/stm32g4xx_hal_cordic.c **** {
  31              		.loc 1 327 1 view -0
  32              		.cfi_startproc
  33              		@ args = 0, pretend = 0, frame = 0
  34              		@ frame_needed = 0, uses_anonymous_args = 0
  35              		@ link register save eliminated.
 328:Drivers/STM32G4xx_HAL_Driver/Src/stm32g4xx_hal_cordic.c ****   /* Prevent unused argument(s) compilation warning */
 329:Drivers/STM32G4xx_HAL_Driver/Src/stm32g4xx_hal_cordic.c ****   UNUSED(hcordic);
  36              		.loc 1 329 3 view .LVU1
 330:Drivers/STM32G4xx_HAL_Driver/Src/stm32g4xx_hal_cordic.c **** 
 331:Drivers/STM32G4xx_HAL_Driver/Src/stm32g4xx_hal_cordic.c ****   /* NOTE : This function should not be modified, when the callback is needed,
 332:Drivers/STM32G4xx_HAL_Driver/Src/stm32g4xx_hal_cordic.c ****             the HAL_CORDIC_MspInit can be implemented in the user file
 333:Drivers/STM32G4xx_HAL_Driver/Src/stm32g4xx_hal_cordic.c ****    */
 334:Drivers/STM32G4xx_HAL_Driver/Src/stm32g4xx_hal_cordic.c **** }
  37              		.loc 1 334 1 is_stmt 0 view .LVU2
  38 0000 7047     		bx	lr
  39              		.cfi_endproc
  40              	.LFE331:
  42 0002 00BF     		.section	.text.HAL_CORDIC_Init,"ax",%progbits
  43              		.align	1
  44              		.p2align 2,,3
  45              		.global	HAL_CORDIC_Init
  46              		.syntax unified
  47              		.thumb
  48              		.thumb_func
  49              		.fpu fpv4-sp-d16
  51              	HAL_CORDIC_Init:
  52              	.LVL1:
  53              	.LFB329:
 203:Drivers/STM32G4xx_HAL_Driver/Src/stm32g4xx_hal_cordic.c ****   /* Check the CORDIC handle allocation */
  54              		.loc 1 203 1 is_stmt 1 view -0
  55              		.cfi_startproc
  56              		@ args = 0, pretend = 0, frame = 0
  57              		@ frame_needed = 0, uses_anonymous_args = 0
 205:Drivers/STM32G4xx_HAL_Driver/Src/stm32g4xx_hal_cordic.c ****   {
  58              		.loc 1 205 3 view .LVU4
 205:Drivers/STM32G4xx_HAL_Driver/Src/stm32g4xx_hal_cordic.c ****   {
  59              		.loc 1 205 6 is_stmt 0 view .LVU5
  60 0000 B0B1     		cbz	r0, .L6
 212:Drivers/STM32G4xx_HAL_Driver/Src/stm32g4xx_hal_cordic.c **** 
  61              		.loc 1 212 3 is_stmt 1 view .LVU6
 233:Drivers/STM32G4xx_HAL_Driver/Src/stm32g4xx_hal_cordic.c ****   {
  62              		.loc 1 233 3 view .LVU7
 203:Drivers/STM32G4xx_HAL_Driver/Src/stm32g4xx_hal_cordic.c ****   /* Check the CORDIC handle allocation */
ARM GAS  /tmp/ccR9GgNa.s 			page 8


  63              		.loc 1 203 1 is_stmt 0 view .LVU8
  64 0002 10B5     		push	{r4, lr}
  65              	.LCFI0:
  66              		.cfi_def_cfa_offset 8
  67              		.cfi_offset 4, -8
  68              		.cfi_offset 14, -4
 233:Drivers/STM32G4xx_HAL_Driver/Src/stm32g4xx_hal_cordic.c ****   {
  69              		.loc 1 233 14 view .LVU9
  70 0004 90F82130 		ldrb	r3, [r0, #33]	@ zero_extendqisi2
  71 0008 0446     		mov	r4, r0
 233:Drivers/STM32G4xx_HAL_Driver/Src/stm32g4xx_hal_cordic.c ****   {
  72              		.loc 1 233 6 view .LVU10
  73 000a 03F0FF02 		and	r2, r3, #255
  74 000e 53B1     		cbz	r3, .L11
  75              	.LVL2:
  76              	.L5:
 244:Drivers/STM32G4xx_HAL_Driver/Src/stm32g4xx_hal_cordic.c **** 
  77              		.loc 1 244 3 is_stmt 1 view .LVU11
 244:Drivers/STM32G4xx_HAL_Driver/Src/stm32g4xx_hal_cordic.c **** 
  78              		.loc 1 244 22 is_stmt 0 view .LVU12
  79 0010 0020     		movs	r0, #0
 258:Drivers/STM32G4xx_HAL_Driver/Src/stm32g4xx_hal_cordic.c **** 
  80              		.loc 1 258 18 view .LVU13
  81 0012 0123     		movs	r3, #1
 244:Drivers/STM32G4xx_HAL_Driver/Src/stm32g4xx_hal_cordic.c **** 
  82              		.loc 1 244 22 view .LVU14
  83 0014 6062     		str	r0, [r4, #36]
 247:Drivers/STM32G4xx_HAL_Driver/Src/stm32g4xx_hal_cordic.c ****   hcordic->pOutBuff = NULL;
  84              		.loc 1 247 3 is_stmt 1 view .LVU15
 258:Drivers/STM32G4xx_HAL_Driver/Src/stm32g4xx_hal_cordic.c **** 
  85              		.loc 1 258 18 is_stmt 0 view .LVU16
  86 0016 84F82130 		strb	r3, [r4, #33]
 248:Drivers/STM32G4xx_HAL_Driver/Src/stm32g4xx_hal_cordic.c **** 
  87              		.loc 1 248 21 view .LVU17
  88 001a C4E90100 		strd	r0, r0, [r4, #4]
 251:Drivers/STM32G4xx_HAL_Driver/Src/stm32g4xx_hal_cordic.c ****   hcordic->NbCalcToGet = 0U;
  89              		.loc 1 251 3 is_stmt 1 view .LVU18
 252:Drivers/STM32G4xx_HAL_Driver/Src/stm32g4xx_hal_cordic.c **** 
  90              		.loc 1 252 24 is_stmt 0 view .LVU19
  91 001e C4E90300 		strd	r0, r0, [r4, #12]
 255:Drivers/STM32G4xx_HAL_Driver/Src/stm32g4xx_hal_cordic.c **** 
  92              		.loc 1 255 3 is_stmt 1 view .LVU20
 255:Drivers/STM32G4xx_HAL_Driver/Src/stm32g4xx_hal_cordic.c **** 
  93              		.loc 1 255 25 is_stmt 0 view .LVU21
  94 0022 6061     		str	r0, [r4, #20]
 258:Drivers/STM32G4xx_HAL_Driver/Src/stm32g4xx_hal_cordic.c **** 
  95              		.loc 1 258 3 is_stmt 1 view .LVU22
 261:Drivers/STM32G4xx_HAL_Driver/Src/stm32g4xx_hal_cordic.c **** }
  96              		.loc 1 261 3 view .LVU23
 262:Drivers/STM32G4xx_HAL_Driver/Src/stm32g4xx_hal_cordic.c **** 
  97              		.loc 1 262 1 is_stmt 0 view .LVU24
  98 0024 10BD     		pop	{r4, pc}
  99              	.LVL3:
 100              	.L11:
 236:Drivers/STM32G4xx_HAL_Driver/Src/stm32g4xx_hal_cordic.c **** 
 101              		.loc 1 236 5 is_stmt 1 view .LVU25
 236:Drivers/STM32G4xx_HAL_Driver/Src/stm32g4xx_hal_cordic.c **** 
ARM GAS  /tmp/ccR9GgNa.s 			page 9


 102              		.loc 1 236 19 is_stmt 0 view .LVU26
 103 0026 80F82020 		strb	r2, [r0, #32]
 239:Drivers/STM32G4xx_HAL_Driver/Src/stm32g4xx_hal_cordic.c ****   }
 104              		.loc 1 239 5 is_stmt 1 view .LVU27
 105 002a FFF7FEFF 		bl	HAL_CORDIC_MspInit
 106              	.LVL4:
 239:Drivers/STM32G4xx_HAL_Driver/Src/stm32g4xx_hal_cordic.c ****   }
 107              		.loc 1 239 5 is_stmt 0 view .LVU28
 108 002e EFE7     		b	.L5
 109              	.LVL5:
 110              	.L6:
 111              	.LCFI1:
 112              		.cfi_def_cfa_offset 0
 113              		.cfi_restore 4
 114              		.cfi_restore 14
 208:Drivers/STM32G4xx_HAL_Driver/Src/stm32g4xx_hal_cordic.c ****   }
 115              		.loc 1 208 12 view .LVU29
 116 0030 0120     		movs	r0, #1
 117              	.LVL6:
 262:Drivers/STM32G4xx_HAL_Driver/Src/stm32g4xx_hal_cordic.c **** 
 118              		.loc 1 262 1 view .LVU30
 119 0032 7047     		bx	lr
 120              		.cfi_endproc
 121              	.LFE329:
 123              		.section	.text.HAL_CORDIC_MspDeInit,"ax",%progbits
 124              		.align	1
 125              		.p2align 2,,3
 126              		.weak	HAL_CORDIC_MspDeInit
 127              		.syntax unified
 128              		.thumb
 129              		.thumb_func
 130              		.fpu fpv4-sp-d16
 132              	HAL_CORDIC_MspDeInit:
 133              	.LFB349:
 134              		.cfi_startproc
 135              		@ args = 0, pretend = 0, frame = 0
 136              		@ frame_needed = 0, uses_anonymous_args = 0
 137              		@ link register save eliminated.
 138 0000 7047     		bx	lr
 139              		.cfi_endproc
 140              	.LFE349:
 142 0002 00BF     		.section	.text.HAL_CORDIC_DeInit,"ax",%progbits
 143              		.align	1
 144              		.p2align 2,,3
 145              		.global	HAL_CORDIC_DeInit
 146              		.syntax unified
 147              		.thumb
 148              		.thumb_func
 149              		.fpu fpv4-sp-d16
 151              	HAL_CORDIC_DeInit:
 152              	.LVL7:
 153              	.LFB330:
 270:Drivers/STM32G4xx_HAL_Driver/Src/stm32g4xx_hal_cordic.c ****   /* Check the CORDIC handle allocation */
 154              		.loc 1 270 1 is_stmt 1 view -0
 155              		.cfi_startproc
 156              		@ args = 0, pretend = 0, frame = 0
 157              		@ frame_needed = 0, uses_anonymous_args = 0
ARM GAS  /tmp/ccR9GgNa.s 			page 10


 272:Drivers/STM32G4xx_HAL_Driver/Src/stm32g4xx_hal_cordic.c ****   {
 158              		.loc 1 272 3 view .LVU32
 272:Drivers/STM32G4xx_HAL_Driver/Src/stm32g4xx_hal_cordic.c ****   {
 159              		.loc 1 272 6 is_stmt 0 view .LVU33
 160 0000 90B1     		cbz	r0, .L15
 270:Drivers/STM32G4xx_HAL_Driver/Src/stm32g4xx_hal_cordic.c ****   /* Check the CORDIC handle allocation */
 161              		.loc 1 270 1 view .LVU34
 162 0002 10B5     		push	{r4, lr}
 163              	.LCFI2:
 164              		.cfi_def_cfa_offset 8
 165              		.cfi_offset 4, -8
 166              		.cfi_offset 14, -4
 282:Drivers/STM32G4xx_HAL_Driver/Src/stm32g4xx_hal_cordic.c **** 
 167              		.loc 1 282 18 view .LVU35
 168 0004 0223     		movs	r3, #2
 169 0006 0446     		mov	r4, r0
 279:Drivers/STM32G4xx_HAL_Driver/Src/stm32g4xx_hal_cordic.c **** 
 170              		.loc 1 279 3 is_stmt 1 view .LVU36
 282:Drivers/STM32G4xx_HAL_Driver/Src/stm32g4xx_hal_cordic.c **** 
 171              		.loc 1 282 3 view .LVU37
 282:Drivers/STM32G4xx_HAL_Driver/Src/stm32g4xx_hal_cordic.c **** 
 172              		.loc 1 282 18 is_stmt 0 view .LVU38
 173 0008 80F82130 		strb	r3, [r0, #33]
 294:Drivers/STM32G4xx_HAL_Driver/Src/stm32g4xx_hal_cordic.c **** #endif /* USE_HAL_CORDIC_REGISTER_CALLBACKS */
 174              		.loc 1 294 3 is_stmt 1 view .LVU39
 175 000c FFF7FEFF 		bl	HAL_CORDIC_MspDeInit
 176              	.LVL8:
 298:Drivers/STM32G4xx_HAL_Driver/Src/stm32g4xx_hal_cordic.c **** 
 177              		.loc 1 298 3 view .LVU40
 298:Drivers/STM32G4xx_HAL_Driver/Src/stm32g4xx_hal_cordic.c **** 
 178              		.loc 1 298 22 is_stmt 0 view .LVU41
 179 0010 0020     		movs	r0, #0
 180 0012 6062     		str	r0, [r4, #36]
 301:Drivers/STM32G4xx_HAL_Driver/Src/stm32g4xx_hal_cordic.c ****   hcordic->pOutBuff = NULL;
 181              		.loc 1 301 3 is_stmt 1 view .LVU42
 315:Drivers/STM32G4xx_HAL_Driver/Src/stm32g4xx_hal_cordic.c **** 
 182              		.loc 1 315 17 is_stmt 0 view .LVU43
 183 0014 84F82000 		strb	r0, [r4, #32]
 312:Drivers/STM32G4xx_HAL_Driver/Src/stm32g4xx_hal_cordic.c **** 
 184              		.loc 1 312 18 view .LVU44
 185 0018 84F82100 		strb	r0, [r4, #33]
 302:Drivers/STM32G4xx_HAL_Driver/Src/stm32g4xx_hal_cordic.c **** 
 186              		.loc 1 302 21 view .LVU45
 187 001c C4E90100 		strd	r0, r0, [r4, #4]
 305:Drivers/STM32G4xx_HAL_Driver/Src/stm32g4xx_hal_cordic.c ****   hcordic->NbCalcToGet = 0U;
 188              		.loc 1 305 3 is_stmt 1 view .LVU46
 306:Drivers/STM32G4xx_HAL_Driver/Src/stm32g4xx_hal_cordic.c **** 
 189              		.loc 1 306 24 is_stmt 0 view .LVU47
 190 0020 C4E90300 		strd	r0, r0, [r4, #12]
 309:Drivers/STM32G4xx_HAL_Driver/Src/stm32g4xx_hal_cordic.c **** 
 191              		.loc 1 309 3 is_stmt 1 view .LVU48
 309:Drivers/STM32G4xx_HAL_Driver/Src/stm32g4xx_hal_cordic.c **** 
 192              		.loc 1 309 25 is_stmt 0 view .LVU49
 193 0024 6061     		str	r0, [r4, #20]
 312:Drivers/STM32G4xx_HAL_Driver/Src/stm32g4xx_hal_cordic.c **** 
 194              		.loc 1 312 3 is_stmt 1 view .LVU50
 315:Drivers/STM32G4xx_HAL_Driver/Src/stm32g4xx_hal_cordic.c **** 
ARM GAS  /tmp/ccR9GgNa.s 			page 11


 195              		.loc 1 315 3 view .LVU51
 318:Drivers/STM32G4xx_HAL_Driver/Src/stm32g4xx_hal_cordic.c **** }
 196              		.loc 1 318 3 view .LVU52
 319:Drivers/STM32G4xx_HAL_Driver/Src/stm32g4xx_hal_cordic.c **** 
 197              		.loc 1 319 1 is_stmt 0 view .LVU53
 198 0026 10BD     		pop	{r4, pc}
 199              	.LVL9:
 200              	.L15:
 201              	.LCFI3:
 202              		.cfi_def_cfa_offset 0
 203              		.cfi_restore 4
 204              		.cfi_restore 14
 275:Drivers/STM32G4xx_HAL_Driver/Src/stm32g4xx_hal_cordic.c ****   }
 205              		.loc 1 275 12 view .LVU54
 206 0028 0120     		movs	r0, #1
 207              	.LVL10:
 319:Drivers/STM32G4xx_HAL_Driver/Src/stm32g4xx_hal_cordic.c **** 
 208              		.loc 1 319 1 view .LVU55
 209 002a 7047     		bx	lr
 210              		.cfi_endproc
 211              	.LFE330:
 213              		.section	.text.HAL_CORDIC_Configure,"ax",%progbits
 214              		.align	1
 215              		.p2align 2,,3
 216              		.global	HAL_CORDIC_Configure
 217              		.syntax unified
 218              		.thumb
 219              		.thumb_func
 220              		.fpu fpv4-sp-d16
 222              	HAL_CORDIC_Configure:
 223              	.LVL11:
 224              	.LFB333:
 335:Drivers/STM32G4xx_HAL_Driver/Src/stm32g4xx_hal_cordic.c **** 
 336:Drivers/STM32G4xx_HAL_Driver/Src/stm32g4xx_hal_cordic.c **** /**
 337:Drivers/STM32G4xx_HAL_Driver/Src/stm32g4xx_hal_cordic.c ****   * @brief  DeInitialize the CORDIC MSP.
 338:Drivers/STM32G4xx_HAL_Driver/Src/stm32g4xx_hal_cordic.c ****   * @param  hcordic CORDIC handle
 339:Drivers/STM32G4xx_HAL_Driver/Src/stm32g4xx_hal_cordic.c ****   * @retval None
 340:Drivers/STM32G4xx_HAL_Driver/Src/stm32g4xx_hal_cordic.c ****   */
 341:Drivers/STM32G4xx_HAL_Driver/Src/stm32g4xx_hal_cordic.c **** __weak void HAL_CORDIC_MspDeInit(CORDIC_HandleTypeDef *hcordic)
 342:Drivers/STM32G4xx_HAL_Driver/Src/stm32g4xx_hal_cordic.c **** {
 343:Drivers/STM32G4xx_HAL_Driver/Src/stm32g4xx_hal_cordic.c ****   /* Prevent unused argument(s) compilation warning */
 344:Drivers/STM32G4xx_HAL_Driver/Src/stm32g4xx_hal_cordic.c ****   UNUSED(hcordic);
 345:Drivers/STM32G4xx_HAL_Driver/Src/stm32g4xx_hal_cordic.c **** 
 346:Drivers/STM32G4xx_HAL_Driver/Src/stm32g4xx_hal_cordic.c ****   /* NOTE : This function should not be modified, when the callback is needed,
 347:Drivers/STM32G4xx_HAL_Driver/Src/stm32g4xx_hal_cordic.c ****             the HAL_CORDIC_MspDeInit can be implemented in the user file
 348:Drivers/STM32G4xx_HAL_Driver/Src/stm32g4xx_hal_cordic.c ****    */
 349:Drivers/STM32G4xx_HAL_Driver/Src/stm32g4xx_hal_cordic.c **** }
 350:Drivers/STM32G4xx_HAL_Driver/Src/stm32g4xx_hal_cordic.c **** 
 351:Drivers/STM32G4xx_HAL_Driver/Src/stm32g4xx_hal_cordic.c **** #if USE_HAL_CORDIC_REGISTER_CALLBACKS == 1
 352:Drivers/STM32G4xx_HAL_Driver/Src/stm32g4xx_hal_cordic.c **** /**
 353:Drivers/STM32G4xx_HAL_Driver/Src/stm32g4xx_hal_cordic.c ****   * @brief  Register a CORDIC CallBack.
 354:Drivers/STM32G4xx_HAL_Driver/Src/stm32g4xx_hal_cordic.c ****   *         To be used instead of the weak predefined callback.
 355:Drivers/STM32G4xx_HAL_Driver/Src/stm32g4xx_hal_cordic.c ****   * @param  hcordic pointer to a CORDIC_HandleTypeDef structure that contains
 356:Drivers/STM32G4xx_HAL_Driver/Src/stm32g4xx_hal_cordic.c ****   *         the configuration information for CORDIC module
 357:Drivers/STM32G4xx_HAL_Driver/Src/stm32g4xx_hal_cordic.c ****   * @param  CallbackID ID of the callback to be registered
 358:Drivers/STM32G4xx_HAL_Driver/Src/stm32g4xx_hal_cordic.c ****   *         This parameter can be one of the following values:
 359:Drivers/STM32G4xx_HAL_Driver/Src/stm32g4xx_hal_cordic.c ****   *           @arg @ref HAL_CORDIC_ERROR_CB_ID error Callback ID
ARM GAS  /tmp/ccR9GgNa.s 			page 12


 360:Drivers/STM32G4xx_HAL_Driver/Src/stm32g4xx_hal_cordic.c ****   *           @arg @ref HAL_CORDIC_CALCULATE_CPLT_CB_ID calculate complete Callback ID
 361:Drivers/STM32G4xx_HAL_Driver/Src/stm32g4xx_hal_cordic.c ****   *           @arg @ref HAL_CORDIC_MSPINIT_CB_ID MspInit callback ID
 362:Drivers/STM32G4xx_HAL_Driver/Src/stm32g4xx_hal_cordic.c ****   *           @arg @ref HAL_CORDIC_MSPDEINIT_CB_ID MspDeInit callback ID
 363:Drivers/STM32G4xx_HAL_Driver/Src/stm32g4xx_hal_cordic.c ****   * @param  pCallback pointer to the Callback function
 364:Drivers/STM32G4xx_HAL_Driver/Src/stm32g4xx_hal_cordic.c ****   * @retval HAL status
 365:Drivers/STM32G4xx_HAL_Driver/Src/stm32g4xx_hal_cordic.c ****   */
 366:Drivers/STM32G4xx_HAL_Driver/Src/stm32g4xx_hal_cordic.c **** HAL_StatusTypeDef HAL_CORDIC_RegisterCallback(CORDIC_HandleTypeDef *hcordic, HAL_CORDIC_CallbackIDT
 367:Drivers/STM32G4xx_HAL_Driver/Src/stm32g4xx_hal_cordic.c **** {
 368:Drivers/STM32G4xx_HAL_Driver/Src/stm32g4xx_hal_cordic.c ****   HAL_StatusTypeDef status = HAL_OK;
 369:Drivers/STM32G4xx_HAL_Driver/Src/stm32g4xx_hal_cordic.c **** 
 370:Drivers/STM32G4xx_HAL_Driver/Src/stm32g4xx_hal_cordic.c ****   if (pCallback == NULL)
 371:Drivers/STM32G4xx_HAL_Driver/Src/stm32g4xx_hal_cordic.c ****   {
 372:Drivers/STM32G4xx_HAL_Driver/Src/stm32g4xx_hal_cordic.c ****     /* Update the error code */
 373:Drivers/STM32G4xx_HAL_Driver/Src/stm32g4xx_hal_cordic.c ****     hcordic->ErrorCode |= HAL_CORDIC_ERROR_INVALID_CALLBACK;
 374:Drivers/STM32G4xx_HAL_Driver/Src/stm32g4xx_hal_cordic.c **** 
 375:Drivers/STM32G4xx_HAL_Driver/Src/stm32g4xx_hal_cordic.c ****     /* Return error status */
 376:Drivers/STM32G4xx_HAL_Driver/Src/stm32g4xx_hal_cordic.c ****     return HAL_ERROR;
 377:Drivers/STM32G4xx_HAL_Driver/Src/stm32g4xx_hal_cordic.c ****   }
 378:Drivers/STM32G4xx_HAL_Driver/Src/stm32g4xx_hal_cordic.c **** 
 379:Drivers/STM32G4xx_HAL_Driver/Src/stm32g4xx_hal_cordic.c ****   if (hcordic->State == HAL_CORDIC_STATE_READY)
 380:Drivers/STM32G4xx_HAL_Driver/Src/stm32g4xx_hal_cordic.c ****   {
 381:Drivers/STM32G4xx_HAL_Driver/Src/stm32g4xx_hal_cordic.c ****     switch (CallbackID)
 382:Drivers/STM32G4xx_HAL_Driver/Src/stm32g4xx_hal_cordic.c ****     {
 383:Drivers/STM32G4xx_HAL_Driver/Src/stm32g4xx_hal_cordic.c ****       case HAL_CORDIC_ERROR_CB_ID :
 384:Drivers/STM32G4xx_HAL_Driver/Src/stm32g4xx_hal_cordic.c ****         hcordic->ErrorCallback = pCallback;
 385:Drivers/STM32G4xx_HAL_Driver/Src/stm32g4xx_hal_cordic.c ****         break;
 386:Drivers/STM32G4xx_HAL_Driver/Src/stm32g4xx_hal_cordic.c **** 
 387:Drivers/STM32G4xx_HAL_Driver/Src/stm32g4xx_hal_cordic.c ****       case HAL_CORDIC_CALCULATE_CPLT_CB_ID :
 388:Drivers/STM32G4xx_HAL_Driver/Src/stm32g4xx_hal_cordic.c ****         hcordic->CalculateCpltCallback = pCallback;
 389:Drivers/STM32G4xx_HAL_Driver/Src/stm32g4xx_hal_cordic.c ****         break;
 390:Drivers/STM32G4xx_HAL_Driver/Src/stm32g4xx_hal_cordic.c **** 
 391:Drivers/STM32G4xx_HAL_Driver/Src/stm32g4xx_hal_cordic.c ****       case HAL_CORDIC_MSPINIT_CB_ID :
 392:Drivers/STM32G4xx_HAL_Driver/Src/stm32g4xx_hal_cordic.c ****         hcordic->MspInitCallback = pCallback;
 393:Drivers/STM32G4xx_HAL_Driver/Src/stm32g4xx_hal_cordic.c ****         break;
 394:Drivers/STM32G4xx_HAL_Driver/Src/stm32g4xx_hal_cordic.c **** 
 395:Drivers/STM32G4xx_HAL_Driver/Src/stm32g4xx_hal_cordic.c ****       case HAL_CORDIC_MSPDEINIT_CB_ID :
 396:Drivers/STM32G4xx_HAL_Driver/Src/stm32g4xx_hal_cordic.c ****         hcordic->MspDeInitCallback = pCallback;
 397:Drivers/STM32G4xx_HAL_Driver/Src/stm32g4xx_hal_cordic.c ****         break;
 398:Drivers/STM32G4xx_HAL_Driver/Src/stm32g4xx_hal_cordic.c **** 
 399:Drivers/STM32G4xx_HAL_Driver/Src/stm32g4xx_hal_cordic.c ****       default :
 400:Drivers/STM32G4xx_HAL_Driver/Src/stm32g4xx_hal_cordic.c ****         /* Update the error code */
 401:Drivers/STM32G4xx_HAL_Driver/Src/stm32g4xx_hal_cordic.c ****         hcordic->ErrorCode |= HAL_CORDIC_ERROR_INVALID_CALLBACK;
 402:Drivers/STM32G4xx_HAL_Driver/Src/stm32g4xx_hal_cordic.c **** 
 403:Drivers/STM32G4xx_HAL_Driver/Src/stm32g4xx_hal_cordic.c ****         /* Return error status */
 404:Drivers/STM32G4xx_HAL_Driver/Src/stm32g4xx_hal_cordic.c ****         status = HAL_ERROR;
 405:Drivers/STM32G4xx_HAL_Driver/Src/stm32g4xx_hal_cordic.c ****         break;
 406:Drivers/STM32G4xx_HAL_Driver/Src/stm32g4xx_hal_cordic.c ****     }
 407:Drivers/STM32G4xx_HAL_Driver/Src/stm32g4xx_hal_cordic.c ****   }
 408:Drivers/STM32G4xx_HAL_Driver/Src/stm32g4xx_hal_cordic.c ****   else if (hcordic->State == HAL_CORDIC_STATE_RESET)
 409:Drivers/STM32G4xx_HAL_Driver/Src/stm32g4xx_hal_cordic.c ****   {
 410:Drivers/STM32G4xx_HAL_Driver/Src/stm32g4xx_hal_cordic.c ****     switch (CallbackID)
 411:Drivers/STM32G4xx_HAL_Driver/Src/stm32g4xx_hal_cordic.c ****     {
 412:Drivers/STM32G4xx_HAL_Driver/Src/stm32g4xx_hal_cordic.c ****       case HAL_CORDIC_MSPINIT_CB_ID :
 413:Drivers/STM32G4xx_HAL_Driver/Src/stm32g4xx_hal_cordic.c ****         hcordic->MspInitCallback = pCallback;
 414:Drivers/STM32G4xx_HAL_Driver/Src/stm32g4xx_hal_cordic.c ****         break;
 415:Drivers/STM32G4xx_HAL_Driver/Src/stm32g4xx_hal_cordic.c **** 
 416:Drivers/STM32G4xx_HAL_Driver/Src/stm32g4xx_hal_cordic.c ****       case HAL_CORDIC_MSPDEINIT_CB_ID :
ARM GAS  /tmp/ccR9GgNa.s 			page 13


 417:Drivers/STM32G4xx_HAL_Driver/Src/stm32g4xx_hal_cordic.c ****         hcordic->MspDeInitCallback = pCallback;
 418:Drivers/STM32G4xx_HAL_Driver/Src/stm32g4xx_hal_cordic.c ****         break;
 419:Drivers/STM32G4xx_HAL_Driver/Src/stm32g4xx_hal_cordic.c **** 
 420:Drivers/STM32G4xx_HAL_Driver/Src/stm32g4xx_hal_cordic.c ****       default :
 421:Drivers/STM32G4xx_HAL_Driver/Src/stm32g4xx_hal_cordic.c ****         /* Update the error code */
 422:Drivers/STM32G4xx_HAL_Driver/Src/stm32g4xx_hal_cordic.c ****         hcordic->ErrorCode |= HAL_CORDIC_ERROR_INVALID_CALLBACK;
 423:Drivers/STM32G4xx_HAL_Driver/Src/stm32g4xx_hal_cordic.c **** 
 424:Drivers/STM32G4xx_HAL_Driver/Src/stm32g4xx_hal_cordic.c ****         /* Return error status */
 425:Drivers/STM32G4xx_HAL_Driver/Src/stm32g4xx_hal_cordic.c ****         status = HAL_ERROR;
 426:Drivers/STM32G4xx_HAL_Driver/Src/stm32g4xx_hal_cordic.c ****         break;
 427:Drivers/STM32G4xx_HAL_Driver/Src/stm32g4xx_hal_cordic.c ****     }
 428:Drivers/STM32G4xx_HAL_Driver/Src/stm32g4xx_hal_cordic.c ****   }
 429:Drivers/STM32G4xx_HAL_Driver/Src/stm32g4xx_hal_cordic.c ****   else
 430:Drivers/STM32G4xx_HAL_Driver/Src/stm32g4xx_hal_cordic.c ****   {
 431:Drivers/STM32G4xx_HAL_Driver/Src/stm32g4xx_hal_cordic.c ****     /* Update the error code */
 432:Drivers/STM32G4xx_HAL_Driver/Src/stm32g4xx_hal_cordic.c ****     hcordic->ErrorCode |= HAL_CORDIC_ERROR_INVALID_CALLBACK;
 433:Drivers/STM32G4xx_HAL_Driver/Src/stm32g4xx_hal_cordic.c **** 
 434:Drivers/STM32G4xx_HAL_Driver/Src/stm32g4xx_hal_cordic.c ****     /* Return error status */
 435:Drivers/STM32G4xx_HAL_Driver/Src/stm32g4xx_hal_cordic.c ****     status = HAL_ERROR;
 436:Drivers/STM32G4xx_HAL_Driver/Src/stm32g4xx_hal_cordic.c ****   }
 437:Drivers/STM32G4xx_HAL_Driver/Src/stm32g4xx_hal_cordic.c **** 
 438:Drivers/STM32G4xx_HAL_Driver/Src/stm32g4xx_hal_cordic.c ****   return status;
 439:Drivers/STM32G4xx_HAL_Driver/Src/stm32g4xx_hal_cordic.c **** }
 440:Drivers/STM32G4xx_HAL_Driver/Src/stm32g4xx_hal_cordic.c **** #endif /* USE_HAL_CORDIC_REGISTER_CALLBACKS */
 441:Drivers/STM32G4xx_HAL_Driver/Src/stm32g4xx_hal_cordic.c **** 
 442:Drivers/STM32G4xx_HAL_Driver/Src/stm32g4xx_hal_cordic.c **** #if USE_HAL_CORDIC_REGISTER_CALLBACKS == 1
 443:Drivers/STM32G4xx_HAL_Driver/Src/stm32g4xx_hal_cordic.c **** /**
 444:Drivers/STM32G4xx_HAL_Driver/Src/stm32g4xx_hal_cordic.c ****   * @brief  Unregister a CORDIC CallBack.
 445:Drivers/STM32G4xx_HAL_Driver/Src/stm32g4xx_hal_cordic.c ****   *         CORDIC callback is redirected to the weak predefined callback.
 446:Drivers/STM32G4xx_HAL_Driver/Src/stm32g4xx_hal_cordic.c ****   * @param  hcordic pointer to a CORDIC_HandleTypeDef structure that contains
 447:Drivers/STM32G4xx_HAL_Driver/Src/stm32g4xx_hal_cordic.c ****   *         the configuration information for CORDIC module
 448:Drivers/STM32G4xx_HAL_Driver/Src/stm32g4xx_hal_cordic.c ****   * @param  CallbackID ID of the callback to be unregistered
 449:Drivers/STM32G4xx_HAL_Driver/Src/stm32g4xx_hal_cordic.c ****   *         This parameter can be one of the following values:
 450:Drivers/STM32G4xx_HAL_Driver/Src/stm32g4xx_hal_cordic.c ****   *           @arg @ref HAL_CORDIC_ERROR_CB_ID error Callback ID
 451:Drivers/STM32G4xx_HAL_Driver/Src/stm32g4xx_hal_cordic.c ****   *           @arg @ref HAL_CORDIC_CALCULATE_CPLT_CB_ID calculate complete Callback ID
 452:Drivers/STM32G4xx_HAL_Driver/Src/stm32g4xx_hal_cordic.c ****   *           @arg @ref HAL_CORDIC_MSPINIT_CB_ID MspInit callback ID
 453:Drivers/STM32G4xx_HAL_Driver/Src/stm32g4xx_hal_cordic.c ****   *           @arg @ref HAL_CORDIC_MSPDEINIT_CB_ID MspDeInit callback ID
 454:Drivers/STM32G4xx_HAL_Driver/Src/stm32g4xx_hal_cordic.c ****   * @retval HAL status
 455:Drivers/STM32G4xx_HAL_Driver/Src/stm32g4xx_hal_cordic.c ****   */
 456:Drivers/STM32G4xx_HAL_Driver/Src/stm32g4xx_hal_cordic.c **** HAL_StatusTypeDef HAL_CORDIC_UnRegisterCallback(CORDIC_HandleTypeDef *hcordic, HAL_CORDIC_CallbackI
 457:Drivers/STM32G4xx_HAL_Driver/Src/stm32g4xx_hal_cordic.c **** {
 458:Drivers/STM32G4xx_HAL_Driver/Src/stm32g4xx_hal_cordic.c ****   HAL_StatusTypeDef status = HAL_OK;
 459:Drivers/STM32G4xx_HAL_Driver/Src/stm32g4xx_hal_cordic.c **** 
 460:Drivers/STM32G4xx_HAL_Driver/Src/stm32g4xx_hal_cordic.c ****   if (hcordic->State == HAL_CORDIC_STATE_READY)
 461:Drivers/STM32G4xx_HAL_Driver/Src/stm32g4xx_hal_cordic.c ****   {
 462:Drivers/STM32G4xx_HAL_Driver/Src/stm32g4xx_hal_cordic.c ****     switch (CallbackID)
 463:Drivers/STM32G4xx_HAL_Driver/Src/stm32g4xx_hal_cordic.c ****     {
 464:Drivers/STM32G4xx_HAL_Driver/Src/stm32g4xx_hal_cordic.c ****       case HAL_CORDIC_ERROR_CB_ID :
 465:Drivers/STM32G4xx_HAL_Driver/Src/stm32g4xx_hal_cordic.c ****         hcordic->ErrorCallback = HAL_CORDIC_ErrorCallback;
 466:Drivers/STM32G4xx_HAL_Driver/Src/stm32g4xx_hal_cordic.c ****         break;
 467:Drivers/STM32G4xx_HAL_Driver/Src/stm32g4xx_hal_cordic.c **** 
 468:Drivers/STM32G4xx_HAL_Driver/Src/stm32g4xx_hal_cordic.c ****       case HAL_CORDIC_CALCULATE_CPLT_CB_ID :
 469:Drivers/STM32G4xx_HAL_Driver/Src/stm32g4xx_hal_cordic.c ****         hcordic->CalculateCpltCallback = HAL_CORDIC_CalculateCpltCallback;
 470:Drivers/STM32G4xx_HAL_Driver/Src/stm32g4xx_hal_cordic.c ****         break;
 471:Drivers/STM32G4xx_HAL_Driver/Src/stm32g4xx_hal_cordic.c **** 
 472:Drivers/STM32G4xx_HAL_Driver/Src/stm32g4xx_hal_cordic.c ****       case HAL_CORDIC_MSPINIT_CB_ID :
 473:Drivers/STM32G4xx_HAL_Driver/Src/stm32g4xx_hal_cordic.c ****         hcordic->MspInitCallback = HAL_CORDIC_MspInit;
ARM GAS  /tmp/ccR9GgNa.s 			page 14


 474:Drivers/STM32G4xx_HAL_Driver/Src/stm32g4xx_hal_cordic.c ****         break;
 475:Drivers/STM32G4xx_HAL_Driver/Src/stm32g4xx_hal_cordic.c **** 
 476:Drivers/STM32G4xx_HAL_Driver/Src/stm32g4xx_hal_cordic.c ****       case HAL_CORDIC_MSPDEINIT_CB_ID :
 477:Drivers/STM32G4xx_HAL_Driver/Src/stm32g4xx_hal_cordic.c ****         hcordic->MspDeInitCallback = HAL_CORDIC_MspDeInit;
 478:Drivers/STM32G4xx_HAL_Driver/Src/stm32g4xx_hal_cordic.c ****         break;
 479:Drivers/STM32G4xx_HAL_Driver/Src/stm32g4xx_hal_cordic.c **** 
 480:Drivers/STM32G4xx_HAL_Driver/Src/stm32g4xx_hal_cordic.c ****       default :
 481:Drivers/STM32G4xx_HAL_Driver/Src/stm32g4xx_hal_cordic.c ****         /* Update the error code */
 482:Drivers/STM32G4xx_HAL_Driver/Src/stm32g4xx_hal_cordic.c ****         hcordic->ErrorCode |= HAL_CORDIC_ERROR_INVALID_CALLBACK;
 483:Drivers/STM32G4xx_HAL_Driver/Src/stm32g4xx_hal_cordic.c **** 
 484:Drivers/STM32G4xx_HAL_Driver/Src/stm32g4xx_hal_cordic.c ****         /* Return error status */
 485:Drivers/STM32G4xx_HAL_Driver/Src/stm32g4xx_hal_cordic.c ****         status = HAL_ERROR;
 486:Drivers/STM32G4xx_HAL_Driver/Src/stm32g4xx_hal_cordic.c ****         break;
 487:Drivers/STM32G4xx_HAL_Driver/Src/stm32g4xx_hal_cordic.c ****     }
 488:Drivers/STM32G4xx_HAL_Driver/Src/stm32g4xx_hal_cordic.c ****   }
 489:Drivers/STM32G4xx_HAL_Driver/Src/stm32g4xx_hal_cordic.c ****   else if (hcordic->State == HAL_CORDIC_STATE_RESET)
 490:Drivers/STM32G4xx_HAL_Driver/Src/stm32g4xx_hal_cordic.c ****   {
 491:Drivers/STM32G4xx_HAL_Driver/Src/stm32g4xx_hal_cordic.c ****     switch (CallbackID)
 492:Drivers/STM32G4xx_HAL_Driver/Src/stm32g4xx_hal_cordic.c ****     {
 493:Drivers/STM32G4xx_HAL_Driver/Src/stm32g4xx_hal_cordic.c ****       case HAL_CORDIC_MSPINIT_CB_ID :
 494:Drivers/STM32G4xx_HAL_Driver/Src/stm32g4xx_hal_cordic.c ****         hcordic->MspInitCallback = HAL_CORDIC_MspInit;
 495:Drivers/STM32G4xx_HAL_Driver/Src/stm32g4xx_hal_cordic.c ****         break;
 496:Drivers/STM32G4xx_HAL_Driver/Src/stm32g4xx_hal_cordic.c **** 
 497:Drivers/STM32G4xx_HAL_Driver/Src/stm32g4xx_hal_cordic.c ****       case HAL_CORDIC_MSPDEINIT_CB_ID :
 498:Drivers/STM32G4xx_HAL_Driver/Src/stm32g4xx_hal_cordic.c ****         hcordic->MspDeInitCallback = HAL_CORDIC_MspDeInit;
 499:Drivers/STM32G4xx_HAL_Driver/Src/stm32g4xx_hal_cordic.c ****         break;
 500:Drivers/STM32G4xx_HAL_Driver/Src/stm32g4xx_hal_cordic.c **** 
 501:Drivers/STM32G4xx_HAL_Driver/Src/stm32g4xx_hal_cordic.c ****       default :
 502:Drivers/STM32G4xx_HAL_Driver/Src/stm32g4xx_hal_cordic.c ****         /* Update the error code */
 503:Drivers/STM32G4xx_HAL_Driver/Src/stm32g4xx_hal_cordic.c ****         hcordic->ErrorCode |= HAL_CORDIC_ERROR_INVALID_CALLBACK;
 504:Drivers/STM32G4xx_HAL_Driver/Src/stm32g4xx_hal_cordic.c **** 
 505:Drivers/STM32G4xx_HAL_Driver/Src/stm32g4xx_hal_cordic.c ****         /* Return error status */
 506:Drivers/STM32G4xx_HAL_Driver/Src/stm32g4xx_hal_cordic.c ****         status = HAL_ERROR;
 507:Drivers/STM32G4xx_HAL_Driver/Src/stm32g4xx_hal_cordic.c ****         break;
 508:Drivers/STM32G4xx_HAL_Driver/Src/stm32g4xx_hal_cordic.c ****     }
 509:Drivers/STM32G4xx_HAL_Driver/Src/stm32g4xx_hal_cordic.c ****   }
 510:Drivers/STM32G4xx_HAL_Driver/Src/stm32g4xx_hal_cordic.c ****   else
 511:Drivers/STM32G4xx_HAL_Driver/Src/stm32g4xx_hal_cordic.c ****   {
 512:Drivers/STM32G4xx_HAL_Driver/Src/stm32g4xx_hal_cordic.c ****     /* Update the error code */
 513:Drivers/STM32G4xx_HAL_Driver/Src/stm32g4xx_hal_cordic.c ****     hcordic->ErrorCode |= HAL_CORDIC_ERROR_INVALID_CALLBACK;
 514:Drivers/STM32G4xx_HAL_Driver/Src/stm32g4xx_hal_cordic.c **** 
 515:Drivers/STM32G4xx_HAL_Driver/Src/stm32g4xx_hal_cordic.c ****     /* Return error status */
 516:Drivers/STM32G4xx_HAL_Driver/Src/stm32g4xx_hal_cordic.c ****     status = HAL_ERROR;
 517:Drivers/STM32G4xx_HAL_Driver/Src/stm32g4xx_hal_cordic.c ****   }
 518:Drivers/STM32G4xx_HAL_Driver/Src/stm32g4xx_hal_cordic.c **** 
 519:Drivers/STM32G4xx_HAL_Driver/Src/stm32g4xx_hal_cordic.c ****   return status;
 520:Drivers/STM32G4xx_HAL_Driver/Src/stm32g4xx_hal_cordic.c **** }
 521:Drivers/STM32G4xx_HAL_Driver/Src/stm32g4xx_hal_cordic.c **** #endif /* USE_HAL_CORDIC_REGISTER_CALLBACKS */
 522:Drivers/STM32G4xx_HAL_Driver/Src/stm32g4xx_hal_cordic.c **** 
 523:Drivers/STM32G4xx_HAL_Driver/Src/stm32g4xx_hal_cordic.c **** /**
 524:Drivers/STM32G4xx_HAL_Driver/Src/stm32g4xx_hal_cordic.c ****   * @}
 525:Drivers/STM32G4xx_HAL_Driver/Src/stm32g4xx_hal_cordic.c ****   */
 526:Drivers/STM32G4xx_HAL_Driver/Src/stm32g4xx_hal_cordic.c **** 
 527:Drivers/STM32G4xx_HAL_Driver/Src/stm32g4xx_hal_cordic.c **** /** @defgroup CORDIC_Exported_Functions_Group2 Peripheral Control functions
 528:Drivers/STM32G4xx_HAL_Driver/Src/stm32g4xx_hal_cordic.c ****  *  @brief    Control functions.
 529:Drivers/STM32G4xx_HAL_Driver/Src/stm32g4xx_hal_cordic.c ****  *
 530:Drivers/STM32G4xx_HAL_Driver/Src/stm32g4xx_hal_cordic.c **** @verbatim
ARM GAS  /tmp/ccR9GgNa.s 			page 15


 531:Drivers/STM32G4xx_HAL_Driver/Src/stm32g4xx_hal_cordic.c ****   ==============================================================================
 532:Drivers/STM32G4xx_HAL_Driver/Src/stm32g4xx_hal_cordic.c ****                       ##### Peripheral Control functions #####
 533:Drivers/STM32G4xx_HAL_Driver/Src/stm32g4xx_hal_cordic.c ****   ==============================================================================
 534:Drivers/STM32G4xx_HAL_Driver/Src/stm32g4xx_hal_cordic.c ****     [..]  This section provides functions allowing to:
 535:Drivers/STM32G4xx_HAL_Driver/Src/stm32g4xx_hal_cordic.c ****       (+) Configure the CORDIC peripheral: function, precision, scaling factor,
 536:Drivers/STM32G4xx_HAL_Driver/Src/stm32g4xx_hal_cordic.c ****           number of input data and output data, size of input data and output data.
 537:Drivers/STM32G4xx_HAL_Driver/Src/stm32g4xx_hal_cordic.c ****       (+) Calculate output data of CORDIC processing on input date, using the
 538:Drivers/STM32G4xx_HAL_Driver/Src/stm32g4xx_hal_cordic.c ****           existing CORDIC configuration
 539:Drivers/STM32G4xx_HAL_Driver/Src/stm32g4xx_hal_cordic.c ****     [..]  Four processing functions are available for calculation:
 540:Drivers/STM32G4xx_HAL_Driver/Src/stm32g4xx_hal_cordic.c ****       (+) Polling mode
 541:Drivers/STM32G4xx_HAL_Driver/Src/stm32g4xx_hal_cordic.c ****       (+) Polling mode, with Zero-Overhead register access
 542:Drivers/STM32G4xx_HAL_Driver/Src/stm32g4xx_hal_cordic.c ****       (+) Interrupt mode
 543:Drivers/STM32G4xx_HAL_Driver/Src/stm32g4xx_hal_cordic.c ****       (+) DMA mode
 544:Drivers/STM32G4xx_HAL_Driver/Src/stm32g4xx_hal_cordic.c **** 
 545:Drivers/STM32G4xx_HAL_Driver/Src/stm32g4xx_hal_cordic.c **** @endverbatim
 546:Drivers/STM32G4xx_HAL_Driver/Src/stm32g4xx_hal_cordic.c ****   * @{
 547:Drivers/STM32G4xx_HAL_Driver/Src/stm32g4xx_hal_cordic.c ****   */
 548:Drivers/STM32G4xx_HAL_Driver/Src/stm32g4xx_hal_cordic.c **** 
 549:Drivers/STM32G4xx_HAL_Driver/Src/stm32g4xx_hal_cordic.c **** /**
 550:Drivers/STM32G4xx_HAL_Driver/Src/stm32g4xx_hal_cordic.c ****   * @brief  Configure the CORDIC processing according to the specified
 551:Drivers/STM32G4xx_HAL_Driver/Src/stm32g4xx_hal_cordic.c ****             parameters in the CORDIC_ConfigTypeDef structure.
 552:Drivers/STM32G4xx_HAL_Driver/Src/stm32g4xx_hal_cordic.c ****   * @param  hcordic pointer to a CORDIC_HandleTypeDef structure that contains
 553:Drivers/STM32G4xx_HAL_Driver/Src/stm32g4xx_hal_cordic.c ****   *         the configuration information for CORDIC module
 554:Drivers/STM32G4xx_HAL_Driver/Src/stm32g4xx_hal_cordic.c ****   * @param  sConfig pointer to a CORDIC_ConfigTypeDef structure that
 555:Drivers/STM32G4xx_HAL_Driver/Src/stm32g4xx_hal_cordic.c ****   *         contains the CORDIC configuration information.
 556:Drivers/STM32G4xx_HAL_Driver/Src/stm32g4xx_hal_cordic.c ****   * @retval HAL status
 557:Drivers/STM32G4xx_HAL_Driver/Src/stm32g4xx_hal_cordic.c ****   */
 558:Drivers/STM32G4xx_HAL_Driver/Src/stm32g4xx_hal_cordic.c **** HAL_StatusTypeDef HAL_CORDIC_Configure(CORDIC_HandleTypeDef *hcordic, CORDIC_ConfigTypeDef *sConfig
 559:Drivers/STM32G4xx_HAL_Driver/Src/stm32g4xx_hal_cordic.c **** {
 225              		.loc 1 559 1 is_stmt 1 view -0
 226              		.cfi_startproc
 227              		@ args = 0, pretend = 0, frame = 0
 228              		@ frame_needed = 0, uses_anonymous_args = 0
 229              		@ link register save eliminated.
 560:Drivers/STM32G4xx_HAL_Driver/Src/stm32g4xx_hal_cordic.c ****   HAL_StatusTypeDef status = HAL_OK;
 230              		.loc 1 560 3 view .LVU57
 561:Drivers/STM32G4xx_HAL_Driver/Src/stm32g4xx_hal_cordic.c **** 
 562:Drivers/STM32G4xx_HAL_Driver/Src/stm32g4xx_hal_cordic.c ****   /* Check the parameters */
 563:Drivers/STM32G4xx_HAL_Driver/Src/stm32g4xx_hal_cordic.c ****   assert_param(IS_CORDIC_FUNCTION(sConfig->Function));
 231              		.loc 1 563 3 view .LVU58
 564:Drivers/STM32G4xx_HAL_Driver/Src/stm32g4xx_hal_cordic.c ****   assert_param(IS_CORDIC_PRECISION(sConfig->Precision));
 232              		.loc 1 564 3 view .LVU59
 565:Drivers/STM32G4xx_HAL_Driver/Src/stm32g4xx_hal_cordic.c ****   assert_param(IS_CORDIC_SCALE(sConfig->Scale));
 233              		.loc 1 565 3 view .LVU60
 566:Drivers/STM32G4xx_HAL_Driver/Src/stm32g4xx_hal_cordic.c ****   assert_param(IS_CORDIC_NBWRITE(sConfig->NbWrite));
 234              		.loc 1 566 3 view .LVU61
 567:Drivers/STM32G4xx_HAL_Driver/Src/stm32g4xx_hal_cordic.c ****   assert_param(IS_CORDIC_NBREAD(sConfig->NbRead));
 235              		.loc 1 567 3 view .LVU62
 568:Drivers/STM32G4xx_HAL_Driver/Src/stm32g4xx_hal_cordic.c ****   assert_param(IS_CORDIC_INSIZE(sConfig->InSize));
 236              		.loc 1 568 3 view .LVU63
 569:Drivers/STM32G4xx_HAL_Driver/Src/stm32g4xx_hal_cordic.c ****   assert_param(IS_CORDIC_OUTSIZE(sConfig->OutSize));
 237              		.loc 1 569 3 view .LVU64
 570:Drivers/STM32G4xx_HAL_Driver/Src/stm32g4xx_hal_cordic.c **** 
 571:Drivers/STM32G4xx_HAL_Driver/Src/stm32g4xx_hal_cordic.c ****   /* Check handle state is ready */
 572:Drivers/STM32G4xx_HAL_Driver/Src/stm32g4xx_hal_cordic.c ****   if (hcordic->State == HAL_CORDIC_STATE_READY)
 238              		.loc 1 572 3 view .LVU65
 239              		.loc 1 572 14 is_stmt 0 view .LVU66
ARM GAS  /tmp/ccR9GgNa.s 			page 16


 240 0000 90F82130 		ldrb	r3, [r0, #33]	@ zero_extendqisi2
 241              		.loc 1 572 6 view .LVU67
 242 0004 012B     		cmp	r3, #1
 243 0006 05D0     		beq	.L27
 573:Drivers/STM32G4xx_HAL_Driver/Src/stm32g4xx_hal_cordic.c ****   {
 574:Drivers/STM32G4xx_HAL_Driver/Src/stm32g4xx_hal_cordic.c ****     /* Apply all configuration parameters in CORDIC control register */
 575:Drivers/STM32G4xx_HAL_Driver/Src/stm32g4xx_hal_cordic.c ****     MODIFY_REG(hcordic->Instance->CSR,                                                         \
 576:Drivers/STM32G4xx_HAL_Driver/Src/stm32g4xx_hal_cordic.c ****                (CORDIC_CSR_FUNC | CORDIC_CSR_PRECISION | CORDIC_CSR_SCALE |                    \
 577:Drivers/STM32G4xx_HAL_Driver/Src/stm32g4xx_hal_cordic.c ****                 CORDIC_CSR_NARGS | CORDIC_CSR_NRES | CORDIC_CSR_ARGSIZE | CORDIC_CSR_RESSIZE), \
 578:Drivers/STM32G4xx_HAL_Driver/Src/stm32g4xx_hal_cordic.c ****                (sConfig->Function | sConfig->Precision | sConfig->Scale |                      \
 579:Drivers/STM32G4xx_HAL_Driver/Src/stm32g4xx_hal_cordic.c ****                 sConfig->NbWrite | sConfig->NbRead | sConfig->InSize | sConfig->OutSize));
 580:Drivers/STM32G4xx_HAL_Driver/Src/stm32g4xx_hal_cordic.c ****   }
 581:Drivers/STM32G4xx_HAL_Driver/Src/stm32g4xx_hal_cordic.c ****   else
 582:Drivers/STM32G4xx_HAL_Driver/Src/stm32g4xx_hal_cordic.c ****   {
 583:Drivers/STM32G4xx_HAL_Driver/Src/stm32g4xx_hal_cordic.c ****     /* Set CORDIC error code */
 584:Drivers/STM32G4xx_HAL_Driver/Src/stm32g4xx_hal_cordic.c ****     hcordic->ErrorCode |= HAL_CORDIC_ERROR_NOT_READY;
 244              		.loc 1 584 5 is_stmt 1 view .LVU68
 245              		.loc 1 584 24 is_stmt 0 view .LVU69
 246 0008 436A     		ldr	r3, [r0, #36]
 247 000a 43F00203 		orr	r3, r3, #2
 248 000e 4362     		str	r3, [r0, #36]
 585:Drivers/STM32G4xx_HAL_Driver/Src/stm32g4xx_hal_cordic.c **** 
 586:Drivers/STM32G4xx_HAL_Driver/Src/stm32g4xx_hal_cordic.c ****     /* Return error status */
 587:Drivers/STM32G4xx_HAL_Driver/Src/stm32g4xx_hal_cordic.c ****     status = HAL_ERROR;
 249              		.loc 1 587 5 is_stmt 1 view .LVU70
 250              	.LVL12:
 251              		.loc 1 587 12 is_stmt 0 view .LVU71
 252 0010 0120     		movs	r0, #1
 253              	.LVL13:
 588:Drivers/STM32G4xx_HAL_Driver/Src/stm32g4xx_hal_cordic.c ****   }
 589:Drivers/STM32G4xx_HAL_Driver/Src/stm32g4xx_hal_cordic.c **** 
 590:Drivers/STM32G4xx_HAL_Driver/Src/stm32g4xx_hal_cordic.c ****   /* Return function status */
 591:Drivers/STM32G4xx_HAL_Driver/Src/stm32g4xx_hal_cordic.c ****   return status;
 254              		.loc 1 591 3 is_stmt 1 view .LVU72
 592:Drivers/STM32G4xx_HAL_Driver/Src/stm32g4xx_hal_cordic.c **** }
 255              		.loc 1 592 1 is_stmt 0 view .LVU73
 256 0012 7047     		bx	lr
 257              	.LVL14:
 258              	.L27:
 575:Drivers/STM32G4xx_HAL_Driver/Src/stm32g4xx_hal_cordic.c ****                (CORDIC_CSR_FUNC | CORDIC_CSR_PRECISION | CORDIC_CSR_SCALE |                    \
 259              		.loc 1 575 5 is_stmt 1 view .LVU74
 559:Drivers/STM32G4xx_HAL_Driver/Src/stm32g4xx_hal_cordic.c ****   HAL_StatusTypeDef status = HAL_OK;
 260              		.loc 1 559 1 is_stmt 0 view .LVU75
 261 0014 70B4     		push	{r4, r5, r6}
 262              	.LCFI4:
 263              		.cfi_def_cfa_offset 12
 264              		.cfi_offset 4, -12
 265              		.cfi_offset 5, -8
 266              		.cfi_offset 6, -4
 575:Drivers/STM32G4xx_HAL_Driver/Src/stm32g4xx_hal_cordic.c ****                (CORDIC_CSR_FUNC | CORDIC_CSR_PRECISION | CORDIC_CSR_SCALE |                    \
 267              		.loc 1 575 5 view .LVU76
 268 0016 0B68     		ldr	r3, [r1]
 269 0018 8C69     		ldr	r4, [r1, #24]
 270 001a 4A68     		ldr	r2, [r1, #4]
 271 001c 0E69     		ldr	r6, [r1, #16]
 272 001e 0068     		ldr	r0, [r0]
 273              	.LVL15:
ARM GAS  /tmp/ccR9GgNa.s 			page 17


 575:Drivers/STM32G4xx_HAL_Driver/Src/stm32g4xx_hal_cordic.c ****                (CORDIC_CSR_FUNC | CORDIC_CSR_PRECISION | CORDIC_CSR_SCALE |                    \
 274              		.loc 1 575 5 view .LVU77
 275 0020 2343     		orrs	r3, r3, r4
 276 0022 1343     		orrs	r3, r3, r2
 277 0024 D1E90254 		ldrd	r5, r4, [r1, #8]
 278 0028 4A69     		ldr	r2, [r1, #20]
 279 002a 0168     		ldr	r1, [r0]
 280              	.LVL16:
 575:Drivers/STM32G4xx_HAL_Driver/Src/stm32g4xx_hal_cordic.c ****                (CORDIC_CSR_FUNC | CORDIC_CSR_PRECISION | CORDIC_CSR_SCALE |                    \
 281              		.loc 1 575 5 view .LVU78
 282 002c 3343     		orrs	r3, r3, r6
 283 002e 1343     		orrs	r3, r3, r2
 284 0030 044A     		ldr	r2, .L28
 285 0032 2B43     		orrs	r3, r3, r5
 286 0034 2343     		orrs	r3, r3, r4
 287 0036 0A40     		ands	r2, r2, r1
 288 0038 1343     		orrs	r3, r3, r2
 289 003a 0360     		str	r3, [r0]
 290              		.loc 1 592 1 view .LVU79
 291 003c 70BC     		pop	{r4, r5, r6}
 292              	.LCFI5:
 293              		.cfi_restore 6
 294              		.cfi_restore 5
 295              		.cfi_restore 4
 296              		.cfi_def_cfa_offset 0
 560:Drivers/STM32G4xx_HAL_Driver/Src/stm32g4xx_hal_cordic.c **** 
 297              		.loc 1 560 21 view .LVU80
 298 003e 0020     		movs	r0, #0
 299              	.LVL17:
 591:Drivers/STM32G4xx_HAL_Driver/Src/stm32g4xx_hal_cordic.c **** }
 300              		.loc 1 591 3 is_stmt 1 view .LVU81
 301              		.loc 1 592 1 is_stmt 0 view .LVU82
 302 0040 7047     		bx	lr
 303              	.L29:
 304 0042 00BF     		.align	2
 305              	.L28:
 306 0044 00F887FF 		.word	-7866368
 307              		.cfi_endproc
 308              	.LFE333:
 310              		.section	.text.HAL_CORDIC_Calculate,"ax",%progbits
 311              		.align	1
 312              		.p2align 2,,3
 313              		.global	HAL_CORDIC_Calculate
 314              		.syntax unified
 315              		.thumb
 316              		.thumb_func
 317              		.fpu fpv4-sp-d16
 319              	HAL_CORDIC_Calculate:
 320              	.LVL18:
 321              	.LFB334:
 593:Drivers/STM32G4xx_HAL_Driver/Src/stm32g4xx_hal_cordic.c **** 
 594:Drivers/STM32G4xx_HAL_Driver/Src/stm32g4xx_hal_cordic.c **** /**
 595:Drivers/STM32G4xx_HAL_Driver/Src/stm32g4xx_hal_cordic.c ****   * @brief  Carry out data of CORDIC processing in polling mode,
 596:Drivers/STM32G4xx_HAL_Driver/Src/stm32g4xx_hal_cordic.c ****   *         according to the existing CORDIC configuration.
 597:Drivers/STM32G4xx_HAL_Driver/Src/stm32g4xx_hal_cordic.c ****   * @param  hcordic pointer to a CORDIC_HandleTypeDef structure that contains
 598:Drivers/STM32G4xx_HAL_Driver/Src/stm32g4xx_hal_cordic.c ****   *         the configuration information for CORDIC module.
 599:Drivers/STM32G4xx_HAL_Driver/Src/stm32g4xx_hal_cordic.c ****   * @param  pInBuff Pointer to buffer containing input data for CORDIC processing.
ARM GAS  /tmp/ccR9GgNa.s 			page 18


 600:Drivers/STM32G4xx_HAL_Driver/Src/stm32g4xx_hal_cordic.c ****   * @param  pOutBuff Pointer to buffer where output data of CORDIC processing will be stored.
 601:Drivers/STM32G4xx_HAL_Driver/Src/stm32g4xx_hal_cordic.c ****   * @param  NbCalc Number of CORDIC calculation to process.
 602:Drivers/STM32G4xx_HAL_Driver/Src/stm32g4xx_hal_cordic.c ****   * @param  Timeout Specify Timeout value
 603:Drivers/STM32G4xx_HAL_Driver/Src/stm32g4xx_hal_cordic.c ****   * @retval HAL status
 604:Drivers/STM32G4xx_HAL_Driver/Src/stm32g4xx_hal_cordic.c ****   */
 605:Drivers/STM32G4xx_HAL_Driver/Src/stm32g4xx_hal_cordic.c **** HAL_StatusTypeDef HAL_CORDIC_Calculate(CORDIC_HandleTypeDef *hcordic, int32_t *pInBuff, int32_t *pO
 606:Drivers/STM32G4xx_HAL_Driver/Src/stm32g4xx_hal_cordic.c **** {
 322              		.loc 1 606 1 is_stmt 1 view -0
 323              		.cfi_startproc
 324              		@ args = 4, pretend = 0, frame = 0
 325              		@ frame_needed = 0, uses_anonymous_args = 0
 607:Drivers/STM32G4xx_HAL_Driver/Src/stm32g4xx_hal_cordic.c ****   uint32_t tickstart;
 326              		.loc 1 607 3 view .LVU84
 608:Drivers/STM32G4xx_HAL_Driver/Src/stm32g4xx_hal_cordic.c ****   uint32_t index;
 327              		.loc 1 608 3 view .LVU85
 609:Drivers/STM32G4xx_HAL_Driver/Src/stm32g4xx_hal_cordic.c ****   int32_t *p_tmp_in_buff = pInBuff;
 328              		.loc 1 609 3 view .LVU86
 610:Drivers/STM32G4xx_HAL_Driver/Src/stm32g4xx_hal_cordic.c ****   int32_t *p_tmp_out_buff = pOutBuff;
 329              		.loc 1 610 3 view .LVU87
 606:Drivers/STM32G4xx_HAL_Driver/Src/stm32g4xx_hal_cordic.c ****   uint32_t tickstart;
 330              		.loc 1 606 1 is_stmt 0 view .LVU88
 331 0000 2DE9F047 		push	{r4, r5, r6, r7, r8, r9, r10, lr}
 332              	.LCFI6:
 333              		.cfi_def_cfa_offset 32
 334              		.cfi_offset 4, -32
 335              		.cfi_offset 5, -28
 336              		.cfi_offset 6, -24
 337              		.cfi_offset 7, -20
 338              		.cfi_offset 8, -16
 339              		.cfi_offset 9, -12
 340              		.cfi_offset 10, -8
 341              		.cfi_offset 14, -4
 606:Drivers/STM32G4xx_HAL_Driver/Src/stm32g4xx_hal_cordic.c ****   uint32_t tickstart;
 342              		.loc 1 606 1 view .LVU89
 343 0004 DDF820A0 		ldr	r10, [sp, #32]
 344 0008 8146     		mov	r9, r0
 345              	.LVL19:
 611:Drivers/STM32G4xx_HAL_Driver/Src/stm32g4xx_hal_cordic.c **** 
 612:Drivers/STM32G4xx_HAL_Driver/Src/stm32g4xx_hal_cordic.c ****   /* Check parameters setting */
 613:Drivers/STM32G4xx_HAL_Driver/Src/stm32g4xx_hal_cordic.c ****   if ((pInBuff == NULL) || (pOutBuff == NULL) || (NbCalc == 0U))
 346              		.loc 1 613 3 is_stmt 1 view .LVU90
 347              		.loc 1 613 6 is_stmt 0 view .LVU91
 348 000a 91B1     		cbz	r1, .L31
 349 000c 1646     		mov	r6, r2
 350              		.loc 1 613 25 discriminator 1 view .LVU92
 351 000e 82B1     		cbz	r2, .L31
 352 0010 1D46     		mov	r5, r3
 353              		.loc 1 613 47 discriminator 2 view .LVU93
 354 0012 73B1     		cbz	r3, .L31
 614:Drivers/STM32G4xx_HAL_Driver/Src/stm32g4xx_hal_cordic.c ****   {
 615:Drivers/STM32G4xx_HAL_Driver/Src/stm32g4xx_hal_cordic.c ****     /* Update the error code */
 616:Drivers/STM32G4xx_HAL_Driver/Src/stm32g4xx_hal_cordic.c ****     hcordic->ErrorCode |= HAL_CORDIC_ERROR_PARAM;
 617:Drivers/STM32G4xx_HAL_Driver/Src/stm32g4xx_hal_cordic.c **** 
 618:Drivers/STM32G4xx_HAL_Driver/Src/stm32g4xx_hal_cordic.c ****     /* Return error status */
 619:Drivers/STM32G4xx_HAL_Driver/Src/stm32g4xx_hal_cordic.c ****     return HAL_ERROR;
 620:Drivers/STM32G4xx_HAL_Driver/Src/stm32g4xx_hal_cordic.c ****   }
 621:Drivers/STM32G4xx_HAL_Driver/Src/stm32g4xx_hal_cordic.c **** 
ARM GAS  /tmp/ccR9GgNa.s 			page 19


 622:Drivers/STM32G4xx_HAL_Driver/Src/stm32g4xx_hal_cordic.c ****   /* Check handle state is ready */
 623:Drivers/STM32G4xx_HAL_Driver/Src/stm32g4xx_hal_cordic.c ****   if (hcordic->State == HAL_CORDIC_STATE_READY)
 355              		.loc 1 623 3 is_stmt 1 view .LVU94
 356              		.loc 1 623 14 is_stmt 0 view .LVU95
 357 0014 90F82130 		ldrb	r3, [r0, #33]	@ zero_extendqisi2
 358              	.LVL20:
 359              		.loc 1 623 6 view .LVU96
 360 0018 012B     		cmp	r3, #1
 361              		.loc 1 623 14 view .LVU97
 362 001a 5FFA83F8 		uxtb	r8, r3
 363              		.loc 1 623 6 view .LVU98
 364 001e 13D0     		beq	.L66
 624:Drivers/STM32G4xx_HAL_Driver/Src/stm32g4xx_hal_cordic.c ****   {
 625:Drivers/STM32G4xx_HAL_Driver/Src/stm32g4xx_hal_cordic.c ****     /* Reset CORDIC error code */
 626:Drivers/STM32G4xx_HAL_Driver/Src/stm32g4xx_hal_cordic.c ****     hcordic->ErrorCode = HAL_CORDIC_ERROR_NONE;
 627:Drivers/STM32G4xx_HAL_Driver/Src/stm32g4xx_hal_cordic.c **** 
 628:Drivers/STM32G4xx_HAL_Driver/Src/stm32g4xx_hal_cordic.c ****     /* Change the CORDIC state */
 629:Drivers/STM32G4xx_HAL_Driver/Src/stm32g4xx_hal_cordic.c ****     hcordic->State = HAL_CORDIC_STATE_BUSY;
 630:Drivers/STM32G4xx_HAL_Driver/Src/stm32g4xx_hal_cordic.c **** 
 631:Drivers/STM32G4xx_HAL_Driver/Src/stm32g4xx_hal_cordic.c ****     /* Get tick */
 632:Drivers/STM32G4xx_HAL_Driver/Src/stm32g4xx_hal_cordic.c ****     tickstart = HAL_GetTick();
 633:Drivers/STM32G4xx_HAL_Driver/Src/stm32g4xx_hal_cordic.c **** 
 634:Drivers/STM32G4xx_HAL_Driver/Src/stm32g4xx_hal_cordic.c ****     /* Write of input data in Write Data register, and increment input buffer pointer */
 635:Drivers/STM32G4xx_HAL_Driver/Src/stm32g4xx_hal_cordic.c ****     CORDIC_WriteInDataIncrementPtr(hcordic, &p_tmp_in_buff);
 636:Drivers/STM32G4xx_HAL_Driver/Src/stm32g4xx_hal_cordic.c **** 
 637:Drivers/STM32G4xx_HAL_Driver/Src/stm32g4xx_hal_cordic.c ****     /* Calculation is started.
 638:Drivers/STM32G4xx_HAL_Driver/Src/stm32g4xx_hal_cordic.c ****        Provide next set of input data, until number of calculation is achieved */
 639:Drivers/STM32G4xx_HAL_Driver/Src/stm32g4xx_hal_cordic.c ****     for (index = (NbCalc - 1U); index > 0U; index--)
 640:Drivers/STM32G4xx_HAL_Driver/Src/stm32g4xx_hal_cordic.c ****     {
 641:Drivers/STM32G4xx_HAL_Driver/Src/stm32g4xx_hal_cordic.c ****       /* Write of input data in Write Data register, and increment input buffer pointer */
 642:Drivers/STM32G4xx_HAL_Driver/Src/stm32g4xx_hal_cordic.c ****       CORDIC_WriteInDataIncrementPtr(hcordic, &p_tmp_in_buff);
 643:Drivers/STM32G4xx_HAL_Driver/Src/stm32g4xx_hal_cordic.c **** 
 644:Drivers/STM32G4xx_HAL_Driver/Src/stm32g4xx_hal_cordic.c ****       /* Wait for RRDY flag to be raised */
 645:Drivers/STM32G4xx_HAL_Driver/Src/stm32g4xx_hal_cordic.c ****       do
 646:Drivers/STM32G4xx_HAL_Driver/Src/stm32g4xx_hal_cordic.c ****       {
 647:Drivers/STM32G4xx_HAL_Driver/Src/stm32g4xx_hal_cordic.c ****         /* Check for the Timeout */
 648:Drivers/STM32G4xx_HAL_Driver/Src/stm32g4xx_hal_cordic.c ****         if (Timeout != HAL_MAX_DELAY)
 649:Drivers/STM32G4xx_HAL_Driver/Src/stm32g4xx_hal_cordic.c ****         {
 650:Drivers/STM32G4xx_HAL_Driver/Src/stm32g4xx_hal_cordic.c ****           if ((HAL_GetTick() - tickstart) > Timeout)
 651:Drivers/STM32G4xx_HAL_Driver/Src/stm32g4xx_hal_cordic.c ****           {
 652:Drivers/STM32G4xx_HAL_Driver/Src/stm32g4xx_hal_cordic.c ****             /* Set CORDIC error code */
 653:Drivers/STM32G4xx_HAL_Driver/Src/stm32g4xx_hal_cordic.c ****             hcordic->ErrorCode = HAL_CORDIC_ERROR_TIMEOUT;
 654:Drivers/STM32G4xx_HAL_Driver/Src/stm32g4xx_hal_cordic.c **** 
 655:Drivers/STM32G4xx_HAL_Driver/Src/stm32g4xx_hal_cordic.c ****             /* Change the CORDIC state */
 656:Drivers/STM32G4xx_HAL_Driver/Src/stm32g4xx_hal_cordic.c ****             hcordic->State = HAL_CORDIC_STATE_READY;
 657:Drivers/STM32G4xx_HAL_Driver/Src/stm32g4xx_hal_cordic.c **** 
 658:Drivers/STM32G4xx_HAL_Driver/Src/stm32g4xx_hal_cordic.c ****             /* Return function status */
 659:Drivers/STM32G4xx_HAL_Driver/Src/stm32g4xx_hal_cordic.c ****             return HAL_ERROR;
 660:Drivers/STM32G4xx_HAL_Driver/Src/stm32g4xx_hal_cordic.c ****           }
 661:Drivers/STM32G4xx_HAL_Driver/Src/stm32g4xx_hal_cordic.c ****         }
 662:Drivers/STM32G4xx_HAL_Driver/Src/stm32g4xx_hal_cordic.c ****       }
 663:Drivers/STM32G4xx_HAL_Driver/Src/stm32g4xx_hal_cordic.c ****       while (HAL_IS_BIT_CLR(hcordic->Instance->CSR, CORDIC_CSR_RRDY));
 664:Drivers/STM32G4xx_HAL_Driver/Src/stm32g4xx_hal_cordic.c **** 
 665:Drivers/STM32G4xx_HAL_Driver/Src/stm32g4xx_hal_cordic.c ****       /* Read output data from Read Data register, and increment output buffer pointer */
 666:Drivers/STM32G4xx_HAL_Driver/Src/stm32g4xx_hal_cordic.c ****       CORDIC_ReadOutDataIncrementPtr(hcordic, &p_tmp_out_buff);
 667:Drivers/STM32G4xx_HAL_Driver/Src/stm32g4xx_hal_cordic.c ****     }
 668:Drivers/STM32G4xx_HAL_Driver/Src/stm32g4xx_hal_cordic.c **** 
ARM GAS  /tmp/ccR9GgNa.s 			page 20


 669:Drivers/STM32G4xx_HAL_Driver/Src/stm32g4xx_hal_cordic.c ****     /* Read output data from Read Data register, and increment output buffer pointer */
 670:Drivers/STM32G4xx_HAL_Driver/Src/stm32g4xx_hal_cordic.c ****     CORDIC_ReadOutDataIncrementPtr(hcordic, &p_tmp_out_buff);
 671:Drivers/STM32G4xx_HAL_Driver/Src/stm32g4xx_hal_cordic.c **** 
 672:Drivers/STM32G4xx_HAL_Driver/Src/stm32g4xx_hal_cordic.c ****     /* Change the CORDIC state */
 673:Drivers/STM32G4xx_HAL_Driver/Src/stm32g4xx_hal_cordic.c ****     hcordic->State = HAL_CORDIC_STATE_READY;
 674:Drivers/STM32G4xx_HAL_Driver/Src/stm32g4xx_hal_cordic.c **** 
 675:Drivers/STM32G4xx_HAL_Driver/Src/stm32g4xx_hal_cordic.c ****     /* Return function status */
 676:Drivers/STM32G4xx_HAL_Driver/Src/stm32g4xx_hal_cordic.c ****     return HAL_OK;
 677:Drivers/STM32G4xx_HAL_Driver/Src/stm32g4xx_hal_cordic.c ****   }
 678:Drivers/STM32G4xx_HAL_Driver/Src/stm32g4xx_hal_cordic.c ****   else
 679:Drivers/STM32G4xx_HAL_Driver/Src/stm32g4xx_hal_cordic.c ****   {
 680:Drivers/STM32G4xx_HAL_Driver/Src/stm32g4xx_hal_cordic.c ****     /* Set CORDIC error code */
 681:Drivers/STM32G4xx_HAL_Driver/Src/stm32g4xx_hal_cordic.c ****     hcordic->ErrorCode |= HAL_CORDIC_ERROR_NOT_READY;
 365              		.loc 1 681 5 is_stmt 1 view .LVU99
 366              		.loc 1 681 24 is_stmt 0 view .LVU100
 367 0020 436A     		ldr	r3, [r0, #36]
 682:Drivers/STM32G4xx_HAL_Driver/Src/stm32g4xx_hal_cordic.c **** 
 683:Drivers/STM32G4xx_HAL_Driver/Src/stm32g4xx_hal_cordic.c ****     /* Return function status */
 684:Drivers/STM32G4xx_HAL_Driver/Src/stm32g4xx_hal_cordic.c ****     return HAL_ERROR;
 368              		.loc 1 684 12 view .LVU101
 369 0022 4FF00108 		mov	r8, #1
 681:Drivers/STM32G4xx_HAL_Driver/Src/stm32g4xx_hal_cordic.c **** 
 370              		.loc 1 681 24 view .LVU102
 371 0026 43F00203 		orr	r3, r3, #2
 372 002a 4362     		str	r3, [r0, #36]
 373              	.LVL21:
 374              		.loc 1 684 5 is_stmt 1 view .LVU103
 685:Drivers/STM32G4xx_HAL_Driver/Src/stm32g4xx_hal_cordic.c ****   }
 686:Drivers/STM32G4xx_HAL_Driver/Src/stm32g4xx_hal_cordic.c **** }
 375              		.loc 1 686 1 is_stmt 0 view .LVU104
 376 002c 4046     		mov	r0, r8
 377              	.LVL22:
 378              		.loc 1 686 1 view .LVU105
 379 002e BDE8F087 		pop	{r4, r5, r6, r7, r8, r9, r10, pc}
 380              	.LVL23:
 381              	.L31:
 616:Drivers/STM32G4xx_HAL_Driver/Src/stm32g4xx_hal_cordic.c **** 
 382              		.loc 1 616 5 is_stmt 1 view .LVU106
 616:Drivers/STM32G4xx_HAL_Driver/Src/stm32g4xx_hal_cordic.c **** 
 383              		.loc 1 616 24 is_stmt 0 view .LVU107
 384 0032 D9F82430 		ldr	r3, [r9, #36]
 385              	.LVL24:
 616:Drivers/STM32G4xx_HAL_Driver/Src/stm32g4xx_hal_cordic.c **** 
 386              		.loc 1 616 24 view .LVU108
 387 0036 43F00103 		orr	r3, r3, #1
 388 003a C9F82430 		str	r3, [r9, #36]
 389              	.LVL25:
 619:Drivers/STM32G4xx_HAL_Driver/Src/stm32g4xx_hal_cordic.c ****   }
 390              		.loc 1 619 5 is_stmt 1 view .LVU109
 619:Drivers/STM32G4xx_HAL_Driver/Src/stm32g4xx_hal_cordic.c ****   }
 391              		.loc 1 619 12 is_stmt 0 view .LVU110
 392 003e 4FF00108 		mov	r8, #1
 393              	.LVL26:
 394              	.L33:
 395              		.loc 1 686 1 view .LVU111
 396 0042 4046     		mov	r0, r8
 397 0044 BDE8F087 		pop	{r4, r5, r6, r7, r8, r9, r10, pc}
ARM GAS  /tmp/ccR9GgNa.s 			page 21


 398              	.LVL27:
 399              	.L66:
 626:Drivers/STM32G4xx_HAL_Driver/Src/stm32g4xx_hal_cordic.c **** 
 400              		.loc 1 626 5 is_stmt 1 view .LVU112
 626:Drivers/STM32G4xx_HAL_Driver/Src/stm32g4xx_hal_cordic.c **** 
 401              		.loc 1 626 24 is_stmt 0 view .LVU113
 402 0048 0022     		movs	r2, #0
 403              	.LVL28:
 629:Drivers/STM32G4xx_HAL_Driver/Src/stm32g4xx_hal_cordic.c **** 
 404              		.loc 1 629 20 view .LVU114
 405 004a 0223     		movs	r3, #2
 406 004c 0C46     		mov	r4, r1
 626:Drivers/STM32G4xx_HAL_Driver/Src/stm32g4xx_hal_cordic.c **** 
 407              		.loc 1 626 24 view .LVU115
 408 004e 4262     		str	r2, [r0, #36]
 629:Drivers/STM32G4xx_HAL_Driver/Src/stm32g4xx_hal_cordic.c **** 
 409              		.loc 1 629 5 is_stmt 1 view .LVU116
 629:Drivers/STM32G4xx_HAL_Driver/Src/stm32g4xx_hal_cordic.c **** 
 410              		.loc 1 629 20 is_stmt 0 view .LVU117
 411 0050 80F82130 		strb	r3, [r0, #33]
 632:Drivers/STM32G4xx_HAL_Driver/Src/stm32g4xx_hal_cordic.c **** 
 412              		.loc 1 632 5 is_stmt 1 view .LVU118
 632:Drivers/STM32G4xx_HAL_Driver/Src/stm32g4xx_hal_cordic.c **** 
 413              		.loc 1 632 17 is_stmt 0 view .LVU119
 414 0054 FFF7FEFF 		bl	HAL_GetTick
 415              	.LVL29:
 416              	.LBB22:
 417              	.LBB23:
 687:Drivers/STM32G4xx_HAL_Driver/Src/stm32g4xx_hal_cordic.c **** 
 688:Drivers/STM32G4xx_HAL_Driver/Src/stm32g4xx_hal_cordic.c **** /**
 689:Drivers/STM32G4xx_HAL_Driver/Src/stm32g4xx_hal_cordic.c ****   * @brief  Carry out data of CORDIC processing in Zero-Overhead mode (output data being read
 690:Drivers/STM32G4xx_HAL_Driver/Src/stm32g4xx_hal_cordic.c ****   *         soon as input data are written), according to the existing CORDIC configuration.
 691:Drivers/STM32G4xx_HAL_Driver/Src/stm32g4xx_hal_cordic.c ****   * @param  hcordic pointer to a CORDIC_HandleTypeDef structure that contains
 692:Drivers/STM32G4xx_HAL_Driver/Src/stm32g4xx_hal_cordic.c ****   *         the configuration information for CORDIC module.
 693:Drivers/STM32G4xx_HAL_Driver/Src/stm32g4xx_hal_cordic.c ****   * @param  pInBuff Pointer to buffer containing input data for CORDIC processing.
 694:Drivers/STM32G4xx_HAL_Driver/Src/stm32g4xx_hal_cordic.c ****   * @param  pOutBuff Pointer to buffer where output data of CORDIC processing will be stored.
 695:Drivers/STM32G4xx_HAL_Driver/Src/stm32g4xx_hal_cordic.c ****   * @param  NbCalc Number of CORDIC calculation to process.
 696:Drivers/STM32G4xx_HAL_Driver/Src/stm32g4xx_hal_cordic.c ****   * @param  Timeout Specify Timeout value
 697:Drivers/STM32G4xx_HAL_Driver/Src/stm32g4xx_hal_cordic.c ****   * @retval HAL status
 698:Drivers/STM32G4xx_HAL_Driver/Src/stm32g4xx_hal_cordic.c ****   */
 699:Drivers/STM32G4xx_HAL_Driver/Src/stm32g4xx_hal_cordic.c **** HAL_StatusTypeDef HAL_CORDIC_CalculateZO(CORDIC_HandleTypeDef *hcordic, int32_t *pInBuff, int32_t *
 700:Drivers/STM32G4xx_HAL_Driver/Src/stm32g4xx_hal_cordic.c **** {
 701:Drivers/STM32G4xx_HAL_Driver/Src/stm32g4xx_hal_cordic.c ****   uint32_t tickstart;
 702:Drivers/STM32G4xx_HAL_Driver/Src/stm32g4xx_hal_cordic.c ****   uint32_t index;
 703:Drivers/STM32G4xx_HAL_Driver/Src/stm32g4xx_hal_cordic.c ****   int32_t *p_tmp_in_buff = pInBuff;
 704:Drivers/STM32G4xx_HAL_Driver/Src/stm32g4xx_hal_cordic.c ****   int32_t *p_tmp_out_buff = pOutBuff;
 705:Drivers/STM32G4xx_HAL_Driver/Src/stm32g4xx_hal_cordic.c **** 
 706:Drivers/STM32G4xx_HAL_Driver/Src/stm32g4xx_hal_cordic.c ****   /* Check parameters setting */
 707:Drivers/STM32G4xx_HAL_Driver/Src/stm32g4xx_hal_cordic.c ****   if ((pInBuff == NULL) || (pOutBuff == NULL) || (NbCalc == 0U))
 708:Drivers/STM32G4xx_HAL_Driver/Src/stm32g4xx_hal_cordic.c ****   {
 709:Drivers/STM32G4xx_HAL_Driver/Src/stm32g4xx_hal_cordic.c ****     /* Update the error code */
 710:Drivers/STM32G4xx_HAL_Driver/Src/stm32g4xx_hal_cordic.c ****     hcordic->ErrorCode |= HAL_CORDIC_ERROR_PARAM;
 711:Drivers/STM32G4xx_HAL_Driver/Src/stm32g4xx_hal_cordic.c **** 
 712:Drivers/STM32G4xx_HAL_Driver/Src/stm32g4xx_hal_cordic.c ****     /* Return error status */
 713:Drivers/STM32G4xx_HAL_Driver/Src/stm32g4xx_hal_cordic.c ****     return HAL_ERROR;
 714:Drivers/STM32G4xx_HAL_Driver/Src/stm32g4xx_hal_cordic.c ****   }
 715:Drivers/STM32G4xx_HAL_Driver/Src/stm32g4xx_hal_cordic.c **** 
ARM GAS  /tmp/ccR9GgNa.s 			page 22


 716:Drivers/STM32G4xx_HAL_Driver/Src/stm32g4xx_hal_cordic.c ****   /* Check handle state is ready */
 717:Drivers/STM32G4xx_HAL_Driver/Src/stm32g4xx_hal_cordic.c ****   if (hcordic->State == HAL_CORDIC_STATE_READY)
 718:Drivers/STM32G4xx_HAL_Driver/Src/stm32g4xx_hal_cordic.c ****   {
 719:Drivers/STM32G4xx_HAL_Driver/Src/stm32g4xx_hal_cordic.c ****     /* Reset CORDIC error code */
 720:Drivers/STM32G4xx_HAL_Driver/Src/stm32g4xx_hal_cordic.c ****     hcordic->ErrorCode = HAL_CORDIC_ERROR_NONE;
 721:Drivers/STM32G4xx_HAL_Driver/Src/stm32g4xx_hal_cordic.c **** 
 722:Drivers/STM32G4xx_HAL_Driver/Src/stm32g4xx_hal_cordic.c ****     /* Change the CORDIC state */
 723:Drivers/STM32G4xx_HAL_Driver/Src/stm32g4xx_hal_cordic.c ****     hcordic->State = HAL_CORDIC_STATE_BUSY;
 724:Drivers/STM32G4xx_HAL_Driver/Src/stm32g4xx_hal_cordic.c **** 
 725:Drivers/STM32G4xx_HAL_Driver/Src/stm32g4xx_hal_cordic.c ****     /* Get tick */
 726:Drivers/STM32G4xx_HAL_Driver/Src/stm32g4xx_hal_cordic.c ****     tickstart = HAL_GetTick();
 727:Drivers/STM32G4xx_HAL_Driver/Src/stm32g4xx_hal_cordic.c **** 
 728:Drivers/STM32G4xx_HAL_Driver/Src/stm32g4xx_hal_cordic.c ****     /* Write of input data in Write Data register, and increment input buffer pointer */
 729:Drivers/STM32G4xx_HAL_Driver/Src/stm32g4xx_hal_cordic.c ****     CORDIC_WriteInDataIncrementPtr(hcordic, &p_tmp_in_buff);
 730:Drivers/STM32G4xx_HAL_Driver/Src/stm32g4xx_hal_cordic.c **** 
 731:Drivers/STM32G4xx_HAL_Driver/Src/stm32g4xx_hal_cordic.c ****     /* Calculation is started.
 732:Drivers/STM32G4xx_HAL_Driver/Src/stm32g4xx_hal_cordic.c ****        Provide next set of input data, until number of calculation is achieved */
 733:Drivers/STM32G4xx_HAL_Driver/Src/stm32g4xx_hal_cordic.c ****     for (index = (NbCalc - 1U); index > 0U; index--)
 734:Drivers/STM32G4xx_HAL_Driver/Src/stm32g4xx_hal_cordic.c ****     {
 735:Drivers/STM32G4xx_HAL_Driver/Src/stm32g4xx_hal_cordic.c ****       /* Write of input data in Write Data register, and increment input buffer pointer */
 736:Drivers/STM32G4xx_HAL_Driver/Src/stm32g4xx_hal_cordic.c ****       CORDIC_WriteInDataIncrementPtr(hcordic, &p_tmp_in_buff);
 737:Drivers/STM32G4xx_HAL_Driver/Src/stm32g4xx_hal_cordic.c **** 
 738:Drivers/STM32G4xx_HAL_Driver/Src/stm32g4xx_hal_cordic.c ****       /* Read output data from Read Data register, and increment output buffer pointer
 739:Drivers/STM32G4xx_HAL_Driver/Src/stm32g4xx_hal_cordic.c ****          The reading is performed in Zero-Overhead mode:
 740:Drivers/STM32G4xx_HAL_Driver/Src/stm32g4xx_hal_cordic.c ****          reading is ordered immediately without waiting result ready flag */
 741:Drivers/STM32G4xx_HAL_Driver/Src/stm32g4xx_hal_cordic.c ****       CORDIC_ReadOutDataIncrementPtr(hcordic, &p_tmp_out_buff);
 742:Drivers/STM32G4xx_HAL_Driver/Src/stm32g4xx_hal_cordic.c **** 
 743:Drivers/STM32G4xx_HAL_Driver/Src/stm32g4xx_hal_cordic.c ****       /* Check for the Timeout */
 744:Drivers/STM32G4xx_HAL_Driver/Src/stm32g4xx_hal_cordic.c ****       if (Timeout != HAL_MAX_DELAY)
 745:Drivers/STM32G4xx_HAL_Driver/Src/stm32g4xx_hal_cordic.c ****       {
 746:Drivers/STM32G4xx_HAL_Driver/Src/stm32g4xx_hal_cordic.c ****         if ((HAL_GetTick() - tickstart) > Timeout)
 747:Drivers/STM32G4xx_HAL_Driver/Src/stm32g4xx_hal_cordic.c ****         {
 748:Drivers/STM32G4xx_HAL_Driver/Src/stm32g4xx_hal_cordic.c ****           /* Set CORDIC error code */
 749:Drivers/STM32G4xx_HAL_Driver/Src/stm32g4xx_hal_cordic.c ****           hcordic->ErrorCode = HAL_CORDIC_ERROR_TIMEOUT;
 750:Drivers/STM32G4xx_HAL_Driver/Src/stm32g4xx_hal_cordic.c **** 
 751:Drivers/STM32G4xx_HAL_Driver/Src/stm32g4xx_hal_cordic.c ****           /* Change the CORDIC state */
 752:Drivers/STM32G4xx_HAL_Driver/Src/stm32g4xx_hal_cordic.c ****           hcordic->State = HAL_CORDIC_STATE_READY;
 753:Drivers/STM32G4xx_HAL_Driver/Src/stm32g4xx_hal_cordic.c **** 
 754:Drivers/STM32G4xx_HAL_Driver/Src/stm32g4xx_hal_cordic.c ****           /* Return function status */
 755:Drivers/STM32G4xx_HAL_Driver/Src/stm32g4xx_hal_cordic.c ****           return HAL_ERROR;
 756:Drivers/STM32G4xx_HAL_Driver/Src/stm32g4xx_hal_cordic.c ****         }
 757:Drivers/STM32G4xx_HAL_Driver/Src/stm32g4xx_hal_cordic.c ****       }
 758:Drivers/STM32G4xx_HAL_Driver/Src/stm32g4xx_hal_cordic.c ****     }
 759:Drivers/STM32G4xx_HAL_Driver/Src/stm32g4xx_hal_cordic.c **** 
 760:Drivers/STM32G4xx_HAL_Driver/Src/stm32g4xx_hal_cordic.c ****     /* Read output data from Read Data register, and increment output buffer pointer
 761:Drivers/STM32G4xx_HAL_Driver/Src/stm32g4xx_hal_cordic.c ****        The reading is performed in Zero-Overhead mode:
 762:Drivers/STM32G4xx_HAL_Driver/Src/stm32g4xx_hal_cordic.c ****        reading is ordered immediately without waiting result ready flag */
 763:Drivers/STM32G4xx_HAL_Driver/Src/stm32g4xx_hal_cordic.c ****     CORDIC_ReadOutDataIncrementPtr(hcordic, &p_tmp_out_buff);
 764:Drivers/STM32G4xx_HAL_Driver/Src/stm32g4xx_hal_cordic.c **** 
 765:Drivers/STM32G4xx_HAL_Driver/Src/stm32g4xx_hal_cordic.c ****     /* Change the CORDIC state */
 766:Drivers/STM32G4xx_HAL_Driver/Src/stm32g4xx_hal_cordic.c ****     hcordic->State = HAL_CORDIC_STATE_READY;
 767:Drivers/STM32G4xx_HAL_Driver/Src/stm32g4xx_hal_cordic.c **** 
 768:Drivers/STM32G4xx_HAL_Driver/Src/stm32g4xx_hal_cordic.c ****     /* Return function status */
 769:Drivers/STM32G4xx_HAL_Driver/Src/stm32g4xx_hal_cordic.c ****     return HAL_OK;
 770:Drivers/STM32G4xx_HAL_Driver/Src/stm32g4xx_hal_cordic.c ****   }
 771:Drivers/STM32G4xx_HAL_Driver/Src/stm32g4xx_hal_cordic.c ****   else
 772:Drivers/STM32G4xx_HAL_Driver/Src/stm32g4xx_hal_cordic.c ****   {
ARM GAS  /tmp/ccR9GgNa.s 			page 23


 773:Drivers/STM32G4xx_HAL_Driver/Src/stm32g4xx_hal_cordic.c ****     /* Set CORDIC error code */
 774:Drivers/STM32G4xx_HAL_Driver/Src/stm32g4xx_hal_cordic.c ****     hcordic->ErrorCode |= HAL_CORDIC_ERROR_NOT_READY;
 775:Drivers/STM32G4xx_HAL_Driver/Src/stm32g4xx_hal_cordic.c **** 
 776:Drivers/STM32G4xx_HAL_Driver/Src/stm32g4xx_hal_cordic.c ****     /* Return function status */
 777:Drivers/STM32G4xx_HAL_Driver/Src/stm32g4xx_hal_cordic.c ****     return HAL_ERROR;
 778:Drivers/STM32G4xx_HAL_Driver/Src/stm32g4xx_hal_cordic.c ****   }
 779:Drivers/STM32G4xx_HAL_Driver/Src/stm32g4xx_hal_cordic.c **** }
 780:Drivers/STM32G4xx_HAL_Driver/Src/stm32g4xx_hal_cordic.c **** 
 781:Drivers/STM32G4xx_HAL_Driver/Src/stm32g4xx_hal_cordic.c **** /**
 782:Drivers/STM32G4xx_HAL_Driver/Src/stm32g4xx_hal_cordic.c ****   * @brief  Carry out data of CORDIC processing in interrupt mode,
 783:Drivers/STM32G4xx_HAL_Driver/Src/stm32g4xx_hal_cordic.c ****   *         according to the existing CORDIC configuration.
 784:Drivers/STM32G4xx_HAL_Driver/Src/stm32g4xx_hal_cordic.c ****   * @param  hcordic pointer to a CORDIC_HandleTypeDef structure that contains
 785:Drivers/STM32G4xx_HAL_Driver/Src/stm32g4xx_hal_cordic.c ****   *         the configuration information for CORDIC module.
 786:Drivers/STM32G4xx_HAL_Driver/Src/stm32g4xx_hal_cordic.c ****   * @param  pInBuff Pointer to buffer containing input data for CORDIC processing.
 787:Drivers/STM32G4xx_HAL_Driver/Src/stm32g4xx_hal_cordic.c ****   * @param  pOutBuff Pointer to buffer where output data of CORDIC processing will be stored.
 788:Drivers/STM32G4xx_HAL_Driver/Src/stm32g4xx_hal_cordic.c ****   * @param  NbCalc Number of CORDIC calculation to process.
 789:Drivers/STM32G4xx_HAL_Driver/Src/stm32g4xx_hal_cordic.c ****   * @retval HAL status
 790:Drivers/STM32G4xx_HAL_Driver/Src/stm32g4xx_hal_cordic.c ****   */
 791:Drivers/STM32G4xx_HAL_Driver/Src/stm32g4xx_hal_cordic.c **** HAL_StatusTypeDef HAL_CORDIC_Calculate_IT(CORDIC_HandleTypeDef *hcordic, int32_t *pInBuff, int32_t 
 792:Drivers/STM32G4xx_HAL_Driver/Src/stm32g4xx_hal_cordic.c **** {
 793:Drivers/STM32G4xx_HAL_Driver/Src/stm32g4xx_hal_cordic.c ****   int32_t *tmp_pInBuff = pInBuff;
 794:Drivers/STM32G4xx_HAL_Driver/Src/stm32g4xx_hal_cordic.c **** 
 795:Drivers/STM32G4xx_HAL_Driver/Src/stm32g4xx_hal_cordic.c ****   /* Check parameters setting */
 796:Drivers/STM32G4xx_HAL_Driver/Src/stm32g4xx_hal_cordic.c ****   if ((pInBuff == NULL) || (pOutBuff == NULL) || (NbCalc == 0U))
 797:Drivers/STM32G4xx_HAL_Driver/Src/stm32g4xx_hal_cordic.c ****   {
 798:Drivers/STM32G4xx_HAL_Driver/Src/stm32g4xx_hal_cordic.c ****     /* Update the error code */
 799:Drivers/STM32G4xx_HAL_Driver/Src/stm32g4xx_hal_cordic.c ****     hcordic->ErrorCode |= HAL_CORDIC_ERROR_PARAM;
 800:Drivers/STM32G4xx_HAL_Driver/Src/stm32g4xx_hal_cordic.c **** 
 801:Drivers/STM32G4xx_HAL_Driver/Src/stm32g4xx_hal_cordic.c ****     /* Return error status */
 802:Drivers/STM32G4xx_HAL_Driver/Src/stm32g4xx_hal_cordic.c ****     return HAL_ERROR;
 803:Drivers/STM32G4xx_HAL_Driver/Src/stm32g4xx_hal_cordic.c ****   }
 804:Drivers/STM32G4xx_HAL_Driver/Src/stm32g4xx_hal_cordic.c **** 
 805:Drivers/STM32G4xx_HAL_Driver/Src/stm32g4xx_hal_cordic.c ****   /* Check handle state is ready */
 806:Drivers/STM32G4xx_HAL_Driver/Src/stm32g4xx_hal_cordic.c ****   if (hcordic->State == HAL_CORDIC_STATE_READY)
 807:Drivers/STM32G4xx_HAL_Driver/Src/stm32g4xx_hal_cordic.c ****   {
 808:Drivers/STM32G4xx_HAL_Driver/Src/stm32g4xx_hal_cordic.c ****     /* Reset CORDIC error code */
 809:Drivers/STM32G4xx_HAL_Driver/Src/stm32g4xx_hal_cordic.c ****     hcordic->ErrorCode = HAL_CORDIC_ERROR_NONE;
 810:Drivers/STM32G4xx_HAL_Driver/Src/stm32g4xx_hal_cordic.c **** 
 811:Drivers/STM32G4xx_HAL_Driver/Src/stm32g4xx_hal_cordic.c ****     /* Change the CORDIC state */
 812:Drivers/STM32G4xx_HAL_Driver/Src/stm32g4xx_hal_cordic.c ****     hcordic->State = HAL_CORDIC_STATE_BUSY;
 813:Drivers/STM32G4xx_HAL_Driver/Src/stm32g4xx_hal_cordic.c **** 
 814:Drivers/STM32G4xx_HAL_Driver/Src/stm32g4xx_hal_cordic.c ****     /* Store the buffers addresses and number of calculations in handle,
 815:Drivers/STM32G4xx_HAL_Driver/Src/stm32g4xx_hal_cordic.c ****        provisioning initial write of input data that will be done */
 816:Drivers/STM32G4xx_HAL_Driver/Src/stm32g4xx_hal_cordic.c ****     if (HAL_IS_BIT_SET(hcordic->Instance->CSR, CORDIC_CSR_NARGS))
 817:Drivers/STM32G4xx_HAL_Driver/Src/stm32g4xx_hal_cordic.c ****     {
 818:Drivers/STM32G4xx_HAL_Driver/Src/stm32g4xx_hal_cordic.c ****       /* Two writes of input data are expected */
 819:Drivers/STM32G4xx_HAL_Driver/Src/stm32g4xx_hal_cordic.c ****       tmp_pInBuff++;
 820:Drivers/STM32G4xx_HAL_Driver/Src/stm32g4xx_hal_cordic.c ****       tmp_pInBuff++;
 821:Drivers/STM32G4xx_HAL_Driver/Src/stm32g4xx_hal_cordic.c ****     }
 822:Drivers/STM32G4xx_HAL_Driver/Src/stm32g4xx_hal_cordic.c ****     else
 823:Drivers/STM32G4xx_HAL_Driver/Src/stm32g4xx_hal_cordic.c ****     {
 824:Drivers/STM32G4xx_HAL_Driver/Src/stm32g4xx_hal_cordic.c ****       /* One write of input data is expected */
 825:Drivers/STM32G4xx_HAL_Driver/Src/stm32g4xx_hal_cordic.c ****       tmp_pInBuff++;
 826:Drivers/STM32G4xx_HAL_Driver/Src/stm32g4xx_hal_cordic.c ****     }
 827:Drivers/STM32G4xx_HAL_Driver/Src/stm32g4xx_hal_cordic.c ****     hcordic->pInBuff = tmp_pInBuff;
 828:Drivers/STM32G4xx_HAL_Driver/Src/stm32g4xx_hal_cordic.c ****     hcordic->pOutBuff = pOutBuff;
 829:Drivers/STM32G4xx_HAL_Driver/Src/stm32g4xx_hal_cordic.c ****     hcordic->NbCalcToOrder = NbCalc - 1U;
ARM GAS  /tmp/ccR9GgNa.s 			page 24


 830:Drivers/STM32G4xx_HAL_Driver/Src/stm32g4xx_hal_cordic.c ****     hcordic->NbCalcToGet = NbCalc;
 831:Drivers/STM32G4xx_HAL_Driver/Src/stm32g4xx_hal_cordic.c **** 
 832:Drivers/STM32G4xx_HAL_Driver/Src/stm32g4xx_hal_cordic.c ****     /* Enable Result Ready Interrupt */
 833:Drivers/STM32G4xx_HAL_Driver/Src/stm32g4xx_hal_cordic.c ****     __HAL_CORDIC_ENABLE_IT(hcordic, CORDIC_IT_IEN);
 834:Drivers/STM32G4xx_HAL_Driver/Src/stm32g4xx_hal_cordic.c **** 
 835:Drivers/STM32G4xx_HAL_Driver/Src/stm32g4xx_hal_cordic.c ****     /* Set back pointer to start of input data buffer */
 836:Drivers/STM32G4xx_HAL_Driver/Src/stm32g4xx_hal_cordic.c ****     tmp_pInBuff = pInBuff;
 837:Drivers/STM32G4xx_HAL_Driver/Src/stm32g4xx_hal_cordic.c **** 
 838:Drivers/STM32G4xx_HAL_Driver/Src/stm32g4xx_hal_cordic.c ****     /* Initiate the processing by providing input data
 839:Drivers/STM32G4xx_HAL_Driver/Src/stm32g4xx_hal_cordic.c ****        in the Write Data register */
 840:Drivers/STM32G4xx_HAL_Driver/Src/stm32g4xx_hal_cordic.c ****     WRITE_REG(hcordic->Instance->WDATA, (uint32_t)*tmp_pInBuff);
 841:Drivers/STM32G4xx_HAL_Driver/Src/stm32g4xx_hal_cordic.c **** 
 842:Drivers/STM32G4xx_HAL_Driver/Src/stm32g4xx_hal_cordic.c ****     /* Check if second write of input data is expected */
 843:Drivers/STM32G4xx_HAL_Driver/Src/stm32g4xx_hal_cordic.c ****     if (HAL_IS_BIT_SET(hcordic->Instance->CSR, CORDIC_CSR_NARGS))
 844:Drivers/STM32G4xx_HAL_Driver/Src/stm32g4xx_hal_cordic.c ****     {
 845:Drivers/STM32G4xx_HAL_Driver/Src/stm32g4xx_hal_cordic.c ****       /* Increment pointer to input data */
 846:Drivers/STM32G4xx_HAL_Driver/Src/stm32g4xx_hal_cordic.c ****       tmp_pInBuff++;
 847:Drivers/STM32G4xx_HAL_Driver/Src/stm32g4xx_hal_cordic.c **** 
 848:Drivers/STM32G4xx_HAL_Driver/Src/stm32g4xx_hal_cordic.c ****       /* Perform second write of input data */
 849:Drivers/STM32G4xx_HAL_Driver/Src/stm32g4xx_hal_cordic.c ****       WRITE_REG(hcordic->Instance->WDATA, (uint32_t)*tmp_pInBuff);
 850:Drivers/STM32G4xx_HAL_Driver/Src/stm32g4xx_hal_cordic.c ****     }
 851:Drivers/STM32G4xx_HAL_Driver/Src/stm32g4xx_hal_cordic.c **** 
 852:Drivers/STM32G4xx_HAL_Driver/Src/stm32g4xx_hal_cordic.c ****     /* Return function status */
 853:Drivers/STM32G4xx_HAL_Driver/Src/stm32g4xx_hal_cordic.c ****     return HAL_OK;
 854:Drivers/STM32G4xx_HAL_Driver/Src/stm32g4xx_hal_cordic.c ****   }
 855:Drivers/STM32G4xx_HAL_Driver/Src/stm32g4xx_hal_cordic.c ****   else
 856:Drivers/STM32G4xx_HAL_Driver/Src/stm32g4xx_hal_cordic.c ****   {
 857:Drivers/STM32G4xx_HAL_Driver/Src/stm32g4xx_hal_cordic.c ****     /* Set CORDIC error code */
 858:Drivers/STM32G4xx_HAL_Driver/Src/stm32g4xx_hal_cordic.c ****     hcordic->ErrorCode |= HAL_CORDIC_ERROR_NOT_READY;
 859:Drivers/STM32G4xx_HAL_Driver/Src/stm32g4xx_hal_cordic.c **** 
 860:Drivers/STM32G4xx_HAL_Driver/Src/stm32g4xx_hal_cordic.c ****     /* Return function status */
 861:Drivers/STM32G4xx_HAL_Driver/Src/stm32g4xx_hal_cordic.c ****     return HAL_ERROR;
 862:Drivers/STM32G4xx_HAL_Driver/Src/stm32g4xx_hal_cordic.c ****   }
 863:Drivers/STM32G4xx_HAL_Driver/Src/stm32g4xx_hal_cordic.c **** }
 864:Drivers/STM32G4xx_HAL_Driver/Src/stm32g4xx_hal_cordic.c **** 
 865:Drivers/STM32G4xx_HAL_Driver/Src/stm32g4xx_hal_cordic.c **** /**
 866:Drivers/STM32G4xx_HAL_Driver/Src/stm32g4xx_hal_cordic.c ****   * @brief  Carry out input and/or output data of CORDIC processing in DMA mode,
 867:Drivers/STM32G4xx_HAL_Driver/Src/stm32g4xx_hal_cordic.c ****   *         according to the existing CORDIC configuration.
 868:Drivers/STM32G4xx_HAL_Driver/Src/stm32g4xx_hal_cordic.c ****   * @param  hcordic pointer to a CORDIC_HandleTypeDef structure that contains
 869:Drivers/STM32G4xx_HAL_Driver/Src/stm32g4xx_hal_cordic.c ****   *         the configuration information for CORDIC module.
 870:Drivers/STM32G4xx_HAL_Driver/Src/stm32g4xx_hal_cordic.c ****   * @param  pInBuff Pointer to buffer containing input data for CORDIC processing.
 871:Drivers/STM32G4xx_HAL_Driver/Src/stm32g4xx_hal_cordic.c ****   * @param  pOutBuff Pointer to buffer where output data of CORDIC processing will be stored.
 872:Drivers/STM32G4xx_HAL_Driver/Src/stm32g4xx_hal_cordic.c ****   * @param  NbCalc Number of CORDIC calculation to process.
 873:Drivers/STM32G4xx_HAL_Driver/Src/stm32g4xx_hal_cordic.c ****   * @param  DMADirection Direction of DMA transfers.
 874:Drivers/STM32G4xx_HAL_Driver/Src/stm32g4xx_hal_cordic.c ****   *         This parameter can be one of the following values:
 875:Drivers/STM32G4xx_HAL_Driver/Src/stm32g4xx_hal_cordic.c ****   *            @arg @ref CORDIC_DMA_Direction CORDIC DMA direction
 876:Drivers/STM32G4xx_HAL_Driver/Src/stm32g4xx_hal_cordic.c ****   * @note   pInBuff or pOutBuff is unused in case of unique DMADirection transfer, and can
 877:Drivers/STM32G4xx_HAL_Driver/Src/stm32g4xx_hal_cordic.c ****   *         be set to NULL value in this case.
 878:Drivers/STM32G4xx_HAL_Driver/Src/stm32g4xx_hal_cordic.c ****   * @note   pInBuff and pOutBuff buffers must be 32-bit aligned to ensure a correct
 879:Drivers/STM32G4xx_HAL_Driver/Src/stm32g4xx_hal_cordic.c ****   *         DMA transfer to and from the Peripheral.
 880:Drivers/STM32G4xx_HAL_Driver/Src/stm32g4xx_hal_cordic.c ****   * @retval HAL status
 881:Drivers/STM32G4xx_HAL_Driver/Src/stm32g4xx_hal_cordic.c ****   */
 882:Drivers/STM32G4xx_HAL_Driver/Src/stm32g4xx_hal_cordic.c **** HAL_StatusTypeDef HAL_CORDIC_Calculate_DMA(CORDIC_HandleTypeDef *hcordic, int32_t *pInBuff, int32_t
 883:Drivers/STM32G4xx_HAL_Driver/Src/stm32g4xx_hal_cordic.c **** {
 884:Drivers/STM32G4xx_HAL_Driver/Src/stm32g4xx_hal_cordic.c ****   uint32_t sizeinbuff;
 885:Drivers/STM32G4xx_HAL_Driver/Src/stm32g4xx_hal_cordic.c ****   uint32_t sizeoutbuff;
 886:Drivers/STM32G4xx_HAL_Driver/Src/stm32g4xx_hal_cordic.c ****   uint32_t inputaddr;
ARM GAS  /tmp/ccR9GgNa.s 			page 25


 887:Drivers/STM32G4xx_HAL_Driver/Src/stm32g4xx_hal_cordic.c ****   uint32_t outputaddr;
 888:Drivers/STM32G4xx_HAL_Driver/Src/stm32g4xx_hal_cordic.c **** 
 889:Drivers/STM32G4xx_HAL_Driver/Src/stm32g4xx_hal_cordic.c ****   /* Check the parameters */
 890:Drivers/STM32G4xx_HAL_Driver/Src/stm32g4xx_hal_cordic.c ****   assert_param(IS_CORDIC_DMA_DIRECTION(DMADirection));
 891:Drivers/STM32G4xx_HAL_Driver/Src/stm32g4xx_hal_cordic.c **** 
 892:Drivers/STM32G4xx_HAL_Driver/Src/stm32g4xx_hal_cordic.c ****   /* Check parameters setting */
 893:Drivers/STM32G4xx_HAL_Driver/Src/stm32g4xx_hal_cordic.c ****   if (NbCalc == 0U)
 894:Drivers/STM32G4xx_HAL_Driver/Src/stm32g4xx_hal_cordic.c ****   {
 895:Drivers/STM32G4xx_HAL_Driver/Src/stm32g4xx_hal_cordic.c ****     /* Update the error code */
 896:Drivers/STM32G4xx_HAL_Driver/Src/stm32g4xx_hal_cordic.c ****     hcordic->ErrorCode |= HAL_CORDIC_ERROR_PARAM;
 897:Drivers/STM32G4xx_HAL_Driver/Src/stm32g4xx_hal_cordic.c **** 
 898:Drivers/STM32G4xx_HAL_Driver/Src/stm32g4xx_hal_cordic.c ****     /* Return error status */
 899:Drivers/STM32G4xx_HAL_Driver/Src/stm32g4xx_hal_cordic.c ****     return HAL_ERROR;
 900:Drivers/STM32G4xx_HAL_Driver/Src/stm32g4xx_hal_cordic.c ****   }
 901:Drivers/STM32G4xx_HAL_Driver/Src/stm32g4xx_hal_cordic.c **** 
 902:Drivers/STM32G4xx_HAL_Driver/Src/stm32g4xx_hal_cordic.c ****   /* Check if CORDIC DMA direction "Out" is requested */
 903:Drivers/STM32G4xx_HAL_Driver/Src/stm32g4xx_hal_cordic.c ****   if ((DMADirection == CORDIC_DMA_DIR_OUT) || (DMADirection == CORDIC_DMA_DIR_IN_OUT))
 904:Drivers/STM32G4xx_HAL_Driver/Src/stm32g4xx_hal_cordic.c ****   {
 905:Drivers/STM32G4xx_HAL_Driver/Src/stm32g4xx_hal_cordic.c ****     /* Check parameters setting */
 906:Drivers/STM32G4xx_HAL_Driver/Src/stm32g4xx_hal_cordic.c ****     if (pOutBuff == NULL)
 907:Drivers/STM32G4xx_HAL_Driver/Src/stm32g4xx_hal_cordic.c ****     {
 908:Drivers/STM32G4xx_HAL_Driver/Src/stm32g4xx_hal_cordic.c ****       /* Update the error code */
 909:Drivers/STM32G4xx_HAL_Driver/Src/stm32g4xx_hal_cordic.c ****       hcordic->ErrorCode |= HAL_CORDIC_ERROR_PARAM;
 910:Drivers/STM32G4xx_HAL_Driver/Src/stm32g4xx_hal_cordic.c **** 
 911:Drivers/STM32G4xx_HAL_Driver/Src/stm32g4xx_hal_cordic.c ****       /* Return error status */
 912:Drivers/STM32G4xx_HAL_Driver/Src/stm32g4xx_hal_cordic.c ****       return HAL_ERROR;
 913:Drivers/STM32G4xx_HAL_Driver/Src/stm32g4xx_hal_cordic.c ****     }
 914:Drivers/STM32G4xx_HAL_Driver/Src/stm32g4xx_hal_cordic.c ****   }
 915:Drivers/STM32G4xx_HAL_Driver/Src/stm32g4xx_hal_cordic.c **** 
 916:Drivers/STM32G4xx_HAL_Driver/Src/stm32g4xx_hal_cordic.c ****   /* Check if CORDIC DMA direction "In" is requested */
 917:Drivers/STM32G4xx_HAL_Driver/Src/stm32g4xx_hal_cordic.c ****   if ((DMADirection == CORDIC_DMA_DIR_IN) || (DMADirection == CORDIC_DMA_DIR_IN_OUT))
 918:Drivers/STM32G4xx_HAL_Driver/Src/stm32g4xx_hal_cordic.c ****   {
 919:Drivers/STM32G4xx_HAL_Driver/Src/stm32g4xx_hal_cordic.c ****     /* Check parameters setting */
 920:Drivers/STM32G4xx_HAL_Driver/Src/stm32g4xx_hal_cordic.c ****     if (pInBuff == NULL)
 921:Drivers/STM32G4xx_HAL_Driver/Src/stm32g4xx_hal_cordic.c ****     {
 922:Drivers/STM32G4xx_HAL_Driver/Src/stm32g4xx_hal_cordic.c ****       /* Update the error code */
 923:Drivers/STM32G4xx_HAL_Driver/Src/stm32g4xx_hal_cordic.c ****       hcordic->ErrorCode |= HAL_CORDIC_ERROR_PARAM;
 924:Drivers/STM32G4xx_HAL_Driver/Src/stm32g4xx_hal_cordic.c **** 
 925:Drivers/STM32G4xx_HAL_Driver/Src/stm32g4xx_hal_cordic.c ****       /* Return error status */
 926:Drivers/STM32G4xx_HAL_Driver/Src/stm32g4xx_hal_cordic.c ****       return HAL_ERROR;
 927:Drivers/STM32G4xx_HAL_Driver/Src/stm32g4xx_hal_cordic.c ****     }
 928:Drivers/STM32G4xx_HAL_Driver/Src/stm32g4xx_hal_cordic.c ****   }
 929:Drivers/STM32G4xx_HAL_Driver/Src/stm32g4xx_hal_cordic.c **** 
 930:Drivers/STM32G4xx_HAL_Driver/Src/stm32g4xx_hal_cordic.c ****   if (hcordic->State == HAL_CORDIC_STATE_READY)
 931:Drivers/STM32G4xx_HAL_Driver/Src/stm32g4xx_hal_cordic.c ****   {
 932:Drivers/STM32G4xx_HAL_Driver/Src/stm32g4xx_hal_cordic.c ****     /* Reset CORDIC error code */
 933:Drivers/STM32G4xx_HAL_Driver/Src/stm32g4xx_hal_cordic.c ****     hcordic->ErrorCode = HAL_CORDIC_ERROR_NONE;
 934:Drivers/STM32G4xx_HAL_Driver/Src/stm32g4xx_hal_cordic.c **** 
 935:Drivers/STM32G4xx_HAL_Driver/Src/stm32g4xx_hal_cordic.c ****     /* Change the CORDIC state */
 936:Drivers/STM32G4xx_HAL_Driver/Src/stm32g4xx_hal_cordic.c ****     hcordic->State = HAL_CORDIC_STATE_BUSY;
 937:Drivers/STM32G4xx_HAL_Driver/Src/stm32g4xx_hal_cordic.c **** 
 938:Drivers/STM32G4xx_HAL_Driver/Src/stm32g4xx_hal_cordic.c ****     /* Get DMA direction */
 939:Drivers/STM32G4xx_HAL_Driver/Src/stm32g4xx_hal_cordic.c ****     hcordic->DMADirection = DMADirection;
 940:Drivers/STM32G4xx_HAL_Driver/Src/stm32g4xx_hal_cordic.c **** 
 941:Drivers/STM32G4xx_HAL_Driver/Src/stm32g4xx_hal_cordic.c ****     /* Check if CORDIC DMA direction "Out" is requested */
 942:Drivers/STM32G4xx_HAL_Driver/Src/stm32g4xx_hal_cordic.c ****     if ((DMADirection == CORDIC_DMA_DIR_OUT) || (DMADirection == CORDIC_DMA_DIR_IN_OUT))
 943:Drivers/STM32G4xx_HAL_Driver/Src/stm32g4xx_hal_cordic.c ****     {
ARM GAS  /tmp/ccR9GgNa.s 			page 26


 944:Drivers/STM32G4xx_HAL_Driver/Src/stm32g4xx_hal_cordic.c ****       /* Set the CORDIC DMA transfer complete callback */
 945:Drivers/STM32G4xx_HAL_Driver/Src/stm32g4xx_hal_cordic.c ****       hcordic->hdmaOut->XferCpltCallback = CORDIC_DMAOutCplt;
 946:Drivers/STM32G4xx_HAL_Driver/Src/stm32g4xx_hal_cordic.c ****       /* Set the DMA error callback */
 947:Drivers/STM32G4xx_HAL_Driver/Src/stm32g4xx_hal_cordic.c ****       hcordic->hdmaOut->XferErrorCallback = CORDIC_DMAError;
 948:Drivers/STM32G4xx_HAL_Driver/Src/stm32g4xx_hal_cordic.c **** 
 949:Drivers/STM32G4xx_HAL_Driver/Src/stm32g4xx_hal_cordic.c ****       /* Check number of output data at each calculation,
 950:Drivers/STM32G4xx_HAL_Driver/Src/stm32g4xx_hal_cordic.c ****          to retrieve the size of output data buffer */
 951:Drivers/STM32G4xx_HAL_Driver/Src/stm32g4xx_hal_cordic.c ****       if (HAL_IS_BIT_SET(hcordic->Instance->CSR, CORDIC_CSR_NRES))
 952:Drivers/STM32G4xx_HAL_Driver/Src/stm32g4xx_hal_cordic.c ****       {
 953:Drivers/STM32G4xx_HAL_Driver/Src/stm32g4xx_hal_cordic.c ****         sizeoutbuff = 2U * NbCalc;
 954:Drivers/STM32G4xx_HAL_Driver/Src/stm32g4xx_hal_cordic.c ****       }
 955:Drivers/STM32G4xx_HAL_Driver/Src/stm32g4xx_hal_cordic.c ****       else
 956:Drivers/STM32G4xx_HAL_Driver/Src/stm32g4xx_hal_cordic.c ****       {
 957:Drivers/STM32G4xx_HAL_Driver/Src/stm32g4xx_hal_cordic.c ****         sizeoutbuff = NbCalc;
 958:Drivers/STM32G4xx_HAL_Driver/Src/stm32g4xx_hal_cordic.c ****       }
 959:Drivers/STM32G4xx_HAL_Driver/Src/stm32g4xx_hal_cordic.c **** 
 960:Drivers/STM32G4xx_HAL_Driver/Src/stm32g4xx_hal_cordic.c ****       outputaddr = (uint32_t)pOutBuff;
 961:Drivers/STM32G4xx_HAL_Driver/Src/stm32g4xx_hal_cordic.c **** 
 962:Drivers/STM32G4xx_HAL_Driver/Src/stm32g4xx_hal_cordic.c ****       /* Enable the DMA stream managing CORDIC output data read */
 963:Drivers/STM32G4xx_HAL_Driver/Src/stm32g4xx_hal_cordic.c ****       if (HAL_DMA_Start_IT(hcordic->hdmaOut, (uint32_t)&hcordic->Instance->RDATA, outputaddr, sizeo
 964:Drivers/STM32G4xx_HAL_Driver/Src/stm32g4xx_hal_cordic.c ****       {
 965:Drivers/STM32G4xx_HAL_Driver/Src/stm32g4xx_hal_cordic.c ****         /* Update the error code */
 966:Drivers/STM32G4xx_HAL_Driver/Src/stm32g4xx_hal_cordic.c ****         hcordic->ErrorCode |= HAL_CORDIC_ERROR_DMA;
 967:Drivers/STM32G4xx_HAL_Driver/Src/stm32g4xx_hal_cordic.c **** 
 968:Drivers/STM32G4xx_HAL_Driver/Src/stm32g4xx_hal_cordic.c ****         /* Return error status */
 969:Drivers/STM32G4xx_HAL_Driver/Src/stm32g4xx_hal_cordic.c ****         return HAL_ERROR;
 970:Drivers/STM32G4xx_HAL_Driver/Src/stm32g4xx_hal_cordic.c ****       }
 971:Drivers/STM32G4xx_HAL_Driver/Src/stm32g4xx_hal_cordic.c **** 
 972:Drivers/STM32G4xx_HAL_Driver/Src/stm32g4xx_hal_cordic.c ****       /* Enable output data Read DMA requests */
 973:Drivers/STM32G4xx_HAL_Driver/Src/stm32g4xx_hal_cordic.c ****       SET_BIT(hcordic->Instance->CSR, CORDIC_DMA_REN);
 974:Drivers/STM32G4xx_HAL_Driver/Src/stm32g4xx_hal_cordic.c ****     }
 975:Drivers/STM32G4xx_HAL_Driver/Src/stm32g4xx_hal_cordic.c **** 
 976:Drivers/STM32G4xx_HAL_Driver/Src/stm32g4xx_hal_cordic.c ****     /* Check if CORDIC DMA direction "In" is requested */
 977:Drivers/STM32G4xx_HAL_Driver/Src/stm32g4xx_hal_cordic.c ****     if ((DMADirection == CORDIC_DMA_DIR_IN) || (DMADirection == CORDIC_DMA_DIR_IN_OUT))
 978:Drivers/STM32G4xx_HAL_Driver/Src/stm32g4xx_hal_cordic.c ****     {
 979:Drivers/STM32G4xx_HAL_Driver/Src/stm32g4xx_hal_cordic.c ****       /* Set the CORDIC DMA transfer complete callback */
 980:Drivers/STM32G4xx_HAL_Driver/Src/stm32g4xx_hal_cordic.c ****       hcordic->hdmaIn->XferCpltCallback = CORDIC_DMAInCplt;
 981:Drivers/STM32G4xx_HAL_Driver/Src/stm32g4xx_hal_cordic.c ****       /* Set the DMA error callback */
 982:Drivers/STM32G4xx_HAL_Driver/Src/stm32g4xx_hal_cordic.c ****       hcordic->hdmaIn->XferErrorCallback = CORDIC_DMAError;
 983:Drivers/STM32G4xx_HAL_Driver/Src/stm32g4xx_hal_cordic.c **** 
 984:Drivers/STM32G4xx_HAL_Driver/Src/stm32g4xx_hal_cordic.c ****       /* Check number of input data expected for each calculation,
 985:Drivers/STM32G4xx_HAL_Driver/Src/stm32g4xx_hal_cordic.c ****          to retrieve the size of input data buffer */
 986:Drivers/STM32G4xx_HAL_Driver/Src/stm32g4xx_hal_cordic.c ****       if (HAL_IS_BIT_SET(hcordic->Instance->CSR, CORDIC_CSR_NARGS))
 987:Drivers/STM32G4xx_HAL_Driver/Src/stm32g4xx_hal_cordic.c ****       {
 988:Drivers/STM32G4xx_HAL_Driver/Src/stm32g4xx_hal_cordic.c ****         sizeinbuff = 2U * NbCalc;
 989:Drivers/STM32G4xx_HAL_Driver/Src/stm32g4xx_hal_cordic.c ****       }
 990:Drivers/STM32G4xx_HAL_Driver/Src/stm32g4xx_hal_cordic.c ****       else
 991:Drivers/STM32G4xx_HAL_Driver/Src/stm32g4xx_hal_cordic.c ****       {
 992:Drivers/STM32G4xx_HAL_Driver/Src/stm32g4xx_hal_cordic.c ****         sizeinbuff = NbCalc;
 993:Drivers/STM32G4xx_HAL_Driver/Src/stm32g4xx_hal_cordic.c ****       }
 994:Drivers/STM32G4xx_HAL_Driver/Src/stm32g4xx_hal_cordic.c **** 
 995:Drivers/STM32G4xx_HAL_Driver/Src/stm32g4xx_hal_cordic.c ****       inputaddr  = (uint32_t)pInBuff;
 996:Drivers/STM32G4xx_HAL_Driver/Src/stm32g4xx_hal_cordic.c **** 
 997:Drivers/STM32G4xx_HAL_Driver/Src/stm32g4xx_hal_cordic.c ****       /* Enable the DMA stream managing CORDIC input data write */
 998:Drivers/STM32G4xx_HAL_Driver/Src/stm32g4xx_hal_cordic.c ****       if (HAL_DMA_Start_IT(hcordic->hdmaIn, inputaddr, (uint32_t)&hcordic->Instance->WDATA, sizeinb
 999:Drivers/STM32G4xx_HAL_Driver/Src/stm32g4xx_hal_cordic.c ****       {
1000:Drivers/STM32G4xx_HAL_Driver/Src/stm32g4xx_hal_cordic.c ****         /* Update the error code */
ARM GAS  /tmp/ccR9GgNa.s 			page 27


1001:Drivers/STM32G4xx_HAL_Driver/Src/stm32g4xx_hal_cordic.c ****         hcordic->ErrorCode |= HAL_CORDIC_ERROR_DMA;
1002:Drivers/STM32G4xx_HAL_Driver/Src/stm32g4xx_hal_cordic.c **** 
1003:Drivers/STM32G4xx_HAL_Driver/Src/stm32g4xx_hal_cordic.c ****         /* Return error status */
1004:Drivers/STM32G4xx_HAL_Driver/Src/stm32g4xx_hal_cordic.c ****         return HAL_ERROR;
1005:Drivers/STM32G4xx_HAL_Driver/Src/stm32g4xx_hal_cordic.c ****       }
1006:Drivers/STM32G4xx_HAL_Driver/Src/stm32g4xx_hal_cordic.c **** 
1007:Drivers/STM32G4xx_HAL_Driver/Src/stm32g4xx_hal_cordic.c ****       /* Enable input data Write DMA request */
1008:Drivers/STM32G4xx_HAL_Driver/Src/stm32g4xx_hal_cordic.c ****       SET_BIT(hcordic->Instance->CSR, CORDIC_DMA_WEN);
1009:Drivers/STM32G4xx_HAL_Driver/Src/stm32g4xx_hal_cordic.c ****     }
1010:Drivers/STM32G4xx_HAL_Driver/Src/stm32g4xx_hal_cordic.c **** 
1011:Drivers/STM32G4xx_HAL_Driver/Src/stm32g4xx_hal_cordic.c ****     /* Return function status */
1012:Drivers/STM32G4xx_HAL_Driver/Src/stm32g4xx_hal_cordic.c ****     return HAL_OK;
1013:Drivers/STM32G4xx_HAL_Driver/Src/stm32g4xx_hal_cordic.c ****   }
1014:Drivers/STM32G4xx_HAL_Driver/Src/stm32g4xx_hal_cordic.c ****   else
1015:Drivers/STM32G4xx_HAL_Driver/Src/stm32g4xx_hal_cordic.c ****   {
1016:Drivers/STM32G4xx_HAL_Driver/Src/stm32g4xx_hal_cordic.c ****     /* Set CORDIC error code */
1017:Drivers/STM32G4xx_HAL_Driver/Src/stm32g4xx_hal_cordic.c ****     hcordic->ErrorCode |= HAL_CORDIC_ERROR_NOT_READY;
1018:Drivers/STM32G4xx_HAL_Driver/Src/stm32g4xx_hal_cordic.c **** 
1019:Drivers/STM32G4xx_HAL_Driver/Src/stm32g4xx_hal_cordic.c ****     /* Return function status */
1020:Drivers/STM32G4xx_HAL_Driver/Src/stm32g4xx_hal_cordic.c ****     return HAL_ERROR;
1021:Drivers/STM32G4xx_HAL_Driver/Src/stm32g4xx_hal_cordic.c ****   }
1022:Drivers/STM32G4xx_HAL_Driver/Src/stm32g4xx_hal_cordic.c **** }
1023:Drivers/STM32G4xx_HAL_Driver/Src/stm32g4xx_hal_cordic.c **** 
1024:Drivers/STM32G4xx_HAL_Driver/Src/stm32g4xx_hal_cordic.c **** /**
1025:Drivers/STM32G4xx_HAL_Driver/Src/stm32g4xx_hal_cordic.c ****   * @}
1026:Drivers/STM32G4xx_HAL_Driver/Src/stm32g4xx_hal_cordic.c ****   */
1027:Drivers/STM32G4xx_HAL_Driver/Src/stm32g4xx_hal_cordic.c **** 
1028:Drivers/STM32G4xx_HAL_Driver/Src/stm32g4xx_hal_cordic.c **** /** @defgroup CORDIC_Exported_Functions_Group3 Callback functions
1029:Drivers/STM32G4xx_HAL_Driver/Src/stm32g4xx_hal_cordic.c ****  *  @brief    Callback functions.
1030:Drivers/STM32G4xx_HAL_Driver/Src/stm32g4xx_hal_cordic.c ****  *
1031:Drivers/STM32G4xx_HAL_Driver/Src/stm32g4xx_hal_cordic.c **** @verbatim
1032:Drivers/STM32G4xx_HAL_Driver/Src/stm32g4xx_hal_cordic.c ****   ==============================================================================
1033:Drivers/STM32G4xx_HAL_Driver/Src/stm32g4xx_hal_cordic.c ****                       ##### Callback functions  #####
1034:Drivers/STM32G4xx_HAL_Driver/Src/stm32g4xx_hal_cordic.c ****   ==============================================================================
1035:Drivers/STM32G4xx_HAL_Driver/Src/stm32g4xx_hal_cordic.c ****     [..]  This section provides Interruption and DMA callback functions:
1036:Drivers/STM32G4xx_HAL_Driver/Src/stm32g4xx_hal_cordic.c ****       (+) DMA or Interrupt calculate complete
1037:Drivers/STM32G4xx_HAL_Driver/Src/stm32g4xx_hal_cordic.c ****       (+) DMA or Interrupt error
1038:Drivers/STM32G4xx_HAL_Driver/Src/stm32g4xx_hal_cordic.c **** 
1039:Drivers/STM32G4xx_HAL_Driver/Src/stm32g4xx_hal_cordic.c **** @endverbatim
1040:Drivers/STM32G4xx_HAL_Driver/Src/stm32g4xx_hal_cordic.c ****   * @{
1041:Drivers/STM32G4xx_HAL_Driver/Src/stm32g4xx_hal_cordic.c ****   */
1042:Drivers/STM32G4xx_HAL_Driver/Src/stm32g4xx_hal_cordic.c **** 
1043:Drivers/STM32G4xx_HAL_Driver/Src/stm32g4xx_hal_cordic.c **** /**
1044:Drivers/STM32G4xx_HAL_Driver/Src/stm32g4xx_hal_cordic.c ****   * @brief  CORDIC error callback.
1045:Drivers/STM32G4xx_HAL_Driver/Src/stm32g4xx_hal_cordic.c ****   * @param  hcordic pointer to a CORDIC_HandleTypeDef structure that contains
1046:Drivers/STM32G4xx_HAL_Driver/Src/stm32g4xx_hal_cordic.c ****   *         the configuration information for CORDIC module
1047:Drivers/STM32G4xx_HAL_Driver/Src/stm32g4xx_hal_cordic.c ****   * @retval None
1048:Drivers/STM32G4xx_HAL_Driver/Src/stm32g4xx_hal_cordic.c ****   */
1049:Drivers/STM32G4xx_HAL_Driver/Src/stm32g4xx_hal_cordic.c **** __weak void HAL_CORDIC_ErrorCallback(CORDIC_HandleTypeDef *hcordic)
1050:Drivers/STM32G4xx_HAL_Driver/Src/stm32g4xx_hal_cordic.c **** {
1051:Drivers/STM32G4xx_HAL_Driver/Src/stm32g4xx_hal_cordic.c ****   /* Prevent unused argument(s) compilation warning */
1052:Drivers/STM32G4xx_HAL_Driver/Src/stm32g4xx_hal_cordic.c ****   UNUSED(hcordic);
1053:Drivers/STM32G4xx_HAL_Driver/Src/stm32g4xx_hal_cordic.c **** 
1054:Drivers/STM32G4xx_HAL_Driver/Src/stm32g4xx_hal_cordic.c ****   /* NOTE : This function should not be modified; when the callback is needed,
1055:Drivers/STM32G4xx_HAL_Driver/Src/stm32g4xx_hal_cordic.c ****             the HAL_CORDIC_ErrorCallback can be implemented in the user file
1056:Drivers/STM32G4xx_HAL_Driver/Src/stm32g4xx_hal_cordic.c ****    */
1057:Drivers/STM32G4xx_HAL_Driver/Src/stm32g4xx_hal_cordic.c **** }
ARM GAS  /tmp/ccR9GgNa.s 			page 28


1058:Drivers/STM32G4xx_HAL_Driver/Src/stm32g4xx_hal_cordic.c **** 
1059:Drivers/STM32G4xx_HAL_Driver/Src/stm32g4xx_hal_cordic.c **** /**
1060:Drivers/STM32G4xx_HAL_Driver/Src/stm32g4xx_hal_cordic.c ****   * @brief  CORDIC calculate complete callback.
1061:Drivers/STM32G4xx_HAL_Driver/Src/stm32g4xx_hal_cordic.c ****   * @param  hcordic pointer to a CORDIC_HandleTypeDef structure that contains
1062:Drivers/STM32G4xx_HAL_Driver/Src/stm32g4xx_hal_cordic.c ****   *         the configuration information for CORDIC module
1063:Drivers/STM32G4xx_HAL_Driver/Src/stm32g4xx_hal_cordic.c ****   * @retval None
1064:Drivers/STM32G4xx_HAL_Driver/Src/stm32g4xx_hal_cordic.c ****   */
1065:Drivers/STM32G4xx_HAL_Driver/Src/stm32g4xx_hal_cordic.c **** __weak void HAL_CORDIC_CalculateCpltCallback(CORDIC_HandleTypeDef *hcordic)
1066:Drivers/STM32G4xx_HAL_Driver/Src/stm32g4xx_hal_cordic.c **** {
1067:Drivers/STM32G4xx_HAL_Driver/Src/stm32g4xx_hal_cordic.c ****   /* Prevent unused argument(s) compilation warning */
1068:Drivers/STM32G4xx_HAL_Driver/Src/stm32g4xx_hal_cordic.c ****   UNUSED(hcordic);
1069:Drivers/STM32G4xx_HAL_Driver/Src/stm32g4xx_hal_cordic.c **** 
1070:Drivers/STM32G4xx_HAL_Driver/Src/stm32g4xx_hal_cordic.c ****   /* NOTE : This function should not be modified; when the callback is needed,
1071:Drivers/STM32G4xx_HAL_Driver/Src/stm32g4xx_hal_cordic.c ****             the HAL_CORDIC_CalculateCpltCallback can be implemented in the user file
1072:Drivers/STM32G4xx_HAL_Driver/Src/stm32g4xx_hal_cordic.c ****    */
1073:Drivers/STM32G4xx_HAL_Driver/Src/stm32g4xx_hal_cordic.c **** }
1074:Drivers/STM32G4xx_HAL_Driver/Src/stm32g4xx_hal_cordic.c **** 
1075:Drivers/STM32G4xx_HAL_Driver/Src/stm32g4xx_hal_cordic.c **** /**
1076:Drivers/STM32G4xx_HAL_Driver/Src/stm32g4xx_hal_cordic.c ****   * @}
1077:Drivers/STM32G4xx_HAL_Driver/Src/stm32g4xx_hal_cordic.c ****   */
1078:Drivers/STM32G4xx_HAL_Driver/Src/stm32g4xx_hal_cordic.c **** 
1079:Drivers/STM32G4xx_HAL_Driver/Src/stm32g4xx_hal_cordic.c **** /** @defgroup CORDIC_Exported_Functions_Group4 IRQ handler management
1080:Drivers/STM32G4xx_HAL_Driver/Src/stm32g4xx_hal_cordic.c ****  *  @brief    IRQ handler.
1081:Drivers/STM32G4xx_HAL_Driver/Src/stm32g4xx_hal_cordic.c ****  *
1082:Drivers/STM32G4xx_HAL_Driver/Src/stm32g4xx_hal_cordic.c **** @verbatim
1083:Drivers/STM32G4xx_HAL_Driver/Src/stm32g4xx_hal_cordic.c ****   ==============================================================================
1084:Drivers/STM32G4xx_HAL_Driver/Src/stm32g4xx_hal_cordic.c ****                 ##### IRQ handler management #####
1085:Drivers/STM32G4xx_HAL_Driver/Src/stm32g4xx_hal_cordic.c ****   ==============================================================================
1086:Drivers/STM32G4xx_HAL_Driver/Src/stm32g4xx_hal_cordic.c **** [..]  This section provides IRQ handler function.
1087:Drivers/STM32G4xx_HAL_Driver/Src/stm32g4xx_hal_cordic.c **** 
1088:Drivers/STM32G4xx_HAL_Driver/Src/stm32g4xx_hal_cordic.c **** @endverbatim
1089:Drivers/STM32G4xx_HAL_Driver/Src/stm32g4xx_hal_cordic.c ****   * @{
1090:Drivers/STM32G4xx_HAL_Driver/Src/stm32g4xx_hal_cordic.c ****   */
1091:Drivers/STM32G4xx_HAL_Driver/Src/stm32g4xx_hal_cordic.c **** 
1092:Drivers/STM32G4xx_HAL_Driver/Src/stm32g4xx_hal_cordic.c **** /**
1093:Drivers/STM32G4xx_HAL_Driver/Src/stm32g4xx_hal_cordic.c ****   * @brief  Handle CORDIC interrupt request.
1094:Drivers/STM32G4xx_HAL_Driver/Src/stm32g4xx_hal_cordic.c ****   * @param  hcordic pointer to a CORDIC_HandleTypeDef structure that contains
1095:Drivers/STM32G4xx_HAL_Driver/Src/stm32g4xx_hal_cordic.c ****   *         the configuration information for CORDIC module
1096:Drivers/STM32G4xx_HAL_Driver/Src/stm32g4xx_hal_cordic.c ****   * @retval None
1097:Drivers/STM32G4xx_HAL_Driver/Src/stm32g4xx_hal_cordic.c ****   */
1098:Drivers/STM32G4xx_HAL_Driver/Src/stm32g4xx_hal_cordic.c **** void HAL_CORDIC_IRQHandler(CORDIC_HandleTypeDef *hcordic)
1099:Drivers/STM32G4xx_HAL_Driver/Src/stm32g4xx_hal_cordic.c **** {
1100:Drivers/STM32G4xx_HAL_Driver/Src/stm32g4xx_hal_cordic.c ****   /* Check if calculation complete interrupt is enabled and if result ready
1101:Drivers/STM32G4xx_HAL_Driver/Src/stm32g4xx_hal_cordic.c ****      flag is raised */
1102:Drivers/STM32G4xx_HAL_Driver/Src/stm32g4xx_hal_cordic.c ****   if (__HAL_CORDIC_GET_IT_SOURCE(hcordic, CORDIC_IT_IEN) != 0U)
1103:Drivers/STM32G4xx_HAL_Driver/Src/stm32g4xx_hal_cordic.c ****   {
1104:Drivers/STM32G4xx_HAL_Driver/Src/stm32g4xx_hal_cordic.c ****     if (__HAL_CORDIC_GET_FLAG(hcordic, CORDIC_FLAG_RRDY) != 0U)
1105:Drivers/STM32G4xx_HAL_Driver/Src/stm32g4xx_hal_cordic.c ****     {
1106:Drivers/STM32G4xx_HAL_Driver/Src/stm32g4xx_hal_cordic.c ****       /* Decrement number of calculations to get */
1107:Drivers/STM32G4xx_HAL_Driver/Src/stm32g4xx_hal_cordic.c ****       hcordic->NbCalcToGet--;
1108:Drivers/STM32G4xx_HAL_Driver/Src/stm32g4xx_hal_cordic.c **** 
1109:Drivers/STM32G4xx_HAL_Driver/Src/stm32g4xx_hal_cordic.c ****       /* Read output data from Read Data register, and increment output buffer pointer */
1110:Drivers/STM32G4xx_HAL_Driver/Src/stm32g4xx_hal_cordic.c ****       CORDIC_ReadOutDataIncrementPtr(hcordic, &(hcordic->pOutBuff));
1111:Drivers/STM32G4xx_HAL_Driver/Src/stm32g4xx_hal_cordic.c **** 
1112:Drivers/STM32G4xx_HAL_Driver/Src/stm32g4xx_hal_cordic.c ****       /* Check if calculations are still to be ordered */
1113:Drivers/STM32G4xx_HAL_Driver/Src/stm32g4xx_hal_cordic.c ****       if (hcordic->NbCalcToOrder > 0U)
1114:Drivers/STM32G4xx_HAL_Driver/Src/stm32g4xx_hal_cordic.c ****       {
ARM GAS  /tmp/ccR9GgNa.s 			page 29


1115:Drivers/STM32G4xx_HAL_Driver/Src/stm32g4xx_hal_cordic.c ****         /* Decrement number of calculations to order */
1116:Drivers/STM32G4xx_HAL_Driver/Src/stm32g4xx_hal_cordic.c ****         hcordic->NbCalcToOrder--;
1117:Drivers/STM32G4xx_HAL_Driver/Src/stm32g4xx_hal_cordic.c **** 
1118:Drivers/STM32G4xx_HAL_Driver/Src/stm32g4xx_hal_cordic.c ****         /* Continue the processing by providing another write of input data
1119:Drivers/STM32G4xx_HAL_Driver/Src/stm32g4xx_hal_cordic.c ****            in the Write Data register, and increment input buffer pointer */
1120:Drivers/STM32G4xx_HAL_Driver/Src/stm32g4xx_hal_cordic.c ****         CORDIC_WriteInDataIncrementPtr(hcordic, &(hcordic->pInBuff));
1121:Drivers/STM32G4xx_HAL_Driver/Src/stm32g4xx_hal_cordic.c ****       }
1122:Drivers/STM32G4xx_HAL_Driver/Src/stm32g4xx_hal_cordic.c **** 
1123:Drivers/STM32G4xx_HAL_Driver/Src/stm32g4xx_hal_cordic.c ****       /* Check if all calculations results are got */
1124:Drivers/STM32G4xx_HAL_Driver/Src/stm32g4xx_hal_cordic.c ****       if (hcordic->NbCalcToGet == 0U)
1125:Drivers/STM32G4xx_HAL_Driver/Src/stm32g4xx_hal_cordic.c ****       {
1126:Drivers/STM32G4xx_HAL_Driver/Src/stm32g4xx_hal_cordic.c ****         /* Disable Result Ready Interrupt */
1127:Drivers/STM32G4xx_HAL_Driver/Src/stm32g4xx_hal_cordic.c ****         __HAL_CORDIC_DISABLE_IT(hcordic, CORDIC_IT_IEN);
1128:Drivers/STM32G4xx_HAL_Driver/Src/stm32g4xx_hal_cordic.c **** 
1129:Drivers/STM32G4xx_HAL_Driver/Src/stm32g4xx_hal_cordic.c ****         /* Change the CORDIC state */
1130:Drivers/STM32G4xx_HAL_Driver/Src/stm32g4xx_hal_cordic.c ****         hcordic->State = HAL_CORDIC_STATE_READY;
1131:Drivers/STM32G4xx_HAL_Driver/Src/stm32g4xx_hal_cordic.c **** 
1132:Drivers/STM32G4xx_HAL_Driver/Src/stm32g4xx_hal_cordic.c ****         /* Call calculation complete callback */
1133:Drivers/STM32G4xx_HAL_Driver/Src/stm32g4xx_hal_cordic.c **** #if USE_HAL_CORDIC_REGISTER_CALLBACKS == 1
1134:Drivers/STM32G4xx_HAL_Driver/Src/stm32g4xx_hal_cordic.c ****         /*Call registered callback*/
1135:Drivers/STM32G4xx_HAL_Driver/Src/stm32g4xx_hal_cordic.c ****         hcordic->CalculateCpltCallback(hcordic);
1136:Drivers/STM32G4xx_HAL_Driver/Src/stm32g4xx_hal_cordic.c **** #else
1137:Drivers/STM32G4xx_HAL_Driver/Src/stm32g4xx_hal_cordic.c ****         /*Call legacy weak (surcharged) callback*/
1138:Drivers/STM32G4xx_HAL_Driver/Src/stm32g4xx_hal_cordic.c ****         HAL_CORDIC_CalculateCpltCallback(hcordic);
1139:Drivers/STM32G4xx_HAL_Driver/Src/stm32g4xx_hal_cordic.c **** #endif /* USE_HAL_CORDIC_REGISTER_CALLBACKS */
1140:Drivers/STM32G4xx_HAL_Driver/Src/stm32g4xx_hal_cordic.c ****       }
1141:Drivers/STM32G4xx_HAL_Driver/Src/stm32g4xx_hal_cordic.c ****     }
1142:Drivers/STM32G4xx_HAL_Driver/Src/stm32g4xx_hal_cordic.c ****   }
1143:Drivers/STM32G4xx_HAL_Driver/Src/stm32g4xx_hal_cordic.c **** }
1144:Drivers/STM32G4xx_HAL_Driver/Src/stm32g4xx_hal_cordic.c **** 
1145:Drivers/STM32G4xx_HAL_Driver/Src/stm32g4xx_hal_cordic.c **** /**
1146:Drivers/STM32G4xx_HAL_Driver/Src/stm32g4xx_hal_cordic.c ****   * @}
1147:Drivers/STM32G4xx_HAL_Driver/Src/stm32g4xx_hal_cordic.c ****   */
1148:Drivers/STM32G4xx_HAL_Driver/Src/stm32g4xx_hal_cordic.c **** 
1149:Drivers/STM32G4xx_HAL_Driver/Src/stm32g4xx_hal_cordic.c **** /** @defgroup CORDIC_Exported_Functions_Group5 Peripheral State functions
1150:Drivers/STM32G4xx_HAL_Driver/Src/stm32g4xx_hal_cordic.c ****  *  @brief   Peripheral State functions.
1151:Drivers/STM32G4xx_HAL_Driver/Src/stm32g4xx_hal_cordic.c ****  *
1152:Drivers/STM32G4xx_HAL_Driver/Src/stm32g4xx_hal_cordic.c **** @verbatim
1153:Drivers/STM32G4xx_HAL_Driver/Src/stm32g4xx_hal_cordic.c ****   ==============================================================================
1154:Drivers/STM32G4xx_HAL_Driver/Src/stm32g4xx_hal_cordic.c ****                       ##### Peripheral State functions #####
1155:Drivers/STM32G4xx_HAL_Driver/Src/stm32g4xx_hal_cordic.c ****   ==============================================================================
1156:Drivers/STM32G4xx_HAL_Driver/Src/stm32g4xx_hal_cordic.c ****     [..]
1157:Drivers/STM32G4xx_HAL_Driver/Src/stm32g4xx_hal_cordic.c ****     This subsection permits to get in run-time the status of the peripheral.
1158:Drivers/STM32G4xx_HAL_Driver/Src/stm32g4xx_hal_cordic.c **** 
1159:Drivers/STM32G4xx_HAL_Driver/Src/stm32g4xx_hal_cordic.c **** @endverbatim
1160:Drivers/STM32G4xx_HAL_Driver/Src/stm32g4xx_hal_cordic.c ****   * @{
1161:Drivers/STM32G4xx_HAL_Driver/Src/stm32g4xx_hal_cordic.c ****   */
1162:Drivers/STM32G4xx_HAL_Driver/Src/stm32g4xx_hal_cordic.c **** 
1163:Drivers/STM32G4xx_HAL_Driver/Src/stm32g4xx_hal_cordic.c **** /**
1164:Drivers/STM32G4xx_HAL_Driver/Src/stm32g4xx_hal_cordic.c ****   * @brief  Return the CORDIC handle state.
1165:Drivers/STM32G4xx_HAL_Driver/Src/stm32g4xx_hal_cordic.c ****   * @param  hcordic pointer to a CORDIC_HandleTypeDef structure that contains
1166:Drivers/STM32G4xx_HAL_Driver/Src/stm32g4xx_hal_cordic.c ****   *         the configuration information for CORDIC module
1167:Drivers/STM32G4xx_HAL_Driver/Src/stm32g4xx_hal_cordic.c ****   * @retval HAL state
1168:Drivers/STM32G4xx_HAL_Driver/Src/stm32g4xx_hal_cordic.c ****   */
1169:Drivers/STM32G4xx_HAL_Driver/Src/stm32g4xx_hal_cordic.c **** HAL_CORDIC_StateTypeDef HAL_CORDIC_GetState(CORDIC_HandleTypeDef *hcordic)
1170:Drivers/STM32G4xx_HAL_Driver/Src/stm32g4xx_hal_cordic.c **** {
1171:Drivers/STM32G4xx_HAL_Driver/Src/stm32g4xx_hal_cordic.c ****   /* Return CORDIC handle state */
ARM GAS  /tmp/ccR9GgNa.s 			page 30


1172:Drivers/STM32G4xx_HAL_Driver/Src/stm32g4xx_hal_cordic.c ****   return hcordic->State;
1173:Drivers/STM32G4xx_HAL_Driver/Src/stm32g4xx_hal_cordic.c **** }
1174:Drivers/STM32G4xx_HAL_Driver/Src/stm32g4xx_hal_cordic.c **** 
1175:Drivers/STM32G4xx_HAL_Driver/Src/stm32g4xx_hal_cordic.c **** /**
1176:Drivers/STM32G4xx_HAL_Driver/Src/stm32g4xx_hal_cordic.c ****   * @brief  Return the CORDIC peripheral error.
1177:Drivers/STM32G4xx_HAL_Driver/Src/stm32g4xx_hal_cordic.c ****   * @param  hcordic pointer to a CORDIC_HandleTypeDef structure that contains
1178:Drivers/STM32G4xx_HAL_Driver/Src/stm32g4xx_hal_cordic.c ****   *         the configuration information for CORDIC module
1179:Drivers/STM32G4xx_HAL_Driver/Src/stm32g4xx_hal_cordic.c ****   * @note   The returned error is a bit-map combination of possible errors
1180:Drivers/STM32G4xx_HAL_Driver/Src/stm32g4xx_hal_cordic.c ****   * @retval Error bit-map
1181:Drivers/STM32G4xx_HAL_Driver/Src/stm32g4xx_hal_cordic.c ****   */
1182:Drivers/STM32G4xx_HAL_Driver/Src/stm32g4xx_hal_cordic.c **** uint32_t HAL_CORDIC_GetError(CORDIC_HandleTypeDef *hcordic)
1183:Drivers/STM32G4xx_HAL_Driver/Src/stm32g4xx_hal_cordic.c **** {
1184:Drivers/STM32G4xx_HAL_Driver/Src/stm32g4xx_hal_cordic.c ****   /* Return CORDIC error code */
1185:Drivers/STM32G4xx_HAL_Driver/Src/stm32g4xx_hal_cordic.c ****   return hcordic->ErrorCode;
1186:Drivers/STM32G4xx_HAL_Driver/Src/stm32g4xx_hal_cordic.c **** }
1187:Drivers/STM32G4xx_HAL_Driver/Src/stm32g4xx_hal_cordic.c **** 
1188:Drivers/STM32G4xx_HAL_Driver/Src/stm32g4xx_hal_cordic.c **** /**
1189:Drivers/STM32G4xx_HAL_Driver/Src/stm32g4xx_hal_cordic.c ****   * @}
1190:Drivers/STM32G4xx_HAL_Driver/Src/stm32g4xx_hal_cordic.c ****   */
1191:Drivers/STM32G4xx_HAL_Driver/Src/stm32g4xx_hal_cordic.c **** 
1192:Drivers/STM32G4xx_HAL_Driver/Src/stm32g4xx_hal_cordic.c **** /**
1193:Drivers/STM32G4xx_HAL_Driver/Src/stm32g4xx_hal_cordic.c ****   * @}
1194:Drivers/STM32G4xx_HAL_Driver/Src/stm32g4xx_hal_cordic.c ****   */
1195:Drivers/STM32G4xx_HAL_Driver/Src/stm32g4xx_hal_cordic.c **** 
1196:Drivers/STM32G4xx_HAL_Driver/Src/stm32g4xx_hal_cordic.c **** /** @addtogroup CORDIC_Private_Functions
1197:Drivers/STM32G4xx_HAL_Driver/Src/stm32g4xx_hal_cordic.c ****   * @{
1198:Drivers/STM32G4xx_HAL_Driver/Src/stm32g4xx_hal_cordic.c ****   */
1199:Drivers/STM32G4xx_HAL_Driver/Src/stm32g4xx_hal_cordic.c **** 
1200:Drivers/STM32G4xx_HAL_Driver/Src/stm32g4xx_hal_cordic.c **** /**
1201:Drivers/STM32G4xx_HAL_Driver/Src/stm32g4xx_hal_cordic.c ****   * @brief  Write input data for CORDIC processing, and increment input buffer pointer.
1202:Drivers/STM32G4xx_HAL_Driver/Src/stm32g4xx_hal_cordic.c ****   * @param  hcordic pointer to a CORDIC_HandleTypeDef structure that contains
1203:Drivers/STM32G4xx_HAL_Driver/Src/stm32g4xx_hal_cordic.c ****   *         the configuration information for CORDIC module.
1204:Drivers/STM32G4xx_HAL_Driver/Src/stm32g4xx_hal_cordic.c ****   * @param  ppInBuff Pointer to pointer to input buffer.
1205:Drivers/STM32G4xx_HAL_Driver/Src/stm32g4xx_hal_cordic.c ****   * @retval none
1206:Drivers/STM32G4xx_HAL_Driver/Src/stm32g4xx_hal_cordic.c ****   */
1207:Drivers/STM32G4xx_HAL_Driver/Src/stm32g4xx_hal_cordic.c **** static void CORDIC_WriteInDataIncrementPtr(CORDIC_HandleTypeDef *hcordic, int32_t **ppInBuff)
1208:Drivers/STM32G4xx_HAL_Driver/Src/stm32g4xx_hal_cordic.c **** {
1209:Drivers/STM32G4xx_HAL_Driver/Src/stm32g4xx_hal_cordic.c ****   /* First write of input data in the Write Data register */
1210:Drivers/STM32G4xx_HAL_Driver/Src/stm32g4xx_hal_cordic.c ****   WRITE_REG(hcordic->Instance->WDATA, (uint32_t) **ppInBuff);
 418              		.loc 1 1210 3 view .LVU120
 419 0058 D9F80020 		ldr	r2, [r9]
 420 005c 2368     		ldr	r3, [r4]
 421 005e 5360     		str	r3, [r2, #4]
1211:Drivers/STM32G4xx_HAL_Driver/Src/stm32g4xx_hal_cordic.c **** 
1212:Drivers/STM32G4xx_HAL_Driver/Src/stm32g4xx_hal_cordic.c ****   /* Increment input data pointer */
1213:Drivers/STM32G4xx_HAL_Driver/Src/stm32g4xx_hal_cordic.c ****   (*ppInBuff)++;
1214:Drivers/STM32G4xx_HAL_Driver/Src/stm32g4xx_hal_cordic.c **** 
1215:Drivers/STM32G4xx_HAL_Driver/Src/stm32g4xx_hal_cordic.c ****   /* Check if second write of input data is expected */
1216:Drivers/STM32G4xx_HAL_Driver/Src/stm32g4xx_hal_cordic.c ****   if (HAL_IS_BIT_SET(hcordic->Instance->CSR, CORDIC_CSR_NARGS))
 422              		.loc 1 1216 7 view .LVU121
 423 0060 1368     		ldr	r3, [r2]
 424              		.loc 1 1216 6 view .LVU122
 425 0062 DB02     		lsls	r3, r3, #11
 426              	.LBE23:
 427              	.LBE22:
 632:Drivers/STM32G4xx_HAL_Driver/Src/stm32g4xx_hal_cordic.c **** 
 428              		.loc 1 632 17 view .LVU123
ARM GAS  /tmp/ccR9GgNa.s 			page 31


 429 0064 0746     		mov	r7, r0
 430              	.LVL30:
 635:Drivers/STM32G4xx_HAL_Driver/Src/stm32g4xx_hal_cordic.c **** 
 431              		.loc 1 635 5 is_stmt 1 view .LVU124
 432              	.LBB25:
 433              	.LBI22:
1207:Drivers/STM32G4xx_HAL_Driver/Src/stm32g4xx_hal_cordic.c **** {
 434              		.loc 1 1207 13 view .LVU125
 435              	.LBB24:
1210:Drivers/STM32G4xx_HAL_Driver/Src/stm32g4xx_hal_cordic.c **** 
 436              		.loc 1 1210 3 view .LVU126
1213:Drivers/STM32G4xx_HAL_Driver/Src/stm32g4xx_hal_cordic.c **** 
 437              		.loc 1 1213 3 view .LVU127
 438              		.loc 1 1216 3 view .LVU128
1217:Drivers/STM32G4xx_HAL_Driver/Src/stm32g4xx_hal_cordic.c ****   {
1218:Drivers/STM32G4xx_HAL_Driver/Src/stm32g4xx_hal_cordic.c ****     /* Second write of input data in the Write Data register */
1219:Drivers/STM32G4xx_HAL_Driver/Src/stm32g4xx_hal_cordic.c ****     WRITE_REG(hcordic->Instance->WDATA, (uint32_t) **ppInBuff);
 439              		.loc 1 1219 5 is_stmt 0 view .LVU129
 440 0066 45BF     		ittet	mi
 441 0068 6068     		ldrmi	r0, [r4, #4]
 442              	.LVL31:
 443              		.loc 1 1219 5 view .LVU130
 444 006a 5060     		strmi	r0, [r2, #4]
1213:Drivers/STM32G4xx_HAL_Driver/Src/stm32g4xx_hal_cordic.c **** 
 445              		.loc 1 1213 14 view .LVU131
 446 006c 0434     		addpl	r4, r4, #4
 447              	.LVL32:
 448              		.loc 1 1219 5 is_stmt 1 view .LVU132
1220:Drivers/STM32G4xx_HAL_Driver/Src/stm32g4xx_hal_cordic.c **** 
1221:Drivers/STM32G4xx_HAL_Driver/Src/stm32g4xx_hal_cordic.c ****     /* Increment input data pointer */
1222:Drivers/STM32G4xx_HAL_Driver/Src/stm32g4xx_hal_cordic.c ****     (*ppInBuff)++;
 449              		.loc 1 1222 5 view .LVU133
 450              		.loc 1 1222 16 is_stmt 0 view .LVU134
 451 006e 0834     		addmi	r4, r4, #8
 452              	.LVL33:
 453              	.L36:
 454              		.loc 1 1222 16 view .LVU135
 455              	.LBE24:
 456              	.LBE25:
 639:Drivers/STM32G4xx_HAL_Driver/Src/stm32g4xx_hal_cordic.c ****     {
 457              		.loc 1 639 5 is_stmt 1 view .LVU136
 639:Drivers/STM32G4xx_HAL_Driver/Src/stm32g4xx_hal_cordic.c ****     {
 458              		.loc 1 639 33 view .LVU137
 639:Drivers/STM32G4xx_HAL_Driver/Src/stm32g4xx_hal_cordic.c ****     {
 459              		.loc 1 639 5 is_stmt 0 view .LVU138
 460 0070 013D     		subs	r5, r5, #1
 461              	.LVL34:
 639:Drivers/STM32G4xx_HAL_Driver/Src/stm32g4xx_hal_cordic.c ****     {
 462              		.loc 1 639 5 view .LVU139
 463 0072 28D0     		beq	.L37
 642:Drivers/STM32G4xx_HAL_Driver/Src/stm32g4xx_hal_cordic.c **** 
 464              		.loc 1 642 7 is_stmt 1 view .LVU140
 465              	.LVL35:
 466              	.LBB26:
 467              	.LBI26:
1207:Drivers/STM32G4xx_HAL_Driver/Src/stm32g4xx_hal_cordic.c **** {
 468              		.loc 1 1207 13 view .LVU141
ARM GAS  /tmp/ccR9GgNa.s 			page 32


 469              	.LBB27:
1210:Drivers/STM32G4xx_HAL_Driver/Src/stm32g4xx_hal_cordic.c **** 
 470              		.loc 1 1210 3 view .LVU142
 471 0074 2368     		ldr	r3, [r4]
 472 0076 5360     		str	r3, [r2, #4]
1213:Drivers/STM32G4xx_HAL_Driver/Src/stm32g4xx_hal_cordic.c **** 
 473              		.loc 1 1213 3 view .LVU143
 474              	.LVL36:
1216:Drivers/STM32G4xx_HAL_Driver/Src/stm32g4xx_hal_cordic.c ****   {
 475              		.loc 1 1216 3 view .LVU144
1216:Drivers/STM32G4xx_HAL_Driver/Src/stm32g4xx_hal_cordic.c ****   {
 476              		.loc 1 1216 7 is_stmt 0 view .LVU145
 477 0078 1368     		ldr	r3, [r2]
1216:Drivers/STM32G4xx_HAL_Driver/Src/stm32g4xx_hal_cordic.c ****   {
 478              		.loc 1 1216 6 view .LVU146
 479 007a D802     		lsls	r0, r3, #11
1219:Drivers/STM32G4xx_HAL_Driver/Src/stm32g4xx_hal_cordic.c **** 
 480              		.loc 1 1219 5 view .LVU147
 481 007c 45BF     		ittet	mi
 482 007e 6368     		ldrmi	r3, [r4, #4]
 483 0080 5360     		strmi	r3, [r2, #4]
1213:Drivers/STM32G4xx_HAL_Driver/Src/stm32g4xx_hal_cordic.c **** 
 484              		.loc 1 1213 14 view .LVU148
 485 0082 0434     		addpl	r4, r4, #4
 486              	.LVL37:
1219:Drivers/STM32G4xx_HAL_Driver/Src/stm32g4xx_hal_cordic.c **** 
 487              		.loc 1 1219 5 is_stmt 1 view .LVU149
 488              		.loc 1 1222 5 view .LVU150
 489              		.loc 1 1222 16 is_stmt 0 view .LVU151
 490 0084 0834     		addmi	r4, r4, #8
 491              	.LVL38:
 492              	.L41:
 493              		.loc 1 1222 16 view .LVU152
 494              	.LBE27:
 495              	.LBE26:
 645:Drivers/STM32G4xx_HAL_Driver/Src/stm32g4xx_hal_cordic.c ****       {
 496              		.loc 1 645 7 is_stmt 1 view .LVU153
 648:Drivers/STM32G4xx_HAL_Driver/Src/stm32g4xx_hal_cordic.c ****         {
 497              		.loc 1 648 9 view .LVU154
 650:Drivers/STM32G4xx_HAL_Driver/Src/stm32g4xx_hal_cordic.c ****           {
 498              		.loc 1 650 11 view .LVU155
 648:Drivers/STM32G4xx_HAL_Driver/Src/stm32g4xx_hal_cordic.c ****         {
 499              		.loc 1 648 12 is_stmt 0 view .LVU156
 500 0086 BAF1FF3F 		cmp	r10, #-1
 501 008a 06D0     		beq	.L40
 650:Drivers/STM32G4xx_HAL_Driver/Src/stm32g4xx_hal_cordic.c ****           {
 502              		.loc 1 650 16 view .LVU157
 503 008c FFF7FEFF 		bl	HAL_GetTick
 504              	.LVL39:
 650:Drivers/STM32G4xx_HAL_Driver/Src/stm32g4xx_hal_cordic.c ****           {
 505              		.loc 1 650 30 view .LVU158
 506 0090 C31B     		subs	r3, r0, r7
 650:Drivers/STM32G4xx_HAL_Driver/Src/stm32g4xx_hal_cordic.c ****           {
 507              		.loc 1 650 14 view .LVU159
 508 0092 5345     		cmp	r3, r10
 509 0094 0ED8     		bhi	.L64
 510 0096 D9F80020 		ldr	r2, [r9]
ARM GAS  /tmp/ccR9GgNa.s 			page 33


 511              	.L40:
 663:Drivers/STM32G4xx_HAL_Driver/Src/stm32g4xx_hal_cordic.c **** 
 512              		.loc 1 663 13 is_stmt 1 view .LVU160
 663:Drivers/STM32G4xx_HAL_Driver/Src/stm32g4xx_hal_cordic.c **** 
 513              		.loc 1 663 14 is_stmt 0 view .LVU161
 514 009a 1368     		ldr	r3, [r2]
 663:Drivers/STM32G4xx_HAL_Driver/Src/stm32g4xx_hal_cordic.c **** 
 515              		.loc 1 663 7 view .LVU162
 516 009c 002B     		cmp	r3, #0
 517 009e F2DA     		bge	.L41
 666:Drivers/STM32G4xx_HAL_Driver/Src/stm32g4xx_hal_cordic.c ****     }
 518              		.loc 1 666 7 is_stmt 1 view .LVU163
 519              	.LVL40:
 520              	.LBB28:
 521              	.LBI28:
1223:Drivers/STM32G4xx_HAL_Driver/Src/stm32g4xx_hal_cordic.c ****   }
1224:Drivers/STM32G4xx_HAL_Driver/Src/stm32g4xx_hal_cordic.c **** }
1225:Drivers/STM32G4xx_HAL_Driver/Src/stm32g4xx_hal_cordic.c **** 
1226:Drivers/STM32G4xx_HAL_Driver/Src/stm32g4xx_hal_cordic.c **** /**
1227:Drivers/STM32G4xx_HAL_Driver/Src/stm32g4xx_hal_cordic.c ****   * @brief  Read output data of CORDIC processing, and increment output buffer pointer.
1228:Drivers/STM32G4xx_HAL_Driver/Src/stm32g4xx_hal_cordic.c ****   * @param  hcordic pointer to a CORDIC_HandleTypeDef structure that contains
1229:Drivers/STM32G4xx_HAL_Driver/Src/stm32g4xx_hal_cordic.c ****   *         the configuration information for CORDIC module.
1230:Drivers/STM32G4xx_HAL_Driver/Src/stm32g4xx_hal_cordic.c ****   * @param  ppOutBuff Pointer to pointer to output buffer.
1231:Drivers/STM32G4xx_HAL_Driver/Src/stm32g4xx_hal_cordic.c ****   * @retval none
1232:Drivers/STM32G4xx_HAL_Driver/Src/stm32g4xx_hal_cordic.c ****   */
1233:Drivers/STM32G4xx_HAL_Driver/Src/stm32g4xx_hal_cordic.c **** static void CORDIC_ReadOutDataIncrementPtr(CORDIC_HandleTypeDef *hcordic, int32_t **ppOutBuff)
 522              		.loc 1 1233 13 view .LVU164
 523              	.LBB29:
1234:Drivers/STM32G4xx_HAL_Driver/Src/stm32g4xx_hal_cordic.c **** {
1235:Drivers/STM32G4xx_HAL_Driver/Src/stm32g4xx_hal_cordic.c ****   /* First read of output data from the Read Data register */
1236:Drivers/STM32G4xx_HAL_Driver/Src/stm32g4xx_hal_cordic.c ****   **ppOutBuff = (int32_t)READ_REG(hcordic->Instance->RDATA);
 524              		.loc 1 1236 3 view .LVU165
 525              		.loc 1 1236 26 is_stmt 0 view .LVU166
 526 00a0 9368     		ldr	r3, [r2, #8]
 527              		.loc 1 1236 15 view .LVU167
 528 00a2 3360     		str	r3, [r6]
1237:Drivers/STM32G4xx_HAL_Driver/Src/stm32g4xx_hal_cordic.c **** 
1238:Drivers/STM32G4xx_HAL_Driver/Src/stm32g4xx_hal_cordic.c ****   /* Increment output data pointer */
1239:Drivers/STM32G4xx_HAL_Driver/Src/stm32g4xx_hal_cordic.c ****   (*ppOutBuff)++;
 529              		.loc 1 1239 3 is_stmt 1 view .LVU168
 530              	.LVL41:
1240:Drivers/STM32G4xx_HAL_Driver/Src/stm32g4xx_hal_cordic.c **** 
1241:Drivers/STM32G4xx_HAL_Driver/Src/stm32g4xx_hal_cordic.c ****   /* Check if second read of output data is expected */
1242:Drivers/STM32G4xx_HAL_Driver/Src/stm32g4xx_hal_cordic.c ****   if (HAL_IS_BIT_SET(hcordic->Instance->CSR, CORDIC_CSR_NRES))
 531              		.loc 1 1242 3 view .LVU169
 532              		.loc 1 1242 7 is_stmt 0 view .LVU170
 533 00a4 1368     		ldr	r3, [r2]
 534              		.loc 1 1242 6 view .LVU171
 535 00a6 1903     		lsls	r1, r3, #12
1243:Drivers/STM32G4xx_HAL_Driver/Src/stm32g4xx_hal_cordic.c ****   {
1244:Drivers/STM32G4xx_HAL_Driver/Src/stm32g4xx_hal_cordic.c ****     /* Second read of output data from the Read Data register */
1245:Drivers/STM32G4xx_HAL_Driver/Src/stm32g4xx_hal_cordic.c ****     **ppOutBuff = (int32_t)READ_REG(hcordic->Instance->RDATA);
 536              		.loc 1 1245 28 view .LVU172
 537 00a8 45BF     		ittet	mi
 538 00aa 9368     		ldrmi	r3, [r2, #8]
 539              		.loc 1 1245 17 view .LVU173
 540 00ac 7360     		strmi	r3, [r6, #4]
ARM GAS  /tmp/ccR9GgNa.s 			page 34


1239:Drivers/STM32G4xx_HAL_Driver/Src/stm32g4xx_hal_cordic.c **** 
 541              		.loc 1 1239 15 view .LVU174
 542 00ae 0436     		addpl	r6, r6, #4
 543              	.LVL42:
 544              		.loc 1 1245 5 is_stmt 1 view .LVU175
1246:Drivers/STM32G4xx_HAL_Driver/Src/stm32g4xx_hal_cordic.c **** 
1247:Drivers/STM32G4xx_HAL_Driver/Src/stm32g4xx_hal_cordic.c ****     /* Increment output data pointer */
1248:Drivers/STM32G4xx_HAL_Driver/Src/stm32g4xx_hal_cordic.c ****     (*ppOutBuff)++;
 545              		.loc 1 1248 5 view .LVU176
 546              		.loc 1 1248 17 is_stmt 0 view .LVU177
 547 00b0 0836     		addmi	r6, r6, #8
 548              	.LVL43:
 549              		.loc 1 1248 17 view .LVU178
 550 00b2 DDE7     		b	.L36
 551              	.LVL44:
 552              	.L64:
 553              		.loc 1 1248 17 view .LVU179
 554              	.LBE29:
 555              	.LBE28:
 653:Drivers/STM32G4xx_HAL_Driver/Src/stm32g4xx_hal_cordic.c **** 
 556              		.loc 1 653 13 is_stmt 1 view .LVU180
 653:Drivers/STM32G4xx_HAL_Driver/Src/stm32g4xx_hal_cordic.c **** 
 557              		.loc 1 653 32 is_stmt 0 view .LVU181
 558 00b4 0422     		movs	r2, #4
 656:Drivers/STM32G4xx_HAL_Driver/Src/stm32g4xx_hal_cordic.c **** 
 559              		.loc 1 656 28 view .LVU182
 560 00b6 0123     		movs	r3, #1
 653:Drivers/STM32G4xx_HAL_Driver/Src/stm32g4xx_hal_cordic.c **** 
 561              		.loc 1 653 32 view .LVU183
 562 00b8 C9F82420 		str	r2, [r9, #36]
 656:Drivers/STM32G4xx_HAL_Driver/Src/stm32g4xx_hal_cordic.c **** 
 563              		.loc 1 656 13 is_stmt 1 view .LVU184
 656:Drivers/STM32G4xx_HAL_Driver/Src/stm32g4xx_hal_cordic.c **** 
 564              		.loc 1 656 28 is_stmt 0 view .LVU185
 565 00bc 89F82130 		strb	r3, [r9, #33]
 659:Drivers/STM32G4xx_HAL_Driver/Src/stm32g4xx_hal_cordic.c ****           }
 566              		.loc 1 659 13 is_stmt 1 view .LVU186
 567              	.LVL45:
 686:Drivers/STM32G4xx_HAL_Driver/Src/stm32g4xx_hal_cordic.c **** 
 568              		.loc 1 686 1 is_stmt 0 view .LVU187
 569 00c0 4046     		mov	r0, r8
 570 00c2 BDE8F087 		pop	{r4, r5, r6, r7, r8, r9, r10, pc}
 571              	.LVL46:
 572              	.L37:
 670:Drivers/STM32G4xx_HAL_Driver/Src/stm32g4xx_hal_cordic.c **** 
 573              		.loc 1 670 5 is_stmt 1 view .LVU188
 574              	.LBB30:
 575              	.LBI30:
1233:Drivers/STM32G4xx_HAL_Driver/Src/stm32g4xx_hal_cordic.c **** {
 576              		.loc 1 1233 13 view .LVU189
 577              	.LBB31:
1236:Drivers/STM32G4xx_HAL_Driver/Src/stm32g4xx_hal_cordic.c **** 
 578              		.loc 1 1236 3 view .LVU190
1236:Drivers/STM32G4xx_HAL_Driver/Src/stm32g4xx_hal_cordic.c **** 
 579              		.loc 1 1236 26 is_stmt 0 view .LVU191
 580 00c6 9368     		ldr	r3, [r2, #8]
1236:Drivers/STM32G4xx_HAL_Driver/Src/stm32g4xx_hal_cordic.c **** 
ARM GAS  /tmp/ccR9GgNa.s 			page 35


 581              		.loc 1 1236 15 view .LVU192
 582 00c8 3360     		str	r3, [r6]
1239:Drivers/STM32G4xx_HAL_Driver/Src/stm32g4xx_hal_cordic.c **** 
 583              		.loc 1 1239 3 is_stmt 1 view .LVU193
 584              	.LVL47:
1242:Drivers/STM32G4xx_HAL_Driver/Src/stm32g4xx_hal_cordic.c ****   {
 585              		.loc 1 1242 3 view .LVU194
1242:Drivers/STM32G4xx_HAL_Driver/Src/stm32g4xx_hal_cordic.c ****   {
 586              		.loc 1 1242 7 is_stmt 0 view .LVU195
 587 00ca 1368     		ldr	r3, [r2]
1242:Drivers/STM32G4xx_HAL_Driver/Src/stm32g4xx_hal_cordic.c ****   {
 588              		.loc 1 1242 6 view .LVU196
 589 00cc 1B03     		lsls	r3, r3, #12
1245:Drivers/STM32G4xx_HAL_Driver/Src/stm32g4xx_hal_cordic.c **** 
 590              		.loc 1 1245 5 is_stmt 1 view .LVU197
1245:Drivers/STM32G4xx_HAL_Driver/Src/stm32g4xx_hal_cordic.c **** 
 591              		.loc 1 1245 28 is_stmt 0 view .LVU198
 592 00ce 44BF     		itt	mi
 593 00d0 9368     		ldrmi	r3, [r2, #8]
1245:Drivers/STM32G4xx_HAL_Driver/Src/stm32g4xx_hal_cordic.c **** 
 594              		.loc 1 1245 17 view .LVU199
 595 00d2 7360     		strmi	r3, [r6, #4]
 596              		.loc 1 1248 5 is_stmt 1 view .LVU200
 597              	.LVL48:
 598              		.loc 1 1248 5 is_stmt 0 view .LVU201
 599              	.LBE31:
 600              	.LBE30:
 673:Drivers/STM32G4xx_HAL_Driver/Src/stm32g4xx_hal_cordic.c **** 
 601              		.loc 1 673 5 is_stmt 1 view .LVU202
 673:Drivers/STM32G4xx_HAL_Driver/Src/stm32g4xx_hal_cordic.c **** 
 602              		.loc 1 673 20 is_stmt 0 view .LVU203
 603 00d4 0123     		movs	r3, #1
 604 00d6 89F82130 		strb	r3, [r9, #33]
 676:Drivers/STM32G4xx_HAL_Driver/Src/stm32g4xx_hal_cordic.c ****   }
 605              		.loc 1 676 5 is_stmt 1 view .LVU204
 676:Drivers/STM32G4xx_HAL_Driver/Src/stm32g4xx_hal_cordic.c ****   }
 606              		.loc 1 676 12 is_stmt 0 view .LVU205
 607 00da 4FF00008 		mov	r8, #0
 608 00de B0E7     		b	.L33
 609              		.cfi_endproc
 610              	.LFE334:
 612              		.section	.text.HAL_CORDIC_CalculateZO,"ax",%progbits
 613              		.align	1
 614              		.p2align 2,,3
 615              		.global	HAL_CORDIC_CalculateZO
 616              		.syntax unified
 617              		.thumb
 618              		.thumb_func
 619              		.fpu fpv4-sp-d16
 621              	HAL_CORDIC_CalculateZO:
 622              	.LVL49:
 623              	.LFB335:
 700:Drivers/STM32G4xx_HAL_Driver/Src/stm32g4xx_hal_cordic.c ****   uint32_t tickstart;
 624              		.loc 1 700 1 is_stmt 1 view -0
 625              		.cfi_startproc
 626              		@ args = 4, pretend = 0, frame = 0
 627              		@ frame_needed = 0, uses_anonymous_args = 0
ARM GAS  /tmp/ccR9GgNa.s 			page 36


 701:Drivers/STM32G4xx_HAL_Driver/Src/stm32g4xx_hal_cordic.c ****   uint32_t index;
 628              		.loc 1 701 3 view .LVU207
 702:Drivers/STM32G4xx_HAL_Driver/Src/stm32g4xx_hal_cordic.c ****   int32_t *p_tmp_in_buff = pInBuff;
 629              		.loc 1 702 3 view .LVU208
 703:Drivers/STM32G4xx_HAL_Driver/Src/stm32g4xx_hal_cordic.c ****   int32_t *p_tmp_out_buff = pOutBuff;
 630              		.loc 1 703 3 view .LVU209
 704:Drivers/STM32G4xx_HAL_Driver/Src/stm32g4xx_hal_cordic.c **** 
 631              		.loc 1 704 3 view .LVU210
 700:Drivers/STM32G4xx_HAL_Driver/Src/stm32g4xx_hal_cordic.c ****   uint32_t tickstart;
 632              		.loc 1 700 1 is_stmt 0 view .LVU211
 633 0000 2DE9F84F 		push	{r3, r4, r5, r6, r7, r8, r9, r10, fp, lr}
 634              	.LCFI7:
 635              		.cfi_def_cfa_offset 40
 636              		.cfi_offset 3, -40
 637              		.cfi_offset 4, -36
 638              		.cfi_offset 5, -32
 639              		.cfi_offset 6, -28
 640              		.cfi_offset 7, -24
 641              		.cfi_offset 8, -20
 642              		.cfi_offset 9, -16
 643              		.cfi_offset 10, -12
 644              		.cfi_offset 11, -8
 645              		.cfi_offset 14, -4
 700:Drivers/STM32G4xx_HAL_Driver/Src/stm32g4xx_hal_cordic.c ****   uint32_t tickstart;
 646              		.loc 1 700 1 view .LVU212
 647 0004 DDF82890 		ldr	r9, [sp, #40]
 648 0008 8046     		mov	r8, r0
 649              	.LVL50:
 707:Drivers/STM32G4xx_HAL_Driver/Src/stm32g4xx_hal_cordic.c ****   {
 650              		.loc 1 707 3 is_stmt 1 view .LVU213
 707:Drivers/STM32G4xx_HAL_Driver/Src/stm32g4xx_hal_cordic.c ****   {
 651              		.loc 1 707 6 is_stmt 0 view .LVU214
 652 000a 91B1     		cbz	r1, .L68
 653 000c 1746     		mov	r7, r2
 707:Drivers/STM32G4xx_HAL_Driver/Src/stm32g4xx_hal_cordic.c ****   {
 654              		.loc 1 707 25 discriminator 1 view .LVU215
 655 000e 82B1     		cbz	r2, .L68
 656 0010 1E46     		mov	r6, r3
 707:Drivers/STM32G4xx_HAL_Driver/Src/stm32g4xx_hal_cordic.c ****   {
 657              		.loc 1 707 47 discriminator 2 view .LVU216
 658 0012 73B1     		cbz	r3, .L68
 717:Drivers/STM32G4xx_HAL_Driver/Src/stm32g4xx_hal_cordic.c ****   {
 659              		.loc 1 717 3 is_stmt 1 view .LVU217
 717:Drivers/STM32G4xx_HAL_Driver/Src/stm32g4xx_hal_cordic.c ****   {
 660              		.loc 1 717 14 is_stmt 0 view .LVU218
 661 0014 90F82130 		ldrb	r3, [r0, #33]	@ zero_extendqisi2
 662              	.LVL51:
 717:Drivers/STM32G4xx_HAL_Driver/Src/stm32g4xx_hal_cordic.c ****   {
 663              		.loc 1 717 6 view .LVU219
 664 0018 012B     		cmp	r3, #1
 717:Drivers/STM32G4xx_HAL_Driver/Src/stm32g4xx_hal_cordic.c ****   {
 665              		.loc 1 717 14 view .LVU220
 666 001a 5FFA83FB 		uxtb	fp, r3
 717:Drivers/STM32G4xx_HAL_Driver/Src/stm32g4xx_hal_cordic.c ****   {
 667              		.loc 1 717 6 view .LVU221
 668 001e 13D0     		beq	.L100
 774:Drivers/STM32G4xx_HAL_Driver/Src/stm32g4xx_hal_cordic.c **** 
ARM GAS  /tmp/ccR9GgNa.s 			page 37


 669              		.loc 1 774 5 is_stmt 1 view .LVU222
 774:Drivers/STM32G4xx_HAL_Driver/Src/stm32g4xx_hal_cordic.c **** 
 670              		.loc 1 774 24 is_stmt 0 view .LVU223
 671 0020 436A     		ldr	r3, [r0, #36]
 777:Drivers/STM32G4xx_HAL_Driver/Src/stm32g4xx_hal_cordic.c ****   }
 672              		.loc 1 777 12 view .LVU224
 673 0022 4FF0010B 		mov	fp, #1
 774:Drivers/STM32G4xx_HAL_Driver/Src/stm32g4xx_hal_cordic.c **** 
 674              		.loc 1 774 24 view .LVU225
 675 0026 43F00203 		orr	r3, r3, #2
 676 002a 4362     		str	r3, [r0, #36]
 677              	.LVL52:
 777:Drivers/STM32G4xx_HAL_Driver/Src/stm32g4xx_hal_cordic.c ****   }
 678              		.loc 1 777 5 is_stmt 1 view .LVU226
 779:Drivers/STM32G4xx_HAL_Driver/Src/stm32g4xx_hal_cordic.c **** 
 679              		.loc 1 779 1 is_stmt 0 view .LVU227
 680 002c 5846     		mov	r0, fp
 681              	.LVL53:
 779:Drivers/STM32G4xx_HAL_Driver/Src/stm32g4xx_hal_cordic.c **** 
 682              		.loc 1 779 1 view .LVU228
 683 002e BDE8F88F 		pop	{r3, r4, r5, r6, r7, r8, r9, r10, fp, pc}
 684              	.LVL54:
 685              	.L68:
 710:Drivers/STM32G4xx_HAL_Driver/Src/stm32g4xx_hal_cordic.c **** 
 686              		.loc 1 710 5 is_stmt 1 view .LVU229
 710:Drivers/STM32G4xx_HAL_Driver/Src/stm32g4xx_hal_cordic.c **** 
 687              		.loc 1 710 24 is_stmt 0 view .LVU230
 688 0032 D8F82430 		ldr	r3, [r8, #36]
 689              	.LVL55:
 710:Drivers/STM32G4xx_HAL_Driver/Src/stm32g4xx_hal_cordic.c **** 
 690              		.loc 1 710 24 view .LVU231
 691 0036 43F00103 		orr	r3, r3, #1
 692 003a C8F82430 		str	r3, [r8, #36]
 693              	.LVL56:
 713:Drivers/STM32G4xx_HAL_Driver/Src/stm32g4xx_hal_cordic.c ****   }
 694              		.loc 1 713 5 is_stmt 1 view .LVU232
 713:Drivers/STM32G4xx_HAL_Driver/Src/stm32g4xx_hal_cordic.c ****   }
 695              		.loc 1 713 12 is_stmt 0 view .LVU233
 696 003e 4FF0010B 		mov	fp, #1
 697              	.LVL57:
 698              	.L70:
 779:Drivers/STM32G4xx_HAL_Driver/Src/stm32g4xx_hal_cordic.c **** 
 699              		.loc 1 779 1 view .LVU234
 700 0042 5846     		mov	r0, fp
 701 0044 BDE8F88F 		pop	{r3, r4, r5, r6, r7, r8, r9, r10, fp, pc}
 702              	.LVL58:
 703              	.L100:
 720:Drivers/STM32G4xx_HAL_Driver/Src/stm32g4xx_hal_cordic.c **** 
 704              		.loc 1 720 5 is_stmt 1 view .LVU235
 720:Drivers/STM32G4xx_HAL_Driver/Src/stm32g4xx_hal_cordic.c **** 
 705              		.loc 1 720 24 is_stmt 0 view .LVU236
 706 0048 0022     		movs	r2, #0
 707              	.LVL59:
 723:Drivers/STM32G4xx_HAL_Driver/Src/stm32g4xx_hal_cordic.c **** 
 708              		.loc 1 723 20 view .LVU237
 709 004a 0223     		movs	r3, #2
 710 004c 0C46     		mov	r4, r1
ARM GAS  /tmp/ccR9GgNa.s 			page 38


 720:Drivers/STM32G4xx_HAL_Driver/Src/stm32g4xx_hal_cordic.c **** 
 711              		.loc 1 720 24 view .LVU238
 712 004e 4262     		str	r2, [r0, #36]
 723:Drivers/STM32G4xx_HAL_Driver/Src/stm32g4xx_hal_cordic.c **** 
 713              		.loc 1 723 5 is_stmt 1 view .LVU239
 723:Drivers/STM32G4xx_HAL_Driver/Src/stm32g4xx_hal_cordic.c **** 
 714              		.loc 1 723 20 is_stmt 0 view .LVU240
 715 0050 80F82130 		strb	r3, [r0, #33]
 726:Drivers/STM32G4xx_HAL_Driver/Src/stm32g4xx_hal_cordic.c **** 
 716              		.loc 1 726 5 is_stmt 1 view .LVU241
 726:Drivers/STM32G4xx_HAL_Driver/Src/stm32g4xx_hal_cordic.c **** 
 717              		.loc 1 726 17 is_stmt 0 view .LVU242
 718 0054 FFF7FEFF 		bl	HAL_GetTick
 719              	.LVL60:
 720              	.LBB32:
 721              	.LBB33:
1210:Drivers/STM32G4xx_HAL_Driver/Src/stm32g4xx_hal_cordic.c **** 
 722              		.loc 1 1210 3 view .LVU243
 723 0058 D8F80050 		ldr	r5, [r8]
 724 005c 2368     		ldr	r3, [r4]
 725 005e 6B60     		str	r3, [r5, #4]
1216:Drivers/STM32G4xx_HAL_Driver/Src/stm32g4xx_hal_cordic.c ****   {
 726              		.loc 1 1216 7 view .LVU244
 727 0060 2B68     		ldr	r3, [r5]
 728              	.LBE33:
 729              	.LBE32:
 726:Drivers/STM32G4xx_HAL_Driver/Src/stm32g4xx_hal_cordic.c **** 
 730              		.loc 1 726 17 view .LVU245
 731 0062 8246     		mov	r10, r0
 732              	.LVL61:
 729:Drivers/STM32G4xx_HAL_Driver/Src/stm32g4xx_hal_cordic.c **** 
 733              		.loc 1 729 5 is_stmt 1 view .LVU246
 734              	.LBB35:
 735              	.LBI32:
1207:Drivers/STM32G4xx_HAL_Driver/Src/stm32g4xx_hal_cordic.c **** {
 736              		.loc 1 1207 13 view .LVU247
 737              	.LBB34:
1210:Drivers/STM32G4xx_HAL_Driver/Src/stm32g4xx_hal_cordic.c **** 
 738              		.loc 1 1210 3 view .LVU248
1213:Drivers/STM32G4xx_HAL_Driver/Src/stm32g4xx_hal_cordic.c **** 
 739              		.loc 1 1213 3 view .LVU249
1216:Drivers/STM32G4xx_HAL_Driver/Src/stm32g4xx_hal_cordic.c ****   {
 740              		.loc 1 1216 3 view .LVU250
1216:Drivers/STM32G4xx_HAL_Driver/Src/stm32g4xx_hal_cordic.c ****   {
 741              		.loc 1 1216 6 is_stmt 0 view .LVU251
 742 0064 D802     		lsls	r0, r3, #11
 743              	.LVL62:
1219:Drivers/STM32G4xx_HAL_Driver/Src/stm32g4xx_hal_cordic.c **** 
 744              		.loc 1 1219 5 view .LVU252
 745 0066 45BF     		ittet	mi
 746 0068 6268     		ldrmi	r2, [r4, #4]
 747 006a 6A60     		strmi	r2, [r5, #4]
1213:Drivers/STM32G4xx_HAL_Driver/Src/stm32g4xx_hal_cordic.c **** 
 748              		.loc 1 1213 14 view .LVU253
 749 006c 0434     		addpl	r4, r4, #4
 750              	.LVL63:
1219:Drivers/STM32G4xx_HAL_Driver/Src/stm32g4xx_hal_cordic.c **** 
ARM GAS  /tmp/ccR9GgNa.s 			page 39


 751              		.loc 1 1219 5 is_stmt 1 view .LVU254
1222:Drivers/STM32G4xx_HAL_Driver/Src/stm32g4xx_hal_cordic.c ****   }
 752              		.loc 1 1222 5 view .LVU255
1222:Drivers/STM32G4xx_HAL_Driver/Src/stm32g4xx_hal_cordic.c ****   }
 753              		.loc 1 1222 16 is_stmt 0 view .LVU256
 754 006e 0834     		addmi	r4, r4, #8
 755              	.LVL64:
 756              	.L73:
1222:Drivers/STM32G4xx_HAL_Driver/Src/stm32g4xx_hal_cordic.c ****   }
 757              		.loc 1 1222 16 view .LVU257
 758              	.LBE34:
 759              	.LBE35:
 733:Drivers/STM32G4xx_HAL_Driver/Src/stm32g4xx_hal_cordic.c ****     {
 760              		.loc 1 733 5 is_stmt 1 view .LVU258
 733:Drivers/STM32G4xx_HAL_Driver/Src/stm32g4xx_hal_cordic.c ****     {
 761              		.loc 1 733 33 view .LVU259
 733:Drivers/STM32G4xx_HAL_Driver/Src/stm32g4xx_hal_cordic.c ****     {
 762              		.loc 1 733 5 is_stmt 0 view .LVU260
 763 0070 013E     		subs	r6, r6, #1
 764              	.LVL65:
 733:Drivers/STM32G4xx_HAL_Driver/Src/stm32g4xx_hal_cordic.c ****     {
 765              		.loc 1 733 5 view .LVU261
 766 0072 1FD0     		beq	.L74
 767              	.LVL66:
 768              	.L101:
 736:Drivers/STM32G4xx_HAL_Driver/Src/stm32g4xx_hal_cordic.c **** 
 769              		.loc 1 736 7 is_stmt 1 view .LVU262
 770              	.LBB36:
 771              	.LBI36:
1207:Drivers/STM32G4xx_HAL_Driver/Src/stm32g4xx_hal_cordic.c **** {
 772              		.loc 1 1207 13 view .LVU263
 773              	.LBB37:
1210:Drivers/STM32G4xx_HAL_Driver/Src/stm32g4xx_hal_cordic.c **** 
 774              		.loc 1 1210 3 view .LVU264
1219:Drivers/STM32G4xx_HAL_Driver/Src/stm32g4xx_hal_cordic.c **** 
 775              		.loc 1 1219 5 view .LVU265
1210:Drivers/STM32G4xx_HAL_Driver/Src/stm32g4xx_hal_cordic.c **** 
 776              		.loc 1 1210 3 is_stmt 0 view .LVU266
 777 0074 2368     		ldr	r3, [r4]
 778 0076 6B60     		str	r3, [r5, #4]
1213:Drivers/STM32G4xx_HAL_Driver/Src/stm32g4xx_hal_cordic.c **** 
 779              		.loc 1 1213 3 is_stmt 1 view .LVU267
 780              	.LVL67:
1216:Drivers/STM32G4xx_HAL_Driver/Src/stm32g4xx_hal_cordic.c ****   {
 781              		.loc 1 1216 3 view .LVU268
1216:Drivers/STM32G4xx_HAL_Driver/Src/stm32g4xx_hal_cordic.c ****   {
 782              		.loc 1 1216 7 is_stmt 0 view .LVU269
 783 0078 2B68     		ldr	r3, [r5]
1216:Drivers/STM32G4xx_HAL_Driver/Src/stm32g4xx_hal_cordic.c ****   {
 784              		.loc 1 1216 6 view .LVU270
 785 007a D902     		lsls	r1, r3, #11
1219:Drivers/STM32G4xx_HAL_Driver/Src/stm32g4xx_hal_cordic.c **** 
 786              		.loc 1 1219 5 view .LVU271
 787 007c 44BF     		itt	mi
 788 007e 6368     		ldrmi	r3, [r4, #4]
 789 0080 6B60     		strmi	r3, [r5, #4]
1222:Drivers/STM32G4xx_HAL_Driver/Src/stm32g4xx_hal_cordic.c ****   }
ARM GAS  /tmp/ccR9GgNa.s 			page 40


 790              		.loc 1 1222 5 is_stmt 1 view .LVU272
 791              	.LBE37:
 792              	.LBE36:
 793              	.LBB39:
 794              	.LBB40:
1236:Drivers/STM32G4xx_HAL_Driver/Src/stm32g4xx_hal_cordic.c **** 
 795              		.loc 1 1236 26 is_stmt 0 view .LVU273
 796 0082 AB68     		ldr	r3, [r5, #8]
1236:Drivers/STM32G4xx_HAL_Driver/Src/stm32g4xx_hal_cordic.c **** 
 797              		.loc 1 1236 15 view .LVU274
 798 0084 3B60     		str	r3, [r7]
1242:Drivers/STM32G4xx_HAL_Driver/Src/stm32g4xx_hal_cordic.c ****   {
 799              		.loc 1 1242 7 view .LVU275
 800 0086 2B68     		ldr	r3, [r5]
 801              	.LBE40:
 802              	.LBE39:
 803              	.LBB42:
 804              	.LBB38:
1213:Drivers/STM32G4xx_HAL_Driver/Src/stm32g4xx_hal_cordic.c **** 
 805              		.loc 1 1213 14 view .LVU276
 806 0088 54BF     		ite	pl
 807 008a 0434     		addpl	r4, r4, #4
 808              	.LVL68:
1222:Drivers/STM32G4xx_HAL_Driver/Src/stm32g4xx_hal_cordic.c ****   }
 809              		.loc 1 1222 16 view .LVU277
 810 008c 0834     		addmi	r4, r4, #8
 811              	.LVL69:
1222:Drivers/STM32G4xx_HAL_Driver/Src/stm32g4xx_hal_cordic.c ****   }
 812              		.loc 1 1222 16 view .LVU278
 813              	.LBE38:
 814              	.LBE42:
 741:Drivers/STM32G4xx_HAL_Driver/Src/stm32g4xx_hal_cordic.c **** 
 815              		.loc 1 741 7 is_stmt 1 view .LVU279
 816              	.LBB43:
 817              	.LBI39:
1233:Drivers/STM32G4xx_HAL_Driver/Src/stm32g4xx_hal_cordic.c **** {
 818              		.loc 1 1233 13 view .LVU280
 819              	.LBB41:
1236:Drivers/STM32G4xx_HAL_Driver/Src/stm32g4xx_hal_cordic.c **** 
 820              		.loc 1 1236 3 view .LVU281
1245:Drivers/STM32G4xx_HAL_Driver/Src/stm32g4xx_hal_cordic.c **** 
 821              		.loc 1 1245 5 view .LVU282
1239:Drivers/STM32G4xx_HAL_Driver/Src/stm32g4xx_hal_cordic.c **** 
 822              		.loc 1 1239 3 view .LVU283
1242:Drivers/STM32G4xx_HAL_Driver/Src/stm32g4xx_hal_cordic.c ****   {
 823              		.loc 1 1242 3 view .LVU284
1242:Drivers/STM32G4xx_HAL_Driver/Src/stm32g4xx_hal_cordic.c ****   {
 824              		.loc 1 1242 6 is_stmt 0 view .LVU285
 825 008e 1A03     		lsls	r2, r3, #12
1245:Drivers/STM32G4xx_HAL_Driver/Src/stm32g4xx_hal_cordic.c **** 
 826              		.loc 1 1245 28 view .LVU286
 827 0090 45BF     		ittet	mi
 828 0092 AB68     		ldrmi	r3, [r5, #8]
1245:Drivers/STM32G4xx_HAL_Driver/Src/stm32g4xx_hal_cordic.c **** 
 829              		.loc 1 1245 17 view .LVU287
 830 0094 7B60     		strmi	r3, [r7, #4]
 831              		.loc 1 1248 5 is_stmt 1 view .LVU288
ARM GAS  /tmp/ccR9GgNa.s 			page 41


1239:Drivers/STM32G4xx_HAL_Driver/Src/stm32g4xx_hal_cordic.c **** 
 832              		.loc 1 1239 15 is_stmt 0 view .LVU289
 833 0096 0437     		addpl	r7, r7, #4
 834              	.LVL70:
 835              		.loc 1 1248 17 view .LVU290
 836 0098 0837     		addmi	r7, r7, #8
 837              	.LVL71:
 838              		.loc 1 1248 17 view .LVU291
 839              	.LBE41:
 840              	.LBE43:
 744:Drivers/STM32G4xx_HAL_Driver/Src/stm32g4xx_hal_cordic.c ****       {
 841              		.loc 1 744 7 is_stmt 1 view .LVU292
 746:Drivers/STM32G4xx_HAL_Driver/Src/stm32g4xx_hal_cordic.c ****         {
 842              		.loc 1 746 9 view .LVU293
 744:Drivers/STM32G4xx_HAL_Driver/Src/stm32g4xx_hal_cordic.c ****       {
 843              		.loc 1 744 10 is_stmt 0 view .LVU294
 844 009a B9F1FF3F 		cmp	r9, #-1
 845 009e E7D0     		beq	.L73
 746:Drivers/STM32G4xx_HAL_Driver/Src/stm32g4xx_hal_cordic.c ****         {
 846              		.loc 1 746 14 view .LVU295
 847 00a0 FFF7FEFF 		bl	HAL_GetTick
 848              	.LVL72:
 746:Drivers/STM32G4xx_HAL_Driver/Src/stm32g4xx_hal_cordic.c ****         {
 849              		.loc 1 746 28 view .LVU296
 850 00a4 A0EB0A00 		sub	r0, r0, r10
 746:Drivers/STM32G4xx_HAL_Driver/Src/stm32g4xx_hal_cordic.c ****         {
 851              		.loc 1 746 12 view .LVU297
 852 00a8 4845     		cmp	r0, r9
 853 00aa 10D8     		bhi	.L80
 733:Drivers/STM32G4xx_HAL_Driver/Src/stm32g4xx_hal_cordic.c ****     {
 854              		.loc 1 733 5 view .LVU298
 855 00ac 013E     		subs	r6, r6, #1
 856              	.LVL73:
 733:Drivers/STM32G4xx_HAL_Driver/Src/stm32g4xx_hal_cordic.c ****     {
 857              		.loc 1 733 5 view .LVU299
 858 00ae D8F80050 		ldr	r5, [r8]
 733:Drivers/STM32G4xx_HAL_Driver/Src/stm32g4xx_hal_cordic.c ****     {
 859              		.loc 1 733 5 is_stmt 1 view .LVU300
 860              	.LVL74:
 733:Drivers/STM32G4xx_HAL_Driver/Src/stm32g4xx_hal_cordic.c ****     {
 861              		.loc 1 733 33 view .LVU301
 733:Drivers/STM32G4xx_HAL_Driver/Src/stm32g4xx_hal_cordic.c ****     {
 862              		.loc 1 733 5 is_stmt 0 view .LVU302
 863 00b2 DFD1     		bne	.L101
 864              	.L74:
 763:Drivers/STM32G4xx_HAL_Driver/Src/stm32g4xx_hal_cordic.c **** 
 865              		.loc 1 763 5 is_stmt 1 view .LVU303
 866              	.LVL75:
 867              	.LBB44:
 868              	.LBI44:
1233:Drivers/STM32G4xx_HAL_Driver/Src/stm32g4xx_hal_cordic.c **** {
 869              		.loc 1 1233 13 view .LVU304
 870              	.LBB45:
1236:Drivers/STM32G4xx_HAL_Driver/Src/stm32g4xx_hal_cordic.c **** 
 871              		.loc 1 1236 3 view .LVU305
1236:Drivers/STM32G4xx_HAL_Driver/Src/stm32g4xx_hal_cordic.c **** 
 872              		.loc 1 1236 26 is_stmt 0 view .LVU306
ARM GAS  /tmp/ccR9GgNa.s 			page 42


 873 00b4 AB68     		ldr	r3, [r5, #8]
1236:Drivers/STM32G4xx_HAL_Driver/Src/stm32g4xx_hal_cordic.c **** 
 874              		.loc 1 1236 15 view .LVU307
 875 00b6 3B60     		str	r3, [r7]
1239:Drivers/STM32G4xx_HAL_Driver/Src/stm32g4xx_hal_cordic.c **** 
 876              		.loc 1 1239 3 is_stmt 1 view .LVU308
 877              	.LVL76:
1242:Drivers/STM32G4xx_HAL_Driver/Src/stm32g4xx_hal_cordic.c ****   {
 878              		.loc 1 1242 3 view .LVU309
1242:Drivers/STM32G4xx_HAL_Driver/Src/stm32g4xx_hal_cordic.c ****   {
 879              		.loc 1 1242 7 is_stmt 0 view .LVU310
 880 00b8 2B68     		ldr	r3, [r5]
1242:Drivers/STM32G4xx_HAL_Driver/Src/stm32g4xx_hal_cordic.c ****   {
 881              		.loc 1 1242 6 view .LVU311
 882 00ba 1B03     		lsls	r3, r3, #12
1245:Drivers/STM32G4xx_HAL_Driver/Src/stm32g4xx_hal_cordic.c **** 
 883              		.loc 1 1245 5 is_stmt 1 view .LVU312
1245:Drivers/STM32G4xx_HAL_Driver/Src/stm32g4xx_hal_cordic.c **** 
 884              		.loc 1 1245 28 is_stmt 0 view .LVU313
 885 00bc 44BF     		itt	mi
 886 00be AB68     		ldrmi	r3, [r5, #8]
1245:Drivers/STM32G4xx_HAL_Driver/Src/stm32g4xx_hal_cordic.c **** 
 887              		.loc 1 1245 17 view .LVU314
 888 00c0 7B60     		strmi	r3, [r7, #4]
 889              		.loc 1 1248 5 is_stmt 1 view .LVU315
 890              	.LVL77:
 891              		.loc 1 1248 5 is_stmt 0 view .LVU316
 892              	.LBE45:
 893              	.LBE44:
 766:Drivers/STM32G4xx_HAL_Driver/Src/stm32g4xx_hal_cordic.c **** 
 894              		.loc 1 766 5 is_stmt 1 view .LVU317
 766:Drivers/STM32G4xx_HAL_Driver/Src/stm32g4xx_hal_cordic.c **** 
 895              		.loc 1 766 20 is_stmt 0 view .LVU318
 896 00c2 0123     		movs	r3, #1
 897 00c4 88F82130 		strb	r3, [r8, #33]
 769:Drivers/STM32G4xx_HAL_Driver/Src/stm32g4xx_hal_cordic.c ****   }
 898              		.loc 1 769 5 is_stmt 1 view .LVU319
 769:Drivers/STM32G4xx_HAL_Driver/Src/stm32g4xx_hal_cordic.c ****   }
 899              		.loc 1 769 12 is_stmt 0 view .LVU320
 900 00c8 4FF0000B 		mov	fp, #0
 901 00cc B9E7     		b	.L70
 902              	.LVL78:
 903              	.L80:
 749:Drivers/STM32G4xx_HAL_Driver/Src/stm32g4xx_hal_cordic.c **** 
 904              		.loc 1 749 11 is_stmt 1 view .LVU321
 749:Drivers/STM32G4xx_HAL_Driver/Src/stm32g4xx_hal_cordic.c **** 
 905              		.loc 1 749 30 is_stmt 0 view .LVU322
 906 00ce 0422     		movs	r2, #4
 752:Drivers/STM32G4xx_HAL_Driver/Src/stm32g4xx_hal_cordic.c **** 
 907              		.loc 1 752 26 view .LVU323
 908 00d0 0123     		movs	r3, #1
 749:Drivers/STM32G4xx_HAL_Driver/Src/stm32g4xx_hal_cordic.c **** 
 909              		.loc 1 749 30 view .LVU324
 910 00d2 C8F82420 		str	r2, [r8, #36]
 752:Drivers/STM32G4xx_HAL_Driver/Src/stm32g4xx_hal_cordic.c **** 
 911              		.loc 1 752 11 is_stmt 1 view .LVU325
 752:Drivers/STM32G4xx_HAL_Driver/Src/stm32g4xx_hal_cordic.c **** 
ARM GAS  /tmp/ccR9GgNa.s 			page 43


 912              		.loc 1 752 26 is_stmt 0 view .LVU326
 913 00d6 88F82130 		strb	r3, [r8, #33]
 755:Drivers/STM32G4xx_HAL_Driver/Src/stm32g4xx_hal_cordic.c ****         }
 914              		.loc 1 755 11 is_stmt 1 view .LVU327
 755:Drivers/STM32G4xx_HAL_Driver/Src/stm32g4xx_hal_cordic.c ****         }
 915              		.loc 1 755 18 is_stmt 0 view .LVU328
 916 00da B2E7     		b	.L70
 917              		.cfi_endproc
 918              	.LFE335:
 920              		.section	.text.HAL_CORDIC_Calculate_IT,"ax",%progbits
 921              		.align	1
 922              		.p2align 2,,3
 923              		.global	HAL_CORDIC_Calculate_IT
 924              		.syntax unified
 925              		.thumb
 926              		.thumb_func
 927              		.fpu fpv4-sp-d16
 929              	HAL_CORDIC_Calculate_IT:
 930              	.LVL79:
 931              	.LFB336:
 792:Drivers/STM32G4xx_HAL_Driver/Src/stm32g4xx_hal_cordic.c ****   int32_t *tmp_pInBuff = pInBuff;
 932              		.loc 1 792 1 is_stmt 1 view -0
 933              		.cfi_startproc
 934              		@ args = 0, pretend = 0, frame = 0
 935              		@ frame_needed = 0, uses_anonymous_args = 0
 936              		@ link register save eliminated.
 793:Drivers/STM32G4xx_HAL_Driver/Src/stm32g4xx_hal_cordic.c **** 
 937              		.loc 1 793 3 view .LVU330
 796:Drivers/STM32G4xx_HAL_Driver/Src/stm32g4xx_hal_cordic.c ****   {
 938              		.loc 1 796 3 view .LVU331
 796:Drivers/STM32G4xx_HAL_Driver/Src/stm32g4xx_hal_cordic.c ****   {
 939              		.loc 1 796 6 is_stmt 0 view .LVU332
 940 0000 69B1     		cbz	r1, .L103
 796:Drivers/STM32G4xx_HAL_Driver/Src/stm32g4xx_hal_cordic.c ****   {
 941              		.loc 1 796 25 discriminator 1 view .LVU333
 942 0002 62B1     		cbz	r2, .L103
 796:Drivers/STM32G4xx_HAL_Driver/Src/stm32g4xx_hal_cordic.c ****   {
 943              		.loc 1 796 47 discriminator 2 view .LVU334
 944 0004 5BB1     		cbz	r3, .L103
 806:Drivers/STM32G4xx_HAL_Driver/Src/stm32g4xx_hal_cordic.c ****   {
 945              		.loc 1 806 3 is_stmt 1 view .LVU335
 792:Drivers/STM32G4xx_HAL_Driver/Src/stm32g4xx_hal_cordic.c ****   int32_t *tmp_pInBuff = pInBuff;
 946              		.loc 1 792 1 is_stmt 0 view .LVU336
 947 0006 70B4     		push	{r4, r5, r6}
 948              	.LCFI8:
 949              		.cfi_def_cfa_offset 12
 950              		.cfi_offset 4, -12
 951              		.cfi_offset 5, -8
 952              		.cfi_offset 6, -4
 806:Drivers/STM32G4xx_HAL_Driver/Src/stm32g4xx_hal_cordic.c ****   {
 953              		.loc 1 806 14 view .LVU337
 954 0008 90F82140 		ldrb	r4, [r0, #33]	@ zero_extendqisi2
 806:Drivers/STM32G4xx_HAL_Driver/Src/stm32g4xx_hal_cordic.c ****   {
 955              		.loc 1 806 6 view .LVU338
 956 000c 012C     		cmp	r4, #1
 957 000e 0CD0     		beq	.L119
 858:Drivers/STM32G4xx_HAL_Driver/Src/stm32g4xx_hal_cordic.c **** 
ARM GAS  /tmp/ccR9GgNa.s 			page 44


 958              		.loc 1 858 5 is_stmt 1 view .LVU339
 858:Drivers/STM32G4xx_HAL_Driver/Src/stm32g4xx_hal_cordic.c **** 
 959              		.loc 1 858 24 is_stmt 0 view .LVU340
 960 0010 436A     		ldr	r3, [r0, #36]
 961              	.LVL80:
 858:Drivers/STM32G4xx_HAL_Driver/Src/stm32g4xx_hal_cordic.c **** 
 962              		.loc 1 858 24 view .LVU341
 963 0012 43F00203 		orr	r3, r3, #2
 964 0016 4362     		str	r3, [r0, #36]
 861:Drivers/STM32G4xx_HAL_Driver/Src/stm32g4xx_hal_cordic.c ****   }
 965              		.loc 1 861 5 is_stmt 1 view .LVU342
 861:Drivers/STM32G4xx_HAL_Driver/Src/stm32g4xx_hal_cordic.c ****   }
 966              		.loc 1 861 12 is_stmt 0 view .LVU343
 967 0018 0120     		movs	r0, #1
 968              	.LVL81:
 969              	.L105:
 863:Drivers/STM32G4xx_HAL_Driver/Src/stm32g4xx_hal_cordic.c **** 
 970              		.loc 1 863 1 view .LVU344
 971 001a 70BC     		pop	{r4, r5, r6}
 972              	.LCFI9:
 973              		.cfi_restore 6
 974              		.cfi_restore 5
 975              		.cfi_restore 4
 976              		.cfi_def_cfa_offset 0
 977 001c 7047     		bx	lr
 978              	.LVL82:
 979              	.L103:
 799:Drivers/STM32G4xx_HAL_Driver/Src/stm32g4xx_hal_cordic.c **** 
 980              		.loc 1 799 5 is_stmt 1 view .LVU345
 799:Drivers/STM32G4xx_HAL_Driver/Src/stm32g4xx_hal_cordic.c **** 
 981              		.loc 1 799 24 is_stmt 0 view .LVU346
 982 001e 436A     		ldr	r3, [r0, #36]
 983              	.LVL83:
 799:Drivers/STM32G4xx_HAL_Driver/Src/stm32g4xx_hal_cordic.c **** 
 984              		.loc 1 799 24 view .LVU347
 985 0020 43F00103 		orr	r3, r3, #1
 986 0024 4362     		str	r3, [r0, #36]
 802:Drivers/STM32G4xx_HAL_Driver/Src/stm32g4xx_hal_cordic.c ****   }
 987              		.loc 1 802 5 is_stmt 1 view .LVU348
 802:Drivers/STM32G4xx_HAL_Driver/Src/stm32g4xx_hal_cordic.c ****   }
 988              		.loc 1 802 12 is_stmt 0 view .LVU349
 989 0026 0120     		movs	r0, #1
 990              	.LVL84:
 863:Drivers/STM32G4xx_HAL_Driver/Src/stm32g4xx_hal_cordic.c **** 
 991              		.loc 1 863 1 view .LVU350
 992 0028 7047     		bx	lr
 993              	.LVL85:
 994              	.L119:
 995              	.LCFI10:
 996              		.cfi_def_cfa_offset 12
 997              		.cfi_offset 4, -12
 998              		.cfi_offset 5, -8
 999              		.cfi_offset 6, -4
 809:Drivers/STM32G4xx_HAL_Driver/Src/stm32g4xx_hal_cordic.c **** 
 1000              		.loc 1 809 5 is_stmt 1 view .LVU351
 816:Drivers/STM32G4xx_HAL_Driver/Src/stm32g4xx_hal_cordic.c ****     {
 1001              		.loc 1 816 9 is_stmt 0 view .LVU352
ARM GAS  /tmp/ccR9GgNa.s 			page 45


 1002 002a 0468     		ldr	r4, [r0]
 809:Drivers/STM32G4xx_HAL_Driver/Src/stm32g4xx_hal_cordic.c **** 
 1003              		.loc 1 809 24 view .LVU353
 1004 002c 0026     		movs	r6, #0
 812:Drivers/STM32G4xx_HAL_Driver/Src/stm32g4xx_hal_cordic.c **** 
 1005              		.loc 1 812 20 view .LVU354
 1006 002e 0225     		movs	r5, #2
 809:Drivers/STM32G4xx_HAL_Driver/Src/stm32g4xx_hal_cordic.c **** 
 1007              		.loc 1 809 24 view .LVU355
 1008 0030 4662     		str	r6, [r0, #36]
 812:Drivers/STM32G4xx_HAL_Driver/Src/stm32g4xx_hal_cordic.c **** 
 1009              		.loc 1 812 5 is_stmt 1 view .LVU356
 812:Drivers/STM32G4xx_HAL_Driver/Src/stm32g4xx_hal_cordic.c **** 
 1010              		.loc 1 812 20 is_stmt 0 view .LVU357
 1011 0032 80F82150 		strb	r5, [r0, #33]
 816:Drivers/STM32G4xx_HAL_Driver/Src/stm32g4xx_hal_cordic.c ****     {
 1012              		.loc 1 816 5 is_stmt 1 view .LVU358
 816:Drivers/STM32G4xx_HAL_Driver/Src/stm32g4xx_hal_cordic.c ****     {
 1013              		.loc 1 816 9 is_stmt 0 view .LVU359
 1014 0036 2568     		ldr	r5, [r4]
 816:Drivers/STM32G4xx_HAL_Driver/Src/stm32g4xx_hal_cordic.c ****     {
 1015              		.loc 1 816 8 view .LVU360
 1016 0038 ED02     		lsls	r5, r5, #11
 819:Drivers/STM32G4xx_HAL_Driver/Src/stm32g4xx_hal_cordic.c ****       tmp_pInBuff++;
 1017              		.loc 1 819 7 is_stmt 1 view .LVU361
 1018              	.LVL86:
 820:Drivers/STM32G4xx_HAL_Driver/Src/stm32g4xx_hal_cordic.c ****     }
 1019              		.loc 1 820 7 view .LVU362
 820:Drivers/STM32G4xx_HAL_Driver/Src/stm32g4xx_hal_cordic.c ****     }
 1020              		.loc 1 820 18 is_stmt 0 view .LVU363
 1021 003a 4CBF     		ite	mi
 1022 003c 01F10806 		addmi	r6, r1, #8
 1023              	.LVL87:
 825:Drivers/STM32G4xx_HAL_Driver/Src/stm32g4xx_hal_cordic.c ****     }
 1024              		.loc 1 825 7 is_stmt 1 view .LVU364
 825:Drivers/STM32G4xx_HAL_Driver/Src/stm32g4xx_hal_cordic.c ****     }
 1025              		.loc 1 825 18 is_stmt 0 view .LVU365
 1026 0040 0E1D     		addpl	r6, r1, #4
 1027              	.LVL88:
 827:Drivers/STM32G4xx_HAL_Driver/Src/stm32g4xx_hal_cordic.c ****     hcordic->pOutBuff = pOutBuff;
 1028              		.loc 1 827 5 is_stmt 1 view .LVU366
 833:Drivers/STM32G4xx_HAL_Driver/Src/stm32g4xx_hal_cordic.c **** 
 1029              		.loc 1 833 5 is_stmt 0 view .LVU367
 1030 0042 2568     		ldr	r5, [r4]
 827:Drivers/STM32G4xx_HAL_Driver/Src/stm32g4xx_hal_cordic.c ****     hcordic->pOutBuff = pOutBuff;
 1031              		.loc 1 827 22 view .LVU368
 1032 0044 4660     		str	r6, [r0, #4]
 828:Drivers/STM32G4xx_HAL_Driver/Src/stm32g4xx_hal_cordic.c ****     hcordic->NbCalcToOrder = NbCalc - 1U;
 1033              		.loc 1 828 5 is_stmt 1 view .LVU369
 829:Drivers/STM32G4xx_HAL_Driver/Src/stm32g4xx_hal_cordic.c ****     hcordic->NbCalcToGet = NbCalc;
 1034              		.loc 1 829 37 is_stmt 0 view .LVU370
 1035 0046 5E1E     		subs	r6, r3, #1
 1036              	.LVL89:
 829:Drivers/STM32G4xx_HAL_Driver/Src/stm32g4xx_hal_cordic.c ****     hcordic->NbCalcToGet = NbCalc;
 1037              		.loc 1 829 28 view .LVU371
 1038 0048 C0E90363 		strd	r6, r3, [r0, #12]
 833:Drivers/STM32G4xx_HAL_Driver/Src/stm32g4xx_hal_cordic.c **** 
ARM GAS  /tmp/ccR9GgNa.s 			page 46


 1039              		.loc 1 833 5 view .LVU372
 1040 004c 45F48035 		orr	r5, r5, #65536
 828:Drivers/STM32G4xx_HAL_Driver/Src/stm32g4xx_hal_cordic.c ****     hcordic->NbCalcToOrder = NbCalc - 1U;
 1041              		.loc 1 828 23 view .LVU373
 1042 0050 8260     		str	r2, [r0, #8]
 829:Drivers/STM32G4xx_HAL_Driver/Src/stm32g4xx_hal_cordic.c ****     hcordic->NbCalcToGet = NbCalc;
 1043              		.loc 1 829 5 is_stmt 1 view .LVU374
 830:Drivers/STM32G4xx_HAL_Driver/Src/stm32g4xx_hal_cordic.c **** 
 1044              		.loc 1 830 5 view .LVU375
 833:Drivers/STM32G4xx_HAL_Driver/Src/stm32g4xx_hal_cordic.c **** 
 1045              		.loc 1 833 5 view .LVU376
 1046 0052 2560     		str	r5, [r4]
 836:Drivers/STM32G4xx_HAL_Driver/Src/stm32g4xx_hal_cordic.c **** 
 1047              		.loc 1 836 5 view .LVU377
 1048              	.LVL90:
 840:Drivers/STM32G4xx_HAL_Driver/Src/stm32g4xx_hal_cordic.c **** 
 1049              		.loc 1 840 5 view .LVU378
 1050 0054 0B68     		ldr	r3, [r1]
 1051              	.LVL91:
 840:Drivers/STM32G4xx_HAL_Driver/Src/stm32g4xx_hal_cordic.c **** 
 1052              		.loc 1 840 5 is_stmt 0 view .LVU379
 1053 0056 6360     		str	r3, [r4, #4]
 843:Drivers/STM32G4xx_HAL_Driver/Src/stm32g4xx_hal_cordic.c ****     {
 1054              		.loc 1 843 5 is_stmt 1 view .LVU380
 843:Drivers/STM32G4xx_HAL_Driver/Src/stm32g4xx_hal_cordic.c ****     {
 1055              		.loc 1 843 9 is_stmt 0 view .LVU381
 1056 0058 2068     		ldr	r0, [r4]
 1057              	.LVL92:
 843:Drivers/STM32G4xx_HAL_Driver/Src/stm32g4xx_hal_cordic.c ****     {
 1058              		.loc 1 843 8 view .LVU382
 1059 005a 10F48010 		ands	r0, r0, #1048576
 1060 005e DCD0     		beq	.L105
 846:Drivers/STM32G4xx_HAL_Driver/Src/stm32g4xx_hal_cordic.c **** 
 1061              		.loc 1 846 7 is_stmt 1 view .LVU383
 1062              	.LVL93:
 849:Drivers/STM32G4xx_HAL_Driver/Src/stm32g4xx_hal_cordic.c ****     }
 1063              		.loc 1 849 7 view .LVU384
 1064 0060 4B68     		ldr	r3, [r1, #4]
 1065 0062 6360     		str	r3, [r4, #4]
 853:Drivers/STM32G4xx_HAL_Driver/Src/stm32g4xx_hal_cordic.c ****   }
 1066              		.loc 1 853 12 is_stmt 0 view .LVU385
 1067 0064 0020     		movs	r0, #0
 1068 0066 D8E7     		b	.L105
 1069              		.cfi_endproc
 1070              	.LFE336:
 1072              		.section	.text.HAL_CORDIC_Calculate_DMA,"ax",%progbits
 1073              		.align	1
 1074              		.p2align 2,,3
 1075              		.global	HAL_CORDIC_Calculate_DMA
 1076              		.syntax unified
 1077              		.thumb
 1078              		.thumb_func
 1079              		.fpu fpv4-sp-d16
 1081              	HAL_CORDIC_Calculate_DMA:
 1082              	.LVL94:
 1083              	.LFB337:
 883:Drivers/STM32G4xx_HAL_Driver/Src/stm32g4xx_hal_cordic.c ****   uint32_t sizeinbuff;
ARM GAS  /tmp/ccR9GgNa.s 			page 47


 1084              		.loc 1 883 1 is_stmt 1 view -0
 1085              		.cfi_startproc
 1086              		@ args = 4, pretend = 0, frame = 0
 1087              		@ frame_needed = 0, uses_anonymous_args = 0
 884:Drivers/STM32G4xx_HAL_Driver/Src/stm32g4xx_hal_cordic.c ****   uint32_t sizeoutbuff;
 1088              		.loc 1 884 3 view .LVU387
 885:Drivers/STM32G4xx_HAL_Driver/Src/stm32g4xx_hal_cordic.c ****   uint32_t inputaddr;
 1089              		.loc 1 885 3 view .LVU388
 886:Drivers/STM32G4xx_HAL_Driver/Src/stm32g4xx_hal_cordic.c ****   uint32_t outputaddr;
 1090              		.loc 1 886 3 view .LVU389
 887:Drivers/STM32G4xx_HAL_Driver/Src/stm32g4xx_hal_cordic.c **** 
 1091              		.loc 1 887 3 view .LVU390
 890:Drivers/STM32G4xx_HAL_Driver/Src/stm32g4xx_hal_cordic.c **** 
 1092              		.loc 1 890 3 view .LVU391
 893:Drivers/STM32G4xx_HAL_Driver/Src/stm32g4xx_hal_cordic.c ****   {
 1093              		.loc 1 893 3 view .LVU392
 883:Drivers/STM32G4xx_HAL_Driver/Src/stm32g4xx_hal_cordic.c ****   uint32_t sizeinbuff;
 1094              		.loc 1 883 1 is_stmt 0 view .LVU393
 1095 0000 2DE9F041 		push	{r4, r5, r6, r7, r8, lr}
 1096              	.LCFI11:
 1097              		.cfi_def_cfa_offset 24
 1098              		.cfi_offset 4, -24
 1099              		.cfi_offset 5, -20
 1100              		.cfi_offset 6, -16
 1101              		.cfi_offset 7, -12
 1102              		.cfi_offset 8, -8
 1103              		.cfi_offset 14, -4
 883:Drivers/STM32G4xx_HAL_Driver/Src/stm32g4xx_hal_cordic.c ****   uint32_t sizeinbuff;
 1104              		.loc 1 883 1 view .LVU394
 1105 0004 069E     		ldr	r6, [sp, #24]
 1106 0006 0446     		mov	r4, r0
 893:Drivers/STM32G4xx_HAL_Driver/Src/stm32g4xx_hal_cordic.c ****   {
 1107              		.loc 1 893 6 view .LVU395
 1108 0008 002B     		cmp	r3, #0
 1109 000a 3CD0     		beq	.L154
 1110 000c 1D46     		mov	r5, r3
 903:Drivers/STM32G4xx_HAL_Driver/Src/stm32g4xx_hal_cordic.c ****   {
 1111              		.loc 1 903 3 is_stmt 1 view .LVU396
 903:Drivers/STM32G4xx_HAL_Driver/Src/stm32g4xx_hal_cordic.c ****   {
 1112              		.loc 1 903 44 is_stmt 0 view .LVU397
 1113 000e B31E     		subs	r3, r6, #2
 1114              	.LVL95:
 903:Drivers/STM32G4xx_HAL_Driver/Src/stm32g4xx_hal_cordic.c ****   {
 1115              		.loc 1 903 6 view .LVU398
 1116 0010 012B     		cmp	r3, #1
 1117 0012 0F46     		mov	r7, r1
 1118 0014 29D9     		bls	.L156
 917:Drivers/STM32G4xx_HAL_Driver/Src/stm32g4xx_hal_cordic.c ****   {
 1119              		.loc 1 917 3 is_stmt 1 view .LVU399
 917:Drivers/STM32G4xx_HAL_Driver/Src/stm32g4xx_hal_cordic.c ****   {
 1120              		.loc 1 917 6 is_stmt 0 view .LVU400
 1121 0016 012E     		cmp	r6, #1
 1122 0018 3CD1     		bne	.L157
 1123              	.L125:
 920:Drivers/STM32G4xx_HAL_Driver/Src/stm32g4xx_hal_cordic.c ****     {
 1124              		.loc 1 920 5 is_stmt 1 view .LVU401
 920:Drivers/STM32G4xx_HAL_Driver/Src/stm32g4xx_hal_cordic.c ****     {
ARM GAS  /tmp/ccR9GgNa.s 			page 48


 1125              		.loc 1 920 8 is_stmt 0 view .LVU402
 1126 001a 002F     		cmp	r7, #0
 1127 001c 33D0     		beq	.L154
 930:Drivers/STM32G4xx_HAL_Driver/Src/stm32g4xx_hal_cordic.c ****   {
 1128              		.loc 1 930 3 is_stmt 1 view .LVU403
 930:Drivers/STM32G4xx_HAL_Driver/Src/stm32g4xx_hal_cordic.c ****   {
 1129              		.loc 1 930 14 is_stmt 0 view .LVU404
 1130 001e 94F82110 		ldrb	r1, [r4, #33]	@ zero_extendqisi2
 1131              	.LVL96:
 930:Drivers/STM32G4xx_HAL_Driver/Src/stm32g4xx_hal_cordic.c ****   {
 1132              		.loc 1 930 6 view .LVU405
 1133 0022 0129     		cmp	r1, #1
 1134 0024 28D1     		bne	.L129
 933:Drivers/STM32G4xx_HAL_Driver/Src/stm32g4xx_hal_cordic.c **** 
 1135              		.loc 1 933 5 is_stmt 1 view .LVU406
 933:Drivers/STM32G4xx_HAL_Driver/Src/stm32g4xx_hal_cordic.c **** 
 1136              		.loc 1 933 24 is_stmt 0 view .LVU407
 1137 0026 0020     		movs	r0, #0
 1138              	.LVL97:
 936:Drivers/STM32G4xx_HAL_Driver/Src/stm32g4xx_hal_cordic.c **** 
 1139              		.loc 1 936 20 view .LVU408
 1140 0028 0221     		movs	r1, #2
 942:Drivers/STM32G4xx_HAL_Driver/Src/stm32g4xx_hal_cordic.c ****     {
 1141              		.loc 1 942 8 view .LVU409
 1142 002a 012B     		cmp	r3, #1
 933:Drivers/STM32G4xx_HAL_Driver/Src/stm32g4xx_hal_cordic.c **** 
 1143              		.loc 1 933 24 view .LVU410
 1144 002c 6062     		str	r0, [r4, #36]
 936:Drivers/STM32G4xx_HAL_Driver/Src/stm32g4xx_hal_cordic.c **** 
 1145              		.loc 1 936 5 is_stmt 1 view .LVU411
 939:Drivers/STM32G4xx_HAL_Driver/Src/stm32g4xx_hal_cordic.c **** 
 1146              		.loc 1 939 27 is_stmt 0 view .LVU412
 1147 002e 6661     		str	r6, [r4, #20]
 936:Drivers/STM32G4xx_HAL_Driver/Src/stm32g4xx_hal_cordic.c **** 
 1148              		.loc 1 936 20 view .LVU413
 1149 0030 84F82110 		strb	r1, [r4, #33]
 939:Drivers/STM32G4xx_HAL_Driver/Src/stm32g4xx_hal_cordic.c **** 
 1150              		.loc 1 939 5 is_stmt 1 view .LVU414
 942:Drivers/STM32G4xx_HAL_Driver/Src/stm32g4xx_hal_cordic.c ****     {
 1151              		.loc 1 942 5 view .LVU415
 942:Drivers/STM32G4xx_HAL_Driver/Src/stm32g4xx_hal_cordic.c ****     {
 1152              		.loc 1 942 8 is_stmt 0 view .LVU416
 1153 0034 47D9     		bls	.L138
 977:Drivers/STM32G4xx_HAL_Driver/Src/stm32g4xx_hal_cordic.c ****     {
 1154              		.loc 1 977 5 is_stmt 1 view .LVU417
 977:Drivers/STM32G4xx_HAL_Driver/Src/stm32g4xx_hal_cordic.c ****     {
 1155              		.loc 1 977 8 is_stmt 0 view .LVU418
 1156 0036 012E     		cmp	r6, #1
 1157 0038 36D1     		bne	.L134
 1158 003a 2268     		ldr	r2, [r4]
 1159              	.LVL98:
 977:Drivers/STM32G4xx_HAL_Driver/Src/stm32g4xx_hal_cordic.c ****     {
 1160              		.loc 1 977 8 view .LVU419
 1161 003c DFF8C480 		ldr	r8, .L158+4
 1162              	.L133:
 980:Drivers/STM32G4xx_HAL_Driver/Src/stm32g4xx_hal_cordic.c ****       /* Set the DMA error callback */
 1163              		.loc 1 980 7 is_stmt 1 view .LVU420
ARM GAS  /tmp/ccR9GgNa.s 			page 49


 986:Drivers/STM32G4xx_HAL_Driver/Src/stm32g4xx_hal_cordic.c ****       {
 1164              		.loc 1 986 11 is_stmt 0 view .LVU421
 1165 0040 1368     		ldr	r3, [r2]
 980:Drivers/STM32G4xx_HAL_Driver/Src/stm32g4xx_hal_cordic.c ****       /* Set the DMA error callback */
 1166              		.loc 1 980 14 view .LVU422
 1167 0042 A069     		ldr	r0, [r4, #24]
 980:Drivers/STM32G4xx_HAL_Driver/Src/stm32g4xx_hal_cordic.c ****       /* Set the DMA error callback */
 1168              		.loc 1 980 41 view .LVU423
 1169 0044 2E49     		ldr	r1, .L158
 1170 0046 C162     		str	r1, [r0, #44]
 982:Drivers/STM32G4xx_HAL_Driver/Src/stm32g4xx_hal_cordic.c **** 
 1171              		.loc 1 982 7 is_stmt 1 view .LVU424
 986:Drivers/STM32G4xx_HAL_Driver/Src/stm32g4xx_hal_cordic.c ****       {
 1172              		.loc 1 986 7 view .LVU425
 986:Drivers/STM32G4xx_HAL_Driver/Src/stm32g4xx_hal_cordic.c ****       {
 1173              		.loc 1 986 10 is_stmt 0 view .LVU426
 1174 0048 DB02     		lsls	r3, r3, #11
 988:Drivers/STM32G4xx_HAL_Driver/Src/stm32g4xx_hal_cordic.c ****       }
 1175              		.loc 1 988 9 is_stmt 1 view .LVU427
 988:Drivers/STM32G4xx_HAL_Driver/Src/stm32g4xx_hal_cordic.c ****       }
 1176              		.loc 1 988 20 is_stmt 0 view .LVU428
 1177 004a 48BF     		it	mi
 1178 004c 6D00     		lslmi	r5, r5, #1
 1179              	.LVL99:
 995:Drivers/STM32G4xx_HAL_Driver/Src/stm32g4xx_hal_cordic.c **** 
 1180              		.loc 1 995 7 is_stmt 1 view .LVU429
 998:Drivers/STM32G4xx_HAL_Driver/Src/stm32g4xx_hal_cordic.c ****       {
 1181              		.loc 1 998 7 view .LVU430
 982:Drivers/STM32G4xx_HAL_Driver/Src/stm32g4xx_hal_cordic.c **** 
 1182              		.loc 1 982 42 is_stmt 0 view .LVU431
 1183 004e C0F83480 		str	r8, [r0, #52]
 998:Drivers/STM32G4xx_HAL_Driver/Src/stm32g4xx_hal_cordic.c ****       {
 1184              		.loc 1 998 11 view .LVU432
 1185 0052 2B46     		mov	r3, r5
 1186 0054 0432     		adds	r2, r2, #4
 1187 0056 3946     		mov	r1, r7
 1188 0058 FFF7FEFF 		bl	HAL_DMA_Start_IT
 1189              	.LVL100:
 998:Drivers/STM32G4xx_HAL_Driver/Src/stm32g4xx_hal_cordic.c ****       {
 1190              		.loc 1 998 10 view .LVU433
 1191 005c 30BB     		cbnz	r0, .L155
1008:Drivers/STM32G4xx_HAL_Driver/Src/stm32g4xx_hal_cordic.c ****     }
 1192              		.loc 1 1008 7 is_stmt 1 view .LVU434
 1193 005e 2268     		ldr	r2, [r4]
 1194 0060 1368     		ldr	r3, [r2]
 1195 0062 43F48023 		orr	r3, r3, #262144
 1196 0066 1360     		str	r3, [r2]
 1197 0068 0BE0     		b	.L150
 1198              	.LVL101:
 1199              	.L156:
 906:Drivers/STM32G4xx_HAL_Driver/Src/stm32g4xx_hal_cordic.c ****     {
 1200              		.loc 1 906 5 view .LVU435
 906:Drivers/STM32G4xx_HAL_Driver/Src/stm32g4xx_hal_cordic.c ****     {
 1201              		.loc 1 906 8 is_stmt 0 view .LVU436
 1202 006a 62B1     		cbz	r2, .L154
 917:Drivers/STM32G4xx_HAL_Driver/Src/stm32g4xx_hal_cordic.c ****   {
 1203              		.loc 1 917 43 discriminator 1 view .LVU437
ARM GAS  /tmp/ccR9GgNa.s 			page 50


 1204 006c 032E     		cmp	r6, #3
 1205 006e D4D0     		beq	.L125
 930:Drivers/STM32G4xx_HAL_Driver/Src/stm32g4xx_hal_cordic.c ****   {
 1206              		.loc 1 930 3 is_stmt 1 view .LVU438
 930:Drivers/STM32G4xx_HAL_Driver/Src/stm32g4xx_hal_cordic.c ****   {
 1207              		.loc 1 930 14 is_stmt 0 view .LVU439
 1208 0070 90F82130 		ldrb	r3, [r0, #33]	@ zero_extendqisi2
 930:Drivers/STM32G4xx_HAL_Driver/Src/stm32g4xx_hal_cordic.c ****   {
 1209              		.loc 1 930 6 view .LVU440
 1210 0074 012B     		cmp	r3, #1
 1211 0076 20D0     		beq	.L139
 1212              	.LVL102:
 1213              	.L129:
1017:Drivers/STM32G4xx_HAL_Driver/Src/stm32g4xx_hal_cordic.c **** 
 1214              		.loc 1 1017 5 is_stmt 1 view .LVU441
1017:Drivers/STM32G4xx_HAL_Driver/Src/stm32g4xx_hal_cordic.c **** 
 1215              		.loc 1 1017 24 is_stmt 0 view .LVU442
 1216 0078 636A     		ldr	r3, [r4, #36]
 1217 007a 43F00203 		orr	r3, r3, #2
 1218 007e 6362     		str	r3, [r4, #36]
 1219              	.LVL103:
1020:Drivers/STM32G4xx_HAL_Driver/Src/stm32g4xx_hal_cordic.c ****   }
 1220              		.loc 1 1020 5 is_stmt 1 view .LVU443
1020:Drivers/STM32G4xx_HAL_Driver/Src/stm32g4xx_hal_cordic.c ****   }
 1221              		.loc 1 1020 12 is_stmt 0 view .LVU444
 1222 0080 0120     		movs	r0, #1
 1223              	.LVL104:
 1224              	.L150:
1022:Drivers/STM32G4xx_HAL_Driver/Src/stm32g4xx_hal_cordic.c **** 
 1225              		.loc 1 1022 1 view .LVU445
 1226 0082 BDE8F081 		pop	{r4, r5, r6, r7, r8, pc}
 1227              	.LVL105:
 1228              	.L154:
 923:Drivers/STM32G4xx_HAL_Driver/Src/stm32g4xx_hal_cordic.c **** 
 1229              		.loc 1 923 7 is_stmt 1 view .LVU446
 923:Drivers/STM32G4xx_HAL_Driver/Src/stm32g4xx_hal_cordic.c **** 
 1230              		.loc 1 923 26 is_stmt 0 view .LVU447
 1231 0086 636A     		ldr	r3, [r4, #36]
 1232 0088 43F00103 		orr	r3, r3, #1
 1233 008c 6362     		str	r3, [r4, #36]
 1234              	.LVL106:
 926:Drivers/STM32G4xx_HAL_Driver/Src/stm32g4xx_hal_cordic.c ****     }
 1235              		.loc 1 926 7 is_stmt 1 view .LVU448
 926:Drivers/STM32G4xx_HAL_Driver/Src/stm32g4xx_hal_cordic.c ****     }
 1236              		.loc 1 926 14 is_stmt 0 view .LVU449
 1237 008e 0120     		movs	r0, #1
 1238              	.LVL107:
1022:Drivers/STM32G4xx_HAL_Driver/Src/stm32g4xx_hal_cordic.c **** 
 1239              		.loc 1 1022 1 view .LVU450
 1240 0090 BDE8F081 		pop	{r4, r5, r6, r7, r8, pc}
 1241              	.LVL108:
 1242              	.L157:
 930:Drivers/STM32G4xx_HAL_Driver/Src/stm32g4xx_hal_cordic.c ****   {
 1243              		.loc 1 930 3 is_stmt 1 view .LVU451
 930:Drivers/STM32G4xx_HAL_Driver/Src/stm32g4xx_hal_cordic.c ****   {
 1244              		.loc 1 930 14 is_stmt 0 view .LVU452
 1245 0094 90F82130 		ldrb	r3, [r0, #33]	@ zero_extendqisi2
ARM GAS  /tmp/ccR9GgNa.s 			page 51


 930:Drivers/STM32G4xx_HAL_Driver/Src/stm32g4xx_hal_cordic.c ****   {
 1246              		.loc 1 930 6 view .LVU453
 1247 0098 012B     		cmp	r3, #1
 1248 009a EDD1     		bne	.L129
 933:Drivers/STM32G4xx_HAL_Driver/Src/stm32g4xx_hal_cordic.c **** 
 1249              		.loc 1 933 5 is_stmt 1 view .LVU454
 933:Drivers/STM32G4xx_HAL_Driver/Src/stm32g4xx_hal_cordic.c **** 
 1250              		.loc 1 933 24 is_stmt 0 view .LVU455
 1251 009c 0022     		movs	r2, #0
 1252              	.LVL109:
 936:Drivers/STM32G4xx_HAL_Driver/Src/stm32g4xx_hal_cordic.c **** 
 1253              		.loc 1 936 20 view .LVU456
 1254 009e 0223     		movs	r3, #2
 933:Drivers/STM32G4xx_HAL_Driver/Src/stm32g4xx_hal_cordic.c **** 
 1255              		.loc 1 933 24 view .LVU457
 1256 00a0 6262     		str	r2, [r4, #36]
 936:Drivers/STM32G4xx_HAL_Driver/Src/stm32g4xx_hal_cordic.c **** 
 1257              		.loc 1 936 5 is_stmt 1 view .LVU458
 939:Drivers/STM32G4xx_HAL_Driver/Src/stm32g4xx_hal_cordic.c **** 
 1258              		.loc 1 939 27 is_stmt 0 view .LVU459
 1259 00a2 6661     		str	r6, [r4, #20]
 936:Drivers/STM32G4xx_HAL_Driver/Src/stm32g4xx_hal_cordic.c **** 
 1260              		.loc 1 936 20 view .LVU460
 1261 00a4 84F82130 		strb	r3, [r4, #33]
 939:Drivers/STM32G4xx_HAL_Driver/Src/stm32g4xx_hal_cordic.c **** 
 1262              		.loc 1 939 5 is_stmt 1 view .LVU461
 942:Drivers/STM32G4xx_HAL_Driver/Src/stm32g4xx_hal_cordic.c ****     {
 1263              		.loc 1 942 5 view .LVU462
 1264              	.LVL110:
 1265              	.L134:
1012:Drivers/STM32G4xx_HAL_Driver/Src/stm32g4xx_hal_cordic.c ****   }
 1266              		.loc 1 1012 12 is_stmt 0 view .LVU463
 1267 00a8 0020     		movs	r0, #0
 1268 00aa EAE7     		b	.L150
 1269              	.LVL111:
 1270              	.L155:
1001:Drivers/STM32G4xx_HAL_Driver/Src/stm32g4xx_hal_cordic.c **** 
 1271              		.loc 1 1001 9 is_stmt 1 view .LVU464
1001:Drivers/STM32G4xx_HAL_Driver/Src/stm32g4xx_hal_cordic.c **** 
 1272              		.loc 1 1001 28 is_stmt 0 view .LVU465
 1273 00ac 636A     		ldr	r3, [r4, #36]
 1274 00ae 43F00803 		orr	r3, r3, #8
 1275 00b2 6362     		str	r3, [r4, #36]
 1276              	.LVL112:
1004:Drivers/STM32G4xx_HAL_Driver/Src/stm32g4xx_hal_cordic.c ****       }
 1277              		.loc 1 1004 9 is_stmt 1 view .LVU466
1004:Drivers/STM32G4xx_HAL_Driver/Src/stm32g4xx_hal_cordic.c ****       }
 1278              		.loc 1 1004 16 is_stmt 0 view .LVU467
 1279 00b4 0120     		movs	r0, #1
1022:Drivers/STM32G4xx_HAL_Driver/Src/stm32g4xx_hal_cordic.c **** 
 1280              		.loc 1 1022 1 view .LVU468
 1281 00b6 BDE8F081 		pop	{r4, r5, r6, r7, r8, pc}
 1282              	.LVL113:
 1283              	.L139:
 933:Drivers/STM32G4xx_HAL_Driver/Src/stm32g4xx_hal_cordic.c **** 
 1284              		.loc 1 933 5 is_stmt 1 view .LVU469
 936:Drivers/STM32G4xx_HAL_Driver/Src/stm32g4xx_hal_cordic.c **** 
ARM GAS  /tmp/ccR9GgNa.s 			page 52


 1285              		.loc 1 936 20 is_stmt 0 view .LVU470
 1286 00ba 0223     		movs	r3, #2
 933:Drivers/STM32G4xx_HAL_Driver/Src/stm32g4xx_hal_cordic.c **** 
 1287              		.loc 1 933 24 view .LVU471
 1288 00bc 0021     		movs	r1, #0
 1289              	.LVL114:
 933:Drivers/STM32G4xx_HAL_Driver/Src/stm32g4xx_hal_cordic.c **** 
 1290              		.loc 1 933 24 view .LVU472
 1291 00be 6162     		str	r1, [r4, #36]
 936:Drivers/STM32G4xx_HAL_Driver/Src/stm32g4xx_hal_cordic.c **** 
 1292              		.loc 1 936 5 is_stmt 1 view .LVU473
 939:Drivers/STM32G4xx_HAL_Driver/Src/stm32g4xx_hal_cordic.c **** 
 1293              		.loc 1 939 27 is_stmt 0 view .LVU474
 1294 00c0 6361     		str	r3, [r4, #20]
 936:Drivers/STM32G4xx_HAL_Driver/Src/stm32g4xx_hal_cordic.c **** 
 1295              		.loc 1 936 20 view .LVU475
 1296 00c2 84F82130 		strb	r3, [r4, #33]
 939:Drivers/STM32G4xx_HAL_Driver/Src/stm32g4xx_hal_cordic.c **** 
 1297              		.loc 1 939 5 is_stmt 1 view .LVU476
 942:Drivers/STM32G4xx_HAL_Driver/Src/stm32g4xx_hal_cordic.c ****     {
 1298              		.loc 1 942 5 view .LVU477
 1299              	.LVL115:
 1300              	.L138:
 945:Drivers/STM32G4xx_HAL_Driver/Src/stm32g4xx_hal_cordic.c ****       /* Set the DMA error callback */
 1301              		.loc 1 945 7 view .LVU478
 951:Drivers/STM32G4xx_HAL_Driver/Src/stm32g4xx_hal_cordic.c ****       {
 1302              		.loc 1 951 11 is_stmt 0 view .LVU479
 1303 00c6 2168     		ldr	r1, [r4]
 945:Drivers/STM32G4xx_HAL_Driver/Src/stm32g4xx_hal_cordic.c ****       /* Set the DMA error callback */
 1304              		.loc 1 945 14 view .LVU480
 1305 00c8 E069     		ldr	r0, [r4, #28]
 951:Drivers/STM32G4xx_HAL_Driver/Src/stm32g4xx_hal_cordic.c ****       {
 1306              		.loc 1 951 11 view .LVU481
 1307 00ca 0B68     		ldr	r3, [r1]
 945:Drivers/STM32G4xx_HAL_Driver/Src/stm32g4xx_hal_cordic.c ****       /* Set the DMA error callback */
 1308              		.loc 1 945 42 view .LVU482
 1309 00cc DFF838C0 		ldr	ip, .L158+8
 947:Drivers/STM32G4xx_HAL_Driver/Src/stm32g4xx_hal_cordic.c **** 
 1310              		.loc 1 947 43 view .LVU483
 1311 00d0 DFF83080 		ldr	r8, .L158+4
 945:Drivers/STM32G4xx_HAL_Driver/Src/stm32g4xx_hal_cordic.c ****       /* Set the DMA error callback */
 1312              		.loc 1 945 42 view .LVU484
 1313 00d4 C0F82CC0 		str	ip, [r0, #44]
 947:Drivers/STM32G4xx_HAL_Driver/Src/stm32g4xx_hal_cordic.c **** 
 1314              		.loc 1 947 7 is_stmt 1 view .LVU485
 951:Drivers/STM32G4xx_HAL_Driver/Src/stm32g4xx_hal_cordic.c ****       {
 1315              		.loc 1 951 10 is_stmt 0 view .LVU486
 1316 00d8 1B03     		lsls	r3, r3, #12
 953:Drivers/STM32G4xx_HAL_Driver/Src/stm32g4xx_hal_cordic.c ****       }
 1317              		.loc 1 953 21 view .LVU487
 1318 00da 4CBF     		ite	mi
 1319 00dc 6B00     		lslmi	r3, r5, #1
 1320 00de 2B46     		movpl	r3, r5
 947:Drivers/STM32G4xx_HAL_Driver/Src/stm32g4xx_hal_cordic.c **** 
 1321              		.loc 1 947 43 view .LVU488
 1322 00e0 C0F83480 		str	r8, [r0, #52]
 951:Drivers/STM32G4xx_HAL_Driver/Src/stm32g4xx_hal_cordic.c ****       {
ARM GAS  /tmp/ccR9GgNa.s 			page 53


 1323              		.loc 1 951 7 is_stmt 1 view .LVU489
 953:Drivers/STM32G4xx_HAL_Driver/Src/stm32g4xx_hal_cordic.c ****       }
 1324              		.loc 1 953 9 view .LVU490
 1325              	.LVL116:
 960:Drivers/STM32G4xx_HAL_Driver/Src/stm32g4xx_hal_cordic.c **** 
 1326              		.loc 1 960 7 view .LVU491
 963:Drivers/STM32G4xx_HAL_Driver/Src/stm32g4xx_hal_cordic.c ****       {
 1327              		.loc 1 963 7 view .LVU492
 963:Drivers/STM32G4xx_HAL_Driver/Src/stm32g4xx_hal_cordic.c ****       {
 1328              		.loc 1 963 11 is_stmt 0 view .LVU493
 1329 00e4 0831     		adds	r1, r1, #8
 1330 00e6 FFF7FEFF 		bl	HAL_DMA_Start_IT
 1331              	.LVL117:
 963:Drivers/STM32G4xx_HAL_Driver/Src/stm32g4xx_hal_cordic.c ****       {
 1332              		.loc 1 963 10 view .LVU494
 1333 00ea 0028     		cmp	r0, #0
 1334 00ec DED1     		bne	.L155
 973:Drivers/STM32G4xx_HAL_Driver/Src/stm32g4xx_hal_cordic.c ****     }
 1335              		.loc 1 973 7 is_stmt 1 view .LVU495
 1336 00ee 2268     		ldr	r2, [r4]
 1337 00f0 1368     		ldr	r3, [r2]
 977:Drivers/STM32G4xx_HAL_Driver/Src/stm32g4xx_hal_cordic.c ****     {
 1338              		.loc 1 977 45 is_stmt 0 view .LVU496
 1339 00f2 032E     		cmp	r6, #3
 973:Drivers/STM32G4xx_HAL_Driver/Src/stm32g4xx_hal_cordic.c ****     }
 1340              		.loc 1 973 7 view .LVU497
 1341 00f4 43F40033 		orr	r3, r3, #131072
 1342 00f8 1360     		str	r3, [r2]
 977:Drivers/STM32G4xx_HAL_Driver/Src/stm32g4xx_hal_cordic.c ****     {
 1343              		.loc 1 977 5 is_stmt 1 view .LVU498
 977:Drivers/STM32G4xx_HAL_Driver/Src/stm32g4xx_hal_cordic.c ****     {
 1344              		.loc 1 977 45 is_stmt 0 view .LVU499
 1345 00fa A1D0     		beq	.L133
 1346 00fc D4E7     		b	.L134
 1347              	.L159:
 1348 00fe 00BF     		.align	2
 1349              	.L158:
 1350 0100 00000000 		.word	CORDIC_DMAInCplt
 1351 0104 00000000 		.word	CORDIC_DMAError
 1352 0108 00000000 		.word	CORDIC_DMAOutCplt
 1353              		.cfi_endproc
 1354              	.LFE337:
 1356              		.section	.text.HAL_CORDIC_ErrorCallback,"ax",%progbits
 1357              		.align	1
 1358              		.p2align 2,,3
 1359              		.weak	HAL_CORDIC_ErrorCallback
 1360              		.syntax unified
 1361              		.thumb
 1362              		.thumb_func
 1363              		.fpu fpv4-sp-d16
 1365              	HAL_CORDIC_ErrorCallback:
 1366              	.LFB351:
 1367              		.cfi_startproc
 1368              		@ args = 0, pretend = 0, frame = 0
 1369              		@ frame_needed = 0, uses_anonymous_args = 0
 1370              		@ link register save eliminated.
 1371 0000 7047     		bx	lr
ARM GAS  /tmp/ccR9GgNa.s 			page 54


 1372              		.cfi_endproc
 1373              	.LFE351:
 1375 0002 00BF     		.section	.text.CORDIC_DMAError,"ax",%progbits
 1376              		.align	1
 1377              		.p2align 2,,3
 1378              		.syntax unified
 1379              		.thumb
 1380              		.thumb_func
 1381              		.fpu fpv4-sp-d16
 1383              	CORDIC_DMAError:
 1384              	.LVL118:
 1385              	.LFB347:
1249:Drivers/STM32G4xx_HAL_Driver/Src/stm32g4xx_hal_cordic.c ****   }
1250:Drivers/STM32G4xx_HAL_Driver/Src/stm32g4xx_hal_cordic.c **** }
1251:Drivers/STM32G4xx_HAL_Driver/Src/stm32g4xx_hal_cordic.c **** 
1252:Drivers/STM32G4xx_HAL_Driver/Src/stm32g4xx_hal_cordic.c **** /**
1253:Drivers/STM32G4xx_HAL_Driver/Src/stm32g4xx_hal_cordic.c ****   * @brief  DMA CORDIC Input Data process complete callback.
1254:Drivers/STM32G4xx_HAL_Driver/Src/stm32g4xx_hal_cordic.c ****   * @param  hdma DMA handle.
1255:Drivers/STM32G4xx_HAL_Driver/Src/stm32g4xx_hal_cordic.c ****   * @retval None
1256:Drivers/STM32G4xx_HAL_Driver/Src/stm32g4xx_hal_cordic.c ****   */
1257:Drivers/STM32G4xx_HAL_Driver/Src/stm32g4xx_hal_cordic.c **** static void CORDIC_DMAInCplt(DMA_HandleTypeDef *hdma)
1258:Drivers/STM32G4xx_HAL_Driver/Src/stm32g4xx_hal_cordic.c **** {
1259:Drivers/STM32G4xx_HAL_Driver/Src/stm32g4xx_hal_cordic.c ****   CORDIC_HandleTypeDef *hcordic = (CORDIC_HandleTypeDef *)((DMA_HandleTypeDef *)hdma)->Parent;
1260:Drivers/STM32G4xx_HAL_Driver/Src/stm32g4xx_hal_cordic.c **** 
1261:Drivers/STM32G4xx_HAL_Driver/Src/stm32g4xx_hal_cordic.c ****   /* Disable the DMA transfer for input request */
1262:Drivers/STM32G4xx_HAL_Driver/Src/stm32g4xx_hal_cordic.c ****   CLEAR_BIT(hcordic->Instance->CSR, CORDIC_DMA_WEN);
1263:Drivers/STM32G4xx_HAL_Driver/Src/stm32g4xx_hal_cordic.c **** 
1264:Drivers/STM32G4xx_HAL_Driver/Src/stm32g4xx_hal_cordic.c ****   /* Check if DMA direction is CORDIC Input only (no DMA for CORDIC Output) */
1265:Drivers/STM32G4xx_HAL_Driver/Src/stm32g4xx_hal_cordic.c ****   if (hcordic->DMADirection == CORDIC_DMA_DIR_IN)
1266:Drivers/STM32G4xx_HAL_Driver/Src/stm32g4xx_hal_cordic.c ****   {
1267:Drivers/STM32G4xx_HAL_Driver/Src/stm32g4xx_hal_cordic.c ****     /* Change the CORDIC DMA direction to none */
1268:Drivers/STM32G4xx_HAL_Driver/Src/stm32g4xx_hal_cordic.c ****     hcordic->DMADirection = CORDIC_DMA_DIR_NONE;
1269:Drivers/STM32G4xx_HAL_Driver/Src/stm32g4xx_hal_cordic.c **** 
1270:Drivers/STM32G4xx_HAL_Driver/Src/stm32g4xx_hal_cordic.c ****     /* Change the CORDIC state to ready */
1271:Drivers/STM32G4xx_HAL_Driver/Src/stm32g4xx_hal_cordic.c ****     hcordic->State = HAL_CORDIC_STATE_READY;
1272:Drivers/STM32G4xx_HAL_Driver/Src/stm32g4xx_hal_cordic.c **** 
1273:Drivers/STM32G4xx_HAL_Driver/Src/stm32g4xx_hal_cordic.c ****     /* Call calculation complete callback */
1274:Drivers/STM32G4xx_HAL_Driver/Src/stm32g4xx_hal_cordic.c **** #if USE_HAL_CORDIC_REGISTER_CALLBACKS == 1
1275:Drivers/STM32G4xx_HAL_Driver/Src/stm32g4xx_hal_cordic.c ****     /*Call registered callback*/
1276:Drivers/STM32G4xx_HAL_Driver/Src/stm32g4xx_hal_cordic.c ****     hcordic->CalculateCpltCallback(hcordic);
1277:Drivers/STM32G4xx_HAL_Driver/Src/stm32g4xx_hal_cordic.c **** #else
1278:Drivers/STM32G4xx_HAL_Driver/Src/stm32g4xx_hal_cordic.c ****     /*Call legacy weak (surcharged) callback*/
1279:Drivers/STM32G4xx_HAL_Driver/Src/stm32g4xx_hal_cordic.c ****     HAL_CORDIC_CalculateCpltCallback(hcordic);
1280:Drivers/STM32G4xx_HAL_Driver/Src/stm32g4xx_hal_cordic.c **** #endif /* USE_HAL_CORDIC_REGISTER_CALLBACKS */
1281:Drivers/STM32G4xx_HAL_Driver/Src/stm32g4xx_hal_cordic.c ****   }
1282:Drivers/STM32G4xx_HAL_Driver/Src/stm32g4xx_hal_cordic.c **** }
1283:Drivers/STM32G4xx_HAL_Driver/Src/stm32g4xx_hal_cordic.c **** 
1284:Drivers/STM32G4xx_HAL_Driver/Src/stm32g4xx_hal_cordic.c **** /**
1285:Drivers/STM32G4xx_HAL_Driver/Src/stm32g4xx_hal_cordic.c ****   * @brief  DMA CORDIC Output Data process complete callback.
1286:Drivers/STM32G4xx_HAL_Driver/Src/stm32g4xx_hal_cordic.c ****   * @param  hdma DMA handle.
1287:Drivers/STM32G4xx_HAL_Driver/Src/stm32g4xx_hal_cordic.c ****   * @retval None
1288:Drivers/STM32G4xx_HAL_Driver/Src/stm32g4xx_hal_cordic.c ****   */
1289:Drivers/STM32G4xx_HAL_Driver/Src/stm32g4xx_hal_cordic.c **** static void CORDIC_DMAOutCplt(DMA_HandleTypeDef *hdma)
1290:Drivers/STM32G4xx_HAL_Driver/Src/stm32g4xx_hal_cordic.c **** {
1291:Drivers/STM32G4xx_HAL_Driver/Src/stm32g4xx_hal_cordic.c ****   CORDIC_HandleTypeDef *hcordic = (CORDIC_HandleTypeDef *)((DMA_HandleTypeDef *)hdma)->Parent;
1292:Drivers/STM32G4xx_HAL_Driver/Src/stm32g4xx_hal_cordic.c **** 
1293:Drivers/STM32G4xx_HAL_Driver/Src/stm32g4xx_hal_cordic.c ****   /* Disable the DMA transfer for output request */
ARM GAS  /tmp/ccR9GgNa.s 			page 55


1294:Drivers/STM32G4xx_HAL_Driver/Src/stm32g4xx_hal_cordic.c ****   CLEAR_BIT(hcordic->Instance->CSR, CORDIC_DMA_REN);
1295:Drivers/STM32G4xx_HAL_Driver/Src/stm32g4xx_hal_cordic.c **** 
1296:Drivers/STM32G4xx_HAL_Driver/Src/stm32g4xx_hal_cordic.c ****   /* Change the CORDIC DMA direction to none */
1297:Drivers/STM32G4xx_HAL_Driver/Src/stm32g4xx_hal_cordic.c ****   hcordic->DMADirection = CORDIC_DMA_DIR_NONE;
1298:Drivers/STM32G4xx_HAL_Driver/Src/stm32g4xx_hal_cordic.c **** 
1299:Drivers/STM32G4xx_HAL_Driver/Src/stm32g4xx_hal_cordic.c ****   /* Change the CORDIC state to ready */
1300:Drivers/STM32G4xx_HAL_Driver/Src/stm32g4xx_hal_cordic.c ****   hcordic->State = HAL_CORDIC_STATE_READY;
1301:Drivers/STM32G4xx_HAL_Driver/Src/stm32g4xx_hal_cordic.c **** 
1302:Drivers/STM32G4xx_HAL_Driver/Src/stm32g4xx_hal_cordic.c ****   /* Call calculation complete callback */
1303:Drivers/STM32G4xx_HAL_Driver/Src/stm32g4xx_hal_cordic.c **** #if USE_HAL_CORDIC_REGISTER_CALLBACKS == 1
1304:Drivers/STM32G4xx_HAL_Driver/Src/stm32g4xx_hal_cordic.c ****   /*Call registered callback*/
1305:Drivers/STM32G4xx_HAL_Driver/Src/stm32g4xx_hal_cordic.c ****   hcordic->CalculateCpltCallback(hcordic);
1306:Drivers/STM32G4xx_HAL_Driver/Src/stm32g4xx_hal_cordic.c **** #else
1307:Drivers/STM32G4xx_HAL_Driver/Src/stm32g4xx_hal_cordic.c ****   /*Call legacy weak (surcharged) callback*/
1308:Drivers/STM32G4xx_HAL_Driver/Src/stm32g4xx_hal_cordic.c ****   HAL_CORDIC_CalculateCpltCallback(hcordic);
1309:Drivers/STM32G4xx_HAL_Driver/Src/stm32g4xx_hal_cordic.c **** #endif /* USE_HAL_CORDIC_REGISTER_CALLBACKS */
1310:Drivers/STM32G4xx_HAL_Driver/Src/stm32g4xx_hal_cordic.c **** }
1311:Drivers/STM32G4xx_HAL_Driver/Src/stm32g4xx_hal_cordic.c **** 
1312:Drivers/STM32G4xx_HAL_Driver/Src/stm32g4xx_hal_cordic.c **** /**
1313:Drivers/STM32G4xx_HAL_Driver/Src/stm32g4xx_hal_cordic.c ****   * @brief  DMA CORDIC communication error callback.
1314:Drivers/STM32G4xx_HAL_Driver/Src/stm32g4xx_hal_cordic.c ****   * @param  hdma DMA handle.
1315:Drivers/STM32G4xx_HAL_Driver/Src/stm32g4xx_hal_cordic.c ****   * @retval None
1316:Drivers/STM32G4xx_HAL_Driver/Src/stm32g4xx_hal_cordic.c ****   */
1317:Drivers/STM32G4xx_HAL_Driver/Src/stm32g4xx_hal_cordic.c **** static void CORDIC_DMAError(DMA_HandleTypeDef *hdma)
1318:Drivers/STM32G4xx_HAL_Driver/Src/stm32g4xx_hal_cordic.c **** {
 1386              		.loc 1 1318 1 is_stmt 1 view -0
 1387              		.cfi_startproc
 1388              		@ args = 0, pretend = 0, frame = 0
 1389              		@ frame_needed = 0, uses_anonymous_args = 0
1319:Drivers/STM32G4xx_HAL_Driver/Src/stm32g4xx_hal_cordic.c ****   CORDIC_HandleTypeDef *hcordic = (CORDIC_HandleTypeDef *)((DMA_HandleTypeDef *)hdma)->Parent;
 1390              		.loc 1 1319 3 view .LVU501
 1391              		.loc 1 1319 25 is_stmt 0 view .LVU502
 1392 0000 806A     		ldr	r0, [r0, #40]
 1393              	.LVL119:
1320:Drivers/STM32G4xx_HAL_Driver/Src/stm32g4xx_hal_cordic.c **** 
1321:Drivers/STM32G4xx_HAL_Driver/Src/stm32g4xx_hal_cordic.c ****   /* Set CORDIC handle state to error */
1322:Drivers/STM32G4xx_HAL_Driver/Src/stm32g4xx_hal_cordic.c ****   hcordic->State = HAL_CORDIC_STATE_READY;
 1394              		.loc 1 1322 3 is_stmt 1 view .LVU503
1318:Drivers/STM32G4xx_HAL_Driver/Src/stm32g4xx_hal_cordic.c ****   CORDIC_HandleTypeDef *hcordic = (CORDIC_HandleTypeDef *)((DMA_HandleTypeDef *)hdma)->Parent;
 1395              		.loc 1 1318 1 is_stmt 0 view .LVU504
 1396 0002 08B5     		push	{r3, lr}
 1397              	.LCFI12:
 1398              		.cfi_def_cfa_offset 8
 1399              		.cfi_offset 3, -8
 1400              		.cfi_offset 14, -4
 1401              		.loc 1 1322 18 view .LVU505
 1402 0004 0123     		movs	r3, #1
 1403 0006 80F82130 		strb	r3, [r0, #33]
1323:Drivers/STM32G4xx_HAL_Driver/Src/stm32g4xx_hal_cordic.c **** 
1324:Drivers/STM32G4xx_HAL_Driver/Src/stm32g4xx_hal_cordic.c ****   /* Set CORDIC handle error code to DMA error */
1325:Drivers/STM32G4xx_HAL_Driver/Src/stm32g4xx_hal_cordic.c ****   hcordic->ErrorCode |= HAL_CORDIC_ERROR_DMA;
 1404              		.loc 1 1325 3 is_stmt 1 view .LVU506
 1405              		.loc 1 1325 22 is_stmt 0 view .LVU507
 1406 000a 436A     		ldr	r3, [r0, #36]
 1407 000c 43F00803 		orr	r3, r3, #8
 1408 0010 4362     		str	r3, [r0, #36]
1326:Drivers/STM32G4xx_HAL_Driver/Src/stm32g4xx_hal_cordic.c **** 
ARM GAS  /tmp/ccR9GgNa.s 			page 56


1327:Drivers/STM32G4xx_HAL_Driver/Src/stm32g4xx_hal_cordic.c ****   /* Call user callback */
1328:Drivers/STM32G4xx_HAL_Driver/Src/stm32g4xx_hal_cordic.c **** #if USE_HAL_CORDIC_REGISTER_CALLBACKS == 1
1329:Drivers/STM32G4xx_HAL_Driver/Src/stm32g4xx_hal_cordic.c ****   /*Call registered callback*/
1330:Drivers/STM32G4xx_HAL_Driver/Src/stm32g4xx_hal_cordic.c ****   hcordic->ErrorCallback(hcordic);
1331:Drivers/STM32G4xx_HAL_Driver/Src/stm32g4xx_hal_cordic.c **** #else
1332:Drivers/STM32G4xx_HAL_Driver/Src/stm32g4xx_hal_cordic.c ****   /*Call legacy weak (surcharged) callback*/
1333:Drivers/STM32G4xx_HAL_Driver/Src/stm32g4xx_hal_cordic.c ****   HAL_CORDIC_ErrorCallback(hcordic);
 1409              		.loc 1 1333 3 is_stmt 1 view .LVU508
 1410 0012 FFF7FEFF 		bl	HAL_CORDIC_ErrorCallback
 1411              	.LVL120:
1334:Drivers/STM32G4xx_HAL_Driver/Src/stm32g4xx_hal_cordic.c **** #endif /* USE_HAL_CORDIC_REGISTER_CALLBACKS */
1335:Drivers/STM32G4xx_HAL_Driver/Src/stm32g4xx_hal_cordic.c **** }
 1412              		.loc 1 1335 1 is_stmt 0 view .LVU509
 1413 0016 08BD     		pop	{r3, pc}
 1414              		.cfi_endproc
 1415              	.LFE347:
 1417              		.section	.text.HAL_CORDIC_CalculateCpltCallback,"ax",%progbits
 1418              		.align	1
 1419              		.p2align 2,,3
 1420              		.weak	HAL_CORDIC_CalculateCpltCallback
 1421              		.syntax unified
 1422              		.thumb
 1423              		.thumb_func
 1424              		.fpu fpv4-sp-d16
 1426              	HAL_CORDIC_CalculateCpltCallback:
 1427              	.LFB353:
 1428              		.cfi_startproc
 1429              		@ args = 0, pretend = 0, frame = 0
 1430              		@ frame_needed = 0, uses_anonymous_args = 0
 1431              		@ link register save eliminated.
 1432 0000 7047     		bx	lr
 1433              		.cfi_endproc
 1434              	.LFE353:
 1436 0002 00BF     		.section	.text.CORDIC_DMAInCplt,"ax",%progbits
 1437              		.align	1
 1438              		.p2align 2,,3
 1439              		.syntax unified
 1440              		.thumb
 1441              		.thumb_func
 1442              		.fpu fpv4-sp-d16
 1444              	CORDIC_DMAInCplt:
 1445              	.LVL121:
 1446              	.LFB345:
1258:Drivers/STM32G4xx_HAL_Driver/Src/stm32g4xx_hal_cordic.c ****   CORDIC_HandleTypeDef *hcordic = (CORDIC_HandleTypeDef *)((DMA_HandleTypeDef *)hdma)->Parent;
 1447              		.loc 1 1258 1 is_stmt 1 view -0
 1448              		.cfi_startproc
 1449              		@ args = 0, pretend = 0, frame = 0
 1450              		@ frame_needed = 0, uses_anonymous_args = 0
1259:Drivers/STM32G4xx_HAL_Driver/Src/stm32g4xx_hal_cordic.c **** 
 1451              		.loc 1 1259 3 view .LVU511
1259:Drivers/STM32G4xx_HAL_Driver/Src/stm32g4xx_hal_cordic.c **** 
 1452              		.loc 1 1259 25 is_stmt 0 view .LVU512
 1453 0000 806A     		ldr	r0, [r0, #40]
 1454              	.LVL122:
1262:Drivers/STM32G4xx_HAL_Driver/Src/stm32g4xx_hal_cordic.c **** 
 1455              		.loc 1 1262 3 is_stmt 1 view .LVU513
 1456 0002 0268     		ldr	r2, [r0]
ARM GAS  /tmp/ccR9GgNa.s 			page 57


1265:Drivers/STM32G4xx_HAL_Driver/Src/stm32g4xx_hal_cordic.c ****   {
 1457              		.loc 1 1265 6 is_stmt 0 view .LVU514
 1458 0004 4169     		ldr	r1, [r0, #20]
1258:Drivers/STM32G4xx_HAL_Driver/Src/stm32g4xx_hal_cordic.c ****   CORDIC_HandleTypeDef *hcordic = (CORDIC_HandleTypeDef *)((DMA_HandleTypeDef *)hdma)->Parent;
 1459              		.loc 1 1258 1 view .LVU515
 1460 0006 08B5     		push	{r3, lr}
 1461              	.LCFI13:
 1462              		.cfi_def_cfa_offset 8
 1463              		.cfi_offset 3, -8
 1464              		.cfi_offset 14, -4
1262:Drivers/STM32G4xx_HAL_Driver/Src/stm32g4xx_hal_cordic.c **** 
 1465              		.loc 1 1262 3 view .LVU516
 1466 0008 1368     		ldr	r3, [r2]
1265:Drivers/STM32G4xx_HAL_Driver/Src/stm32g4xx_hal_cordic.c ****   {
 1467              		.loc 1 1265 6 view .LVU517
 1468 000a 0129     		cmp	r1, #1
1262:Drivers/STM32G4xx_HAL_Driver/Src/stm32g4xx_hal_cordic.c **** 
 1469              		.loc 1 1262 3 view .LVU518
 1470 000c 23F48023 		bic	r3, r3, #262144
 1471 0010 1360     		str	r3, [r2]
1265:Drivers/STM32G4xx_HAL_Driver/Src/stm32g4xx_hal_cordic.c ****   {
 1472              		.loc 1 1265 3 is_stmt 1 view .LVU519
1265:Drivers/STM32G4xx_HAL_Driver/Src/stm32g4xx_hal_cordic.c ****   {
 1473              		.loc 1 1265 6 is_stmt 0 view .LVU520
 1474 0012 00D0     		beq	.L167
1282:Drivers/STM32G4xx_HAL_Driver/Src/stm32g4xx_hal_cordic.c **** 
 1475              		.loc 1 1282 1 view .LVU521
 1476 0014 08BD     		pop	{r3, pc}
 1477              	.L167:
1268:Drivers/STM32G4xx_HAL_Driver/Src/stm32g4xx_hal_cordic.c **** 
 1478              		.loc 1 1268 5 is_stmt 1 view .LVU522
1268:Drivers/STM32G4xx_HAL_Driver/Src/stm32g4xx_hal_cordic.c **** 
 1479              		.loc 1 1268 27 is_stmt 0 view .LVU523
 1480 0016 0023     		movs	r3, #0
1271:Drivers/STM32G4xx_HAL_Driver/Src/stm32g4xx_hal_cordic.c **** 
 1481              		.loc 1 1271 20 view .LVU524
 1482 0018 80F82110 		strb	r1, [r0, #33]
1268:Drivers/STM32G4xx_HAL_Driver/Src/stm32g4xx_hal_cordic.c **** 
 1483              		.loc 1 1268 27 view .LVU525
 1484 001c 4361     		str	r3, [r0, #20]
1271:Drivers/STM32G4xx_HAL_Driver/Src/stm32g4xx_hal_cordic.c **** 
 1485              		.loc 1 1271 5 is_stmt 1 view .LVU526
1279:Drivers/STM32G4xx_HAL_Driver/Src/stm32g4xx_hal_cordic.c **** #endif /* USE_HAL_CORDIC_REGISTER_CALLBACKS */
 1486              		.loc 1 1279 5 view .LVU527
 1487 001e FFF7FEFF 		bl	HAL_CORDIC_CalculateCpltCallback
 1488              	.LVL123:
1282:Drivers/STM32G4xx_HAL_Driver/Src/stm32g4xx_hal_cordic.c **** 
 1489              		.loc 1 1282 1 is_stmt 0 view .LVU528
 1490 0022 08BD     		pop	{r3, pc}
 1491              		.cfi_endproc
 1492              	.LFE345:
 1494              		.section	.text.CORDIC_DMAOutCplt,"ax",%progbits
 1495              		.align	1
 1496              		.p2align 2,,3
 1497              		.syntax unified
 1498              		.thumb
 1499              		.thumb_func
ARM GAS  /tmp/ccR9GgNa.s 			page 58


 1500              		.fpu fpv4-sp-d16
 1502              	CORDIC_DMAOutCplt:
 1503              	.LVL124:
 1504              	.LFB346:
1290:Drivers/STM32G4xx_HAL_Driver/Src/stm32g4xx_hal_cordic.c ****   CORDIC_HandleTypeDef *hcordic = (CORDIC_HandleTypeDef *)((DMA_HandleTypeDef *)hdma)->Parent;
 1505              		.loc 1 1290 1 is_stmt 1 view -0
 1506              		.cfi_startproc
 1507              		@ args = 0, pretend = 0, frame = 0
 1508              		@ frame_needed = 0, uses_anonymous_args = 0
1291:Drivers/STM32G4xx_HAL_Driver/Src/stm32g4xx_hal_cordic.c **** 
 1509              		.loc 1 1291 3 view .LVU530
1291:Drivers/STM32G4xx_HAL_Driver/Src/stm32g4xx_hal_cordic.c **** 
 1510              		.loc 1 1291 25 is_stmt 0 view .LVU531
 1511 0000 806A     		ldr	r0, [r0, #40]
 1512              	.LVL125:
1294:Drivers/STM32G4xx_HAL_Driver/Src/stm32g4xx_hal_cordic.c **** 
 1513              		.loc 1 1294 3 is_stmt 1 view .LVU532
 1514 0002 0268     		ldr	r2, [r0]
1290:Drivers/STM32G4xx_HAL_Driver/Src/stm32g4xx_hal_cordic.c ****   CORDIC_HandleTypeDef *hcordic = (CORDIC_HandleTypeDef *)((DMA_HandleTypeDef *)hdma)->Parent;
 1515              		.loc 1 1290 1 is_stmt 0 view .LVU533
 1516 0004 10B5     		push	{r4, lr}
 1517              	.LCFI14:
 1518              		.cfi_def_cfa_offset 8
 1519              		.cfi_offset 4, -8
 1520              		.cfi_offset 14, -4
1294:Drivers/STM32G4xx_HAL_Driver/Src/stm32g4xx_hal_cordic.c **** 
 1521              		.loc 1 1294 3 view .LVU534
 1522 0006 1368     		ldr	r3, [r2]
1297:Drivers/STM32G4xx_HAL_Driver/Src/stm32g4xx_hal_cordic.c **** 
 1523              		.loc 1 1297 25 view .LVU535
 1524 0008 0024     		movs	r4, #0
1300:Drivers/STM32G4xx_HAL_Driver/Src/stm32g4xx_hal_cordic.c **** 
 1525              		.loc 1 1300 18 view .LVU536
 1526 000a 0121     		movs	r1, #1
1294:Drivers/STM32G4xx_HAL_Driver/Src/stm32g4xx_hal_cordic.c **** 
 1527              		.loc 1 1294 3 view .LVU537
 1528 000c 23F40033 		bic	r3, r3, #131072
 1529 0010 1360     		str	r3, [r2]
1297:Drivers/STM32G4xx_HAL_Driver/Src/stm32g4xx_hal_cordic.c **** 
 1530              		.loc 1 1297 3 is_stmt 1 view .LVU538
1297:Drivers/STM32G4xx_HAL_Driver/Src/stm32g4xx_hal_cordic.c **** 
 1531              		.loc 1 1297 25 is_stmt 0 view .LVU539
 1532 0012 4461     		str	r4, [r0, #20]
1300:Drivers/STM32G4xx_HAL_Driver/Src/stm32g4xx_hal_cordic.c **** 
 1533              		.loc 1 1300 3 is_stmt 1 view .LVU540
1300:Drivers/STM32G4xx_HAL_Driver/Src/stm32g4xx_hal_cordic.c **** 
 1534              		.loc 1 1300 18 is_stmt 0 view .LVU541
 1535 0014 80F82110 		strb	r1, [r0, #33]
1308:Drivers/STM32G4xx_HAL_Driver/Src/stm32g4xx_hal_cordic.c **** #endif /* USE_HAL_CORDIC_REGISTER_CALLBACKS */
 1536              		.loc 1 1308 3 is_stmt 1 view .LVU542
 1537 0018 FFF7FEFF 		bl	HAL_CORDIC_CalculateCpltCallback
 1538              	.LVL126:
1310:Drivers/STM32G4xx_HAL_Driver/Src/stm32g4xx_hal_cordic.c **** 
 1539              		.loc 1 1310 1 is_stmt 0 view .LVU543
 1540 001c 10BD     		pop	{r4, pc}
 1541              		.cfi_endproc
 1542              	.LFE346:
ARM GAS  /tmp/ccR9GgNa.s 			page 59


 1544 001e 00BF     		.section	.text.HAL_CORDIC_IRQHandler,"ax",%progbits
 1545              		.align	1
 1546              		.p2align 2,,3
 1547              		.global	HAL_CORDIC_IRQHandler
 1548              		.syntax unified
 1549              		.thumb
 1550              		.thumb_func
 1551              		.fpu fpv4-sp-d16
 1553              	HAL_CORDIC_IRQHandler:
 1554              	.LVL127:
 1555              	.LFB340:
1099:Drivers/STM32G4xx_HAL_Driver/Src/stm32g4xx_hal_cordic.c ****   /* Check if calculation complete interrupt is enabled and if result ready
 1556              		.loc 1 1099 1 is_stmt 1 view -0
 1557              		.cfi_startproc
 1558              		@ args = 0, pretend = 0, frame = 0
 1559              		@ frame_needed = 0, uses_anonymous_args = 0
1102:Drivers/STM32G4xx_HAL_Driver/Src/stm32g4xx_hal_cordic.c ****   {
 1560              		.loc 1 1102 3 view .LVU545
1102:Drivers/STM32G4xx_HAL_Driver/Src/stm32g4xx_hal_cordic.c ****   {
 1561              		.loc 1 1102 7 is_stmt 0 view .LVU546
 1562 0000 0268     		ldr	r2, [r0]
1099:Drivers/STM32G4xx_HAL_Driver/Src/stm32g4xx_hal_cordic.c ****   /* Check if calculation complete interrupt is enabled and if result ready
 1563              		.loc 1 1099 1 view .LVU547
 1564 0002 38B5     		push	{r3, r4, r5, lr}
 1565              	.LCFI15:
 1566              		.cfi_def_cfa_offset 16
 1567              		.cfi_offset 3, -16
 1568              		.cfi_offset 4, -12
 1569              		.cfi_offset 5, -8
 1570              		.cfi_offset 14, -4
1102:Drivers/STM32G4xx_HAL_Driver/Src/stm32g4xx_hal_cordic.c ****   {
 1571              		.loc 1 1102 7 view .LVU548
 1572 0004 1368     		ldr	r3, [r2]
1102:Drivers/STM32G4xx_HAL_Driver/Src/stm32g4xx_hal_cordic.c ****   {
 1573              		.loc 1 1102 6 view .LVU549
 1574 0006 DC03     		lsls	r4, r3, #15
 1575 0008 02D5     		bpl	.L170
1104:Drivers/STM32G4xx_HAL_Driver/Src/stm32g4xx_hal_cordic.c ****     {
 1576              		.loc 1 1104 5 is_stmt 1 view .LVU550
1104:Drivers/STM32G4xx_HAL_Driver/Src/stm32g4xx_hal_cordic.c ****     {
 1577              		.loc 1 1104 9 is_stmt 0 view .LVU551
 1578 000a 1368     		ldr	r3, [r2]
1104:Drivers/STM32G4xx_HAL_Driver/Src/stm32g4xx_hal_cordic.c ****     {
 1579              		.loc 1 1104 58 view .LVU552
 1580 000c 002B     		cmp	r3, #0
 1581 000e 00DB     		blt	.L185
 1582              	.L170:
1143:Drivers/STM32G4xx_HAL_Driver/Src/stm32g4xx_hal_cordic.c **** 
 1583              		.loc 1 1143 1 view .LVU553
 1584 0010 38BD     		pop	{r3, r4, r5, pc}
 1585              	.L185:
1107:Drivers/STM32G4xx_HAL_Driver/Src/stm32g4xx_hal_cordic.c **** 
 1586              		.loc 1 1107 7 is_stmt 1 view .LVU554
 1587              	.LBB46:
 1588              	.LBB47:
1236:Drivers/STM32G4xx_HAL_Driver/Src/stm32g4xx_hal_cordic.c **** 
 1589              		.loc 1 1236 4 is_stmt 0 view .LVU555
ARM GAS  /tmp/ccR9GgNa.s 			page 60


 1590 0012 8468     		ldr	r4, [r0, #8]
 1591              	.LBE47:
 1592              	.LBE46:
1107:Drivers/STM32G4xx_HAL_Driver/Src/stm32g4xx_hal_cordic.c **** 
 1593              		.loc 1 1107 27 view .LVU556
 1594 0014 0169     		ldr	r1, [r0, #16]
 1595              	.LBB50:
 1596              	.LBB48:
1236:Drivers/STM32G4xx_HAL_Driver/Src/stm32g4xx_hal_cordic.c **** 
 1597              		.loc 1 1236 26 view .LVU557
 1598 0016 9568     		ldr	r5, [r2, #8]
1236:Drivers/STM32G4xx_HAL_Driver/Src/stm32g4xx_hal_cordic.c **** 
 1599              		.loc 1 1236 15 view .LVU558
 1600 0018 2346     		mov	r3, r4
 1601              	.LBE48:
 1602              	.LBE50:
1107:Drivers/STM32G4xx_HAL_Driver/Src/stm32g4xx_hal_cordic.c **** 
 1603              		.loc 1 1107 27 view .LVU559
 1604 001a 0139     		subs	r1, r1, #1
 1605 001c 0161     		str	r1, [r0, #16]
1110:Drivers/STM32G4xx_HAL_Driver/Src/stm32g4xx_hal_cordic.c **** 
 1606              		.loc 1 1110 7 is_stmt 1 view .LVU560
 1607              	.LVL128:
 1608              	.LBB51:
 1609              	.LBI46:
1233:Drivers/STM32G4xx_HAL_Driver/Src/stm32g4xx_hal_cordic.c **** {
 1610              		.loc 1 1233 13 view .LVU561
 1611              	.LBB49:
1236:Drivers/STM32G4xx_HAL_Driver/Src/stm32g4xx_hal_cordic.c **** 
 1612              		.loc 1 1236 3 view .LVU562
1236:Drivers/STM32G4xx_HAL_Driver/Src/stm32g4xx_hal_cordic.c **** 
 1613              		.loc 1 1236 15 is_stmt 0 view .LVU563
 1614 001e 43F8045B 		str	r5, [r3], #4
1239:Drivers/STM32G4xx_HAL_Driver/Src/stm32g4xx_hal_cordic.c **** 
 1615              		.loc 1 1239 3 is_stmt 1 view .LVU564
1242:Drivers/STM32G4xx_HAL_Driver/Src/stm32g4xx_hal_cordic.c ****   {
 1616              		.loc 1 1242 7 is_stmt 0 view .LVU565
 1617 0022 1168     		ldr	r1, [r2]
1239:Drivers/STM32G4xx_HAL_Driver/Src/stm32g4xx_hal_cordic.c **** 
 1618              		.loc 1 1239 15 view .LVU566
 1619 0024 8360     		str	r3, [r0, #8]
1242:Drivers/STM32G4xx_HAL_Driver/Src/stm32g4xx_hal_cordic.c ****   {
 1620              		.loc 1 1242 3 is_stmt 1 view .LVU567
1242:Drivers/STM32G4xx_HAL_Driver/Src/stm32g4xx_hal_cordic.c ****   {
 1621              		.loc 1 1242 6 is_stmt 0 view .LVU568
 1622 0026 0903     		lsls	r1, r1, #12
 1623 0028 03D5     		bpl	.L174
1245:Drivers/STM32G4xx_HAL_Driver/Src/stm32g4xx_hal_cordic.c **** 
 1624              		.loc 1 1245 5 is_stmt 1 view .LVU569
1245:Drivers/STM32G4xx_HAL_Driver/Src/stm32g4xx_hal_cordic.c **** 
 1625              		.loc 1 1245 28 is_stmt 0 view .LVU570
 1626 002a 9368     		ldr	r3, [r2, #8]
1245:Drivers/STM32G4xx_HAL_Driver/Src/stm32g4xx_hal_cordic.c **** 
 1627              		.loc 1 1245 17 view .LVU571
 1628 002c 6360     		str	r3, [r4, #4]
1248:Drivers/STM32G4xx_HAL_Driver/Src/stm32g4xx_hal_cordic.c ****   }
 1629              		.loc 1 1248 5 is_stmt 1 view .LVU572
ARM GAS  /tmp/ccR9GgNa.s 			page 61


1248:Drivers/STM32G4xx_HAL_Driver/Src/stm32g4xx_hal_cordic.c ****   }
 1630              		.loc 1 1248 17 is_stmt 0 view .LVU573
 1631 002e 0834     		adds	r4, r4, #8
 1632 0030 8460     		str	r4, [r0, #8]
 1633              	.L174:
 1634              	.LVL129:
1248:Drivers/STM32G4xx_HAL_Driver/Src/stm32g4xx_hal_cordic.c ****   }
 1635              		.loc 1 1248 17 view .LVU574
 1636              	.LBE49:
 1637              	.LBE51:
1113:Drivers/STM32G4xx_HAL_Driver/Src/stm32g4xx_hal_cordic.c ****       {
 1638              		.loc 1 1113 7 is_stmt 1 view .LVU575
1113:Drivers/STM32G4xx_HAL_Driver/Src/stm32g4xx_hal_cordic.c ****       {
 1639              		.loc 1 1113 18 is_stmt 0 view .LVU576
 1640 0032 C368     		ldr	r3, [r0, #12]
1113:Drivers/STM32G4xx_HAL_Driver/Src/stm32g4xx_hal_cordic.c ****       {
 1641              		.loc 1 1113 10 view .LVU577
 1642 0034 73B1     		cbz	r3, .L176
1116:Drivers/STM32G4xx_HAL_Driver/Src/stm32g4xx_hal_cordic.c **** 
 1643              		.loc 1 1116 9 is_stmt 1 view .LVU578
 1644              	.LBB52:
 1645              	.LBB53:
1210:Drivers/STM32G4xx_HAL_Driver/Src/stm32g4xx_hal_cordic.c **** 
 1646              		.loc 1 1210 3 is_stmt 0 view .LVU579
 1647 0036 4168     		ldr	r1, [r0, #4]
 1648              	.LBE53:
 1649              	.LBE52:
1116:Drivers/STM32G4xx_HAL_Driver/Src/stm32g4xx_hal_cordic.c **** 
 1650              		.loc 1 1116 31 view .LVU580
 1651 0038 013B     		subs	r3, r3, #1
 1652              	.LBB56:
 1653              	.LBB54:
1210:Drivers/STM32G4xx_HAL_Driver/Src/stm32g4xx_hal_cordic.c **** 
 1654              		.loc 1 1210 3 view .LVU581
 1655 003a 0C46     		mov	r4, r1
 1656              	.LBE54:
 1657              	.LBE56:
1116:Drivers/STM32G4xx_HAL_Driver/Src/stm32g4xx_hal_cordic.c **** 
 1658              		.loc 1 1116 31 view .LVU582
 1659 003c C360     		str	r3, [r0, #12]
1120:Drivers/STM32G4xx_HAL_Driver/Src/stm32g4xx_hal_cordic.c ****       }
 1660              		.loc 1 1120 9 is_stmt 1 view .LVU583
 1661              	.LVL130:
 1662              	.LBB57:
 1663              	.LBI52:
1207:Drivers/STM32G4xx_HAL_Driver/Src/stm32g4xx_hal_cordic.c **** {
 1664              		.loc 1 1207 13 view .LVU584
 1665              	.LBB55:
1210:Drivers/STM32G4xx_HAL_Driver/Src/stm32g4xx_hal_cordic.c **** 
 1666              		.loc 1 1210 3 view .LVU585
 1667 003e 54F8043B 		ldr	r3, [r4], #4
 1668 0042 5360     		str	r3, [r2, #4]
1213:Drivers/STM32G4xx_HAL_Driver/Src/stm32g4xx_hal_cordic.c **** 
 1669              		.loc 1 1213 3 view .LVU586
1216:Drivers/STM32G4xx_HAL_Driver/Src/stm32g4xx_hal_cordic.c ****   {
 1670              		.loc 1 1216 7 is_stmt 0 view .LVU587
 1671 0044 1368     		ldr	r3, [r2]
ARM GAS  /tmp/ccR9GgNa.s 			page 62


1213:Drivers/STM32G4xx_HAL_Driver/Src/stm32g4xx_hal_cordic.c **** 
 1672              		.loc 1 1213 14 view .LVU588
 1673 0046 4460     		str	r4, [r0, #4]
1216:Drivers/STM32G4xx_HAL_Driver/Src/stm32g4xx_hal_cordic.c ****   {
 1674              		.loc 1 1216 3 is_stmt 1 view .LVU589
1216:Drivers/STM32G4xx_HAL_Driver/Src/stm32g4xx_hal_cordic.c ****   {
 1675              		.loc 1 1216 6 is_stmt 0 view .LVU590
 1676 0048 DB02     		lsls	r3, r3, #11
 1677 004a 03D5     		bpl	.L176
1219:Drivers/STM32G4xx_HAL_Driver/Src/stm32g4xx_hal_cordic.c **** 
 1678              		.loc 1 1219 5 is_stmt 1 view .LVU591
 1679 004c 4B68     		ldr	r3, [r1, #4]
 1680 004e 5360     		str	r3, [r2, #4]
1222:Drivers/STM32G4xx_HAL_Driver/Src/stm32g4xx_hal_cordic.c ****   }
 1681              		.loc 1 1222 5 view .LVU592
1222:Drivers/STM32G4xx_HAL_Driver/Src/stm32g4xx_hal_cordic.c ****   }
 1682              		.loc 1 1222 16 is_stmt 0 view .LVU593
 1683 0050 0831     		adds	r1, r1, #8
 1684 0052 4160     		str	r1, [r0, #4]
 1685              	.LVL131:
 1686              	.L176:
1222:Drivers/STM32G4xx_HAL_Driver/Src/stm32g4xx_hal_cordic.c ****   }
 1687              		.loc 1 1222 16 view .LVU594
 1688              	.LBE55:
 1689              	.LBE57:
1124:Drivers/STM32G4xx_HAL_Driver/Src/stm32g4xx_hal_cordic.c ****       {
 1690              		.loc 1 1124 7 is_stmt 1 view .LVU595
1124:Drivers/STM32G4xx_HAL_Driver/Src/stm32g4xx_hal_cordic.c ****       {
 1691              		.loc 1 1124 10 is_stmt 0 view .LVU596
 1692 0054 0369     		ldr	r3, [r0, #16]
 1693 0056 002B     		cmp	r3, #0
 1694 0058 DAD1     		bne	.L170
1127:Drivers/STM32G4xx_HAL_Driver/Src/stm32g4xx_hal_cordic.c **** 
 1695              		.loc 1 1127 9 is_stmt 1 view .LVU597
 1696 005a 1368     		ldr	r3, [r2]
1130:Drivers/STM32G4xx_HAL_Driver/Src/stm32g4xx_hal_cordic.c **** 
 1697              		.loc 1 1130 24 is_stmt 0 view .LVU598
 1698 005c 0121     		movs	r1, #1
1127:Drivers/STM32G4xx_HAL_Driver/Src/stm32g4xx_hal_cordic.c **** 
 1699              		.loc 1 1127 9 view .LVU599
 1700 005e 23F48033 		bic	r3, r3, #65536
 1701 0062 1360     		str	r3, [r2]
1130:Drivers/STM32G4xx_HAL_Driver/Src/stm32g4xx_hal_cordic.c **** 
 1702              		.loc 1 1130 9 is_stmt 1 view .LVU600
1130:Drivers/STM32G4xx_HAL_Driver/Src/stm32g4xx_hal_cordic.c **** 
 1703              		.loc 1 1130 24 is_stmt 0 view .LVU601
 1704 0064 80F82110 		strb	r1, [r0, #33]
1138:Drivers/STM32G4xx_HAL_Driver/Src/stm32g4xx_hal_cordic.c **** #endif /* USE_HAL_CORDIC_REGISTER_CALLBACKS */
 1705              		.loc 1 1138 9 is_stmt 1 view .LVU602
 1706 0068 FFF7FEFF 		bl	HAL_CORDIC_CalculateCpltCallback
 1707              	.LVL132:
1143:Drivers/STM32G4xx_HAL_Driver/Src/stm32g4xx_hal_cordic.c **** 
 1708              		.loc 1 1143 1 is_stmt 0 view .LVU603
 1709 006c 38BD     		pop	{r3, r4, r5, pc}
 1710              		.cfi_endproc
 1711              	.LFE340:
 1713 006e 00BF     		.section	.text.HAL_CORDIC_GetState,"ax",%progbits
ARM GAS  /tmp/ccR9GgNa.s 			page 63


 1714              		.align	1
 1715              		.p2align 2,,3
 1716              		.global	HAL_CORDIC_GetState
 1717              		.syntax unified
 1718              		.thumb
 1719              		.thumb_func
 1720              		.fpu fpv4-sp-d16
 1722              	HAL_CORDIC_GetState:
 1723              	.LVL133:
 1724              	.LFB341:
1170:Drivers/STM32G4xx_HAL_Driver/Src/stm32g4xx_hal_cordic.c ****   /* Return CORDIC handle state */
 1725              		.loc 1 1170 1 is_stmt 1 view -0
 1726              		.cfi_startproc
 1727              		@ args = 0, pretend = 0, frame = 0
 1728              		@ frame_needed = 0, uses_anonymous_args = 0
 1729              		@ link register save eliminated.
1172:Drivers/STM32G4xx_HAL_Driver/Src/stm32g4xx_hal_cordic.c **** }
 1730              		.loc 1 1172 3 view .LVU605
1172:Drivers/STM32G4xx_HAL_Driver/Src/stm32g4xx_hal_cordic.c **** }
 1731              		.loc 1 1172 17 is_stmt 0 view .LVU606
 1732 0000 90F82100 		ldrb	r0, [r0, #33]	@ zero_extendqisi2
 1733              	.LVL134:
1173:Drivers/STM32G4xx_HAL_Driver/Src/stm32g4xx_hal_cordic.c **** 
 1734              		.loc 1 1173 1 view .LVU607
 1735 0004 7047     		bx	lr
 1736              		.cfi_endproc
 1737              	.LFE341:
 1739 0006 00BF     		.section	.text.HAL_CORDIC_GetError,"ax",%progbits
 1740              		.align	1
 1741              		.p2align 2,,3
 1742              		.global	HAL_CORDIC_GetError
 1743              		.syntax unified
 1744              		.thumb
 1745              		.thumb_func
 1746              		.fpu fpv4-sp-d16
 1748              	HAL_CORDIC_GetError:
 1749              	.LVL135:
 1750              	.LFB342:
1183:Drivers/STM32G4xx_HAL_Driver/Src/stm32g4xx_hal_cordic.c ****   /* Return CORDIC error code */
 1751              		.loc 1 1183 1 is_stmt 1 view -0
 1752              		.cfi_startproc
 1753              		@ args = 0, pretend = 0, frame = 0
 1754              		@ frame_needed = 0, uses_anonymous_args = 0
 1755              		@ link register save eliminated.
1185:Drivers/STM32G4xx_HAL_Driver/Src/stm32g4xx_hal_cordic.c **** }
 1756              		.loc 1 1185 3 view .LVU609
1185:Drivers/STM32G4xx_HAL_Driver/Src/stm32g4xx_hal_cordic.c **** }
 1757              		.loc 1 1185 17 is_stmt 0 view .LVU610
 1758 0000 406A     		ldr	r0, [r0, #36]
 1759              	.LVL136:
1186:Drivers/STM32G4xx_HAL_Driver/Src/stm32g4xx_hal_cordic.c **** 
 1760              		.loc 1 1186 1 view .LVU611
 1761 0002 7047     		bx	lr
 1762              		.cfi_endproc
 1763              	.LFE342:
 1765              		.text
 1766              	.Letext0:
ARM GAS  /tmp/ccR9GgNa.s 			page 64


 1767              		.file 2 "/usr/lib/gcc/arm-none-eabi/9.2.1/include/stdint.h"
 1768              		.file 3 "Drivers/CMSIS/Include/core_cm4.h"
 1769              		.file 4 "Drivers/CMSIS/Device/ST/STM32G4xx/Include/system_stm32g4xx.h"
 1770              		.file 5 "Drivers/CMSIS/Device/ST/STM32G4xx/Include/stm32g474xx.h"
 1771              		.file 6 "Drivers/STM32G4xx_HAL_Driver/Inc/stm32g4xx_hal_def.h"
 1772              		.file 7 "Drivers/STM32G4xx_HAL_Driver/Inc/stm32g4xx_hal_dma.h"
 1773              		.file 8 "Drivers/STM32G4xx_HAL_Driver/Inc/stm32g4xx_hal_cordic.h"
 1774              		.file 9 "Drivers/STM32G4xx_HAL_Driver/Inc/stm32g4xx_hal_flash.h"
 1775              		.file 10 "Drivers/STM32G4xx_HAL_Driver/Inc/stm32g4xx_hal_uart.h"
 1776              		.file 11 "Drivers/STM32G4xx_HAL_Driver/Inc/stm32g4xx_hal.h"
ARM GAS  /tmp/ccR9GgNa.s 			page 65

